ARM GAS  /tmp/ccmD57MJ.s 			page 1


   1              		.syntax unified
   2              		.cpu cortex-m3
   3              		.fpu softvfp
   4              		.eabi_attribute 20, 1
   5              		.eabi_attribute 21, 1
   6              		.eabi_attribute 23, 3
   7              		.eabi_attribute 24, 1
   8              		.eabi_attribute 25, 1
   9              		.eabi_attribute 26, 1
  10              		.eabi_attribute 30, 2
  11              		.eabi_attribute 34, 1
  12              		.eabi_attribute 18, 4
  13              		.thumb
  14              		.file	"adc.c"
  15              		.text
  16              	.Ltext0:
  17              		.cfi_sections	.debug_frame
  18              		.section	.text.adcInit,"ax",%progbits
  19              		.align	2
  20              		.p2align 4,,15
  21              		.global	adcInit
  22              		.thumb
  23              		.thumb_func
  24              		.type	adcInit, %function
  25              	adcInit:
  26              	.LFB63:
  27              		.file 1 "../ChibiOS_2.6.2/os/hal/src/adc.c"
  28              		.loc 1 68 0
  29              		.cfi_startproc
  30              		@ args = 0, pretend = 0, frame = 0
  31              		@ frame_needed = 0, uses_anonymous_args = 0
  32              		@ link register save eliminated.
  33              		.loc 1 71 0
  34              		.loc 1 70 0
  35 0000 FFF7FEBF 		b	adc_lld_init
  36              		.cfi_endproc
  37              	.LFE63:
  38              		.size	adcInit, .-adcInit
  39 0004 AFF30080 		.section	.text.adcObjectInit,"ax",%progbits
  39      AFF30080 
  39      AFF30080 
  40              		.align	2
  41              		.p2align 4,,15
  42              		.global	adcObjectInit
  43              		.thumb
  44              		.thumb_func
  45              		.type	adcObjectInit, %function
  46              	adcObjectInit:
  47              	.LFB64:
  48              		.loc 1 80 0
  49              		.cfi_startproc
  50              		@ args = 0, pretend = 0, frame = 0
  51              		@ frame_needed = 0, uses_anonymous_args = 0
  52              		@ link register save eliminated.
  53              	.LVL0:
  54              		.loc 1 83 0
  55 0000 0023     		movs	r3, #0
ARM GAS  /tmp/ccmD57MJ.s 			page 2


  56              		.loc 1 82 0
  57 0002 0122     		movs	r2, #1
  58 0004 0270     		strb	r2, [r0, #0]
  59              		.loc 1 83 0
  60 0006 4360     		str	r3, [r0, #4]
  61              		.loc 1 84 0
  62 0008 8360     		str	r3, [r0, #8]
  63              		.loc 1 85 0
  64 000a C360     		str	r3, [r0, #12]
  65              		.loc 1 86 0
  66 000c 0361     		str	r3, [r0, #16]
  67              		.loc 1 88 0
  68 000e 4361     		str	r3, [r0, #20]
  69              		.loc 1 92 0
  70 0010 1830     		adds	r0, r0, #24
  71              	.LVL1:
  72              		.loc 1 100 0
  73              		.loc 1 92 0
  74 0012 FFF7FEBF 		b	chMtxInit
  75              	.LVL2:
  76              		.cfi_endproc
  77              	.LFE64:
  78              		.size	adcObjectInit, .-adcObjectInit
  79 0016 00BFAFF3 		.section	.text.adcStart,"ax",%progbits
  79      0080AFF3 
  79      0080
  80              		.align	2
  81              		.p2align 4,,15
  82              		.global	adcStart
  83              		.thumb
  84              		.thumb_func
  85              		.type	adcStart, %function
  86              	adcStart:
  87              	.LFB65:
  88              		.loc 1 111 0
  89              		.cfi_startproc
  90              		@ args = 0, pretend = 0, frame = 0
  91              		@ frame_needed = 0, uses_anonymous_args = 0
  92              	.LVL3:
  93 0000 10B5     		push	{r4, lr}
  94              	.LCFI0:
  95              		.cfi_def_cfa_offset 8
  96              		.cfi_offset 14, -4
  97              		.cfi_offset 4, -8
  98              	.LBB10:
  99              		.loc 1 115 0
 100 0002 2023     		movs	r3, #32
 101              	.LVL4:
 102              	.LBE10:
 103              		.loc 1 111 0
 104 0004 0446     		mov	r4, r0
 105              	.LBB11:
 106              		.loc 1 115 0
 107              	@ 115 "../ChibiOS_2.6.2/os/hal/src/adc.c" 1
 108 0006 83F31188 		msr     BASEPRI, r3
 109              	@ 0 "" 2
 110              	.LVL5:
ARM GAS  /tmp/ccmD57MJ.s 			page 3


 111              		.thumb
 112              	.LBE11:
 113              		.loc 1 118 0
 114 000a 4160     		str	r1, [r0, #4]
 115              		.loc 1 119 0
 116 000c FFF7FEFF 		bl	adc_lld_start
 117              	.LVL6:
 118              		.loc 1 120 0
 119 0010 0223     		movs	r3, #2
 120 0012 2370     		strb	r3, [r4, #0]
 121              	.LBB12:
 122              		.loc 1 121 0
 123 0014 0023     		movs	r3, #0
 124              	.LVL7:
 125              	@ 121 "../ChibiOS_2.6.2/os/hal/src/adc.c" 1
 126 0016 83F31188 		msr     BASEPRI, r3
 127              	@ 0 "" 2
 128              	.LVL8:
 129              		.thumb
 130              	.LBE12:
 131              		.loc 1 122 0
 132 001a 10BD     		pop	{r4, pc}
 133              		.cfi_endproc
 134              	.LFE65:
 135              		.size	adcStart, .-adcStart
 136 001c AFF30080 		.section	.text.adcStop,"ax",%progbits
 137              		.align	2
 138              		.p2align 4,,15
 139              		.global	adcStop
 140              		.thumb
 141              		.thumb_func
 142              		.type	adcStop, %function
 143              	adcStop:
 144              	.LFB66:
 145              		.loc 1 131 0
 146              		.cfi_startproc
 147              		@ args = 0, pretend = 0, frame = 0
 148              		@ frame_needed = 0, uses_anonymous_args = 0
 149              	.LVL9:
 150 0000 10B5     		push	{r4, lr}
 151              	.LCFI1:
 152              		.cfi_def_cfa_offset 8
 153              		.cfi_offset 14, -4
 154              		.cfi_offset 4, -8
 155              	.LBB13:
 156              		.loc 1 135 0
 157 0002 2023     		movs	r3, #32
 158              	.LVL10:
 159              	.LBE13:
 160              		.loc 1 131 0
 161 0004 0446     		mov	r4, r0
 162              	.LBB14:
 163              		.loc 1 135 0
 164              	@ 135 "../ChibiOS_2.6.2/os/hal/src/adc.c" 1
 165 0006 83F31188 		msr     BASEPRI, r3
 166              	@ 0 "" 2
 167              	.LVL11:
ARM GAS  /tmp/ccmD57MJ.s 			page 4


 168              		.thumb
 169              	.LBE14:
 170              		.loc 1 138 0
 171 000a FFF7FEFF 		bl	adc_lld_stop
 172              	.LVL12:
 173              		.loc 1 139 0
 174 000e 0123     		movs	r3, #1
 175 0010 2370     		strb	r3, [r4, #0]
 176              	.LBB15:
 177              		.loc 1 140 0
 178 0012 0023     		movs	r3, #0
 179              	.LVL13:
 180              	@ 140 "../ChibiOS_2.6.2/os/hal/src/adc.c" 1
 181 0014 83F31188 		msr     BASEPRI, r3
 182              	@ 0 "" 2
 183              	.LVL14:
 184              		.thumb
 185              	.LBE15:
 186              		.loc 1 141 0
 187 0018 10BD     		pop	{r4, pc}
 188              		.cfi_endproc
 189              	.LFE66:
 190              		.size	adcStop, .-adcStop
 191 001a 00BFAFF3 		.section	.text.adcStartConversion,"ax",%progbits
 191      0080
 192              		.align	2
 193              		.p2align 4,,15
 194              		.global	adcStartConversion
 195              		.thumb
 196              		.thumb_func
 197              		.type	adcStartConversion, %function
 198              	adcStartConversion:
 199              	.LFB67:
 200              		.loc 1 162 0
 201              		.cfi_startproc
 202              		@ args = 0, pretend = 0, frame = 0
 203              		@ frame_needed = 0, uses_anonymous_args = 0
 204              	.LVL15:
 205 0000 38B5     		push	{r3, r4, r5, lr}
 206              	.LCFI2:
 207              		.cfi_def_cfa_offset 16
 208              		.cfi_offset 14, -4
 209              		.cfi_offset 5, -8
 210              		.cfi_offset 4, -12
 211              		.cfi_offset 3, -16
 212              		.loc 1 162 0
 213 0002 1D46     		mov	r5, r3
 214              	.LBB16:
 215              		.loc 1 164 0
 216 0004 2023     		movs	r3, #32
 217              	.LVL16:
 218              	@ 164 "../ChibiOS_2.6.2/os/hal/src/adc.c" 1
 219 0006 83F31188 		msr     BASEPRI, r3
 220              	@ 0 "" 2
 221              	.LVL17:
 222              		.thumb
 223              	.LBE16:
ARM GAS  /tmp/ccmD57MJ.s 			page 5


 224              	.LBB17:
 225              	.LBB18:
 226              		.loc 1 204 0
 227 000a 0323     		movs	r3, #3
 228              	.LVL18:
 229 000c 0370     		strb	r3, [r0, #0]
 230              		.loc 1 201 0
 231 000e 8260     		str	r2, [r0, #8]
 232              		.loc 1 202 0
 233 0010 C560     		str	r5, [r0, #12]
 234              		.loc 1 203 0
 235 0012 0161     		str	r1, [r0, #16]
 236              		.loc 1 205 0
 237 0014 FFF7FEFF 		bl	adc_lld_start_conversion
 238              	.LVL19:
 239              	.LBE18:
 240              	.LBE17:
 241              	.LBB19:
 242              		.loc 1 166 0
 243 0018 0023     		movs	r3, #0
 244              	.LVL20:
 245              	@ 166 "../ChibiOS_2.6.2/os/hal/src/adc.c" 1
 246 001a 83F31188 		msr     BASEPRI, r3
 247              	@ 0 "" 2
 248              	.LVL21:
 249              		.thumb
 250              	.LBE19:
 251              		.loc 1 167 0
 252 001e 38BD     		pop	{r3, r4, r5, pc}
 253              		.cfi_endproc
 254              	.LFE67:
 255              		.size	adcStartConversion, .-adcStartConversion
 256              		.section	.text.adcStartConversionI,"ax",%progbits
 257              		.align	2
 258              		.p2align 4,,15
 259              		.global	adcStartConversionI
 260              		.thumb
 261              		.thumb_func
 262              		.type	adcStartConversionI, %function
 263              	adcStartConversionI:
 264              	.LFB68:
 265              		.loc 1 190 0
 266              		.cfi_startproc
 267              		@ args = 0, pretend = 0, frame = 0
 268              		@ frame_needed = 0, uses_anonymous_args = 0
 269              		@ link register save eliminated.
 270              	.LVL22:
 271 0000 10B4     		push	{r4}
 272              	.LCFI3:
 273              		.cfi_def_cfa_offset 4
 274              		.cfi_offset 4, -4
 275              		.loc 1 202 0
 276 0002 C360     		str	r3, [r0, #12]
 277              		.loc 1 204 0
 278 0004 0323     		movs	r3, #3
 279              	.LVL23:
 280              		.loc 1 201 0
ARM GAS  /tmp/ccmD57MJ.s 			page 6


 281 0006 8260     		str	r2, [r0, #8]
 282              		.loc 1 203 0
 283 0008 0161     		str	r1, [r0, #16]
 284              		.loc 1 204 0
 285 000a 0370     		strb	r3, [r0, #0]
 286              		.loc 1 206 0
 287 000c 10BC     		pop	{r4}
 288              		.loc 1 205 0
 289 000e FFF7FEBF 		b	adc_lld_start_conversion
 290              	.LVL24:
 291              	.LVL25:
 292              	.LVL26:
 293              	.LVL27:
 294              		.cfi_endproc
 295              	.LFE68:
 296              		.size	adcStartConversionI, .-adcStartConversionI
 297 0012 00BFAFF3 		.section	.text.adcStopConversion,"ax",%progbits
 297      0080AFF3 
 297      0080AFF3 
 297      0080
 298              		.align	2
 299              		.p2align 4,,15
 300              		.global	adcStopConversion
 301              		.thumb
 302              		.thumb_func
 303              		.type	adcStopConversion, %function
 304              	adcStopConversion:
 305              	.LFB69:
 306              		.loc 1 218 0
 307              		.cfi_startproc
 308              		@ args = 0, pretend = 0, frame = 0
 309              		@ frame_needed = 0, uses_anonymous_args = 0
 310              	.LVL28:
 311 0000 10B5     		push	{r4, lr}
 312              	.LCFI4:
 313              		.cfi_def_cfa_offset 8
 314              		.cfi_offset 14, -4
 315              		.cfi_offset 4, -8
 316              	.LBB20:
 317              		.loc 1 222 0
 318 0002 2023     		movs	r3, #32
 319              	.LVL29:
 320              	.LBE20:
 321              		.loc 1 218 0
 322 0004 0446     		mov	r4, r0
 323              	.LBB21:
 324              		.loc 1 222 0
 325              	@ 222 "../ChibiOS_2.6.2/os/hal/src/adc.c" 1
 326 0006 83F31188 		msr     BASEPRI, r3
 327              	@ 0 "" 2
 328              	.LVL30:
 329              		.thumb
 330              	.LBE21:
 331              		.loc 1 226 0
 332 000a 0378     		ldrb	r3, [r0, #0]	@ zero_extendqisi2
 333              	.LVL31:
 334 000c 022B     		cmp	r3, #2
ARM GAS  /tmp/ccmD57MJ.s 			page 7


 335 000e 0CD0     		beq	.L8
 336              		.loc 1 227 0
 337 0010 FFF7FEFF 		bl	adc_lld_stop_conversion
 338              	.LVL32:
 339              		.loc 1 230 0
 340 0014 6069     		ldr	r0, [r4, #20]
 341              		.loc 1 228 0
 342 0016 0023     		movs	r3, #0
 343              		.loc 1 229 0
 344 0018 0222     		movs	r2, #2
 345              		.loc 1 228 0
 346 001a 2361     		str	r3, [r4, #16]
 347              		.loc 1 229 0
 348 001c 2270     		strb	r2, [r4, #0]
 349              		.loc 1 230 0
 350 001e 20B1     		cbz	r0, .L8
 351              	.LVL33:
 352              	.LBB22:
 353              		.loc 1 230 0 is_stmt 0 discriminator 1
 354 0020 6361     		str	r3, [r4, #20]
 355 0022 6FF00101 		mvn	r1, #1
 356 0026 FFF7FEFF 		bl	chSchWakeupS
 357              	.LVL34:
 358              	.L8:
 359              	.LBE22:
 360              	.LBB23:
 361              		.loc 1 232 0 is_stmt 1
 362 002a 0023     		movs	r3, #0
 363              	.LVL35:
 364              	@ 232 "../ChibiOS_2.6.2/os/hal/src/adc.c" 1
 365 002c 83F31188 		msr     BASEPRI, r3
 366              	@ 0 "" 2
 367              	.LVL36:
 368              		.thumb
 369              	.LBE23:
 370              		.loc 1 233 0
 371 0030 10BD     		pop	{r4, pc}
 372              		.cfi_endproc
 373              	.LFE69:
 374              		.size	adcStopConversion, .-adcStopConversion
 375 0032 00BFAFF3 		.section	.text.adcStopConversionI,"ax",%progbits
 375      0080AFF3 
 375      0080AFF3 
 375      0080
 376              		.align	2
 377              		.p2align 4,,15
 378              		.global	adcStopConversionI
 379              		.thumb
 380              		.thumb_func
 381              		.type	adcStopConversionI, %function
 382              	adcStopConversionI:
 383              	.LFB70:
 384              		.loc 1 245 0
 385              		.cfi_startproc
 386              		@ args = 0, pretend = 0, frame = 0
 387              		@ frame_needed = 0, uses_anonymous_args = 0
 388              	.LVL37:
ARM GAS  /tmp/ccmD57MJ.s 			page 8


 389              		.loc 1 254 0
 390 0000 0378     		ldrb	r3, [r0, #0]	@ zero_extendqisi2
 391              		.loc 1 245 0
 392 0002 10B5     		push	{r4, lr}
 393              	.LCFI5:
 394              		.cfi_def_cfa_offset 8
 395              		.cfi_offset 14, -4
 396              		.cfi_offset 4, -8
 397              		.loc 1 254 0
 398 0004 022B     		cmp	r3, #2
 399              		.loc 1 245 0
 400 0006 0446     		mov	r4, r0
 401              		.loc 1 254 0
 402 0008 10D0     		beq	.L10
 403              		.loc 1 255 0
 404 000a FFF7FEFF 		bl	adc_lld_stop_conversion
 405              	.LVL38:
 406              		.loc 1 258 0
 407 000e 6369     		ldr	r3, [r4, #20]
 408              		.loc 1 256 0
 409 0010 0022     		movs	r2, #0
 410              		.loc 1 257 0
 411 0012 0221     		movs	r1, #2
 412              		.loc 1 256 0
 413 0014 2261     		str	r2, [r4, #16]
 414              		.loc 1 257 0
 415 0016 2170     		strb	r1, [r4, #0]
 416              		.loc 1 258 0
 417 0018 43B1     		cbz	r3, .L10
 418              	.LVL39:
 419              	.LBB24:
 420              		.loc 1 258 0 is_stmt 0 discriminator 1
 421 001a 6261     		str	r2, [r4, #20]
 422 001c 1846     		mov	r0, r3
 423 001e 6FF00102 		mvn	r2, #1
 424 0022 5A62     		str	r2, [r3, #36]
 425              	.LBE24:
 426              		.loc 1 260 0 is_stmt 1 discriminator 1
 427 0024 BDE81040 		pop	{r4, lr}
 428              	.LBB25:
 429              		.loc 1 258 0 discriminator 1
 430 0028 FFF7FEBF 		b	chSchReadyI
 431              	.LVL40:
 432              	.L10:
 433 002c 10BD     		pop	{r4, pc}
 434              	.LBE25:
 435              		.cfi_endproc
 436              	.LFE70:
 437              		.size	adcStopConversionI, .-adcStopConversionI
 438 002e 00BF     		.section	.text.adcConvert,"ax",%progbits
 439              		.align	2
 440              		.p2align 4,,15
 441              		.global	adcConvert
 442              		.thumb
 443              		.thumb_func
 444              		.type	adcConvert, %function
 445              	adcConvert:
ARM GAS  /tmp/ccmD57MJ.s 			page 9


 446              	.LFB71:
 447              		.loc 1 289 0
 448              		.cfi_startproc
 449              		@ args = 0, pretend = 0, frame = 0
 450              		@ frame_needed = 0, uses_anonymous_args = 0
 451              	.LVL41:
 452 0000 70B5     		push	{r4, r5, r6, lr}
 453              	.LCFI6:
 454              		.cfi_def_cfa_offset 16
 455              		.cfi_offset 14, -4
 456              		.cfi_offset 6, -8
 457              		.cfi_offset 5, -12
 458              		.cfi_offset 4, -16
 459              		.loc 1 289 0
 460 0002 1D46     		mov	r5, r3
 461 0004 0446     		mov	r4, r0
 462              	.LBB26:
 463              		.loc 1 292 0
 464 0006 2023     		movs	r3, #32
 465              	.LVL42:
 466              	@ 292 "../ChibiOS_2.6.2/os/hal/src/adc.c" 1
 467 0008 83F31188 		msr     BASEPRI, r3
 468              	@ 0 "" 2
 469              	.LVL43:
 470              		.thumb
 471              	.LBE26:
 472              		.loc 1 295 0
 473 000c 40F20006 		movw	r6, #:lower16:rlist
 474              	.LBB27:
 475              	.LBB28:
 476              		.loc 1 203 0
 477 0010 0161     		str	r1, [r0, #16]
 478              		.loc 1 204 0
 479 0012 0321     		movs	r1, #3
 480              	.LVL44:
 481              		.loc 1 201 0
 482 0014 8260     		str	r2, [r0, #8]
 483              		.loc 1 204 0
 484 0016 0170     		strb	r1, [r0, #0]
 485              	.LBE28:
 486              	.LBE27:
 487              		.loc 1 295 0
 488 0018 C0F20006 		movt	r6, #:upper16:rlist
 489              	.LBB30:
 490              	.LBB29:
 491              		.loc 1 202 0
 492 001c C560     		str	r5, [r0, #12]
 493              		.loc 1 205 0
 494 001e FFF7FEFF 		bl	adc_lld_start_conversion
 495              	.LVL45:
 496              	.LBE29:
 497              	.LBE30:
 498              		.loc 1 295 0
 499 0022 B369     		ldr	r3, [r6, #24]
 500              		.loc 1 296 0
 501 0024 0220     		movs	r0, #2
 502              		.loc 1 295 0
ARM GAS  /tmp/ccmD57MJ.s 			page 10


 503 0026 6361     		str	r3, [r4, #20]
 504              		.loc 1 296 0
 505 0028 FFF7FEFF 		bl	chSchGoSleepS
 506              		.loc 1 297 0
 507 002c B269     		ldr	r2, [r6, #24]
 508              	.LBB31:
 509              		.loc 1 298 0
 510 002e 0023     		movs	r3, #0
 511              	.LVL46:
 512              	.LBE31:
 513              		.loc 1 297 0
 514 0030 506A     		ldr	r0, [r2, #36]
 515              	.LVL47:
 516              	.LBB32:
 517              		.loc 1 298 0
 518              	@ 298 "../ChibiOS_2.6.2/os/hal/src/adc.c" 1
 519 0032 83F31188 		msr     BASEPRI, r3
 520              	@ 0 "" 2
 521              	.LVL48:
 522              		.thumb
 523              	.LBE32:
 524              		.loc 1 300 0
 525 0036 70BD     		pop	{r4, r5, r6, pc}
 526              		.cfi_endproc
 527              	.LFE71:
 528              		.size	adcConvert, .-adcConvert
 529 0038 AFF30080 		.section	.text.adcAcquireBus,"ax",%progbits
 529      AFF30080 
 530              		.align	2
 531              		.p2align 4,,15
 532              		.global	adcAcquireBus
 533              		.thumb
 534              		.thumb_func
 535              		.type	adcAcquireBus, %function
 536              	adcAcquireBus:
 537              	.LFB72:
 538              		.loc 1 315 0
 539              		.cfi_startproc
 540              		@ args = 0, pretend = 0, frame = 0
 541              		@ frame_needed = 0, uses_anonymous_args = 0
 542              		@ link register save eliminated.
 543              	.LVL49:
 544              		.loc 1 320 0
 545 0000 1830     		adds	r0, r0, #24
 546              	.LVL50:
 547              		.loc 1 324 0
 548              		.loc 1 320 0
 549 0002 FFF7FEBF 		b	chMtxLock
 550              	.LVL51:
 551              		.cfi_endproc
 552              	.LFE72:
 553              		.size	adcAcquireBus, .-adcAcquireBus
 554 0006 00BFAFF3 		.section	.text.adcReleaseBus,"ax",%progbits
 554      0080AFF3 
 554      0080
 555              		.align	2
 556              		.p2align 4,,15
ARM GAS  /tmp/ccmD57MJ.s 			page 11


 557              		.global	adcReleaseBus
 558              		.thumb
 559              		.thumb_func
 560              		.type	adcReleaseBus, %function
 561              	adcReleaseBus:
 562              	.LFB73:
 563              		.loc 1 335 0
 564              		.cfi_startproc
 565              		@ args = 0, pretend = 0, frame = 0
 566              		@ frame_needed = 0, uses_anonymous_args = 0
 567              		@ link register save eliminated.
 568              	.LVL52:
 569              		.loc 1 345 0
 570              		.loc 1 341 0
 571 0000 FFF7FEBF 		b	chMtxUnlock
 572              	.LVL53:
 573              		.cfi_endproc
 574              	.LFE73:
 575              		.size	adcReleaseBus, .-adcReleaseBus
 576 0004 AFF30080 		.text
 576      AFF30080 
 576      AFF30080 
 577              	.Letext0:
 578              		.file 2 "/opt/pros/toolchain/bin/../lib/gcc/arm-none-eabi/4.6.3/include/stddef.h"
 579              		.file 3 "/opt/pros/toolchain/bin/../lib/gcc/arm-none-eabi/4.6.3/../../../../arm-none-eabi/include/
 580              		.file 4 "../ChibiOS_2.6.2/os/ports/GCC/ARMCMx/chtypes.h"
 581              		.file 5 "../ChibiOS_2.6.2/os/kernel/include/chlists.h"
 582              		.file 6 "../ChibiOS_2.6.2/os/kernel/include/chthreads.h"
 583              		.file 7 "../ChibiOS_2.6.2/os/ports/GCC/ARMCMx/chcore_v7m.h"
 584              		.file 8 "../ChibiOS_2.6.2/os/kernel/include/chschd.h"
 585              		.file 9 "../ChibiOS_2.6.2/os/kernel/include/chmtx.h"
 586              		.file 10 "../ChibiOS_2.6.2/os/hal/platforms/STM32F1xx/stm32f10x.h"
 587              		.file 11 "../ChibiOS_2.6.2/os/hal/platforms/STM32F1xx/stm32_dma.h"
 588              		.file 12 "../ChibiOS_2.6.2/os/hal/include/adc.h"
 589              		.file 13 "../ChibiOS_2.6.2/os/hal/platforms/STM32F1xx/adc_lld.h"
 590              		.file 14 "../ChibiOS_2.6.2/os/ports/common/ARMCMx/CMSIS/include/core_cm3.h"