ARM GAS  /tmp/cc3rdzJM.s 			page 1


   1              		.syntax unified
   2              		.cpu cortex-m3
   3              		.fpu softvfp
   4              		.eabi_attribute 20, 1
   5              		.eabi_attribute 21, 1
   6              		.eabi_attribute 23, 3
   7              		.eabi_attribute 24, 1
   8              		.eabi_attribute 25, 1
   9              		.eabi_attribute 26, 1
  10              		.eabi_attribute 30, 2
  11              		.eabi_attribute 34, 1
  12              		.eabi_attribute 18, 4
  13              		.thumb
  14              		.file	"apollo.c"
  15              		.text
  16              	.Ltext0:
  17              		.cfi_sections	.debug_frame
  18              		.section	.text.apolloPut,"ax",%progbits
  19              		.align	2
  20              		.p2align 4,,15
  21              		.thumb
  22              		.thumb_func
  23              		.type	apolloPut, %function
  24              	apolloPut:
  25              	.LFB64:
  26              		.file 1 "../convex/cortex/opt/apollo.c"
  27              		.loc 1 83 0
  28              		.cfi_startproc
  29              		@ args = 0, pretend = 0, frame = 0
  30              		@ frame_needed = 0, uses_anonymous_args = 0
  31              	.LVL0:
  32 0000 08B5     		push	{r3, lr}
  33              	.LCFI0:
  34              		.cfi_def_cfa_offset 8
  35              		.cfi_offset 14, -4
  36              		.cfi_offset 3, -8
  37              		.loc 1 83 0
  38 0002 0146     		mov	r1, r0
  39              		.loc 1 87 0
  40 0004 4FF0FF32 		mov	r2, #-1
  41 0008 0948     		ldr	r0, .L5
  42              	.LVL1:
  43 000a FFF7FEFF 		bl	chOQPutTimeout
  44              		.loc 1 90 0
  45 000e 40F20003 		movw	r3, #:lower16:.LANCHOR0
  46 0012 C0F20003 		movt	r3, #:upper16:.LANCHOR0
  47 0016 1868     		ldr	r0, [r3, #0]
  48 0018 421C     		adds	r2, r0, #1
  49 001a 202A     		cmp	r2, #32
  50 001c 1A60     		str	r2, [r3, #0]
  51 001e 00D0     		beq	.L4
  52 0020 08BD     		pop	{r3, pc}
  53              	.L4:
  54              	.LBB18:
  55              	.LBB19:
  56              		.loc 1 92 0
  57 0022 0021     		movs	r1, #0
ARM GAS  /tmp/cc3rdzJM.s 			page 2


  58              		.loc 1 93 0
  59 0024 0820     		movs	r0, #8
  60              		.loc 1 92 0
  61 0026 1960     		str	r1, [r3, #0]
  62              	.LBE19:
  63              	.LBE18:
  64              		.loc 1 95 0
  65 0028 BDE80840 		pop	{r3, lr}
  66              	.LBB21:
  67              	.LBB20:
  68              		.loc 1 93 0
  69 002c FFF7FEBF 		b	chThdSleep
  70              	.L6:
  71              		.align	2
  72              	.L5:
  73 0030 30000000 		.word	SD1+48
  74              	.LBE20:
  75              	.LBE21:
  76              		.cfi_endproc
  77              	.LFE64:
  78              		.size	apolloPut, .-apolloPut
  79 0034 AFF30080 		.section	.text.vt100_printf,"ax",%progbits
  79      AFF30080 
  79      AFF30080 
  80              		.align	2
  81              		.p2align 4,,15
  82              		.thumb
  83              		.thumb_func
  84              		.type	vt100_printf, %function
  85              	vt100_printf:
  86              	.LFB65:
  87              		.loc 1 109 0
  88              		.cfi_startproc
  89              		@ args = 4, pretend = 16, frame = 8
  90              		@ frame_needed = 0, uses_anonymous_args = 1
  91              	.LVL2:
  92 0000 0FB4     		push	{r0, r1, r2, r3}
  93              	.LCFI1:
  94              		.cfi_def_cfa_offset 16
  95              		.cfi_offset 3, -4
  96              		.cfi_offset 2, -8
  97              		.cfi_offset 1, -12
  98              		.cfi_offset 0, -16
  99 0002 30B5     		push	{r4, r5, lr}
 100              	.LCFI2:
 101              		.cfi_def_cfa_offset 28
 102              		.cfi_offset 14, -20
 103              		.cfi_offset 5, -24
 104              		.cfi_offset 4, -28
 105 0004 83B0     		sub	sp, sp, #12
 106              	.LCFI3:
 107              		.cfi_def_cfa_offset 40
 108              		.loc 1 109 0
 109 0006 06AD     		add	r5, sp, #24
 110 0008 55F8042B 		ldr	r2, [r5], #4
 111              		.loc 1 117 0
 112 000c 0F4C     		ldr	r4, .L13
ARM GAS  /tmp/cc3rdzJM.s 			page 3


 113 000e 40F20000 		movw	r0, #:lower16:.LANCHOR1
 114 0012 4021     		movs	r1, #64
 115 0014 2B46     		mov	r3, r5
 116 0016 C0F20000 		movt	r0, #:upper16:.LANCHOR1
 117              		.loc 1 115 0
 118 001a 0195     		str	r5, [sp, #4]
 119              		.loc 1 108 0
 120 001c 6518     		adds	r5, r4, r1
 121              		.loc 1 117 0
 122 001e FFF7FEFF 		bl	vex_vsnprintf
 123              	.LVL3:
 124 0022 09E0     		b	.L8
 125              	.LVL4:
 126              	.L10:
 127              		.loc 1 120 0 discriminator 1
 128 0024 FFF7FEFF 		bl	apolloPut
 129              		.loc 1 119 0 discriminator 1
 130 0028 6378     		ldrb	r3, [r4, #1]	@ zero_extendqisi2
 131 002a 0134     		adds	r4, r4, #1
 132              		.loc 1 120 0 discriminator 1
 133 002c 1846     		mov	r0, r3
 134              		.loc 1 119 0 discriminator 1
 135 002e 43B1     		cbz	r3, .L7
 136              		.loc 1 120 0
 137 0030 FFF7FEFF 		bl	apolloPut
 138              		.loc 1 119 0
 139 0034 AC42     		cmp	r4, r5
 140 0036 04D0     		beq	.L7
 141              	.L8:
 142              		.loc 1 119 0 is_stmt 0 discriminator 2
 143 0038 6178     		ldrb	r1, [r4, #1]	@ zero_extendqisi2
 144 003a 0134     		adds	r4, r4, #1
 145              		.loc 1 120 0 is_stmt 1 discriminator 2
 146 003c 0846     		mov	r0, r1
 147              		.loc 1 119 0 discriminator 2
 148 003e 0029     		cmp	r1, #0
 149 0040 F0D1     		bne	.L10
 150              	.L7:
 151              		.loc 1 123 0
 152 0042 03B0     		add	sp, sp, #12
 153 0044 BDE83040 		pop	{r4, r5, lr}
 154 0048 04B0     		add	sp, sp, #16
 155 004a 7047     		bx	lr
 156              	.L14:
 157              		.align	2
 158              	.L13:
 159 004c FFFFFFFF 		.word	.LANCHOR1-1
 160              		.cfi_endproc
 161              	.LFE65:
 162              		.size	vt100_printf, .-vt100_printf
 163              		.section	.text.vt100_drawbox,"ax",%progbits
 164              		.align	2
 165              		.p2align 4,,15
 166              		.global	vt100_drawbox
 167              		.thumb
 168              		.thumb_func
 169              		.type	vt100_drawbox, %function
ARM GAS  /tmp/cc3rdzJM.s 			page 4


 170              	vt100_drawbox:
 171              	.LFB73:
 172              		.loc 1 180 0
 173              		.cfi_startproc
 174              		@ args = 0, pretend = 0, frame = 0
 175              		@ frame_needed = 0, uses_anonymous_args = 0
 176              	.LVL5:
 177 0000 2DE9F84F 		push	{r3, r4, r5, r6, r7, r8, r9, sl, fp, lr}
 178              	.LCFI4:
 179              		.cfi_def_cfa_offset 40
 180              		.cfi_offset 14, -4
 181              		.cfi_offset 11, -8
 182              		.cfi_offset 10, -12
 183              		.cfi_offset 9, -16
 184              		.cfi_offset 8, -20
 185              		.cfi_offset 7, -24
 186              		.cfi_offset 6, -28
 187              		.cfi_offset 5, -32
 188              		.cfi_offset 4, -36
 189              		.cfi_offset 3, -40
 190              		.loc 1 180 0
 191 0004 0446     		mov	r4, r0
 192              	.LVL6:
 193              	.LBB30:
 194              	.LBB31:
 195              		.loc 1 163 0
 196 0006 40F20000 		movw	r0, #:lower16:.LC0
 197              	.LVL7:
 198              	.LBE31:
 199              	.LBE30:
 200              		.loc 1 180 0
 201 000a 9046     		mov	r8, r2
 202              	.LBB34:
 203              	.LBB32:
 204              		.loc 1 163 0
 205 000c C0F20000 		movt	r0, #:upper16:.LC0
 206 0010 2246     		mov	r2, r4
 207              	.LVL8:
 208              	.LBE32:
 209              	.LBE34:
 210              		.loc 1 180 0
 211 0012 0D46     		mov	r5, r1
 212              	.LVL9:
 213 0014 9B46     		mov	fp, r3
 214              		.loc 1 186 0
 215 0016 A8F10207 		sub	r7, r8, #2
 216              	.LBB35:
 217              	.LBB33:
 218              		.loc 1 163 0
 219 001a FFF7FEFF 		bl	vt100_printf
 220              	.LVL10:
 221              	.LBE33:
 222              	.LBE35:
 223              		.loc 1 185 0
 224 001e 6C20     		movs	r0, #108
 225 0020 FFF7FEFF 		bl	apolloPut
 226              	.LVL11:
ARM GAS  /tmp/cc3rdzJM.s 			page 5


 227              		.loc 1 186 0
 228 0024 002F     		cmp	r7, #0
 229 0026 1BDD     		ble	.L16
 230 0028 A8F10301 		sub	r1, r8, #3
 231              		.loc 1 187 0
 232 002c 7120     		movs	r0, #113
 233              		.loc 1 186 0
 234 002e 0126     		movs	r6, #1
 235 0030 01EA0609 		and	r9, r1, r6
 236              		.loc 1 187 0
 237 0034 FFF7FEFF 		bl	apolloPut
 238              	.LVL12:
 239              		.loc 1 186 0
 240 0038 BE42     		cmp	r6, r7
 241 003a 11DA     		bge	.L16
 242 003c B9F1000F 		cmp	r9, #0
 243 0040 05D0     		beq	.L17
 244              		.loc 1 187 0
 245 0042 7120     		movs	r0, #113
 246              		.loc 1 186 0
 247 0044 0226     		movs	r6, #2
 248              		.loc 1 187 0
 249 0046 FFF7FEFF 		bl	apolloPut
 250              		.loc 1 186 0
 251 004a BE42     		cmp	r6, r7
 252 004c 08DA     		bge	.L16
 253              	.LVL13:
 254              	.L17:
 255              		.loc 1 187 0 discriminator 2
 256 004e 7120     		movs	r0, #113
 257 0050 FFF7FEFF 		bl	apolloPut
 258              		.loc 1 186 0 discriminator 2
 259 0054 0236     		adds	r6, r6, #2
 260              		.loc 1 187 0 discriminator 2
 261 0056 7120     		movs	r0, #113
 262 0058 FFF7FEFF 		bl	apolloPut
 263              		.loc 1 186 0 discriminator 2
 264 005c BE42     		cmp	r6, r7
 265 005e F6DB     		blt	.L17
 266              	.L16:
 267              		.loc 1 188 0
 268 0060 6B20     		movs	r0, #107
 269              		.loc 1 191 0
 270 0062 0BF1FF3A 		add	sl, fp, #-1
 271              		.loc 1 188 0
 272 0066 FFF7FEFF 		bl	apolloPut
 273              	.LVL14:
 274              		.loc 1 191 0
 275 006a BAF1010F 		cmp	sl, #1
 276 006e 71DD     		ble	.L18
 277              		.loc 1 179 0
 278 0070 6E1C     		adds	r6, r5, #1
 279              	.LVL15:
 280              	.LBB36:
 281              	.LBB37:
 282              		.loc 1 163 0
 283 0072 40F20000 		movw	r0, #:lower16:.LC0
ARM GAS  /tmp/cc3rdzJM.s 			page 6


 284 0076 ABF10303 		sub	r3, fp, #3
 285 007a 3146     		mov	r1, r6
 286 007c 2246     		mov	r2, r4
 287 007e C0F20000 		movt	r0, #:upper16:.LC0
 288 0082 03F00109 		and	r9, r3, #1
 289              	.LBE37:
 290              	.LBE36:
 291              		.loc 1 191 0
 292 0086 A044     		add	r8, r4, r8
 293              	.LVL16:
 294              	.LBB42:
 295              	.LBB38:
 296              		.loc 1 163 0
 297 0088 FFF7FEFF 		bl	vt100_printf
 298              	.LBE38:
 299              	.LBE42:
 300              		.loc 1 193 0
 301 008c 7820     		movs	r0, #120
 302 008e FFF7FEFF 		bl	apolloPut
 303              		.loc 1 191 0
 304 0092 08F1FF38 		add	r8, r8, #-1
 305              	.LVL17:
 306              	.LBB43:
 307              	.LBB44:
 308              		.loc 1 163 0
 309 0096 40F20000 		movw	r0, #:lower16:.LC0
 310 009a 3146     		mov	r1, r6
 311 009c C0F20000 		movt	r0, #:upper16:.LC0
 312 00a0 4246     		mov	r2, r8
 313 00a2 FFF7FEFF 		bl	vt100_printf
 314              	.LBE44:
 315              	.LBE43:
 316              		.loc 1 191 0
 317 00a6 0226     		movs	r6, #2
 318              	.LVL18:
 319              		.loc 1 196 0
 320 00a8 7820     		movs	r0, #120
 321 00aa FFF7FEFF 		bl	apolloPut
 322              	.LVL19:
 323              		.loc 1 191 0
 324 00ae 5645     		cmp	r6, sl
 325 00b0 50DA     		bge	.L18
 326 00b2 B9F1000F 		cmp	r9, #0
 327 00b6 19D0     		beq	.L19
 328              		.loc 1 179 0
 329 00b8 AE1C     		adds	r6, r5, #2
 330              	.LBB48:
 331              	.LBB39:
 332              		.loc 1 163 0
 333 00ba 40F20000 		movw	r0, #:lower16:.LC0
 334 00be 3146     		mov	r1, r6
 335 00c0 2246     		mov	r2, r4
 336 00c2 C0F20000 		movt	r0, #:upper16:.LC0
 337 00c6 FFF7FEFF 		bl	vt100_printf
 338              	.LBE39:
 339              	.LBE48:
 340              		.loc 1 193 0
ARM GAS  /tmp/cc3rdzJM.s 			page 7


 341 00ca 7820     		movs	r0, #120
 342 00cc FFF7FEFF 		bl	apolloPut
 343              	.LBB49:
 344              	.LBB45:
 345              		.loc 1 163 0
 346 00d0 40F20000 		movw	r0, #:lower16:.LC0
 347 00d4 3146     		mov	r1, r6
 348 00d6 C0F20000 		movt	r0, #:upper16:.LC0
 349 00da 4246     		mov	r2, r8
 350 00dc FFF7FEFF 		bl	vt100_printf
 351              	.LBE45:
 352              	.LBE49:
 353              		.loc 1 191 0
 354 00e0 0326     		movs	r6, #3
 355              		.loc 1 196 0
 356 00e2 7820     		movs	r0, #120
 357 00e4 FFF7FEFF 		bl	apolloPut
 358              		.loc 1 191 0
 359 00e8 5645     		cmp	r6, sl
 360 00ea 33DA     		bge	.L18
 361              	.L19:
 362              		.loc 1 179 0 discriminator 2
 363 00ec 06EB0509 		add	r9, r6, r5
 364              	.LBB50:
 365              	.LBB40:
 366              		.loc 1 163 0 discriminator 2
 367 00f0 40F20000 		movw	r0, #:lower16:.LC0
 368 00f4 4946     		mov	r1, r9
 369 00f6 2246     		mov	r2, r4
 370 00f8 C0F20000 		movt	r0, #:upper16:.LC0
 371 00fc FFF7FEFF 		bl	vt100_printf
 372              	.LBE40:
 373              	.LBE50:
 374              		.loc 1 193 0 discriminator 2
 375 0100 7820     		movs	r0, #120
 376 0102 FFF7FEFF 		bl	apolloPut
 377              	.LBB51:
 378              	.LBB46:
 379              		.loc 1 163 0 discriminator 2
 380 0106 40F20000 		movw	r0, #:lower16:.LC0
 381 010a 4946     		mov	r1, r9
 382 010c 4246     		mov	r2, r8
 383 010e C0F20000 		movt	r0, #:upper16:.LC0
 384 0112 FFF7FEFF 		bl	vt100_printf
 385              	.LBE46:
 386              	.LBE51:
 387              		.loc 1 191 0 discriminator 2
 388 0116 0136     		adds	r6, r6, #1
 389              		.loc 1 196 0 discriminator 2
 390 0118 7820     		movs	r0, #120
 391 011a FFF7FEFF 		bl	apolloPut
 392              		.loc 1 179 0 discriminator 2
 393 011e 06EB0509 		add	r9, r6, r5
 394              	.LBB52:
 395              	.LBB41:
 396              		.loc 1 163 0 discriminator 2
 397 0122 40F20000 		movw	r0, #:lower16:.LC0
ARM GAS  /tmp/cc3rdzJM.s 			page 8


 398 0126 4946     		mov	r1, r9
 399 0128 2246     		mov	r2, r4
 400 012a C0F20000 		movt	r0, #:upper16:.LC0
 401 012e FFF7FEFF 		bl	vt100_printf
 402              	.LBE41:
 403              	.LBE52:
 404              		.loc 1 193 0 discriminator 2
 405 0132 7820     		movs	r0, #120
 406 0134 FFF7FEFF 		bl	apolloPut
 407              	.LBB53:
 408              	.LBB47:
 409              		.loc 1 163 0 discriminator 2
 410 0138 40F20000 		movw	r0, #:lower16:.LC0
 411 013c C0F20000 		movt	r0, #:upper16:.LC0
 412 0140 4946     		mov	r1, r9
 413 0142 4246     		mov	r2, r8
 414 0144 FFF7FEFF 		bl	vt100_printf
 415              	.LBE47:
 416              	.LBE53:
 417              		.loc 1 191 0 discriminator 2
 418 0148 0136     		adds	r6, r6, #1
 419              		.loc 1 196 0 discriminator 2
 420 014a 7820     		movs	r0, #120
 421 014c FFF7FEFF 		bl	apolloPut
 422              		.loc 1 191 0 discriminator 2
 423 0150 5645     		cmp	r6, sl
 424 0152 CBDB     		blt	.L19
 425              	.LVL20:
 426              	.L18:
 427              		.loc 1 200 0
 428 0154 5D44     		add	r5, r5, fp
 429              	.LVL21:
 430              	.LBB54:
 431              	.LBB55:
 432              		.loc 1 163 0
 433 0156 40F20000 		movw	r0, #:lower16:.LC0
 434 015a 691E     		subs	r1, r5, #1
 435              	.LVL22:
 436 015c C0F20000 		movt	r0, #:upper16:.LC0
 437 0160 2246     		mov	r2, r4
 438 0162 FFF7FEFF 		bl	vt100_printf
 439              	.LVL23:
 440              	.LBE55:
 441              	.LBE54:
 442              		.loc 1 201 0
 443 0166 6D20     		movs	r0, #109
 444 0168 FFF7FEFF 		bl	apolloPut
 445              	.LVL24:
 446              		.loc 1 202 0
 447 016c 002F     		cmp	r7, #0
 448 016e 18DD     		ble	.L20
 449              		.loc 1 203 0
 450 0170 7120     		movs	r0, #113
 451              		.loc 1 202 0
 452 0172 0124     		movs	r4, #1
 453              	.LVL25:
 454 0174 7D1E     		subs	r5, r7, #1
ARM GAS  /tmp/cc3rdzJM.s 			page 9


 455              		.loc 1 203 0
 456 0176 FFF7FEFF 		bl	apolloPut
 457              	.LVL26:
 458              		.loc 1 202 0
 459 017a BC42     		cmp	r4, r7
 460 017c 05EA0405 		and	r5, r5, r4
 461 0180 0FDA     		bge	.L20
 462 0182 2DB1     		cbz	r5, .L21
 463              		.loc 1 203 0
 464 0184 7120     		movs	r0, #113
 465              		.loc 1 202 0
 466 0186 0224     		movs	r4, #2
 467              		.loc 1 203 0
 468 0188 FFF7FEFF 		bl	apolloPut
 469              		.loc 1 202 0
 470 018c BC42     		cmp	r4, r7
 471 018e 08DA     		bge	.L20
 472              	.L21:
 473              		.loc 1 203 0 discriminator 2
 474 0190 7120     		movs	r0, #113
 475 0192 FFF7FEFF 		bl	apolloPut
 476              		.loc 1 202 0 discriminator 2
 477 0196 0234     		adds	r4, r4, #2
 478              		.loc 1 203 0 discriminator 2
 479 0198 7120     		movs	r0, #113
 480 019a FFF7FEFF 		bl	apolloPut
 481              		.loc 1 202 0 discriminator 2
 482 019e BC42     		cmp	r4, r7
 483 01a0 F6DB     		blt	.L21
 484              	.L20:
 485              		.loc 1 204 0
 486 01a2 6A20     		movs	r0, #106
 487              		.loc 1 205 0
 488 01a4 BDE8F84F 		pop	{r3, r4, r5, r6, r7, r8, r9, sl, fp, lr}
 489              		.loc 1 204 0
 490 01a8 FFF7FEBF 		b	apolloPut
 491              		.cfi_endproc
 492              	.LFE73:
 493              		.size	vt100_drawbox, .-vt100_drawbox
 494 01ac AFF30080 		.section	.text.apolloScreenSetup,"ax",%progbits
 495              		.align	2
 496              		.p2align 4,,15
 497              		.global	apolloScreenSetup
 498              		.thumb
 499              		.thumb_func
 500              		.type	apolloScreenSetup, %function
 501              	apolloScreenSetup:
 502              	.LFB74:
 503              		.loc 1 219 0
 504              		.cfi_startproc
 505              		@ args = 0, pretend = 0, frame = 0
 506              		@ frame_needed = 0, uses_anonymous_args = 0
 507              		.loc 1 221 0
 508 0000 0120     		movs	r0, #1
 509              		.loc 1 219 0
 510 0002 10B5     		push	{r4, lr}
 511              	.LCFI5:
ARM GAS  /tmp/cc3rdzJM.s 			page 10


 512              		.cfi_def_cfa_offset 8
 513              		.cfi_offset 14, -4
 514              		.cfi_offset 4, -8
 515              		.loc 1 221 0
 516 0004 0146     		mov	r1, r0
 517 0006 5022     		movs	r2, #80
 518 0008 1823     		movs	r3, #24
 519 000a FFF7FEFF 		bl	vt100_drawbox
 520              		.loc 1 224 0
 521 000e 0120     		movs	r0, #1
 522 0010 0146     		mov	r1, r0
 523 0012 2922     		movs	r2, #41
 524 0014 0F23     		movs	r3, #15
 525 0016 FFF7FEFF 		bl	vt100_drawbox
 526              	.LBB68:
 527              	.LBB69:
 528              		.loc 1 163 0
 529 001a 40F20004 		movw	r4, #:lower16:.LC0
 530              	.LBE69:
 531              	.LBE68:
 532              		.loc 1 226 0
 533 001e 2920     		movs	r0, #41
 534 0020 0121     		movs	r1, #1
 535 0022 1522     		movs	r2, #21
 536 0024 0F23     		movs	r3, #15
 537              	.LBB72:
 538              	.LBB70:
 539              		.loc 1 163 0
 540 0026 C0F20004 		movt	r4, #:upper16:.LC0
 541              	.LBE70:
 542              	.LBE72:
 543              		.loc 1 226 0
 544 002a FFF7FEFF 		bl	vt100_drawbox
 545              		.loc 1 228 0
 546 002e 0F23     		movs	r3, #15
 547 0030 3D20     		movs	r0, #61
 548 0032 0121     		movs	r1, #1
 549 0034 1422     		movs	r2, #20
 550 0036 FFF7FEFF 		bl	vt100_drawbox
 551              	.LVL27:
 552              	.LBB73:
 553              	.LBB71:
 554              		.loc 1 163 0
 555 003a 0F21     		movs	r1, #15
 556 003c 0122     		movs	r2, #1
 557 003e 2046     		mov	r0, r4
 558 0040 FFF7FEFF 		bl	vt100_printf
 559              	.LBE71:
 560              	.LBE73:
 561              		.loc 1 232 0
 562 0044 7420     		movs	r0, #116
 563 0046 FFF7FEFF 		bl	apolloPut
 564              	.LVL28:
 565              	.LBB74:
 566              	.LBB75:
 567              		.loc 1 163 0
 568 004a 0F21     		movs	r1, #15
ARM GAS  /tmp/cc3rdzJM.s 			page 11


 569 004c 5022     		movs	r2, #80
 570 004e 2046     		mov	r0, r4
 571 0050 FFF7FEFF 		bl	vt100_printf
 572              	.LBE75:
 573              	.LBE74:
 574              		.loc 1 234 0
 575 0054 7520     		movs	r0, #117
 576 0056 FFF7FEFF 		bl	apolloPut
 577              	.LVL29:
 578              	.LBB76:
 579              	.LBB77:
 580              		.loc 1 163 0
 581 005a 2922     		movs	r2, #41
 582 005c 2046     		mov	r0, r4
 583 005e 0121     		movs	r1, #1
 584 0060 FFF7FEFF 		bl	vt100_printf
 585              	.LBE77:
 586              	.LBE76:
 587              		.loc 1 237 0
 588 0064 7720     		movs	r0, #119
 589 0066 FFF7FEFF 		bl	apolloPut
 590              	.LVL30:
 591              	.LBB78:
 592              	.LBB79:
 593              		.loc 1 163 0
 594 006a 0121     		movs	r1, #1
 595 006c 2046     		mov	r0, r4
 596 006e 3D22     		movs	r2, #61
 597 0070 FFF7FEFF 		bl	vt100_printf
 598              	.LBE79:
 599              	.LBE78:
 600              		.loc 1 239 0
 601 0074 7720     		movs	r0, #119
 602 0076 FFF7FEFF 		bl	apolloPut
 603              	.LVL31:
 604              	.LBB80:
 605              	.LBB81:
 606              		.loc 1 163 0
 607 007a 0F21     		movs	r1, #15
 608 007c 2922     		movs	r2, #41
 609 007e 2046     		mov	r0, r4
 610 0080 FFF7FEFF 		bl	vt100_printf
 611              	.LBE81:
 612              	.LBE80:
 613              		.loc 1 242 0
 614 0084 7620     		movs	r0, #118
 615 0086 FFF7FEFF 		bl	apolloPut
 616              	.LVL32:
 617              	.LBB82:
 618              	.LBB83:
 619              		.loc 1 163 0
 620 008a 2046     		mov	r0, r4
 621 008c 0F21     		movs	r1, #15
 622 008e 3D22     		movs	r2, #61
 623 0090 FFF7FEFF 		bl	vt100_printf
 624              	.LBE83:
 625              	.LBE82:
ARM GAS  /tmp/cc3rdzJM.s 			page 12


 626              		.loc 1 244 0
 627 0094 7620     		movs	r0, #118
 628              		.loc 1 246 0
 629 0096 BDE81040 		pop	{r4, lr}
 630              		.loc 1 244 0
 631 009a FFF7FEBF 		b	apolloPut
 632              		.cfi_endproc
 633              	.LFE74:
 634              		.size	apolloScreenSetup, .-apolloScreenSetup
 635 009e 00BF     		.section	.text.apolloMotorSetup,"ax",%progbits
 636              		.align	2
 637              		.p2align 4,,15
 638              		.global	apolloMotorSetup
 639              		.thumb
 640              		.thumb_func
 641              		.type	apolloMotorSetup, %function
 642              	apolloMotorSetup:
 643              	.LFB75:
 644              		.loc 1 253 0
 645              		.cfi_startproc
 646              		@ args = 0, pretend = 0, frame = 0
 647              		@ frame_needed = 0, uses_anonymous_args = 0
 648              	.LVL33:
 649 0000 38B5     		push	{r3, r4, r5, lr}
 650              	.LCFI6:
 651              		.cfi_def_cfa_offset 16
 652              		.cfi_offset 14, -4
 653              		.cfi_offset 5, -8
 654              		.cfi_offset 4, -12
 655              		.cfi_offset 3, -16
 656              	.LBB96:
 657              	.LBB97:
 658              		.loc 1 163 0
 659 0002 40F20004 		movw	r4, #:lower16:.LC0
 660 0006 C0F20004 		movt	r4, #:upper16:.LC0
 661 000a 0221     		movs	r1, #2
 662              	.LBE97:
 663              	.LBE96:
 664              	.LBB100:
 665              	.LBB101:
 666              		.loc 1 167 0
 667 000c 40F20005 		movw	r5, #:lower16:.LC1
 668              	.LBE101:
 669              	.LBE100:
 670              	.LBB104:
 671              	.LBB98:
 672              		.loc 1 163 0
 673 0010 0A46     		mov	r2, r1
 674 0012 2046     		mov	r0, r4
 675              	.LBE98:
 676              	.LBE104:
 677              	.LBB105:
 678              	.LBB102:
 679              		.loc 1 167 0
 680 0014 C0F20005 		movt	r5, #:upper16:.LC1
 681              	.LBE102:
 682              	.LBE105:
ARM GAS  /tmp/cc3rdzJM.s 			page 13


 683              	.LBB106:
 684              	.LBB99:
 685              		.loc 1 163 0
 686 0018 FFF7FEFF 		bl	vt100_printf
 687              	.LVL34:
 688              	.LBE99:
 689              	.LBE106:
 690              	.LBB107:
 691              	.LBB103:
 692              		.loc 1 167 0
 693 001c 0721     		movs	r1, #7
 694 001e 2846     		mov	r0, r5
 695 0020 FFF7FEFF 		bl	vt100_printf
 696              	.LBE103:
 697              	.LBE107:
 698              		.loc 1 260 0
 699 0024 40F20000 		movw	r0, #:lower16:.LC2
 700 0028 C0F20000 		movt	r0, #:upper16:.LC2
 701 002c FFF7FEFF 		bl	vt100_printf
 702              	.LVL35:
 703              	.LBB108:
 704              	.LBB109:
 705              		.loc 1 167 0
 706 0030 2846     		mov	r0, r5
 707 0032 0021     		movs	r1, #0
 708 0034 FFF7FEFF 		bl	vt100_printf
 709              	.LVL36:
 710              	.LBE109:
 711              	.LBE108:
 712              		.loc 1 265 0
 713 0038 40F20005 		movw	r5, #:lower16:.LC3
 714              	.LBB110:
 715              	.LBB111:
 716              		.loc 1 163 0
 717 003c 0321     		movs	r1, #3
 718              	.LBE111:
 719              	.LBE110:
 720              		.loc 1 265 0
 721 003e C0F20005 		movt	r5, #:upper16:.LC3
 722              	.LBB122:
 723              	.LBB112:
 724              		.loc 1 163 0
 725 0042 0A46     		mov	r2, r1
 726 0044 2046     		mov	r0, r4
 727 0046 FFF7FEFF 		bl	vt100_printf
 728              	.LBE112:
 729              	.LBE122:
 730              		.loc 1 265 0
 731 004a 0121     		movs	r1, #1
 732 004c 2846     		mov	r0, r5
 733 004e FFF7FEFF 		bl	vt100_printf
 734              	.LVL37:
 735              	.LBB123:
 736              	.LBB113:
 737              		.loc 1 163 0
 738 0052 0322     		movs	r2, #3
 739 0054 2046     		mov	r0, r4
ARM GAS  /tmp/cc3rdzJM.s 			page 14


 740 0056 0421     		movs	r1, #4
 741 0058 FFF7FEFF 		bl	vt100_printf
 742              	.LBE113:
 743              	.LBE123:
 744              		.loc 1 265 0
 745 005c 2846     		mov	r0, r5
 746 005e 0221     		movs	r1, #2
 747 0060 FFF7FEFF 		bl	vt100_printf
 748              	.LVL38:
 749              	.LBB124:
 750              	.LBB114:
 751              		.loc 1 163 0
 752 0064 0322     		movs	r2, #3
 753 0066 2046     		mov	r0, r4
 754 0068 0521     		movs	r1, #5
 755 006a FFF7FEFF 		bl	vt100_printf
 756              	.LBE114:
 757              	.LBE124:
 758              		.loc 1 265 0
 759 006e 2846     		mov	r0, r5
 760 0070 0321     		movs	r1, #3
 761 0072 FFF7FEFF 		bl	vt100_printf
 762              	.LVL39:
 763              	.LBB125:
 764              	.LBB115:
 765              		.loc 1 163 0
 766 0076 0322     		movs	r2, #3
 767 0078 2046     		mov	r0, r4
 768 007a 0621     		movs	r1, #6
 769 007c FFF7FEFF 		bl	vt100_printf
 770              	.LBE115:
 771              	.LBE125:
 772              		.loc 1 265 0
 773 0080 2846     		mov	r0, r5
 774 0082 0421     		movs	r1, #4
 775 0084 FFF7FEFF 		bl	vt100_printf
 776              	.LVL40:
 777              	.LBB126:
 778              	.LBB116:
 779              		.loc 1 163 0
 780 0088 0322     		movs	r2, #3
 781 008a 2046     		mov	r0, r4
 782 008c 0721     		movs	r1, #7
 783 008e FFF7FEFF 		bl	vt100_printf
 784              	.LBE116:
 785              	.LBE126:
 786              		.loc 1 265 0
 787 0092 2846     		mov	r0, r5
 788 0094 0521     		movs	r1, #5
 789 0096 FFF7FEFF 		bl	vt100_printf
 790              	.LVL41:
 791              	.LBB127:
 792              	.LBB117:
 793              		.loc 1 163 0
 794 009a 2046     		mov	r0, r4
 795 009c 0322     		movs	r2, #3
 796 009e 0821     		movs	r1, #8
ARM GAS  /tmp/cc3rdzJM.s 			page 15


 797 00a0 FFF7FEFF 		bl	vt100_printf
 798              	.LBE117:
 799              	.LBE127:
 800              		.loc 1 265 0
 801 00a4 2846     		mov	r0, r5
 802 00a6 0621     		movs	r1, #6
 803 00a8 FFF7FEFF 		bl	vt100_printf
 804              	.LVL42:
 805              	.LBB128:
 806              	.LBB118:
 807              		.loc 1 163 0
 808 00ac 0322     		movs	r2, #3
 809 00ae 2046     		mov	r0, r4
 810 00b0 0921     		movs	r1, #9
 811 00b2 FFF7FEFF 		bl	vt100_printf
 812              	.LBE118:
 813              	.LBE128:
 814              		.loc 1 265 0
 815 00b6 2846     		mov	r0, r5
 816 00b8 0721     		movs	r1, #7
 817 00ba FFF7FEFF 		bl	vt100_printf
 818              	.LVL43:
 819              	.LBB129:
 820              	.LBB119:
 821              		.loc 1 163 0
 822 00be 0322     		movs	r2, #3
 823 00c0 2046     		mov	r0, r4
 824 00c2 0A21     		movs	r1, #10
 825 00c4 FFF7FEFF 		bl	vt100_printf
 826              	.LBE119:
 827              	.LBE129:
 828              		.loc 1 265 0
 829 00c8 2846     		mov	r0, r5
 830 00ca 0821     		movs	r1, #8
 831 00cc FFF7FEFF 		bl	vt100_printf
 832              	.LVL44:
 833              	.LBB130:
 834              	.LBB120:
 835              		.loc 1 163 0
 836 00d0 0322     		movs	r2, #3
 837 00d2 2046     		mov	r0, r4
 838 00d4 0B21     		movs	r1, #11
 839 00d6 FFF7FEFF 		bl	vt100_printf
 840              	.LBE120:
 841              	.LBE130:
 842              		.loc 1 265 0
 843 00da 2846     		mov	r0, r5
 844 00dc 0921     		movs	r1, #9
 845 00de FFF7FEFF 		bl	vt100_printf
 846              	.LVL45:
 847              	.LBB131:
 848              	.LBB121:
 849              		.loc 1 163 0
 850 00e2 0322     		movs	r2, #3
 851 00e4 2046     		mov	r0, r4
 852 00e6 0C21     		movs	r1, #12
 853 00e8 FFF7FEFF 		bl	vt100_printf
ARM GAS  /tmp/cc3rdzJM.s 			page 16


 854              	.LBE121:
 855              	.LBE131:
 856              		.loc 1 265 0
 857 00ec 2846     		mov	r0, r5
 858 00ee 0A21     		movs	r1, #10
 859 00f0 FFF7FEFF 		bl	vt100_printf
 860              	.LVL46:
 861              	.LBB132:
 862              	.LBB133:
 863              		.loc 1 163 0
 864 00f4 0D21     		movs	r1, #13
 865 00f6 0322     		movs	r2, #3
 866 00f8 2046     		mov	r0, r4
 867 00fa FFF7FEFF 		bl	vt100_printf
 868              	.LBE133:
 869              	.LBE132:
 870              		.loc 1 269 0
 871 00fe 40F20000 		movw	r0, #:lower16:.LC4
 872 0102 C0F20000 		movt	r0, #:upper16:.LC4
 873 0106 FFF7FEFF 		bl	vt100_printf
 874              	.LVL47:
 875              	.LBB134:
 876              	.LBB135:
 877              		.loc 1 163 0
 878 010a 2046     		mov	r0, r4
 879 010c 0E21     		movs	r1, #14
 880 010e 0322     		movs	r2, #3
 881 0110 FFF7FEFF 		bl	vt100_printf
 882              	.LBE135:
 883              	.LBE134:
 884              		.loc 1 271 0
 885 0114 40F20000 		movw	r0, #:lower16:.LC5
 886 0118 C0F20000 		movt	r0, #:upper16:.LC5
 887              		.loc 1 272 0
 888 011c BDE83840 		pop	{r3, r4, r5, lr}
 889              		.loc 1 271 0
 890 0120 FFF7FEBF 		b	vt100_printf
 891              		.cfi_endproc
 892              	.LFE75:
 893              		.size	apolloMotorSetup, .-apolloMotorSetup
 894 0124 AFF30080 		.section	.text.apolloDigitalSetup,"ax",%progbits
 894      AFF30080 
 894      AFF30080 
 895              		.align	2
 896              		.p2align 4,,15
 897              		.global	apolloDigitalSetup
 898              		.thumb
 899              		.thumb_func
 900              		.type	apolloDigitalSetup, %function
 901              	apolloDigitalSetup:
 902              	.LFB76:
 903              		.loc 1 279 0
 904              		.cfi_startproc
 905              		@ args = 0, pretend = 0, frame = 0
 906              		@ frame_needed = 0, uses_anonymous_args = 0
 907              	.LVL48:
 908 0000 38B5     		push	{r3, r4, r5, lr}
ARM GAS  /tmp/cc3rdzJM.s 			page 17


 909              	.LCFI7:
 910              		.cfi_def_cfa_offset 16
 911              		.cfi_offset 14, -4
 912              		.cfi_offset 5, -8
 913              		.cfi_offset 4, -12
 914              		.cfi_offset 3, -16
 915              	.LBB144:
 916              	.LBB145:
 917              		.loc 1 163 0
 918 0002 40F20004 		movw	r4, #:lower16:.LC0
 919 0006 C0F20004 		movt	r4, #:upper16:.LC0
 920              	.LBE145:
 921              	.LBE144:
 922              	.LBB148:
 923              	.LBB149:
 924              		.loc 1 167 0
 925 000a 40F20005 		movw	r5, #:lower16:.LC1
 926              	.LBE149:
 927              	.LBE148:
 928              	.LBB152:
 929              	.LBB146:
 930              		.loc 1 163 0
 931 000e 2A22     		movs	r2, #42
 932 0010 2046     		mov	r0, r4
 933 0012 0221     		movs	r1, #2
 934              	.LBE146:
 935              	.LBE152:
 936              	.LBB153:
 937              	.LBB150:
 938              		.loc 1 167 0
 939 0014 C0F20005 		movt	r5, #:upper16:.LC1
 940              	.LBE150:
 941              	.LBE153:
 942              	.LBB154:
 943              	.LBB147:
 944              		.loc 1 163 0
 945 0018 FFF7FEFF 		bl	vt100_printf
 946              	.LVL49:
 947              	.LBE147:
 948              	.LBE154:
 949              	.LBB155:
 950              	.LBB151:
 951              		.loc 1 167 0
 952 001c 0721     		movs	r1, #7
 953 001e 2846     		mov	r0, r5
 954 0020 FFF7FEFF 		bl	vt100_printf
 955              	.LBE151:
 956              	.LBE155:
 957              		.loc 1 286 0
 958 0024 40F20000 		movw	r0, #:lower16:.LC6
 959 0028 C0F20000 		movt	r0, #:upper16:.LC6
 960 002c FFF7FEFF 		bl	vt100_printf
 961              	.LVL50:
 962              	.LBB156:
 963              	.LBB157:
 964              		.loc 1 167 0
 965 0030 2846     		mov	r0, r5
ARM GAS  /tmp/cc3rdzJM.s 			page 18


 966 0032 0021     		movs	r1, #0
 967 0034 FFF7FEFF 		bl	vt100_printf
 968              	.LVL51:
 969              	.LBE157:
 970              	.LBE156:
 971              	.LBB158:
 972              	.LBB159:
 973              		.loc 1 163 0
 974 0038 0321     		movs	r1, #3
 975 003a 2B22     		movs	r2, #43
 976 003c 2046     		mov	r0, r4
 977 003e FFF7FEFF 		bl	vt100_printf
 978              	.LBE159:
 979              	.LBE158:
 980              		.loc 1 291 0
 981 0042 0020     		movs	r0, #0
 982 0044 FFF7FEFF 		bl	vexDigitalTypeGetName
 983 0048 40F20005 		movw	r5, #:lower16:.LC7
 984 004c C0F20005 		movt	r5, #:upper16:.LC7
 985 0050 0246     		mov	r2, r0
 986 0052 0121     		movs	r1, #1
 987 0054 2846     		mov	r0, r5
 988 0056 FFF7FEFF 		bl	vt100_printf
 989              	.LVL52:
 990              	.LBB171:
 991              	.LBB160:
 992              		.loc 1 163 0
 993 005a 0421     		movs	r1, #4
 994 005c 2B22     		movs	r2, #43
 995 005e 2046     		mov	r0, r4
 996 0060 FFF7FEFF 		bl	vt100_printf
 997              	.LBE160:
 998              	.LBE171:
 999              		.loc 1 291 0
 1000 0064 0120     		movs	r0, #1
 1001 0066 FFF7FEFF 		bl	vexDigitalTypeGetName
 1002 006a 0221     		movs	r1, #2
 1003 006c 0246     		mov	r2, r0
 1004 006e 2846     		mov	r0, r5
 1005 0070 FFF7FEFF 		bl	vt100_printf
 1006              	.LVL53:
 1007              	.LBB172:
 1008              	.LBB161:
 1009              		.loc 1 163 0
 1010 0074 0521     		movs	r1, #5
 1011 0076 2B22     		movs	r2, #43
 1012 0078 2046     		mov	r0, r4
 1013 007a FFF7FEFF 		bl	vt100_printf
 1014              	.LBE161:
 1015              	.LBE172:
 1016              		.loc 1 291 0
 1017 007e 0220     		movs	r0, #2
 1018 0080 FFF7FEFF 		bl	vexDigitalTypeGetName
 1019 0084 0321     		movs	r1, #3
 1020 0086 0246     		mov	r2, r0
 1021 0088 2846     		mov	r0, r5
 1022 008a FFF7FEFF 		bl	vt100_printf
ARM GAS  /tmp/cc3rdzJM.s 			page 19


 1023              	.LVL54:
 1024              	.LBB173:
 1025              	.LBB162:
 1026              		.loc 1 163 0
 1027 008e 2046     		mov	r0, r4
 1028 0090 0621     		movs	r1, #6
 1029 0092 2B22     		movs	r2, #43
 1030 0094 FFF7FEFF 		bl	vt100_printf
 1031              	.LBE162:
 1032              	.LBE173:
 1033              		.loc 1 291 0
 1034 0098 0320     		movs	r0, #3
 1035 009a FFF7FEFF 		bl	vexDigitalTypeGetName
 1036 009e 0421     		movs	r1, #4
 1037 00a0 0246     		mov	r2, r0
 1038 00a2 2846     		mov	r0, r5
 1039 00a4 FFF7FEFF 		bl	vt100_printf
 1040              	.LVL55:
 1041              	.LBB174:
 1042              	.LBB163:
 1043              		.loc 1 163 0
 1044 00a8 0721     		movs	r1, #7
 1045 00aa 2B22     		movs	r2, #43
 1046 00ac 2046     		mov	r0, r4
 1047 00ae FFF7FEFF 		bl	vt100_printf
 1048              	.LBE163:
 1049              	.LBE174:
 1050              		.loc 1 291 0
 1051 00b2 0420     		movs	r0, #4
 1052 00b4 FFF7FEFF 		bl	vexDigitalTypeGetName
 1053 00b8 0521     		movs	r1, #5
 1054 00ba 0246     		mov	r2, r0
 1055 00bc 2846     		mov	r0, r5
 1056 00be FFF7FEFF 		bl	vt100_printf
 1057              	.LVL56:
 1058              	.LBB175:
 1059              	.LBB164:
 1060              		.loc 1 163 0
 1061 00c2 0821     		movs	r1, #8
 1062 00c4 2B22     		movs	r2, #43
 1063 00c6 2046     		mov	r0, r4
 1064 00c8 FFF7FEFF 		bl	vt100_printf
 1065              	.LBE164:
 1066              	.LBE175:
 1067              		.loc 1 291 0
 1068 00cc 0520     		movs	r0, #5
 1069 00ce FFF7FEFF 		bl	vexDigitalTypeGetName
 1070 00d2 0621     		movs	r1, #6
 1071 00d4 0246     		mov	r2, r0
 1072 00d6 2846     		mov	r0, r5
 1073 00d8 FFF7FEFF 		bl	vt100_printf
 1074              	.LVL57:
 1075              	.LBB176:
 1076              	.LBB165:
 1077              		.loc 1 163 0
 1078 00dc 0921     		movs	r1, #9
 1079 00de 2B22     		movs	r2, #43
ARM GAS  /tmp/cc3rdzJM.s 			page 20


 1080 00e0 2046     		mov	r0, r4
 1081 00e2 FFF7FEFF 		bl	vt100_printf
 1082              	.LBE165:
 1083              	.LBE176:
 1084              		.loc 1 291 0
 1085 00e6 0620     		movs	r0, #6
 1086 00e8 FFF7FEFF 		bl	vexDigitalTypeGetName
 1087 00ec 0721     		movs	r1, #7
 1088 00ee 0246     		mov	r2, r0
 1089 00f0 2846     		mov	r0, r5
 1090 00f2 FFF7FEFF 		bl	vt100_printf
 1091              	.LVL58:
 1092              	.LBB177:
 1093              	.LBB166:
 1094              		.loc 1 163 0
 1095 00f6 0A21     		movs	r1, #10
 1096 00f8 2B22     		movs	r2, #43
 1097 00fa 2046     		mov	r0, r4
 1098 00fc FFF7FEFF 		bl	vt100_printf
 1099              	.LBE166:
 1100              	.LBE177:
 1101              		.loc 1 291 0
 1102 0100 0720     		movs	r0, #7
 1103 0102 FFF7FEFF 		bl	vexDigitalTypeGetName
 1104 0106 0821     		movs	r1, #8
 1105 0108 0246     		mov	r2, r0
 1106 010a 2846     		mov	r0, r5
 1107 010c FFF7FEFF 		bl	vt100_printf
 1108              	.LVL59:
 1109              	.LBB178:
 1110              	.LBB167:
 1111              		.loc 1 163 0
 1112 0110 2046     		mov	r0, r4
 1113 0112 0B21     		movs	r1, #11
 1114 0114 2B22     		movs	r2, #43
 1115 0116 FFF7FEFF 		bl	vt100_printf
 1116              	.LBE167:
 1117              	.LBE178:
 1118              		.loc 1 291 0
 1119 011a 0820     		movs	r0, #8
 1120 011c FFF7FEFF 		bl	vexDigitalTypeGetName
 1121 0120 0921     		movs	r1, #9
 1122 0122 0246     		mov	r2, r0
 1123 0124 2846     		mov	r0, r5
 1124 0126 FFF7FEFF 		bl	vt100_printf
 1125              	.LVL60:
 1126              	.LBB179:
 1127              	.LBB168:
 1128              		.loc 1 163 0
 1129 012a 0C21     		movs	r1, #12
 1130 012c 2B22     		movs	r2, #43
 1131 012e 2046     		mov	r0, r4
 1132 0130 FFF7FEFF 		bl	vt100_printf
 1133              	.LBE168:
 1134              	.LBE179:
 1135              		.loc 1 291 0
 1136 0134 0920     		movs	r0, #9
ARM GAS  /tmp/cc3rdzJM.s 			page 21


 1137 0136 FFF7FEFF 		bl	vexDigitalTypeGetName
 1138 013a 0A21     		movs	r1, #10
 1139 013c 0246     		mov	r2, r0
 1140 013e 2846     		mov	r0, r5
 1141 0140 FFF7FEFF 		bl	vt100_printf
 1142              	.LVL61:
 1143              	.LBB180:
 1144              	.LBB169:
 1145              		.loc 1 163 0
 1146 0144 0D21     		movs	r1, #13
 1147 0146 2B22     		movs	r2, #43
 1148 0148 2046     		mov	r0, r4
 1149 014a FFF7FEFF 		bl	vt100_printf
 1150              	.LBE169:
 1151              	.LBE180:
 1152              		.loc 1 291 0
 1153 014e 0A20     		movs	r0, #10
 1154 0150 FFF7FEFF 		bl	vexDigitalTypeGetName
 1155 0154 0B21     		movs	r1, #11
 1156 0156 0246     		mov	r2, r0
 1157 0158 2846     		mov	r0, r5
 1158 015a FFF7FEFF 		bl	vt100_printf
 1159              	.LVL62:
 1160              	.LBB181:
 1161              	.LBB170:
 1162              		.loc 1 163 0
 1163 015e 0E21     		movs	r1, #14
 1164 0160 2B22     		movs	r2, #43
 1165 0162 2046     		mov	r0, r4
 1166 0164 FFF7FEFF 		bl	vt100_printf
 1167              	.LBE170:
 1168              	.LBE181:
 1169              		.loc 1 291 0
 1170 0168 0B20     		movs	r0, #11
 1171 016a FFF7FEFF 		bl	vexDigitalTypeGetName
 1172 016e 0C21     		movs	r1, #12
 1173 0170 0246     		mov	r2, r0
 1174 0172 2846     		mov	r0, r5
 1175              		.loc 1 293 0
 1176 0174 BDE83840 		pop	{r3, r4, r5, lr}
 1177              		.loc 1 291 0
 1178 0178 FFF7FEBF 		b	vt100_printf
 1179              		.cfi_endproc
 1180              	.LFE76:
 1181              		.size	apolloDigitalSetup, .-apolloDigitalSetup
 1182 017c AFF30080 		.section	.text.apolloAnalogSetup,"ax",%progbits
 1183              		.align	2
 1184              		.p2align 4,,15
 1185              		.global	apolloAnalogSetup
 1186              		.thumb
 1187              		.thumb_func
 1188              		.type	apolloAnalogSetup, %function
 1189              	apolloAnalogSetup:
 1190              	.LFB77:
 1191              		.loc 1 300 0
 1192              		.cfi_startproc
 1193              		@ args = 0, pretend = 0, frame = 0
ARM GAS  /tmp/cc3rdzJM.s 			page 22


 1194              		@ frame_needed = 0, uses_anonymous_args = 0
 1195              	.LVL63:
 1196 0000 38B5     		push	{r3, r4, r5, lr}
 1197              	.LCFI8:
 1198              		.cfi_def_cfa_offset 16
 1199              		.cfi_offset 14, -4
 1200              		.cfi_offset 5, -8
 1201              		.cfi_offset 4, -12
 1202              		.cfi_offset 3, -16
 1203              	.LBB190:
 1204              	.LBB191:
 1205              		.loc 1 163 0
 1206 0002 40F20004 		movw	r4, #:lower16:.LC0
 1207 0006 C0F20004 		movt	r4, #:upper16:.LC0
 1208              	.LBE191:
 1209              	.LBE190:
 1210              	.LBB194:
 1211              	.LBB195:
 1212              		.loc 1 167 0
 1213 000a 40F20005 		movw	r5, #:lower16:.LC1
 1214              	.LBE195:
 1215              	.LBE194:
 1216              	.LBB198:
 1217              	.LBB192:
 1218              		.loc 1 163 0
 1219 000e 3E22     		movs	r2, #62
 1220 0010 2046     		mov	r0, r4
 1221 0012 0221     		movs	r1, #2
 1222              	.LBE192:
 1223              	.LBE198:
 1224              	.LBB199:
 1225              	.LBB196:
 1226              		.loc 1 167 0
 1227 0014 C0F20005 		movt	r5, #:upper16:.LC1
 1228              	.LBE196:
 1229              	.LBE199:
 1230              	.LBB200:
 1231              	.LBB193:
 1232              		.loc 1 163 0
 1233 0018 FFF7FEFF 		bl	vt100_printf
 1234              	.LVL64:
 1235              	.LBE193:
 1236              	.LBE200:
 1237              	.LBB201:
 1238              	.LBB197:
 1239              		.loc 1 167 0
 1240 001c 0721     		movs	r1, #7
 1241 001e 2846     		mov	r0, r5
 1242 0020 FFF7FEFF 		bl	vt100_printf
 1243              	.LBE197:
 1244              	.LBE201:
 1245              		.loc 1 307 0
 1246 0024 40F20000 		movw	r0, #:lower16:.LC8
 1247 0028 C0F20000 		movt	r0, #:upper16:.LC8
 1248 002c FFF7FEFF 		bl	vt100_printf
 1249              	.LVL65:
 1250              	.LBB202:
ARM GAS  /tmp/cc3rdzJM.s 			page 23


 1251              	.LBB203:
 1252              		.loc 1 167 0
 1253 0030 2846     		mov	r0, r5
 1254 0032 0021     		movs	r1, #0
 1255              	.LBE203:
 1256              	.LBE202:
 1257              		.loc 1 312 0
 1258 0034 40F20005 		movw	r5, #:lower16:.LC3
 1259 0038 C0F20005 		movt	r5, #:upper16:.LC3
 1260              	.LBB205:
 1261              	.LBB204:
 1262              		.loc 1 167 0
 1263 003c FFF7FEFF 		bl	vt100_printf
 1264              	.LVL66:
 1265              	.LBE204:
 1266              	.LBE205:
 1267              	.LBB206:
 1268              	.LBB207:
 1269              		.loc 1 163 0
 1270 0040 3F22     		movs	r2, #63
 1271 0042 2046     		mov	r0, r4
 1272 0044 0321     		movs	r1, #3
 1273 0046 FFF7FEFF 		bl	vt100_printf
 1274              	.LBE207:
 1275              	.LBE206:
 1276              		.loc 1 312 0
 1277 004a 0121     		movs	r1, #1
 1278 004c 2846     		mov	r0, r5
 1279 004e FFF7FEFF 		bl	vt100_printf
 1280              	.LVL67:
 1281              	.LBB215:
 1282              	.LBB208:
 1283              		.loc 1 163 0
 1284 0052 3F22     		movs	r2, #63
 1285 0054 2046     		mov	r0, r4
 1286 0056 0421     		movs	r1, #4
 1287 0058 FFF7FEFF 		bl	vt100_printf
 1288              	.LBE208:
 1289              	.LBE215:
 1290              		.loc 1 312 0
 1291 005c 2846     		mov	r0, r5
 1292 005e 0221     		movs	r1, #2
 1293 0060 FFF7FEFF 		bl	vt100_printf
 1294              	.LVL68:
 1295              	.LBB216:
 1296              	.LBB209:
 1297              		.loc 1 163 0
 1298 0064 3F22     		movs	r2, #63
 1299 0066 2046     		mov	r0, r4
 1300 0068 0521     		movs	r1, #5
 1301 006a FFF7FEFF 		bl	vt100_printf
 1302              	.LBE209:
 1303              	.LBE216:
 1304              		.loc 1 312 0
 1305 006e 2846     		mov	r0, r5
 1306 0070 0321     		movs	r1, #3
 1307 0072 FFF7FEFF 		bl	vt100_printf
ARM GAS  /tmp/cc3rdzJM.s 			page 24


 1308              	.LVL69:
 1309              	.LBB217:
 1310              	.LBB210:
 1311              		.loc 1 163 0
 1312 0076 3F22     		movs	r2, #63
 1313 0078 2046     		mov	r0, r4
 1314 007a 0621     		movs	r1, #6
 1315 007c FFF7FEFF 		bl	vt100_printf
 1316              	.LBE210:
 1317              	.LBE217:
 1318              		.loc 1 312 0
 1319 0080 2846     		mov	r0, r5
 1320 0082 0421     		movs	r1, #4
 1321 0084 FFF7FEFF 		bl	vt100_printf
 1322              	.LVL70:
 1323              	.LBB218:
 1324              	.LBB211:
 1325              		.loc 1 163 0
 1326 0088 2046     		mov	r0, r4
 1327 008a 3F22     		movs	r2, #63
 1328 008c 0721     		movs	r1, #7
 1329 008e FFF7FEFF 		bl	vt100_printf
 1330              	.LBE211:
 1331              	.LBE218:
 1332              		.loc 1 312 0
 1333 0092 2846     		mov	r0, r5
 1334 0094 0521     		movs	r1, #5
 1335 0096 FFF7FEFF 		bl	vt100_printf
 1336              	.LVL71:
 1337              	.LBB219:
 1338              	.LBB212:
 1339              		.loc 1 163 0
 1340 009a 3F22     		movs	r2, #63
 1341 009c 2046     		mov	r0, r4
 1342 009e 0821     		movs	r1, #8
 1343 00a0 FFF7FEFF 		bl	vt100_printf
 1344              	.LBE212:
 1345              	.LBE219:
 1346              		.loc 1 312 0
 1347 00a4 2846     		mov	r0, r5
 1348 00a6 0621     		movs	r1, #6
 1349 00a8 FFF7FEFF 		bl	vt100_printf
 1350              	.LVL72:
 1351              	.LBB220:
 1352              	.LBB213:
 1353              		.loc 1 163 0
 1354 00ac 3F22     		movs	r2, #63
 1355 00ae 2046     		mov	r0, r4
 1356 00b0 0921     		movs	r1, #9
 1357 00b2 FFF7FEFF 		bl	vt100_printf
 1358              	.LBE213:
 1359              	.LBE220:
 1360              		.loc 1 312 0
 1361 00b6 2846     		mov	r0, r5
 1362 00b8 0721     		movs	r1, #7
 1363 00ba FFF7FEFF 		bl	vt100_printf
 1364              	.LVL73:
ARM GAS  /tmp/cc3rdzJM.s 			page 25


 1365              	.LBB221:
 1366              	.LBB214:
 1367              		.loc 1 163 0
 1368 00be 2046     		mov	r0, r4
 1369 00c0 0A21     		movs	r1, #10
 1370 00c2 3F22     		movs	r2, #63
 1371 00c4 FFF7FEFF 		bl	vt100_printf
 1372              	.LBE214:
 1373              	.LBE221:
 1374              		.loc 1 312 0
 1375 00c8 2846     		mov	r0, r5
 1376 00ca 0821     		movs	r1, #8
 1377              		.loc 1 314 0
 1378 00cc BDE83840 		pop	{r3, r4, r5, lr}
 1379              		.loc 1 312 0
 1380 00d0 FFF7FEBF 		b	vt100_printf
 1381              		.cfi_endproc
 1382              	.LFE77:
 1383              		.size	apolloAnalogSetup, .-apolloAnalogSetup
 1384 00d4 AFF30080 		.section	.text.apolloJoystickSetup,"ax",%progbits
 1384      AFF30080 
 1384      AFF30080 
 1385              		.align	2
 1386              		.p2align 4,,15
 1387              		.global	apolloJoystickSetup
 1388              		.thumb
 1389              		.thumb_func
 1390              		.type	apolloJoystickSetup, %function
 1391              	apolloJoystickSetup:
 1392              	.LFB78:
 1393              		.loc 1 321 0
 1394              		.cfi_startproc
 1395              		@ args = 0, pretend = 0, frame = 0
 1396              		@ frame_needed = 0, uses_anonymous_args = 0
 1397              	.LVL74:
 1398              		.loc 1 322 0
 1399 0000 0028     		cmp	r0, #0
 1400              	.LBB246:
 1401              	.LBB247:
 1402              		.loc 1 167 0
 1403 0002 40F20000 		movw	r0, #:lower16:.LC1
 1404              	.LVL75:
 1405              	.LBE247:
 1406              	.LBE246:
 1407              		.loc 1 321 0
 1408 0006 F8B5     		push	{r3, r4, r5, r6, r7, lr}
 1409              	.LCFI9:
 1410              		.cfi_def_cfa_offset 24
 1411              		.cfi_offset 14, -4
 1412              		.cfi_offset 7, -8
 1413              		.cfi_offset 6, -12
 1414              		.cfi_offset 5, -16
 1415              		.cfi_offset 4, -20
 1416              		.cfi_offset 3, -24
 1417              	.LBB250:
 1418              	.LBB248:
 1419              		.loc 1 167 0
ARM GAS  /tmp/cc3rdzJM.s 			page 26


 1420 0008 C0F20000 		movt	r0, #:upper16:.LC1
 1421 000c 4FF00701 		mov	r1, #7
 1422              	.LBE248:
 1423              	.LBE250:
 1424              		.loc 1 322 0
 1425 0010 14BF     		ite	ne
 1426 0012 2A24     		movne	r4, #42
 1427 0014 0224     		moveq	r4, #2
 1428 0016 14BF     		ite	ne
 1429 0018 3D25     		movne	r5, #61
 1430 001a 1525     		moveq	r5, #21
 1431 001c 14BF     		ite	ne
 1432 001e 4326     		movne	r6, #67
 1433 0020 1B26     		moveq	r6, #27
 1434 0022 14BF     		ite	ne
 1435 0024 3027     		movne	r7, #48
 1436 0026 0827     		moveq	r7, #8
 1437              	.LVL76:
 1438              	.LBB251:
 1439              	.LBB249:
 1440              		.loc 1 167 0
 1441 0028 FFF7FEFF 		bl	vt100_printf
 1442              	.LVL77:
 1443              	.LBE249:
 1444              	.LBE251:
 1445              	.LBB252:
 1446              	.LBB253:
 1447              		.loc 1 163 0
 1448 002c 40F20000 		movw	r0, #:lower16:.LC0
 1449 0030 1021     		movs	r1, #16
 1450 0032 3A46     		mov	r2, r7
 1451 0034 C0F20000 		movt	r0, #:upper16:.LC0
 1452 0038 FFF7FEFF 		bl	vt100_printf
 1453              	.LBE253:
 1454              	.LBE252:
 1455              		.loc 1 326 0
 1456 003c 40F20000 		movw	r0, #:lower16:.LC9
 1457 0040 C0F20000 		movt	r0, #:upper16:.LC9
 1458 0044 FFF7FEFF 		bl	vt100_printf
 1459              	.LVL78:
 1460              	.LBB254:
 1461              	.LBB255:
 1462              		.loc 1 163 0
 1463 0048 40F20000 		movw	r0, #:lower16:.LC0
 1464 004c 1021     		movs	r1, #16
 1465 004e 3246     		mov	r2, r6
 1466 0050 C0F20000 		movt	r0, #:upper16:.LC0
 1467 0054 FFF7FEFF 		bl	vt100_printf
 1468              	.LBE255:
 1469              	.LBE254:
 1470              		.loc 1 328 0
 1471 0058 40F20000 		movw	r0, #:lower16:.LC10
 1472 005c C0F20000 		movt	r0, #:upper16:.LC10
 1473 0060 FFF7FEFF 		bl	vt100_printf
 1474              	.LVL79:
 1475              	.LBB256:
 1476              	.LBB257:
ARM GAS  /tmp/cc3rdzJM.s 			page 27


 1477              		.loc 1 163 0
 1478 0064 40F20000 		movw	r0, #:lower16:.LC0
 1479 0068 1321     		movs	r1, #19
 1480 006a 3246     		mov	r2, r6
 1481 006c C0F20000 		movt	r0, #:upper16:.LC0
 1482 0070 FFF7FEFF 		bl	vt100_printf
 1483              	.LBE257:
 1484              	.LBE256:
 1485              		.loc 1 330 0
 1486 0074 40F20000 		movw	r0, #:lower16:.LC11
 1487 0078 C0F20000 		movt	r0, #:upper16:.LC11
 1488 007c FFF7FEFF 		bl	vt100_printf
 1489              	.LVL80:
 1490              	.LBB258:
 1491              	.LBB259:
 1492              		.loc 1 163 0
 1493 0080 40F20000 		movw	r0, #:lower16:.LC0
 1494 0084 1121     		movs	r1, #17
 1495 0086 2246     		mov	r2, r4
 1496 0088 C0F20000 		movt	r0, #:upper16:.LC0
 1497 008c FFF7FEFF 		bl	vt100_printf
 1498              	.LBE259:
 1499              	.LBE258:
 1500              		.loc 1 333 0
 1501 0090 40F20000 		movw	r0, #:lower16:.LC12
 1502 0094 C0F20000 		movt	r0, #:upper16:.LC12
 1503 0098 FFF7FEFF 		bl	vt100_printf
 1504              	.LVL81:
 1505              	.LBB260:
 1506              	.LBB261:
 1507              		.loc 1 163 0
 1508 009c 40F20000 		movw	r0, #:lower16:.LC0
 1509 00a0 1221     		movs	r1, #18
 1510 00a2 2246     		mov	r2, r4
 1511 00a4 C0F20000 		movt	r0, #:upper16:.LC0
 1512 00a8 FFF7FEFF 		bl	vt100_printf
 1513              	.LBE261:
 1514              	.LBE260:
 1515              		.loc 1 335 0
 1516 00ac 40F20000 		movw	r0, #:lower16:.LC13
 1517 00b0 C0F20000 		movt	r0, #:upper16:.LC13
 1518 00b4 FFF7FEFF 		bl	vt100_printf
 1519              	.LVL82:
 1520              	.LBB262:
 1521              	.LBB263:
 1522              		.loc 1 163 0
 1523 00b8 40F20000 		movw	r0, #:lower16:.LC0
 1524 00bc 1321     		movs	r1, #19
 1525 00be 2246     		mov	r2, r4
 1526 00c0 C0F20000 		movt	r0, #:upper16:.LC0
 1527 00c4 FFF7FEFF 		bl	vt100_printf
 1528              	.LBE263:
 1529              	.LBE262:
 1530              		.loc 1 337 0
 1531 00c8 40F20000 		movw	r0, #:lower16:.LC14
 1532 00cc C0F20000 		movt	r0, #:upper16:.LC14
 1533 00d0 FFF7FEFF 		bl	vt100_printf
ARM GAS  /tmp/cc3rdzJM.s 			page 28


 1534              	.LVL83:
 1535              	.LBB264:
 1536              	.LBB265:
 1537              		.loc 1 163 0
 1538 00d4 40F20000 		movw	r0, #:lower16:.LC0
 1539 00d8 1421     		movs	r1, #20
 1540 00da 2246     		mov	r2, r4
 1541 00dc C0F20000 		movt	r0, #:upper16:.LC0
 1542 00e0 FFF7FEFF 		bl	vt100_printf
 1543              	.LBE265:
 1544              	.LBE264:
 1545              		.loc 1 339 0
 1546 00e4 40F20000 		movw	r0, #:lower16:.LC15
 1547 00e8 C0F20000 		movt	r0, #:upper16:.LC15
 1548 00ec FFF7FEFF 		bl	vt100_printf
 1549              	.LVL84:
 1550              	.LBB266:
 1551              	.LBB267:
 1552              		.loc 1 163 0
 1553 00f0 40F20000 		movw	r0, #:lower16:.LC0
 1554 00f4 1121     		movs	r1, #17
 1555 00f6 2A46     		mov	r2, r5
 1556 00f8 C0F20000 		movt	r0, #:upper16:.LC0
 1557 00fc FFF7FEFF 		bl	vt100_printf
 1558              	.LBE267:
 1559              	.LBE266:
 1560              		.loc 1 342 0
 1561 0100 40F20000 		movw	r0, #:lower16:.LC16
 1562 0104 C0F20000 		movt	r0, #:upper16:.LC16
 1563 0108 FFF7FEFF 		bl	vt100_printf
 1564              	.LVL85:
 1565              	.LBB268:
 1566              	.LBB269:
 1567              		.loc 1 163 0
 1568 010c 40F20000 		movw	r0, #:lower16:.LC0
 1569 0110 1221     		movs	r1, #18
 1570 0112 2A46     		mov	r2, r5
 1571 0114 C0F20000 		movt	r0, #:upper16:.LC0
 1572 0118 FFF7FEFF 		bl	vt100_printf
 1573              	.LBE269:
 1574              	.LBE268:
 1575              		.loc 1 344 0
 1576 011c 40F20000 		movw	r0, #:lower16:.LC17
 1577 0120 C0F20000 		movt	r0, #:upper16:.LC17
 1578 0124 FFF7FEFF 		bl	vt100_printf
 1579              	.LVL86:
 1580              	.LBB270:
 1581              	.LBB271:
 1582              		.loc 1 163 0
 1583 0128 40F20000 		movw	r0, #:lower16:.LC0
 1584 012c 1421     		movs	r1, #20
 1585 012e 2A46     		mov	r2, r5
 1586 0130 C0F20000 		movt	r0, #:upper16:.LC0
 1587 0134 FFF7FEFF 		bl	vt100_printf
 1588              	.LBE271:
 1589              	.LBE270:
 1590              		.loc 1 346 0
ARM GAS  /tmp/cc3rdzJM.s 			page 29


 1591 0138 40F20000 		movw	r0, #:lower16:.LC18
 1592 013c C0F20000 		movt	r0, #:upper16:.LC18
 1593 0140 FFF7FEFF 		bl	vt100_printf
 1594              	.LVL87:
 1595              	.LBB272:
 1596              	.LBB273:
 1597              		.loc 1 167 0
 1598 0144 40F20000 		movw	r0, #:lower16:.LC1
 1599 0148 C0F20000 		movt	r0, #:upper16:.LC1
 1600 014c 0021     		movs	r1, #0
 1601              	.LBE273:
 1602              	.LBE272:
 1603              		.loc 1 348 0
 1604 014e BDE8F840 		pop	{r3, r4, r5, r6, r7, lr}
 1605              	.LBB275:
 1606              	.LBB274:
 1607              		.loc 1 167 0
 1608 0152 FFF7FEBF 		b	vt100_printf
 1609              	.LBE274:
 1610              	.LBE275:
 1611              		.cfi_endproc
 1612              	.LFE78:
 1613              		.size	apolloJoystickSetup, .-apolloJoystickSetup
 1614              		.global	__aeabi_f2iz
 1615              		.global	__aeabi_f2d
 1616 0156 00BFAFF3 		.section	.text.apolloUpdateMotor,"ax",%progbits
 1616      0080AFF3 
 1616      0080
 1617              		.align	2
 1618              		.p2align 4,,15
 1619              		.global	apolloUpdateMotor
 1620              		.thumb
 1621              		.thumb_func
 1622              		.type	apolloUpdateMotor, %function
 1623              	apolloUpdateMotor:
 1624              	.LFB79:
 1625              		.loc 1 360 0
 1626              		.cfi_startproc
 1627              		@ args = 0, pretend = 0, frame = 16
 1628              		@ frame_needed = 0, uses_anonymous_args = 0
 1629              	.LVL88:
 1630 0000 2DE9F04F 		push	{r4, r5, r6, r7, r8, r9, sl, fp, lr}
 1631              	.LCFI10:
 1632              		.cfi_def_cfa_offset 36
 1633              		.cfi_offset 14, -4
 1634              		.cfi_offset 11, -8
 1635              		.cfi_offset 10, -12
 1636              		.cfi_offset 9, -16
 1637              		.cfi_offset 8, -20
 1638              		.cfi_offset 7, -24
 1639              		.cfi_offset 6, -28
 1640              		.cfi_offset 5, -32
 1641              		.cfi_offset 4, -36
 1642              		.loc 1 361 0
 1643 0004 06B2     		sxth	r6, r0
 1644              		.loc 1 360 0
 1645 0006 8BB0     		sub	sp, sp, #44
ARM GAS  /tmp/cc3rdzJM.s 			page 30


 1646              	.LCFI11:
 1647              		.cfi_def_cfa_offset 80
 1648              		.loc 1 360 0
 1649 0008 8346     		mov	fp, r0
 1650              		.loc 1 361 0
 1651 000a 3046     		mov	r0, r6
 1652              	.LVL89:
 1653 000c FFF7FEFF 		bl	vexMotorEncoderIdGet
 1654 0010 0446     		mov	r4, r0
 1655              	.LVL90:
 1656              		.loc 1 362 0
 1657 0012 3046     		mov	r0, r6
 1658              	.LVL91:
 1659 0014 FFF7FEFF 		bl	vexMotorGet
 1660 0018 0546     		mov	r5, r0
 1661              	.LVL92:
 1662              		.loc 1 363 0
 1663 001a 3046     		mov	r0, r6
 1664              	.LVL93:
 1665 001c FFF7FEFF 		bl	vexMotorPositionGet
 1666              		.loc 1 364 0
 1667 0020 4FFA8BF7 		sxtb	r7, fp
 1668              		.loc 1 363 0
 1669 0024 8246     		mov	sl, r0
 1670              	.LVL94:
 1671              		.loc 1 364 0
 1672 0026 3846     		mov	r0, r7
 1673              	.LVL95:
 1674 0028 FFF7FEFF 		bl	SmartMotorGetSpeed
 1675              		.loc 1 365 0
 1676 002c 0021     		movs	r1, #0
 1677              		.loc 1 364 0
 1678 002e 8146     		mov	r9, r0
 1679              	.LVL96:
 1680              		.loc 1 365 0
 1681 0030 3846     		mov	r0, r7
 1682              	.LVL97:
 1683 0032 FFF7FEFF 		bl	_SmartMotorGetCurrent
 1684 0036 8046     		mov	r8, r0
 1685              	.LVL98:
 1686              		.loc 1 366 0
 1687 0038 3846     		mov	r0, r7
 1688              	.LVL99:
 1689 003a FFF7FEFF 		bl	SmartMotorGetTemperature
 1690 003e 0746     		mov	r7, r0
 1691              	.LVL100:
 1692              	.LBB278:
 1693              	.LBB279:
 1694              		.loc 1 163 0
 1695 0040 40F20000 		movw	r0, #:lower16:.LC0
 1696              	.LVL101:
 1697 0044 C0F20000 		movt	r0, #:upper16:.LC0
 1698 0048 0BF10301 		add	r1, fp, #3
 1699 004c 0722     		movs	r2, #7
 1700 004e FFF7FEFF 		bl	vt100_printf
 1701              	.LBE279:
 1702              	.LBE278:
ARM GAS  /tmp/cc3rdzJM.s 			page 31


 1703              		.loc 1 370 0
 1704 0052 3046     		mov	r0, r6
 1705 0054 FFF7FEFF 		bl	vexMotorTypeGet
 1706 0058 0028     		cmp	r0, #0
 1707 005a 2ED0     		beq	.L48
 1708              		.loc 1 372 0
 1709 005c 3046     		mov	r0, r6
 1710 005e FFF7FEFF 		bl	vexMotorDirectionGet
 1711 0062 0028     		cmp	r0, #0
 1712 0064 0CBF     		ite	eq
 1713 0066 2026     		moveq	r6, #32
 1714 0068 5226     		movne	r6, #82
 1715              		.loc 1 364 0
 1716 006a 4846     		mov	r0, r9
 1717 006c FFF7FEFF 		bl	__aeabi_f2iz
 1718 0070 8146     		mov	r9, r0
 1719              	.LVL102:
 1720              		.loc 1 365 0
 1721 0072 4046     		mov	r0, r8
 1722 0074 FFF7FEFF 		bl	__aeabi_f2d
 1723 0078 CDE90601 		strd	r0, [sp, #24]
 1724              		.loc 1 366 0
 1725 007c 3846     		mov	r0, r7
 1726 007e FFF7FEFF 		bl	__aeabi_f2d
 1727              		.loc 1 377 0
 1728 0082 002C     		cmp	r4, #0
 1729              		.loc 1 366 0
 1730 0084 CDE90801 		strd	r0, [sp, #32]
 1731              		.loc 1 377 0
 1732 0088 20DB     		blt	.L50
 1733              		.loc 1 378 0
 1734 008a 40F20000 		movw	r0, #:lower16:.LC19
 1735 008e C0F20000 		movt	r0, #:upper16:.LC19
 1736 0092 2146     		mov	r1, r4
 1737 0094 3246     		mov	r2, r6
 1738 0096 2B46     		mov	r3, r5
 1739 0098 CDF800A0 		str	sl, [sp, #0]
 1740 009c CDF80490 		str	r9, [sp, #4]
 1741              	.L53:
 1742              		.loc 1 380 0
 1743 00a0 DDE90645 		ldrd	r4, [sp, #24]
 1744              	.LVL103:
 1745 00a4 CDE90245 		strd	r4, [sp, #8]
 1746 00a8 DDE90845 		ldrd	r4, [sp, #32]
 1747 00ac CDE90445 		strd	r4, [sp, #16]
 1748 00b0 FFF7FEFF 		bl	vt100_printf
 1749              		.loc 1 384 0
 1750 00b4 0BB0     		add	sp, sp, #44
 1751 00b6 BDE8F08F 		pop	{r4, r5, r6, r7, r8, r9, sl, fp, pc}
 1752              	.LVL104:
 1753              	.L48:
 1754              		.loc 1 383 0
 1755 00ba 40F20000 		movw	r0, #:lower16:.LC21
 1756 00be C0F20000 		movt	r0, #:upper16:.LC21
 1757              		.loc 1 384 0
 1758 00c2 0BB0     		add	sp, sp, #44
 1759 00c4 BDE8F04F 		pop	{r4, r5, r6, r7, r8, r9, sl, fp, lr}
ARM GAS  /tmp/cc3rdzJM.s 			page 32


 1760              		.loc 1 383 0
 1761 00c8 FFF7FEBF 		b	vt100_printf
 1762              	.LVL105:
 1763              	.L50:
 1764              		.loc 1 380 0
 1765 00cc 40F20000 		movw	r0, #:lower16:.LC20
 1766 00d0 C0F20000 		movt	r0, #:upper16:.LC20
 1767 00d4 3146     		mov	r1, r6
 1768 00d6 2A46     		mov	r2, r5
 1769 00d8 5346     		mov	r3, sl
 1770 00da CDF80090 		str	r9, [sp, #0]
 1771 00de DFE7     		b	.L53
 1772              		.cfi_endproc
 1773              	.LFE79:
 1774              		.size	apolloUpdateMotor, .-apolloUpdateMotor
 1775              		.section	.text.apolloUpdateCortex,"ax",%progbits
 1776              		.align	2
 1777              		.p2align 4,,15
 1778              		.global	apolloUpdateCortex
 1779              		.thumb
 1780              		.thumb_func
 1781              		.type	apolloUpdateCortex, %function
 1782              	apolloUpdateCortex:
 1783              	.LFB80:
 1784              		.loc 1 392 0
 1785              		.cfi_startproc
 1786              		@ args = 0, pretend = 0, frame = 0
 1787              		@ frame_needed = 0, uses_anonymous_args = 0
 1788              	.LVL106:
 1789 0000 70B5     		push	{r4, r5, r6, lr}
 1790              	.LCFI12:
 1791              		.cfi_def_cfa_offset 16
 1792              		.cfi_offset 14, -4
 1793              		.cfi_offset 6, -8
 1794              		.cfi_offset 5, -12
 1795              		.cfi_offset 4, -16
 1796              		.loc 1 393 0
 1797 0002 06B2     		sxth	r6, r0
 1798              		.loc 1 392 0
 1799 0004 82B0     		sub	sp, sp, #8
 1800              	.LCFI13:
 1801              		.cfi_def_cfa_offset 24
 1802              		.loc 1 392 0
 1803 0006 0546     		mov	r5, r0
 1804              		.loc 1 393 0
 1805 0008 3046     		mov	r0, r6
 1806              	.LVL107:
 1807 000a FFF7FEFF 		bl	SmartMotorGetControllerCurrent
 1808 000e 0446     		mov	r4, r0
 1809              	.LVL108:
 1810              		.loc 1 394 0
 1811 0010 3046     		mov	r0, r6
 1812              	.LVL109:
 1813 0012 FFF7FEFF 		bl	SmartMotorGetControllerTemperature
 1814 0016 0646     		mov	r6, r0
 1815              	.LVL110:
 1816              	.LBB282:
ARM GAS  /tmp/cc3rdzJM.s 			page 33


 1817              	.LBB283:
 1818              		.loc 1 163 0
 1819 0018 40F20000 		movw	r0, #:lower16:.LC0
 1820              	.LVL111:
 1821 001c 1D22     		movs	r2, #29
 1822 001e 05F10D01 		add	r1, r5, #13
 1823 0022 C0F20000 		movt	r0, #:upper16:.LC0
 1824 0026 FFF7FEFF 		bl	vt100_printf
 1825              	.LBE283:
 1826              	.LBE282:
 1827              		.loc 1 393 0
 1828 002a 2046     		mov	r0, r4
 1829 002c FFF7FEFF 		bl	__aeabi_f2d
 1830 0030 0446     		mov	r4, r0
 1831              	.LVL112:
 1832              		.loc 1 394 0
 1833 0032 3046     		mov	r0, r6
 1834              		.loc 1 393 0
 1835 0034 0D46     		mov	r5, r1
 1836              	.LVL113:
 1837              		.loc 1 394 0
 1838 0036 FFF7FEFF 		bl	__aeabi_f2d
 1839 003a CDE90001 		strd	r0, [sp]
 1840              		.loc 1 397 0
 1841 003e 40F20000 		movw	r0, #:lower16:.LC22
 1842 0042 C0F20000 		movt	r0, #:upper16:.LC22
 1843 0046 2246     		mov	r2, r4
 1844 0048 2B46     		mov	r3, r5
 1845 004a FFF7FEFF 		bl	vt100_printf
 1846              		.loc 1 398 0
 1847 004e 02B0     		add	sp, sp, #8
 1848 0050 70BD     		pop	{r4, r5, r6, pc}
 1849              		.cfi_endproc
 1850              	.LFE80:
 1851              		.size	apolloUpdateCortex, .-apolloUpdateCortex
 1852 0052 00BFAFF3 		.section	.text.apolloUpdateDigital,"ax",%progbits
 1852      0080AFF3 
 1852      0080AFF3 
 1852      0080
 1853              		.align	2
 1854              		.p2align 4,,15
 1855              		.global	apolloUpdateDigital
 1856              		.thumb
 1857              		.thumb_func
 1858              		.type	apolloUpdateDigital, %function
 1859              	apolloUpdateDigital:
 1860              	.LFB81:
 1861              		.loc 1 406 0
 1862              		.cfi_startproc
 1863              		@ args = 0, pretend = 0, frame = 0
 1864              		@ frame_needed = 0, uses_anonymous_args = 0
 1865              	.LVL114:
 1866 0000 10B5     		push	{r4, lr}
 1867              	.LCFI14:
 1868              		.cfi_def_cfa_offset 8
 1869              		.cfi_offset 14, -4
 1870              		.cfi_offset 4, -8
ARM GAS  /tmp/cc3rdzJM.s 			page 34


 1871              		.loc 1 406 0
 1872 0002 0446     		mov	r4, r0
 1873              	.LVL115:
 1874              	.LBB286:
 1875              	.LBB287:
 1876              		.loc 1 163 0
 1877 0004 40F20000 		movw	r0, #:lower16:.LC0
 1878              	.LVL116:
 1879 0008 E11C     		adds	r1, r4, #3
 1880 000a C0F20000 		movt	r0, #:upper16:.LC0
 1881 000e 3522     		movs	r2, #53
 1882              	.LBE287:
 1883              	.LBE286:
 1884              		.loc 1 411 0
 1885 0010 64B2     		sxtb	r4, r4
 1886              	.LVL117:
 1887              	.LBB289:
 1888              	.LBB288:
 1889              		.loc 1 163 0
 1890 0012 FFF7FEFF 		bl	vt100_printf
 1891              	.LVL118:
 1892              	.LBE288:
 1893              	.LBE289:
 1894              		.loc 1 411 0
 1895 0016 2046     		mov	r0, r4
 1896 0018 FFF7FEFF 		bl	vexDigitalTypeGet
 1897              	.LVL119:
 1898              		.loc 1 413 0
 1899 001c 0138     		subs	r0, r0, #1
 1900              	.LVL120:
 1901 001e 0728     		cmp	r0, #7
 1902 0020 0AD8     		bhi	.L55
 1903 0022 DFE800F0 		tbb	[pc, r0]
 1904              	.L63:
 1905 0026 0A       		.byte	(.L58-.L63)/2
 1906 0027 0A       		.byte	(.L58-.L63)/2
 1907 0028 04       		.byte	(.L59-.L63)/2
 1908 0029 1A       		.byte	(.L60-.L63)/2
 1909 002a 26       		.byte	(.L61-.L63)/2
 1910 002b 09       		.byte	(.L55-.L63)/2
 1911 002c 09       		.byte	(.L55-.L63)/2
 1912 002d 16       		.byte	(.L62-.L63)/2
 1913              		.align	1
 1914              	.L59:
 1915              		.loc 1 425 0
 1916 002e 2046     		mov	r0, r4
 1917 0030 FFF7FEFF 		bl	vexDigitalCfgGet
 1918 0034 0A28     		cmp	r0, #10
 1919 0036 28D0     		beq	.L65
 1920              	.L55:
 1921 0038 10BD     		pop	{r4, pc}
 1922              	.L58:
 1923              		.loc 1 419 0
 1924 003a 2046     		mov	r0, r4
 1925 003c FFF7FEFF 		bl	vexDigitalPinGet
 1926              	.L64:
 1927              		.loc 1 434 0
ARM GAS  /tmp/cc3rdzJM.s 			page 35


 1928 0040 0146     		mov	r1, r0
 1929 0042 40F20000 		movw	r0, #:lower16:.LC23
 1930 0046 C0F20000 		movt	r0, #:upper16:.LC23
 1931              		.loc 1 440 0
 1932 004a BDE81040 		pop	{r4, lr}
 1933              		.loc 1 434 0
 1934 004e FFF7FEBF 		b	vt100_printf
 1935              	.L62:
 1936              		.loc 1 422 0
 1937 0052 2046     		mov	r0, r4
 1938 0054 FFF7FEFF 		bl	vexDigitalIntrCountGet
 1939 0058 F2E7     		b	.L64
 1940              	.L60:
 1941              		.loc 1 429 0
 1942 005a 2046     		mov	r0, r4
 1943 005c FFF7FEFF 		bl	vexDigitalCfgGet
 1944 0060 0C28     		cmp	r0, #12
 1945 0062 E9D1     		bne	.L55
 1946              		.loc 1 430 0
 1947 0064 2046     		mov	r0, r4
 1948 0066 FFF7FEFF 		bl	vexDigitalChannelGet
 1949 006a C0B2     		uxtb	r0, r0
 1950 006c FFF7FEFF 		bl	vexSonarGetCm
 1951 0070 E6E7     		b	.L64
 1952              	.L61:
 1953              		.loc 1 433 0
 1954 0072 2046     		mov	r0, r4
 1955 0074 FFF7FEFF 		bl	vexDigitalCfgGet
 1956 0078 0C28     		cmp	r0, #12
 1957 007a DDD1     		bne	.L55
 1958              		.loc 1 434 0
 1959 007c 2046     		mov	r0, r4
 1960 007e FFF7FEFF 		bl	vexDigitalChannelGet
 1961 0082 C0B2     		uxtb	r0, r0
 1962 0084 FFF7FEFF 		bl	vexSonarGetInch
 1963 0088 DAE7     		b	.L64
 1964              	.L65:
 1965              		.loc 1 426 0
 1966 008a 2046     		mov	r0, r4
 1967 008c FFF7FEFF 		bl	vexDigitalChannelGet
 1968 0090 00B2     		sxth	r0, r0
 1969 0092 FFF7FEFF 		bl	vexEncoderGet
 1970 0096 D3E7     		b	.L64
 1971              		.cfi_endproc
 1972              	.LFE81:
 1973              		.size	apolloUpdateDigital, .-apolloUpdateDigital
 1974 0098 AFF30080 		.section	.text.apolloUpdateAnalog,"ax",%progbits
 1974      AFF30080 
 1975              		.align	2
 1976              		.p2align 4,,15
 1977              		.global	apolloUpdateAnalog
 1978              		.thumb
 1979              		.thumb_func
 1980              		.type	apolloUpdateAnalog, %function
 1981              	apolloUpdateAnalog:
 1982              	.LFB82:
 1983              		.loc 1 448 0
ARM GAS  /tmp/cc3rdzJM.s 			page 36


 1984              		.cfi_startproc
 1985              		@ args = 0, pretend = 0, frame = 0
 1986              		@ frame_needed = 0, uses_anonymous_args = 0
 1987              	.LVL121:
 1988 0000 10B5     		push	{r4, lr}
 1989              	.LCFI15:
 1990              		.cfi_def_cfa_offset 8
 1991              		.cfi_offset 14, -4
 1992              		.cfi_offset 4, -8
 1993              		.loc 1 448 0
 1994 0002 0446     		mov	r4, r0
 1995              	.LVL122:
 1996              	.LBB292:
 1997              	.LBB293:
 1998              		.loc 1 163 0
 1999 0004 40F20000 		movw	r0, #:lower16:.LC0
 2000              	.LVL123:
 2001 0008 E11C     		adds	r1, r4, #3
 2002 000a 4922     		movs	r2, #73
 2003 000c C0F20000 		movt	r0, #:upper16:.LC0
 2004 0010 FFF7FEFF 		bl	vt100_printf
 2005              	.LBE293:
 2006              	.LBE292:
 2007              		.loc 1 451 0
 2008 0014 20B2     		sxth	r0, r4
 2009 0016 FFF7FEFF 		bl	vexAdcGet
 2010 001a 0146     		mov	r1, r0
 2011 001c 40F20000 		movw	r0, #:lower16:.LC24
 2012 0020 C0F20000 		movt	r0, #:upper16:.LC24
 2013              		.loc 1 452 0
 2014 0024 BDE81040 		pop	{r4, lr}
 2015              		.loc 1 451 0
 2016 0028 FFF7FEBF 		b	vt100_printf
 2017              		.cfi_endproc
 2018              	.LFE82:
 2019              		.size	apolloUpdateAnalog, .-apolloUpdateAnalog
 2020              		.global	__aeabi_i2d
 2021              		.global	__aeabi_ddiv
 2022 002c AFF30080 		.section	.text.apolloUpdateSystem,"ax",%progbits
 2023              		.align	2
 2024              		.p2align 4,,15
 2025              		.global	apolloUpdateSystem
 2026              		.thumb
 2027              		.thumb_func
 2028              		.type	apolloUpdateSystem, %function
 2029              	apolloUpdateSystem:
 2030              	.LFB83:
 2031              		.loc 1 459 0
 2032              		.cfi_startproc
 2033              		@ args = 0, pretend = 0, frame = 0
 2034              		@ frame_needed = 0, uses_anonymous_args = 0
 2035              		.loc 1 460 0
 2036 0000 40F20003 		movw	r3, #:lower16:vtlist
 2037 0004 C0F20003 		movt	r3, #:upper16:vtlist
 2038              		.loc 1 459 0
 2039 0008 70B5     		push	{r4, r5, r6, lr}
 2040              	.LCFI16:
ARM GAS  /tmp/cc3rdzJM.s 			page 37


 2041              		.cfi_def_cfa_offset 16
 2042              		.cfi_offset 14, -4
 2043              		.cfi_offset 6, -8
 2044              		.cfi_offset 5, -12
 2045              		.cfi_offset 4, -16
 2046              		.loc 1 460 0
 2047 000a DC68     		ldr	r4, [r3, #12]
 2048 000c 44F6D353 		movw	r3, #19923
 2049 0010 C1F26203 		movt	r3, 4194
 2050 0014 A3FB0404 		umull	r0, r4, r3, r4
 2051              	.LBB296:
 2052              	.LBB297:
 2053              		.loc 1 163 0
 2054 0018 40F20000 		movw	r0, #:lower16:.LC0
 2055 001c C0F20000 		movt	r0, #:upper16:.LC0
 2056 0020 0322     		movs	r2, #3
 2057 0022 1721     		movs	r1, #23
 2058 0024 FFF7FEFF 		bl	vt100_printf
 2059              	.LBE297:
 2060              	.LBE296:
 2061              		.loc 1 465 0
 2062 0028 4BF2C531 		movw	r1, #46021
 2063              		.loc 1 460 0
 2064 002c A409     		lsrs	r4, r4, #6
 2065              	.LVL124:
 2066              		.loc 1 465 0
 2067 002e C9F2A211 		movt	r1, 37282
 2068 0032 81FB0421 		smull	r2, r1, r1, r4
 2069              		.loc 1 466 0
 2070 0036 4FF2F012 		movw	r2, #61936
 2071              		.loc 1 465 0
 2072 003a 0919     		adds	r1, r1, r4
 2073 003c C912     		asrs	r1, r1, #11
 2074              	.LVL125:
 2075              		.loc 1 466 0
 2076 003e CFF6FF72 		movt	r2, 65535
 2077 0042 02FB0142 		mla	r2, r2, r1, r4
 2078 0046 48F68905 		movw	r5, #34953
 2079 004a C8F68805 		movt	r5, 34952
 2080              		.loc 1 467 0
 2081 004e 85FB0403 		smull	r0, r3, r5, r4
 2082              		.loc 1 466 0
 2083 0052 85FB0205 		smull	r0, r5, r5, r2
 2084              		.loc 1 467 0
 2085 0056 1B19     		adds	r3, r3, r4
 2086 0058 5B11     		asrs	r3, r3, #5
 2087              		.loc 1 466 0
 2088 005a AD18     		adds	r5, r5, r2
 2089              		.loc 1 467 0
 2090 005c C3EB0313 		rsb	r3, r3, r3, lsl #4
 2091              		.loc 1 466 0
 2092 0060 D217     		asrs	r2, r2, #31
 2093              		.loc 1 469 0
 2094 0062 40F20000 		movw	r0, #:lower16:.LC25
 2095 0066 C2EB6512 		rsb	r2, r2, r5, asr #5
 2096 006a A4EB8303 		sub	r3, r4, r3, lsl #2
 2097 006e C0F20000 		movt	r0, #:upper16:.LC25
ARM GAS  /tmp/cc3rdzJM.s 			page 38


 2098 0072 FFF7FEFF 		bl	vt100_printf
 2099              	.LVL126:
 2100              		.loc 1 470 0
 2101 0076 FFF7FEFF 		bl	vexSpiGetMainBattery
 2102 007a FFF7FEFF 		bl	__aeabi_i2d
 2103 007e 10A3     		adr	r3, .L68
 2104 0080 D3E90023 		ldrd	r2, [r3]
 2105 0084 FFF7FEFF 		bl	__aeabi_ddiv
 2106 0088 0246     		mov	r2, r0
 2107 008a 40F20000 		movw	r0, #:lower16:.LC26
 2108 008e 0B46     		mov	r3, r1
 2109 0090 C0F20000 		movt	r0, #:upper16:.LC26
 2110 0094 FFF7FEFF 		bl	vt100_printf
 2111              		.loc 1 471 0
 2112 0098 FFF7FEFF 		bl	vexSpiGetBackupBattery
 2113 009c FFF7FEFF 		bl	__aeabi_i2d
 2114 00a0 07A3     		adr	r3, .L68
 2115 00a2 D3E90023 		ldrd	r2, [r3]
 2116 00a6 FFF7FEFF 		bl	__aeabi_ddiv
 2117 00aa 0246     		mov	r2, r0
 2118 00ac 40F20000 		movw	r0, #:lower16:.LC27
 2119 00b0 0B46     		mov	r3, r1
 2120 00b2 C0F20000 		movt	r0, #:upper16:.LC27
 2121              		.loc 1 472 0
 2122 00b6 BDE87040 		pop	{r4, r5, r6, lr}
 2123              		.loc 1 471 0
 2124 00ba FFF7FEBF 		b	vt100_printf
 2125              	.L69:
 2126 00be 00BF     		.align	3
 2127              	.L68:
 2128 00c0 00000000 		.word	0
 2129 00c4 00408F40 		.word	1083129856
 2130              		.cfi_endproc
 2131              	.LFE83:
 2132              		.size	apolloUpdateSystem, .-apolloUpdateSystem
 2133 00c8 AFF30080 		.section	.text.apolloUpdateJoystickButton,"ax",%progbits
 2133      AFF30080 
 2134              		.align	2
 2135              		.p2align 4,,15
 2136              		.global	apolloUpdateJoystickButton
 2137              		.thumb
 2138              		.thumb_func
 2139              		.type	apolloUpdateJoystickButton, %function
 2140              	apolloUpdateJoystickButton:
 2141              	.LFB84:
 2142              		.loc 1 485 0
 2143              		.cfi_startproc
 2144              		@ args = 8, pretend = 0, frame = 0
 2145              		@ frame_needed = 0, uses_anonymous_args = 0
 2146              	.LVL127:
 2147 0000 2DE9F041 		push	{r4, r5, r6, r7, r8, lr}
 2148              	.LCFI17:
 2149              		.cfi_def_cfa_offset 24
 2150              		.cfi_offset 14, -4
 2151              		.cfi_offset 8, -8
 2152              		.cfi_offset 7, -12
 2153              		.cfi_offset 6, -16
ARM GAS  /tmp/cc3rdzJM.s 			page 39


 2154              		.cfi_offset 5, -20
 2155              		.cfi_offset 4, -24
 2156              		.loc 1 485 0
 2157 0004 069C     		ldr	r4, [sp, #24]
 2158              		.loc 1 486 0
 2159 0006 0028     		cmp	r0, #0
 2160 0008 14BF     		ite	ne
 2161 000a 3226     		movne	r6, #50
 2162 000c 0A26     		moveq	r6, #10
 2163              	.LVL128:
 2164              	.LBB300:
 2165              	.LBB301:
 2166              		.loc 1 163 0
 2167 000e 40F20000 		movw	r0, #:lower16:.LC0
 2168              	.LVL129:
 2169 0012 1131     		adds	r1, r1, #17
 2170              	.LVL130:
 2171              	.LBE301:
 2172              	.LBE300:
 2173              		.loc 1 485 0
 2174 0014 1546     		mov	r5, r2
 2175              	.LBB304:
 2176              	.LBB302:
 2177              		.loc 1 163 0
 2178 0016 C0F20000 		movt	r0, #:upper16:.LC0
 2179 001a 3246     		mov	r2, r6
 2180              	.LVL131:
 2181              	.LBE302:
 2182              	.LBE304:
 2183              		.loc 1 485 0
 2184 001c 1F46     		mov	r7, r3
 2185 001e 079E     		ldr	r6, [sp, #28]
 2186              	.LVL132:
 2187              	.LBB305:
 2188              	.LBB303:
 2189              		.loc 1 163 0
 2190 0020 FFF7FEFF 		bl	vt100_printf
 2191              	.LVL133:
 2192              	.LBE303:
 2193              	.LBE305:
 2194              		.loc 1 489 0
 2195 0024 002C     		cmp	r4, #0
 2196 0026 0BDB     		blt	.L72
 2197              		.loc 1 490 0
 2198 0028 40F20000 		movw	r0, #:lower16:.LC28
 2199 002c C0F20000 		movt	r0, #:upper16:.LC28
 2200 0030 2946     		mov	r1, r5
 2201 0032 3A46     		mov	r2, r7
 2202 0034 2346     		mov	r3, r4
 2203 0036 0696     		str	r6, [sp, #24]
 2204              		.loc 1 493 0
 2205 0038 BDE8F041 		pop	{r4, r5, r6, r7, r8, lr}
 2206              		.loc 1 490 0
 2207 003c FFF7FEBF 		b	vt100_printf
 2208              	.L72:
 2209              		.loc 1 492 0
 2210 0040 40F20000 		movw	r0, #:lower16:.LC29
ARM GAS  /tmp/cc3rdzJM.s 			page 40


 2211 0044 C0F20000 		movt	r0, #:upper16:.LC29
 2212 0048 2946     		mov	r1, r5
 2213 004a 3A46     		mov	r2, r7
 2214              		.loc 1 493 0
 2215 004c BDE8F041 		pop	{r4, r5, r6, r7, r8, lr}
 2216              		.loc 1 492 0
 2217 0050 FFF7FEBF 		b	vt100_printf
 2218              		.cfi_endproc
 2219              	.LFE84:
 2220              		.size	apolloUpdateJoystickButton, .-apolloUpdateJoystickButton
 2221 0054 AFF30080 		.section	.text.apolloUpdateJoystickAnalog,"ax",%progbits
 2221      AFF30080 
 2221      AFF30080 
 2222              		.align	2
 2223              		.p2align 4,,15
 2224              		.global	apolloUpdateJoystickAnalog
 2225              		.thumb
 2226              		.thumb_func
 2227              		.type	apolloUpdateJoystickAnalog, %function
 2228              	apolloUpdateJoystickAnalog:
 2229              	.LFB85:
 2230              		.loc 1 504 0
 2231              		.cfi_startproc
 2232              		@ args = 0, pretend = 0, frame = 0
 2233              		@ frame_needed = 0, uses_anonymous_args = 0
 2234              	.LVL134:
 2235 0000 38B5     		push	{r3, r4, r5, lr}
 2236              	.LCFI18:
 2237              		.cfi_def_cfa_offset 16
 2238              		.cfi_offset 14, -4
 2239              		.cfi_offset 5, -8
 2240              		.cfi_offset 4, -12
 2241              		.cfi_offset 3, -16
 2242              		.loc 1 505 0
 2243 0002 0028     		cmp	r0, #0
 2244 0004 14BF     		ite	ne
 2245 0006 4425     		movne	r5, #68
 2246 0008 1C25     		moveq	r5, #28
 2247              	.LVL135:
 2248              	.LBB308:
 2249              	.LBB309:
 2250              		.loc 1 163 0
 2251 000a 40F20000 		movw	r0, #:lower16:.LC0
 2252              	.LVL136:
 2253              	.LBE309:
 2254              	.LBE308:
 2255              		.loc 1 504 0
 2256 000e 1446     		mov	r4, r2
 2257              	.LBB312:
 2258              	.LBB310:
 2259              		.loc 1 163 0
 2260 0010 1131     		adds	r1, r1, #17
 2261              	.LVL137:
 2262 0012 2A46     		mov	r2, r5
 2263              	.LVL138:
 2264 0014 C0F20000 		movt	r0, #:upper16:.LC0
 2265              	.LBE310:
ARM GAS  /tmp/cc3rdzJM.s 			page 41


 2266              	.LBE312:
 2267              		.loc 1 504 0
 2268 0018 1D46     		mov	r5, r3
 2269              	.LVL139:
 2270              	.LBB313:
 2271              	.LBB311:
 2272              		.loc 1 163 0
 2273 001a FFF7FEFF 		bl	vt100_printf
 2274              	.LVL140:
 2275              	.LBE311:
 2276              	.LBE313:
 2277              		.loc 1 509 0
 2278 001e 40F20000 		movw	r0, #:lower16:.LC30
 2279 0022 C0F20000 		movt	r0, #:upper16:.LC30
 2280 0026 2146     		mov	r1, r4
 2281 0028 2A46     		mov	r2, r5
 2282              		.loc 1 510 0
 2283 002a BDE83840 		pop	{r3, r4, r5, lr}
 2284              		.loc 1 509 0
 2285 002e FFF7FEBF 		b	vt100_printf
 2286              		.cfi_endproc
 2287              	.LFE85:
 2288              		.size	apolloUpdateJoystickAnalog, .-apolloUpdateJoystickAnalog
 2289 0032 00BFAFF3 		.section	.text.apolloInit,"ax",%progbits
 2289      0080AFF3 
 2289      0080AFF3 
 2289      0080
 2290              		.align	2
 2291              		.p2align 4,,15
 2292              		.global	apolloInit
 2293              		.thumb
 2294              		.thumb_func
 2295              		.type	apolloInit, %function
 2296              	apolloInit:
 2297              	.LFB86:
 2298              		.loc 1 517 0
 2299              		.cfi_startproc
 2300              		@ args = 0, pretend = 0, frame = 0
 2301              		@ frame_needed = 0, uses_anonymous_args = 0
 2302              	.LBB314:
 2303              	.LBB315:
 2304              		.loc 1 151 0
 2305 0000 40F20000 		movw	r0, #:lower16:.LC31
 2306              	.LBE315:
 2307              	.LBE314:
 2308              		.loc 1 517 0
 2309 0004 08B5     		push	{r3, lr}
 2310              	.LCFI19:
 2311              		.cfi_def_cfa_offset 8
 2312              		.cfi_offset 14, -4
 2313              		.cfi_offset 3, -8
 2314              	.LBB317:
 2315              	.LBB316:
 2316              		.loc 1 151 0
 2317 0006 C0F20000 		movt	r0, #:upper16:.LC31
 2318 000a FFF7FEFF 		bl	vt100_printf
 2319              	.LBE316:
ARM GAS  /tmp/cc3rdzJM.s 			page 42


 2320              	.LBE317:
 2321              	.LBB318:
 2322              	.LBB319:
 2323              		.loc 1 143 0
 2324 000e 40F20000 		movw	r0, #:lower16:.LC32
 2325 0012 C0F20000 		movt	r0, #:upper16:.LC32
 2326 0016 FFF7FEFF 		bl	vt100_printf
 2327              	.LBE319:
 2328              	.LBE318:
 2329              	.LBB320:
 2330              	.LBB321:
 2331              		.loc 1 155 0
 2332 001a 40F20000 		movw	r0, #:lower16:.LC33
 2333 001e C0F20000 		movt	r0, #:upper16:.LC33
 2334 0022 FFF7FEFF 		bl	vt100_printf
 2335              	.LBE321:
 2336              	.LBE320:
 2337              		.loc 1 526 0
 2338 0026 FFF7FEFF 		bl	apolloScreenSetup
 2339              	.LBB322:
 2340              	.LBB323:
 2341              		.loc 1 159 0
 2342 002a 40F20000 		movw	r0, #:lower16:.LC34
 2343 002e C0F20000 		movt	r0, #:upper16:.LC34
 2344 0032 FFF7FEFF 		bl	vt100_printf
 2345              	.LBE323:
 2346              	.LBE322:
 2347              		.loc 1 531 0
 2348 0036 FFF7FEFF 		bl	apolloMotorSetup
 2349              		.loc 1 532 0
 2350 003a FFF7FEFF 		bl	apolloDigitalSetup
 2351              		.loc 1 533 0
 2352 003e FFF7FEFF 		bl	apolloAnalogSetup
 2353              		.loc 1 534 0
 2354 0042 0020     		movs	r0, #0
 2355 0044 FFF7FEFF 		bl	apolloJoystickSetup
 2356              		.loc 1 535 0
 2357 0048 FFF7FEFF 		bl	vexControllerCompetitonState
 2358 004c 8307     		lsls	r3, r0, #30
 2359 004e 00D4     		bmi	.L79
 2360 0050 08BD     		pop	{r3, pc}
 2361              	.L79:
 2362              		.loc 1 536 0
 2363 0052 0120     		movs	r0, #1
 2364              		.loc 1 537 0
 2365 0054 BDE80840 		pop	{r3, lr}
 2366              		.loc 1 536 0
 2367 0058 FFF7FEBF 		b	apolloJoystickSetup
 2368              		.cfi_endproc
 2369              	.LFE86:
 2370              		.size	apolloInit, .-apolloInit
 2371 005c AFF30080 		.section	.text.apolloDeinit,"ax",%progbits
 2372              		.align	2
 2373              		.p2align 4,,15
 2374              		.global	apolloDeinit
 2375              		.thumb
 2376              		.thumb_func
ARM GAS  /tmp/cc3rdzJM.s 			page 43


 2377              		.type	apolloDeinit, %function
 2378              	apolloDeinit:
 2379              	.LFB87:
 2380              		.loc 1 544 0
 2381              		.cfi_startproc
 2382              		@ args = 0, pretend = 0, frame = 0
 2383              		@ frame_needed = 0, uses_anonymous_args = 0
 2384              	.LVL141:
 2385              	.LBB332:
 2386              	.LBB333:
 2387              		.loc 1 163 0
 2388 0000 40F20000 		movw	r0, #:lower16:.LC0
 2389              	.LBE333:
 2390              	.LBE332:
 2391              		.loc 1 544 0
 2392 0004 08B5     		push	{r3, lr}
 2393              	.LCFI20:
 2394              		.cfi_def_cfa_offset 8
 2395              		.cfi_offset 14, -4
 2396              		.cfi_offset 3, -8
 2397              	.LBB335:
 2398              	.LBB334:
 2399              		.loc 1 163 0
 2400 0006 1821     		movs	r1, #24
 2401 0008 0122     		movs	r2, #1
 2402 000a C0F20000 		movt	r0, #:upper16:.LC0
 2403 000e FFF7FEFF 		bl	vt100_printf
 2404              	.LBE334:
 2405              	.LBE335:
 2406              	.LBB336:
 2407              	.LBB337:
 2408              		.loc 1 151 0
 2409 0012 40F20000 		movw	r0, #:lower16:.LC31
 2410 0016 C0F20000 		movt	r0, #:upper16:.LC31
 2411 001a FFF7FEFF 		bl	vt100_printf
 2412              	.LBE337:
 2413              	.LBE336:
 2414              	.LBB338:
 2415              	.LBB339:
 2416              		.loc 1 147 0
 2417 001e 40F20000 		movw	r0, #:lower16:.LC35
 2418 0022 C0F20000 		movt	r0, #:upper16:.LC35
 2419 0026 FFF7FEFF 		bl	vt100_printf
 2420              	.LBE339:
 2421              	.LBE338:
 2422              	.LBB340:
 2423              	.LBB341:
 2424              		.loc 1 159 0
 2425 002a 40F20000 		movw	r0, #:lower16:.LC34
 2426 002e C0F20000 		movt	r0, #:upper16:.LC34
 2427              	.LBE341:
 2428              	.LBE340:
 2429              		.loc 1 552 0
 2430 0032 BDE80840 		pop	{r3, lr}
 2431              	.LBB343:
 2432              	.LBB342:
 2433              		.loc 1 159 0
ARM GAS  /tmp/cc3rdzJM.s 			page 44


 2434 0036 FFF7FEBF 		b	vt100_printf
 2435              	.LBE342:
 2436              	.LBE343:
 2437              		.cfi_endproc
 2438              	.LFE87:
 2439              		.size	apolloDeinit, .-apolloDeinit
 2440 003a 00BFAFF3 		.section	.text.apolloUpdate,"ax",%progbits
 2440      0080
 2441              		.align	2
 2442              		.p2align 4,,15
 2443              		.global	apolloUpdate
 2444              		.thumb
 2445              		.thumb_func
 2446              		.type	apolloUpdate, %function
 2447              	apolloUpdate:
 2448              	.LFB88:
 2449              		.loc 1 559 0
 2450              		.cfi_startproc
 2451              		@ args = 0, pretend = 0, frame = 0
 2452              		@ frame_needed = 0, uses_anonymous_args = 0
 2453              	.LVL142:
 2454 0000 F0B5     		push	{r4, r5, r6, r7, lr}
 2455              	.LCFI21:
 2456              		.cfi_def_cfa_offset 20
 2457              		.cfi_offset 14, -4
 2458              		.cfi_offset 7, -8
 2459              		.cfi_offset 6, -12
 2460              		.cfi_offset 5, -16
 2461              		.cfi_offset 4, -20
 2462              		.loc 1 564 0
 2463 0002 0020     		movs	r0, #0
 2464              		.loc 1 559 0
 2465 0004 83B0     		sub	sp, sp, #12
 2466              	.LCFI22:
 2467              		.cfi_def_cfa_offset 32
 2468              		.loc 1 564 0
 2469 0006 FFF7FEFF 		bl	apolloUpdateMotor
 2470              	.LVL143:
 2471 000a 0120     		movs	r0, #1
 2472 000c FFF7FEFF 		bl	apolloUpdateMotor
 2473              	.LVL144:
 2474 0010 0220     		movs	r0, #2
 2475 0012 FFF7FEFF 		bl	apolloUpdateMotor
 2476              	.LVL145:
 2477 0016 0320     		movs	r0, #3
 2478 0018 FFF7FEFF 		bl	apolloUpdateMotor
 2479              	.LVL146:
 2480 001c 0420     		movs	r0, #4
 2481 001e FFF7FEFF 		bl	apolloUpdateMotor
 2482              	.LVL147:
 2483 0022 0520     		movs	r0, #5
 2484 0024 FFF7FEFF 		bl	apolloUpdateMotor
 2485              	.LVL148:
 2486 0028 0620     		movs	r0, #6
 2487 002a FFF7FEFF 		bl	apolloUpdateMotor
 2488              	.LVL149:
 2489 002e 0720     		movs	r0, #7
ARM GAS  /tmp/cc3rdzJM.s 			page 45


 2490 0030 FFF7FEFF 		bl	apolloUpdateMotor
 2491              	.LVL150:
 2492 0034 0820     		movs	r0, #8
 2493 0036 FFF7FEFF 		bl	apolloUpdateMotor
 2494              	.LVL151:
 2495 003a 0920     		movs	r0, #9
 2496 003c FFF7FEFF 		bl	apolloUpdateMotor
 2497              	.LVL152:
 2498              		.loc 1 568 0
 2499 0040 0020     		movs	r0, #0
 2500 0042 FFF7FEFF 		bl	apolloUpdateDigital
 2501              	.LVL153:
 2502 0046 0120     		movs	r0, #1
 2503 0048 FFF7FEFF 		bl	apolloUpdateDigital
 2504              	.LVL154:
 2505 004c 0220     		movs	r0, #2
 2506 004e FFF7FEFF 		bl	apolloUpdateDigital
 2507              	.LVL155:
 2508 0052 0320     		movs	r0, #3
 2509 0054 FFF7FEFF 		bl	apolloUpdateDigital
 2510              	.LVL156:
 2511 0058 0420     		movs	r0, #4
 2512 005a FFF7FEFF 		bl	apolloUpdateDigital
 2513              	.LVL157:
 2514 005e 0520     		movs	r0, #5
 2515 0060 FFF7FEFF 		bl	apolloUpdateDigital
 2516              	.LVL158:
 2517 0064 0620     		movs	r0, #6
 2518 0066 FFF7FEFF 		bl	apolloUpdateDigital
 2519              	.LVL159:
 2520 006a 0720     		movs	r0, #7
 2521 006c FFF7FEFF 		bl	apolloUpdateDigital
 2522              	.LVL160:
 2523 0070 0820     		movs	r0, #8
 2524 0072 FFF7FEFF 		bl	apolloUpdateDigital
 2525              	.LVL161:
 2526 0076 0920     		movs	r0, #9
 2527 0078 FFF7FEFF 		bl	apolloUpdateDigital
 2528              	.LVL162:
 2529 007c 0A20     		movs	r0, #10
 2530 007e FFF7FEFF 		bl	apolloUpdateDigital
 2531              	.LVL163:
 2532 0082 0B20     		movs	r0, #11
 2533 0084 FFF7FEFF 		bl	apolloUpdateDigital
 2534              	.LVL164:
 2535              		.loc 1 572 0
 2536 0088 0020     		movs	r0, #0
 2537 008a FFF7FEFF 		bl	apolloUpdateAnalog
 2538              	.LVL165:
 2539 008e 0120     		movs	r0, #1
 2540 0090 FFF7FEFF 		bl	apolloUpdateAnalog
 2541              	.LVL166:
 2542 0094 0220     		movs	r0, #2
 2543 0096 FFF7FEFF 		bl	apolloUpdateAnalog
 2544              	.LVL167:
 2545 009a 0320     		movs	r0, #3
 2546 009c FFF7FEFF 		bl	apolloUpdateAnalog
ARM GAS  /tmp/cc3rdzJM.s 			page 46


 2547              	.LVL168:
 2548 00a0 0420     		movs	r0, #4
 2549 00a2 FFF7FEFF 		bl	apolloUpdateAnalog
 2550              	.LVL169:
 2551 00a6 0520     		movs	r0, #5
 2552 00a8 FFF7FEFF 		bl	apolloUpdateAnalog
 2553              	.LVL170:
 2554 00ac 0620     		movs	r0, #6
 2555 00ae FFF7FEFF 		bl	apolloUpdateAnalog
 2556              	.LVL171:
 2557 00b2 0720     		movs	r0, #7
 2558 00b4 FFF7FEFF 		bl	apolloUpdateAnalog
 2559              	.LVL172:
 2560              		.loc 1 575 0
 2561 00b8 0020     		movs	r0, #0
 2562 00ba FFF7FEFF 		bl	apolloUpdateCortex
 2563              		.loc 1 576 0
 2564 00be 0120     		movs	r0, #1
 2565 00c0 FFF7FEFF 		bl	apolloUpdateCortex
 2566              		.loc 1 577 0
 2567 00c4 FFF7FEFF 		bl	apolloUpdateSystem
 2568              		.loc 1 580 0
 2569 00c8 0D20     		movs	r0, #13
 2570 00ca FFF7FEFF 		bl	vexControllerGet
 2571 00ce 0646     		mov	r6, r0
 2572 00d0 0C20     		movs	r0, #12
 2573 00d2 FFF7FEFF 		bl	vexControllerGet
 2574 00d6 0346     		mov	r3, r0
 2575 00d8 0020     		movs	r0, #0
 2576 00da 0146     		mov	r1, r0
 2577 00dc 3246     		mov	r2, r6
 2578 00de 4FF0FF34 		mov	r4, #-1
 2579 00e2 0094     		str	r4, [sp, #0]
 2580 00e4 0194     		str	r4, [sp, #4]
 2581 00e6 FFF7FEFF 		bl	apolloUpdateJoystickButton
 2582              		.loc 1 581 0
 2583 00ea 0F20     		movs	r0, #15
 2584 00ec FFF7FEFF 		bl	vexControllerGet
 2585 00f0 0546     		mov	r5, r0
 2586 00f2 0E20     		movs	r0, #14
 2587 00f4 FFF7FEFF 		bl	vexControllerGet
 2588 00f8 0121     		movs	r1, #1
 2589 00fa 0346     		mov	r3, r0
 2590 00fc 2A46     		mov	r2, r5
 2591 00fe 0020     		movs	r0, #0
 2592 0100 0094     		str	r4, [sp, #0]
 2593 0102 0194     		str	r4, [sp, #4]
 2594 0104 FFF7FEFF 		bl	apolloUpdateJoystickButton
 2595              		.loc 1 582 0
 2596 0108 0A20     		movs	r0, #10
 2597 010a FFF7FEFF 		bl	vexControllerGet
 2598 010e 0746     		mov	r7, r0
 2599 0110 0820     		movs	r0, #8
 2600 0112 FFF7FEFF 		bl	vexControllerGet
 2601 0116 0646     		mov	r6, r0
 2602 0118 0920     		movs	r0, #9
 2603 011a FFF7FEFF 		bl	vexControllerGet
ARM GAS  /tmp/cc3rdzJM.s 			page 47


 2604 011e 0546     		mov	r5, r0
 2605 0120 0B20     		movs	r0, #11
 2606 0122 FFF7FEFF 		bl	vexControllerGet
 2607 0126 0221     		movs	r1, #2
 2608 0128 3A46     		mov	r2, r7
 2609 012a 3346     		mov	r3, r6
 2610 012c 0190     		str	r0, [sp, #4]
 2611 012e 0020     		movs	r0, #0
 2612 0130 0095     		str	r5, [sp, #0]
 2613 0132 FFF7FEFF 		bl	apolloUpdateJoystickButton
 2614              		.loc 1 583 0
 2615 0136 0620     		movs	r0, #6
 2616 0138 FFF7FEFF 		bl	vexControllerGet
 2617 013c 0746     		mov	r7, r0
 2618 013e 0420     		movs	r0, #4
 2619 0140 FFF7FEFF 		bl	vexControllerGet
 2620 0144 0646     		mov	r6, r0
 2621 0146 0520     		movs	r0, #5
 2622 0148 FFF7FEFF 		bl	vexControllerGet
 2623 014c 0546     		mov	r5, r0
 2624 014e 0720     		movs	r0, #7
 2625 0150 FFF7FEFF 		bl	vexControllerGet
 2626 0154 0321     		movs	r1, #3
 2627 0156 3A46     		mov	r2, r7
 2628 0158 3346     		mov	r3, r6
 2629 015a 0190     		str	r0, [sp, #4]
 2630 015c 0020     		movs	r0, #0
 2631 015e 0095     		str	r5, [sp, #0]
 2632 0160 FFF7FEFF 		bl	apolloUpdateJoystickButton
 2633              		.loc 1 584 0
 2634 0164 0320     		movs	r0, #3
 2635 0166 FFF7FEFF 		bl	vexControllerGet
 2636 016a 0546     		mov	r5, r0
 2637 016c 0220     		movs	r0, #2
 2638 016e FFF7FEFF 		bl	vexControllerGet
 2639 0172 0346     		mov	r3, r0
 2640 0174 0020     		movs	r0, #0
 2641 0176 0146     		mov	r1, r0
 2642 0178 2A46     		mov	r2, r5
 2643 017a FFF7FEFF 		bl	apolloUpdateJoystickAnalog
 2644              		.loc 1 585 0
 2645 017e 0020     		movs	r0, #0
 2646 0180 FFF7FEFF 		bl	vexControllerGet
 2647 0184 0546     		mov	r5, r0
 2648 0186 0120     		movs	r0, #1
 2649 0188 FFF7FEFF 		bl	vexControllerGet
 2650 018c 0121     		movs	r1, #1
 2651 018e 0346     		mov	r3, r0
 2652 0190 2A46     		mov	r2, r5
 2653 0192 0020     		movs	r0, #0
 2654 0194 FFF7FEFF 		bl	apolloUpdateJoystickAnalog
 2655              		.loc 1 586 0
 2656 0198 1020     		movs	r0, #16
 2657 019a FFF7FEFF 		bl	vexControllerGet
 2658 019e 0546     		mov	r5, r0
 2659 01a0 1120     		movs	r0, #17
 2660 01a2 FFF7FEFF 		bl	vexControllerGet
ARM GAS  /tmp/cc3rdzJM.s 			page 48


 2661 01a6 0321     		movs	r1, #3
 2662 01a8 0346     		mov	r3, r0
 2663 01aa 2A46     		mov	r2, r5
 2664 01ac 0020     		movs	r0, #0
 2665 01ae FFF7FEFF 		bl	apolloUpdateJoystickAnalog
 2666              		.loc 1 588 0
 2667 01b2 FFF7FEFF 		bl	vexControllerCompetitonState
 2668 01b6 8207     		lsls	r2, r0, #30
 2669 01b8 72D5     		bpl	.L82
 2670              		.loc 1 591 0
 2671 01ba 8D20     		movs	r0, #141
 2672 01bc FFF7FEFF 		bl	vexControllerGet
 2673 01c0 0646     		mov	r6, r0
 2674 01c2 8C20     		movs	r0, #140
 2675 01c4 FFF7FEFF 		bl	vexControllerGet
 2676 01c8 0021     		movs	r1, #0
 2677 01ca 0346     		mov	r3, r0
 2678 01cc 3246     		mov	r2, r6
 2679 01ce 0120     		movs	r0, #1
 2680 01d0 0094     		str	r4, [sp, #0]
 2681 01d2 0194     		str	r4, [sp, #4]
 2682 01d4 FFF7FEFF 		bl	apolloUpdateJoystickButton
 2683              		.loc 1 592 0
 2684 01d8 8F20     		movs	r0, #143
 2685 01da FFF7FEFF 		bl	vexControllerGet
 2686 01de 0546     		mov	r5, r0
 2687 01e0 8E20     		movs	r0, #142
 2688 01e2 FFF7FEFF 		bl	vexControllerGet
 2689 01e6 0346     		mov	r3, r0
 2690 01e8 0120     		movs	r0, #1
 2691 01ea 0146     		mov	r1, r0
 2692 01ec 2A46     		mov	r2, r5
 2693 01ee 0094     		str	r4, [sp, #0]
 2694 01f0 0194     		str	r4, [sp, #4]
 2695 01f2 FFF7FEFF 		bl	apolloUpdateJoystickButton
 2696              		.loc 1 593 0
 2697 01f6 8A20     		movs	r0, #138
 2698 01f8 FFF7FEFF 		bl	vexControllerGet
 2699 01fc 0646     		mov	r6, r0
 2700 01fe 8820     		movs	r0, #136
 2701 0200 FFF7FEFF 		bl	vexControllerGet
 2702 0204 0546     		mov	r5, r0
 2703 0206 8920     		movs	r0, #137
 2704 0208 FFF7FEFF 		bl	vexControllerGet
 2705 020c 0446     		mov	r4, r0
 2706 020e 8B20     		movs	r0, #139
 2707 0210 FFF7FEFF 		bl	vexControllerGet
 2708 0214 0221     		movs	r1, #2
 2709 0216 3246     		mov	r2, r6
 2710 0218 2B46     		mov	r3, r5
 2711 021a 0190     		str	r0, [sp, #4]
 2712 021c 0120     		movs	r0, #1
 2713 021e 0094     		str	r4, [sp, #0]
 2714 0220 FFF7FEFF 		bl	apolloUpdateJoystickButton
 2715              		.loc 1 594 0
 2716 0224 8620     		movs	r0, #134
 2717 0226 FFF7FEFF 		bl	vexControllerGet
ARM GAS  /tmp/cc3rdzJM.s 			page 49


 2718 022a 0646     		mov	r6, r0
 2719 022c 8420     		movs	r0, #132
 2720 022e FFF7FEFF 		bl	vexControllerGet
 2721 0232 0546     		mov	r5, r0
 2722 0234 8520     		movs	r0, #133
 2723 0236 FFF7FEFF 		bl	vexControllerGet
 2724 023a 0446     		mov	r4, r0
 2725 023c 8720     		movs	r0, #135
 2726 023e FFF7FEFF 		bl	vexControllerGet
 2727 0242 0321     		movs	r1, #3
 2728 0244 3246     		mov	r2, r6
 2729 0246 2B46     		mov	r3, r5
 2730 0248 0190     		str	r0, [sp, #4]
 2731 024a 0120     		movs	r0, #1
 2732 024c 0094     		str	r4, [sp, #0]
 2733 024e FFF7FEFF 		bl	apolloUpdateJoystickButton
 2734              		.loc 1 595 0
 2735 0252 8320     		movs	r0, #131
 2736 0254 FFF7FEFF 		bl	vexControllerGet
 2737 0258 0446     		mov	r4, r0
 2738 025a 8220     		movs	r0, #130
 2739 025c FFF7FEFF 		bl	vexControllerGet
 2740 0260 2246     		mov	r2, r4
 2741 0262 0346     		mov	r3, r0
 2742 0264 0021     		movs	r1, #0
 2743 0266 0120     		movs	r0, #1
 2744 0268 FFF7FEFF 		bl	apolloUpdateJoystickAnalog
 2745              		.loc 1 596 0
 2746 026c 8020     		movs	r0, #128
 2747 026e FFF7FEFF 		bl	vexControllerGet
 2748 0272 0446     		mov	r4, r0
 2749 0274 8120     		movs	r0, #129
 2750 0276 FFF7FEFF 		bl	vexControllerGet
 2751 027a 0346     		mov	r3, r0
 2752 027c 0120     		movs	r0, #1
 2753 027e 0146     		mov	r1, r0
 2754 0280 2246     		mov	r2, r4
 2755 0282 FFF7FEFF 		bl	apolloUpdateJoystickAnalog
 2756              		.loc 1 597 0
 2757 0286 9020     		movs	r0, #144
 2758 0288 FFF7FEFF 		bl	vexControllerGet
 2759 028c 0446     		mov	r4, r0
 2760 028e 9120     		movs	r0, #145
 2761 0290 FFF7FEFF 		bl	vexControllerGet
 2762 0294 0321     		movs	r1, #3
 2763 0296 0346     		mov	r3, r0
 2764 0298 2246     		mov	r2, r4
 2765 029a 0120     		movs	r0, #1
 2766 029c FFF7FEFF 		bl	apolloUpdateJoystickAnalog
 2767              	.L82:
 2768              	.LVL173:
 2769              	.LBB346:
 2770              	.LBB347:
 2771              		.loc 1 163 0
 2772 02a0 40F20000 		movw	r0, #:lower16:.LC0
 2773 02a4 C0F20000 		movt	r0, #:upper16:.LC0
 2774 02a8 1821     		movs	r1, #24
ARM GAS  /tmp/cc3rdzJM.s 			page 50


 2775 02aa 5022     		movs	r2, #80
 2776              	.LBE347:
 2777              	.LBE346:
 2778              		.loc 1 602 0
 2779 02ac 03B0     		add	sp, sp, #12
 2780 02ae BDE8F040 		pop	{r4, r5, r6, r7, lr}
 2781              	.LBB349:
 2782              	.LBB348:
 2783              		.loc 1 163 0
 2784 02b2 FFF7FEBF 		b	vt100_printf
 2785              	.LBE348:
 2786              	.LBE349:
 2787              		.cfi_endproc
 2788              	.LFE88:
 2789              		.size	apolloUpdate, .-apolloUpdate
 2790 02b6 00BFAFF3 		.section	.bss.count.7707,"aw",%nobits
 2790      0080AFF3 
 2790      0080
 2791              		.align	2
 2792              		.set	.LANCHOR0,. + 0
 2793              		.type	count.7707, %object
 2794              		.size	count.7707, 4
 2795              	count.7707:
 2796 0000 00000000 		.space	4
 2797              		.section	.rodata.str1.4,"aMS",%progbits,1
 2798              		.align	2
 2799              	.LC0:
 2800 0000 1B5B2564 		.ascii	"\033[%d;%dH\000"
 2800      3B256448 
 2800      00
 2801 0009 000000   		.space	3
 2802              	.LC1:
 2803 000c 1B5B2564 		.ascii	"\033[%dm\000"
 2803      6D00
 2804 0012 0000     		.space	2
 2805              	.LC2:
 2806 0014 204D5452 		.ascii	" MTR EID  CMD ENCODER  RPM  AMPS  TEMP \000"
 2806      20454944 
 2806      2020434D 
 2806      4420454E 
 2806      434F4445 
 2807              	.LC3:
 2808 003c 25326400 		.ascii	"%2d\000"
 2809              	.LC4:
 2810 0040 4320312D 		.ascii	"C 1-5 \000"
 2810      352000
 2811 0047 00       		.space	1
 2812              	.LC5:
 2813 0048 4320362D 		.ascii	"C 6-10\000"
 2813      313000
 2814 004f 00       		.space	1
 2815              	.LC6:
 2816 0050 20204449 		.ascii	"  DIGITAL          \000"
 2816      47495441 
 2816      4C202020 
 2816      20202020 
 2816      20202000 
ARM GAS  /tmp/cc3rdzJM.s 			page 51


 2817              	.LC7:
 2818 0064 25326420 		.ascii	"%2d %s\000"
 2818      257300
 2819 006b 00       		.space	1
 2820              	.LC8:
 2821 006c 2020414E 		.ascii	"  ANALOG          \000"
 2821      414C4F47 
 2821      20202020 
 2821      20202020 
 2821      202000
 2822 007f 00       		.space	1
 2823              	.LC9:
 2824 0080 20205520 		.ascii	"  U  D  L  R \000"
 2824      20442020 
 2824      4C202052 
 2824      2000
 2825 008e 0000     		.space	2
 2826              	.LC10:
 2827 0090 20202020 		.ascii	"    H     V \000"
 2827      48202020 
 2827      20205620 
 2827      00
 2828 009d 000000   		.space	3
 2829              	.LC11:
 2830 00a0 20202020 		.ascii	"    X     Y \000"
 2830      58202020 
 2830      20205920 
 2830      00
 2831 00ad 000000   		.space	3
 2832              	.LC12:
 2833 00b0 2042544E 		.ascii	" BTN5 \000"
 2833      352000
 2834 00b7 00       		.space	1
 2835              	.LC13:
 2836 00b8 2042544E 		.ascii	" BTN6 \000"
 2836      362000
 2837 00bf 00       		.space	1
 2838              	.LC14:
 2839 00c0 2042544E 		.ascii	" BTN7 \000"
 2839      372000
 2840 00c7 00       		.space	1
 2841              	.LC15:
 2842 00c8 2042544E 		.ascii	" BTN8 \000"
 2842      382000
 2843 00cf 00       		.space	1
 2844              	.LC16:
 2845 00d0 204A535F 		.ascii	" JS_1 \000"
 2845      312000
 2846 00d7 00       		.space	1
 2847              	.LC17:
 2848 00d8 204A535F 		.ascii	" JS_2 \000"
 2848      322000
 2849 00df 00       		.space	1
 2850              	.LC18:
 2851 00e0 20414343 		.ascii	" ACCL \000"
 2851      4C2000
 2852 00e7 00       		.space	1
ARM GAS  /tmp/cc3rdzJM.s 			page 52


 2853              	.LC19:
 2854 00e8 25326420 		.ascii	"%2d %c%4d %7d %4d %5.2f  %4.1f\000"
 2854      25632534 
 2854      64202537 
 2854      64202534 
 2854      64202535 
 2855 0107 00       		.space	1
 2856              	.LC20:
 2857 0108 2D2D2025 		.ascii	"-- %c%4d %7d %4d %5.2f  %4.1f\000"
 2857      63253464 
 2857      20253764 
 2857      20253464 
 2857      2025352E 
 2858 0126 0000     		.space	2
 2859              	.LC21:
 2860 0128 20202020 		.ascii	"    ----  ------  ---  ----  ----\000"
 2860      2D2D2D2D 
 2860      20202D2D 
 2860      2D2D2D2D 
 2860      20202D2D 
 2861 014a 0000     		.space	2
 2862              	.LC22:
 2863 014c 25352E32 		.ascii	"%5.2f  %4.1f\000"
 2863      66202025 
 2863      342E3166 
 2863      00
 2864 0159 000000   		.space	3
 2865              	.LC23:
 2866 015c 25376400 		.ascii	"%7d\000"
 2867              	.LC24:
 2868 0160 25346400 		.ascii	"%4d\000"
 2869              	.LC25:
 2870 0164 25303264 		.ascii	"%02d:%02d:%02d  \000"
 2870      3A253032 
 2870      643A2530 
 2870      32642020 
 2870      00
 2871 0175 000000   		.space	3
 2872              	.LC26:
 2873 0178 4D61696E 		.ascii	"Main %4.2fV  \000"
 2873      2025342E 
 2873      32665620 
 2873      2000
 2874 0186 0000     		.space	2
 2875              	.LC27:
 2876 0188 4261636B 		.ascii	"Backup %4.2fV\000"
 2876      75702025 
 2876      342E3266 
 2876      5600
 2877 0196 0000     		.space	2
 2878              	.LC28:
 2879 0198 25642020 		.ascii	"%d  %d  %d  %d\000"
 2879      25642020 
 2879      25642020 
 2879      256400
 2880 01a7 00       		.space	1
 2881              	.LC29:
ARM GAS  /tmp/cc3rdzJM.s 			page 53


 2882 01a8 25642020 		.ascii	"%d  %d\000"
 2882      256400
 2883 01af 00       		.space	1
 2884              	.LC30:
 2885 01b0 25346420 		.ascii	"%4d  %4d\000"
 2885      20253464 
 2885      00
 2886 01b9 000000   		.space	3
 2887              	.LC31:
 2888 01bc 1B5B324A 		.ascii	"\033[2J\000"
 2888      00
 2889 01c1 000000   		.space	3
 2890              	.LC32:
 2891 01c4 1B5B3F32 		.ascii	"\033[?25l\000"
 2891      356C00
 2892 01cb 00       		.space	1
 2893              	.LC33:
 2894 01cc 1B283000 		.ascii	"\033(0\000"
 2895              	.LC34:
 2896 01d0 1B284200 		.ascii	"\033(B\000"
 2897              	.LC35:
 2898 01d4 1B5B3F32 		.ascii	"\033[?25h\000"
 2898      356800
 2899 01db 00       		.section	.bss.buffer.7711,"aw",%nobits
 2900              		.align	2
 2901              		.set	.LANCHOR1,. + 0
 2902              		.type	buffer.7711, %object
 2903              		.size	buffer.7711, 64
 2904              	buffer.7711:
 2905 0000 00000000 		.space	64
 2905      00000000 
 2905      00000000 
 2905      00000000 
 2905      00000000 
 2906              		.text
 2907              	.Letext0:
 2908              		.file 2 "/opt/pros/toolchain/bin/../lib/gcc/arm-none-eabi/4.6.3/include/stddef.h"
 2909              		.file 3 "/opt/pros/toolchain/bin/../lib/gcc/arm-none-eabi/4.6.3/include/stdarg.h"
 2910              		.file 4 "/opt/pros/toolchain/bin/../lib/gcc/arm-none-eabi/4.6.3/../../../../arm-none-eabi/include/
 2911              		.file 5 "../ChibiOS_2.6.2/os/ports/GCC/ARMCMx/chtypes.h"
 2912              		.file 6 "../ChibiOS_2.6.2/os/kernel/include/chlists.h"
 2913              		.file 7 "<built-in>"
 2914              		.file 8 "../ChibiOS_2.6.2/os/kernel/include/chthreads.h"
 2915              		.file 9 "../ChibiOS_2.6.2/os/ports/GCC/ARMCMx/chcore_v7m.h"
 2916              		.file 10 "../ChibiOS_2.6.2/os/kernel/include/chvt.h"
 2917              		.file 11 "../ChibiOS_2.6.2/os/kernel/include/chmtx.h"
 2918              		.file 12 "../ChibiOS_2.6.2/os/kernel/include/chevents.h"
 2919              		.file 13 "../ChibiOS_2.6.2/os/kernel/include/chqueues.h"
 2920              		.file 14 "../ChibiOS_2.6.2/os/hal/platforms/STM32F1xx/stm32f10x.h"
 2921              		.file 15 "../ChibiOS_2.6.2/os/hal/include/serial.h"
 2922              		.file 16 "../convex/cortex/fw/vexmotor.h"
 2923              		.file 17 "../convex/cortex/fw/vexconfig.h"
 2924              		.file 18 "../convex/cortex/fw/vexctl.h"
 2925              		.file 19 "../ChibiOS_2.6.2/os/ports/common/ARMCMx/CMSIS/include/core_cm3.h"
 2926              		.file 20 "../ChibiOS_2.6.2/os/hal/platforms/STM32/USARTv1/serial_lld.h"