ARM GAS  /tmp/cc3rdzJM.s 			page 1


   1              		.syntax unified
   2              		.cpu cortex-m3
   3              		.fpu softvfp
   4              		.eabi_attribute 20, 1
   5              		.eabi_attribute 21, 1
   6              		.eabi_attribute 23, 3
   7              		.eabi_attribute 24, 1
   8              		.eabi_attribute 25, 1
   9              		.eabi_attribute 26, 1
  10              		.eabi_attribute 30, 2
  11              		.eabi_attribute 34, 1
  12              		.eabi_attribute 18, 4
  13              		.thumb
  14              		.file	"apollo.c"
  15              		.text
  16              	.Ltext0:
  17              		.cfi_sections	.debug_frame
  18              		.section	.text.apolloPut,"ax",%progbits
  19              		.align	2
  20              		.p2align 4,,15
  21              		.thumb
  22              		.thumb_func
  23              		.type	apolloPut, %function
  24              	apolloPut:
  25              	.LFB64:
  26              		.file 1 "../convex/cortex/opt/apollo.c"
  27              		.loc 1 83 0
  28              		.cfi_startproc
  29              		@ args = 0, pretend = 0, frame = 0
  30              		@ frame_needed = 0, uses_anonymous_args = 0
  31              	.LVL0:
  32 0000 08B5     		push	{r3, lr}
  33              	.LCFI0:
  34              		.cfi_def_cfa_offset 8
  35              		.cfi_offset 14, -4
  36              		.cfi_offset 3, -8
  37              		.loc 1 83 0
  38 0002 0146     		mov	r1, r0
  39              		.loc 1 87 0
  40 0004 4FF0FF32 		mov	r2, #-1
  41 0008 0948     		ldr	r0, .L5
  42              	.LVL1:
  43 000a FFF7FEFF 		bl	chOQPutTimeout
  44              		.loc 1 90 0
  45 000e 40F20003 		movw	r3, #:lower16:.LANCHOR0
  46 0012 C0F20003 		movt	r3, #:upper16:.LANCHOR0
  47 0016 1868     		ldr	r0, [r3, #0]
  48 0018 421C     		adds	r2, r0, #1
  49 001a 202A     		cmp	r2, #32
  50 001c 1A60     		str	r2, [r3, #0]
  51 001e 00D0     		beq	.L4
  52 0020 08BD     		pop	{r3, pc}
  53              	.L4:
  54              	.LBB18:
  55              	.LBB19:
  56              		.loc 1 92 0
  57 0022 0021     		movs	r1, #0
ARM GAS  /tmp/cc3rdzJM.s 			page 2


  58              		.loc 1 93 0
  59 0024 0820     		movs	r0, #8
  60              		.loc 1 92 0
  61 0026 1960     		str	r1, [r3, #0]
  62              	.LBE19:
  63              	.LBE18:
  64              		.loc 1 95 0
  65 0028 BDE80840 		pop	{r3, lr}
  66              	.LBB21:
  67              	.LBB20:
  68              		.loc 1 93 0
  69 002c FFF7FEBF 		b	chThdSleep
  70              	.L6:
  71              		.align	2
  72              	.L5:
  73 0030 30000000 		.word	SD1+48
  74              	.LBE20:
  75              	.LBE21:
  76              		.cfi_endproc
  77              	.LFE64:
  78              		.size	apolloPut, .-apolloPut
  79 0034 AFF30080 		.section	.text.vt100_printf,"ax",%progbits
  79      AFF30080 
  79      AFF30080 
  80              		.align	2
  81              		.p2align 4,,15
  82              		.thumb
  83              		.thumb_func
  84              		.type	vt100_printf, %function
  85              	vt100_printf:
  86              	.LFB65:
  87              		.loc 1 109 0
  88              		.cfi_startproc
  89              		@ args = 4, pretend = 16, frame = 8
  90              		@ frame_needed = 0, uses_anonymous_args = 1
  91              	.LVL2:
  92 0000 0FB4     		push	{r0, r1, r2, r3}
  93              	.LCFI1:
  94              		.cfi_def_cfa_offset 16
  95              		.cfi_offset 3, -4
  96              		.cfi_offset 2, -8
  97              		.cfi_offset 1, -12
  98              		.cfi_offset 0, -16
  99 0002 30B5     		push	{r4, r5, lr}
 100              	.LCFI2:
 101              		.cfi_def_cfa_offset 28
 102              		.cfi_offset 14, -20
 103              		.cfi_offset 5, -24
 104              		.cfi_offset 4, -28
 105 0004 83B0     		sub	sp, sp, #12
 106              	.LCFI3:
 107              		.cfi_def_cfa_offset 40
 108              		.loc 1 109 0
 109 0006 06AD     		add	r5, sp, #24
 110 0008 55F8042B 		ldr	r2, [r5], #4
 111              		.loc 1 117 0
 112 000c 0F4C     		ldr	r4, .L13
ARM GAS  /tmp/cc3rdzJM.s 			page 3


 113 000e 40F20000 		movw	r0, #:lower16:.LANCHOR1
 114 0012 4021     		movs	r1, #64
 115 0014 2B46     		mov	r3, r5
 116 0016 C0F20000 		movt	r0, #:upper16:.LANCHOR1
 117              		.loc 1 115 0
 118 001a 0195     		str	r5, [sp, #4]
 119              		.loc 1 108 0
 120 001c 6518     		adds	r5, r4, r1
 121              		.loc 1 117 0
 122 001e FFF7FEFF 		bl	vex_vsnprintf
 123              	.LVL3:
 124 0022 09E0     		b	.L8
 125              	.LVL4:
 126              	.L10:
 127              		.loc 1 120 0 discriminator 1
 128 0024 FFF7FEFF 		bl	apolloPut
 129              		.loc 1 119 0 discriminator 1
 130 0028 6378     		ldrb	r3, [r4, #1]	@ zero_extendqisi2
 131 002a 0134     		adds	r4, r4, #1
 132              		.loc 1 120 0 discriminator 1
 133 002c 1846     		mov	r0, r3
 134              		.loc 1 119 0 discriminator 1
 135 002e 43B1     		cbz	r3, .L7
 136              		.loc 1 120 0
 137 0030 FFF7FEFF 		bl	apolloPut
 138              		.loc 1 119 0
 139 0034 AC42     		cmp	r4, r5
 140 0036 04D0     		beq	.L7
 141              	.L8:
 142              		.loc 1 119 0 is_stmt 0 discriminator 2
 143 0038 6178     		ldrb	r1, [r4, #1]	@ zero_extendqisi2
 144 003a 0134     		adds	r4, r4, #1
 145              		.loc 1 120 0 is_stmt 1 discriminator 2
 146 003c 0846     		mov	r0, r1
 147              		.loc 1 119 0 discriminator 2
 148 003e 0029     		cmp	r1, #0
 149 0040 F0D1     		bne	.L10
 150              	.L7:
 151              		.loc 1 123 0
 152 0042 03B0     		add	sp, sp, #12
 153 0044 BDE83040 		pop	{r4, r5, lr}
 154 0048 04B0     		add	sp, sp, #16
 155 004a 7047     		bx	lr
 156              	.L14:
 157              		.align	2
 158              	.L13:
 159 004c FFFFFFFF 		.word	.LANCHOR1-1
 160              		.cfi_endproc
 161              	.LFE65:
 162              		.size	vt100_printf, .-vt100_printf
 163              		.section	.text.vt100_drawbox,"ax",%progbits
 164              		.align	2
 165              		.p2align 4,,15
 166              		.global	vt100_drawbox
 167              		.thumb
 168              		.thumb_func
 169              		.type	vt100_drawbox, %function
ARM GAS  /tmp/cc3rdzJM.s 			page 4


 170              	vt100_drawbox:
 171              	.LFB73:
 172              		.loc 1 180 0
 173              		.cfi_startproc
 174              		@ args = 0, pretend = 0, frame = 0
 175              		@ frame_needed = 0, uses_anonymous_args = 0
 176              	.LVL5:
 177 0000 2DE9F84F 		push	{r3, r4, r5, r6, r7, r8, r9, sl, fp, lr}
 178              	.LCFI4:
 179              		.cfi_def_cfa_offset 40
 180              		.cfi_offset 14, -4
 181              		.cfi_offset 11, -8
 182              		.cfi_offset 10, -12
 183              		.cfi_offset 9, -16
 184              		.cfi_offset 8, -20
 185              		.cfi_offset 7, -24
 186              		.cfi_offset 6, -28
 187              		.cfi_offset 5, -32
 188              		.cfi_offset 4, -36
 189              		.cfi_offset 3, -40
 190              		.loc 1 180 0
 191 0004 0446     		mov	r4, r0
 192              	.LVL6:
 193              	.LBB30:
 194              	.LBB31:
 195              		.loc 1 163 0
 196 0006 40F20000 		movw	r0, #:lower16:.LC0
 197              	.LVL7:
 198              	.LBE31:
 199              	.LBE30:
 200              		.loc 1 180 0
 201 000a 9046     		mov	r8, r2
 202              	.LBB34:
 203              	.LBB32:
 204              		.loc 1 163 0
 205 000c C0F20000 		movt	r0, #:upper16:.LC0
 206 0010 2246     		mov	r2, r4
 207              	.LVL8:
 208              	.LBE32:
 209              	.LBE34:
 210              		.loc 1 180 0
 211 0012 0D46     		mov	r5, r1
 212              	.LVL9:
 213 0014 9B46     		mov	fp, r3
 214              		.loc 1 186 0
 215 0016 A8F10207 		sub	r7, r8, #2
 216              	.LBB35:
 217              	.LBB33:
 218              		.loc 1 163 0
 219 001a FFF7FEFF 		bl	vt100_printf
 220              	.LVL10:
 221              	.LBE33:
 222              	.LBE35:
 223              		.loc 1 185 0
 224 001e 6C20     		movs	r0, #108
 225 0020 FFF7FEFF 		bl	apolloPut
 226              	.LVL11:
ARM GAS  /tmp/cc3rdzJM.s 			page 5


 227              		.loc 1 186 0
 228 0024 002F     		cmp	r7, #0
 229 0026 1BDD     		ble	.L16
 230 0028 A8F10301 		sub	r1, r8, #3
 231              		.loc 1 187 0
 232 002c 7120     		movs	r0, #113
 233              		.loc 1 186 0
 234 002e 0126     		movs	r6, #1
 235 0030 01EA0609 		and	r9, r1, r6
 236              		.loc 1 187 0
 237 0034 FFF7FEFF 		bl	apolloPut
 238              	.LVL12:
 239              		.loc 1 186 0
 240 0038 BE42     		cmp	r6, r7
 241 003a 11DA     		bge	.L16
 242 003c B9F1000F 		cmp	r9, #0
 243 0040 05D0     		beq	.L17
 244              		.loc 1 187 0
 245 0042 7120     		movs	r0, #113
 246              		.loc 1 186 0
 247 0044 0226     		movs	r6, #2
 248              		.loc 1 187 0
 249 0046 FFF7FEFF 		bl	apolloPut
 250              		.loc 1 186 0
 251 004a BE42     		cmp	r6, r7
 252 004c 08DA     		bge	.L16
 253              	.LVL13:
 254              	.L17:
 255              		.loc 1 187 0 discriminator 2
 256 004e 7120     		movs	r0, #113
 257 0050 FFF7FEFF 		bl	apolloPut
 258              		.loc 1 186 0 discriminator 2
 259 0054 0236     		adds	r6, r6, #2
 260              		.loc 1 187 0 discriminator 2
 261 0056 7120     		movs	r0, #113
 262 0058 FFF7FEFF 		bl	apolloPut
 263              		.loc 1 186 0 discriminator 2
 264 005c BE42     		cmp	r6, r7
 265 005e F6DB     		blt	.L17
 266              	.L16:
 267              		.loc 1 188 0
 268 0060 6B20     		movs	r0, #107
 269              		.loc 1 191 0
 270 0062 0BF1FF3A 		add	sl, fp, #-1
 271              		.loc 1 188 0
 272 0066 FFF7FEFF 		bl	apolloPut
 273              	.LVL14:
 274              		.loc 1 191 0
 275 006a BAF1010F 		cmp	sl, #1
 276 006e 71DD     		ble	.L18
 277              		.loc 1 179 0
 278 0070 6E1C     		adds	r6, r5, #1
 279              	.LVL15:
 280              	.LBB36:
 281              	.LBB37:
 282              		.loc 1 163 0
 283 0072 40F20000 		movw	r0, #:lower16:.LC0
ARM GAS  /tmp/cc3rdzJM.s 			page 6


 284 0076 ABF10303 		sub	r3, fp, #3
 285 007a 3146     		mov	r1, r6
 286 007c 2246     		mov	r2, r4
 287 007e C0F20000 		movt	r0, #:upper16:.LC0
 288 0082 03F00109 		and	r9, r3, #1
 289              	.LBE37:
 290              	.LBE36:
 291              		.loc 1 191 0
 292 0086 A044     		add	r8, r4, r8
 293              	.LVL16:
 294              	.LBB42:
 295              	.LBB38:
 296              		.loc 1 163 0
 297 0088 FFF7FEFF 		bl	vt100_printf
 298              	.LBE38:
 299              	.LBE42:
 300              		.loc 1 193 0
 301 008c 7820     		movs	r0, #120
 302 008e FFF7FEFF 		bl	apolloPut
 303              		.loc 1 191 0
 304 0092 08F1FF38 		add	r8, r8, #-1
 305              	.LVL17:
 306              	.LBB43:
 307              	.LBB44:
 308              		.loc 1 163 0
 309 0096 40F20000 		movw	r0, #:lower16:.LC0
 310 009a 3146     		mov	r1, r6
 311 009c C0F20000 		movt	r0, #:upper16:.LC0
 312 00a0 4246     		mov	r2, r8
 313 00a2 FFF7FEFF 		bl	vt100_printf
 314              	.LBE44:
 315              	.LBE43:
 316              		.loc 1 191 0
 317 00a6 0226     		movs	r6, #2
 318              	.LVL18:
 319              		.loc 1 196 0
 320 00a8 7820     		movs	r0, #120
 321 00aa FFF7FEFF 		bl	apolloPut
 322              	.LVL19:
 323              		.loc 1 191 0
 324 00ae 5645     		cmp	r6, sl
 325 00b0 50DA     		bge	.L18
 326 00b2 B9F1000F 		cmp	r9, #0
 327 00b6 19D0     		beq	.L19
 328              		.loc 1 179 0
 329 00b8 AE1C     		adds	r6, r5, #2
 330              	.LBB48:
 331              	.LBB39:
 332              		.loc 1 163 0
 333 00ba 40F20000 		movw	r0, #:lower16:.LC0
 334 00be 3146     		mov	r1, r6
 335 00c0 2246     		mov	r2, r4
 336 00c2 C0F20000 		movt	r0, #:upper16:.LC0
 337 00c6 FFF7FEFF 		bl	vt100_printf
 338              	.LBE39:
 339              	.LBE48:
 340              		.loc 1 193 0
ARM GAS  /tmp/cc3rdzJM.s 			page 7


 341 00ca 7820     		movs	r0, #120
 342 00cc FFF7FEFF 		bl	apolloPut
 343              	.LBB49:
 344              	.LBB45:
 345              		.loc 1 163 0
 346 00d0 40F20000 		movw	r0, #:lower16:.LC0
 347 00d4 3146     		mov	r1, r6
 348 00d6 C0F20000 		movt	r0, #:upper16:.LC0
 349 00da 4246     		mov	r2, r8
 350 00dc FFF7FEFF 		bl	vt100_printf
 351              	.LBE45:
 352              	.LBE49:
 353              		.loc 1 191 0
 354 00e0 0326     		movs	r6, #3
 355              		.loc 1 196 0
 356 00e2 7820     		movs	r0, #120
 357 00e4 FFF7FEFF 		bl	apolloPut
 358              		.loc 1 191 0
 359 00e8 5645     		cmp	r6, sl
 360 00ea 33DA     		bge	.L18
 361              	.L19:
 362              		.loc 1 179 0 discriminator 2
 363 00ec 06EB0509 		add	r9, r6, r5
 364              	.LBB50:
 365              	.LBB40:
 366              		.loc 1 163 0 discriminator 2
 367 00f0 40F20000 		movw	r0, #:lower16:.LC0
 368 00f4 4946     		mov	r1, r9
 369 00f6 2246     		mov	r2, r4
 370 00f8 C0F20000 		movt	r0, #:upper16:.LC0
 371 00fc FFF7FEFF 		bl	vt100_printf
 372              	.LBE40:
 373              	.LBE50:
 374              		.loc 1 193 0 discriminator 2
 375 0100 7820     		movs	r0, #120
 376 0102 FFF7FEFF 		bl	apolloPut
 377              	.LBB51:
 378              	.LBB46:
 379              		.loc 1 163 0 discriminator 2
 380 0106 40F20000 		movw	r0, #:lower16:.LC0
 381 010a 4946     		mov	r1, r9
 382 010c 4246     		mov	r2, r8
 383 010e C0F20000 		movt	r0, #:upper16:.LC0
 384 0112 FFF7FEFF 		bl	vt100_printf
 385              	.LBE46:
 386              	.LBE51:
 387              		.loc 1 191 0 discriminator 2
 388 0116 0136     		adds	r6, r6, #1
 389              		.loc 1 196 0 discriminator 2
 390 0118 7820     		movs	r0, #120
 391 011a FFF7FEFF 		bl	apolloPut
 392              		.loc 1 179 0 discriminator 2
 393 011e 06EB0509 		add	r9, r6, r5
 394              	.LBB52:
 395              	.LBB41:
 396              		.loc 1 163 0 discriminator 2
 397 0122 40F20000 		movw	r0, #:lower16:.LC0
ARM GAS  /tmp/cc3rdzJM.s 			page 8


 398 0126 4946     		mov	r1, r9
 399 0128 2246     		mov	r2, r4
 400 012a C0F20000 		movt	r0, #:upper16:.LC0
 401 012e FFF7FEFF 		bl	vt100_printf
 402              	.LBE41:
 403              	.LBE52:
 404              		.loc 1 193 0 discriminator 2
 405 0132 7820     		movs	r0, #120
 406 0134 FFF7FEFF 		bl	apolloPut
 407              	.LBB53:
 408              	.LBB47:
 409              		.loc 1 163 0 discriminator 2
 410 0138 40F20000 		movw	r0, #:lower16:.LC0
 411 013c C0F20000 		movt	r0, #:upper16:.LC0
 412 0140 4946     		mov	r1, r9
 413 0142 4246     		mov	r2, r8
 414 0144 FFF7FEFF 		bl	vt100_printf
 415              	.LBE47:
 416              	.LBE53:
 417              		.loc 1 191 0 discriminator 2
 418 0148 0136     		adds	r6, r6, #1
 419              		.loc 1 196 0 discriminator 2
 420 014a 7820     		movs	r0, #120
 421 014c FFF7FEFF 		bl	apolloPut
 422              		.loc 1 191 0 discriminator 2
 423 0150 5645     		cmp	r6, sl
 424 0152 CBDB     		blt	.L19
 425              	.LVL20:
 426              	.L18:
 427              		.loc 1 200 0
 428 0154 5D44     		add	r5, r5, fp
 429              	.LVL21:
 430              	.LBB54:
 431              	.LBB55:
 432              		.loc 1 163 0
 433 0156 40F20000 		movw	r0, #:lower16:.LC0
 434 015a 691E     		subs	r1, r5, #1
 435              	.LVL22:
 436 015c C0F20000 		movt	r0, #:upper16:.LC0
 437 0160 2246     		mov	r2, r4
 438 0162 FFF7FEFF 		bl	vt100_printf
 439              	.LVL23:
 440              	.LBE55:
 441              	.LBE54:
 442              		.loc 1 201 0
 443 0166 6D20     		movs	r0, #109
 444 0168 FFF7FEFF 		bl	apolloPut
 445              	.LVL24:
 446              		.loc 1 202 0
 447 016c 002F     		cmp	r7, #0
 448 016e 18DD     		ble	.L20
 449              		.loc 1 203 0
 450 0170 7120     		movs	r0, #113
 451              		.loc 1 202 0
 452 0172 0124     		movs	r4, #1
 453              	.LVL25:
 454 0174 7D1E     		subs	r5, r7, #1
ARM GAS  /tmp/cc3rdzJM.s 			page 9


 455              		.loc 1 203 0
 456 0176 FFF7FEFF 		bl	apolloPut
 457              	.LVL26:
 458              		.loc 1 202 0
 459 017a BC42     		cmp	r4, r7
 460 017c 05EA0405 		and	r5, r5, r4
 461 0180 0FDA     		bge	.L20
 462 0182 2DB1     		cbz	r5, .L21
 463              		.loc 1 203 0
 464 0184 7120     		movs	r0, #113
 465              		.loc 1 202 0
 466 0186 0224     		movs	r4, #2
 467              		.loc 1 203 0
 468 0188 FFF7FEFF 		bl	apolloPut
 469              		.loc 1 202 0
 470 018c BC42     		cmp	r4, r7
 471 018e 08DA     		bge	.L20
 472              	.L21:
 473              		.loc 1 203 0 discriminator 2
 474 0190 7120     		movs	r0, #113
 475 0192 FFF7FEFF 		bl	apolloPut
 476              		.loc 1 202 0 discriminator 2
 477 0196 0234     		adds	r4, r4, #2
 478              		.loc 1 203 0 discriminator 2
 479 0198 7120     		movs	r0, #113
 480 019a FFF7FEFF 		bl	apolloPut
 481              		.loc 1 202 0 discriminator 2
 482 019e BC42     		cmp	r4, r7
 483 01a0 F6DB     		blt	.L21
 484              	.L20:
 485              		.loc 1 204 0
 486 01a2 6A20     		movs	r0, #106
 487              		.loc 1 205 0
 488 01a4 BDE8F84F 		pop	{r3, r4, r5, r6, r7, r8, r9, sl, fp, lr}
 489              		.loc 1 204 0
 490 01a8 FFF7FEBF 		b	apolloPut
 491              		.cfi_endproc
 492              	.LFE73:
 493              		.size	vt100_drawbox, .-vt100_drawbox
 494 01ac AFF30080 		.section	.text.apolloScreenSetup,"ax",%progbits
 495              		.align	2
 496              		.p2align 4,,15
 497              		.global	apolloScreenSetup
 498              		.thumb
 499              		.thumb_func
 500              		.type	apolloScreenSetup, %function
 501              	apolloScreenSetup:
 502              	.LFB74:
 503              		.loc 1 219 0
 504              		.cfi_startproc
 505              		@ args = 0, pretend = 0, frame = 0
 506              		@ frame_needed = 0, uses_anonymous_args = 0
 507              		.loc 1 221 0
 508 0000 0120     		movs	r0, #1
 509              		.loc 1 219 0
 510 0002 10B5     		push	{r4, lr}
 511              	.LCFI5:
ARM GAS  /tmp/cc3rdzJM.s 			page 10


 512              		.cfi_def_cfa_offset 8
 513              		.cfi_offset 14, -4
 514              		.cfi_offset 4, -8
 515              		.loc 1 221 0
 516 0004 0146     		mov	r1, r0
 517 0006 5022     		movs	r2, #80
 518 0008 1823     		movs	r3, #24
 519 000a FFF7FEFF 		bl	vt100_drawbox
 520              		.loc 1 224 0
 521 000e 0120     		movs	r0, #1
 522 0010 0146     		mov	r1, r0
 523 0012 2922     		movs	r2, #41
 524 0014 0F23     		movs	r3, #15
 525 0016 FFF7FEFF 		bl	vt100_drawbox
 526              	.LBB68:
 527              	.LBB69:
 528              		.loc 1 163 0
 529 001a 40F20004 		movw	r4, #:lower16:.LC0
 530              	.LBE69:
 531              	.LBE68:
 532              		.loc 1 226 0
 533 001e 2920     		movs	r0, #41
 534 0020 0121     		movs	r1, #1
 535 0022 1522     		movs	r2, #21
 536 0024 0F23     		movs	r3, #15
 537              	.LBB72:
 538              	.LBB70:
 539              		.loc 1 163 0
 540 0026 C0F20004 		movt	r4, #:upper16:.LC0
 541              	.LBE70:
 542              	.LBE72:
 543              		.loc 1 226 0
 544 002a FFF7FEFF 		bl	vt100_drawbox
 545              		.loc 1 228 0
 546 002e 0F23     		movs	r3, #15
 547 0030 3D20     		movs	r0, #61
 548 0032 0121     		movs	r1, #1
 549 0034 1422     		movs	r2, #20
 550 0036 FFF7FEFF 		bl	vt100_drawbox
 551              	.LVL27:
 552              	.LBB73:
 553              	.LBB71:
 554              		.loc 1 163 0
 555 003a 0F21     		movs	r1, #15
 556 003c 0122     		movs	r2, #1
 557 003e 2046     		mov	r0, r4
 558 0040 FFF7FEFF 		bl	vt100_printf
 559              	.LBE71:
 560              	.LBE73:
 561              		.loc 1 232 0
 562 0044 7420     		movs	r0, #116
 563 0046 FFF7FEFF 		bl	apolloPut
 564              	.LVL28:
 565              	.LBB74:
 566              	.LBB75:
 567              		.loc 1 163 0
 568 004a 0F21     		movs	r1, #15
ARM GAS  /tmp/cc3rdzJM.s 			page 11


 569 004c 5022     		movs	r2, #80
 570 004e 2046     		mov	r0, r4
 571 0050 FFF7FEFF 		bl	vt100_printf
 572              	.LBE75:
 573              	.LBE74:
 574              		.loc 1 234 0
 575 0054 7520     		movs	r0, #117
 576 0056 FFF7FEFF 		bl	apolloPut
 577              	.LVL29:
 578              	.LBB76:
 579              	.LBB77:
 580              		.loc 1 163 0
 581 005a 2922     		movs	r2, #41
 582 005c 2046     		mov	r0, r4
 583 005e 0121     		movs	r1, #1
 584 0060 FFF7FEFF 		bl	vt100_printf
 585              	.LBE77:
 586              	.LBE76:
 587              		.loc 1 237 0
 588 0064 7720     		movs	r0, #119
 589 0066 FFF7FEFF 		bl	apolloPut
 590              	.LVL30:
 591              	.LBB78:
 592              	.LBB79:
 593              		.loc 1 163 0
 594 006a 0121     		movs	r1, #1
 595 006c 2046     		mov	r0, r4
 596 006e 3D22     		movs	r2, #61
 597 0070 FFF7FEFF 		bl	vt100_printf
 598              	.LBE79:
 599              	.LBE78:
 600              		.loc 1 239 0
 601 0074 7720     		movs	r0, #119
 602 0076 FFF7FEFF 		bl	apolloPut
 603              	.LVL31:
 604              	.LBB80:
 605              	.LBB81:
 606              		.loc 1 163 0
 607 007a 0F21     		movs	r1, #15
 608 007c 2922     		movs	r2, #41
 609 007e 2046     		mov	r0, r4
 610 0080 FFF7FEFF 		bl	vt100_printf
 611              	.LBE81:
 612              	.LBE80:
 613              		.loc 1 242 0
 614 0084 7620     		movs	r0, #118
 615 0086 FFF7FEFF 		bl	apolloPut
 616              	.LVL32:
 617              	.LBB82:
 618              	.LBB83:
 619              		.loc 1 163 0
 620 008a 2046     		mov	r0, r4
 621 008c 0F21     		movs	r1, #15
 622 008e 3D22     		movs	r2, #61
 623 0090 FFF7FEFF 		bl	vt100_printf
 624              	.LBE83:
 625              	.LBE82:
ARM GAS  /tmp/cc3rdzJM.s 			page 12


 626              		.loc 1 244 0
 627 0094 7620     		movs	r0, #118
 628              		.loc 1 246 0
 629 0096 BDE81040 		pop	{r4, lr}
 630              		.loc 1 244 0
 631 009a FFF7FEBF 		b	apolloPut
 632              		.cfi_endproc
 633              	.LFE74:
 634              		.size	apolloScreenSetup, .-apolloScreenSetup
 635 009e 00BF     		.section	.text.apolloMotorSetup,"ax",%progbits
 636              		.align	2
 637              		.p2align 4,,15
 638              		.global	apolloMotorSetup
 639              		.thumb
 640              		.thumb_func
 641              		.type	apolloMotorSetup, %function
 642              	apolloMotorSetup:
 643              	.LFB75:
 644              		.loc 1 253 0
 645              		.cfi_startproc
 646              		@ args = 0, pretend = 0, frame = 0
 647              		@ frame_needed = 0, uses_anonymous_args = 0
 648              	.LVL33:
 649 0000 38B5     		push	{r3, r4, r5, lr}
 650              	.LCFI6:
 651              		.cfi_def_cfa_offset 16
 652              		.cfi_offset 14, -4
 653              		.cfi_offset 5, -8
 654              		.cfi_offset 4, -12
 655              		.cfi_offset 3, -16
 656              	.LBB96:
 657              	.LBB97:
 658              		.loc 1 163 0
 659 0002 40F20004 		movw	r4, #:lower16:.LC0
 660 0006 C0F20004 		movt	r4, #:upper16:.LC0
 661 000a 0221     		movs	r1, #2
 662              	.LBE97:
 663              	.LBE96:
 664              	.LBB100:
 665              	.LBB101:
 666              		.loc 1 167 0
 667 000c 40F20005 		movw	r5, #:lower16:.LC1
 668              	.LBE101:
 669              	.LBE100:
 670              	.LBB104:
 671              	.LBB98:
 672              		.loc 1 163 0
 673 0010 0A46     		mov	r2, r1
 674 0012 2046     		mov	r0, r4
 675              	.LBE98:
 676              	.LBE104:
 677              	.LBB105:
 678              	.LBB102:
 679              		.loc 1 167 0
 680 0014 C0F20005 		movt	r5, #:upper16:.LC1
 681              	.LBE102:
 682              	.LBE105:
ARM GAS  /tmp/cc3rdzJM.s 			page 13


 683              	.LBB106:
 684              	.LBB99:
 685              		.loc 1 163 0
 686 0018 FFF7FEFF 		bl	vt100_printf
 687              	.LVL34:
 688              	.LBE99:
 689              	.LBE106:
 690              	.LBB107:
 691              	.LBB103:
 692              		.loc 1 167 0
 693 001c 0721     		movs	r1, #7
 694 001e 2846     		mov	r0, r5
 695 0020 FFF7FEFF 		bl	vt100_printf
 696              	.LBE103:
 697              	.LBE107:
 698              		.loc 1 260 0
 699 0024 40F20000 		movw	r0, #:lower16:.LC2
 700 0028 C0F20000 		movt	r0, #:upper16:.LC2
 701 002c FFF7FEFF 		bl	vt100_printf
 702              	.LVL35:
 703              	.LBB108:
 704              	.LBB109:
 705              		.loc 1 167 0
 706 0030 2846     		mov	r0, r5
 707 0032 0021     		movs	r1, #0
 708 0034 FFF7FEFF 		bl	vt100_printf
 709              	.LVL36:
 710              	.LBE109:
 711              	.LBE108:
 712              		.loc 1 265 0
 713 0038 40F20005 		movw	r5, #:lower16:.LC3
 714              	.LBB110:
 715              	.LBB111:
 716              		.loc 1 163 0
 717 003c 0321     		movs	r1, #3
 718              	.LBE111:
 719              	.LBE110:
 720              		.loc 1 265 0
 721 003e C0F20005 		movt	r5, #:upper16:.LC3
 722              	.LBB122:
 723              	.LBB112:
 724              		.loc 1 163 0
 725 0042 0A46     		mov	r2, r1
 726 0044 2046     		mov	r0, r4
 727 0046 FFF7FEFF 		bl	vt100_printf
 728              	.LBE112:
 729              	.LBE122:
 730              		.loc 1 265 0
 731 004a 0121     		movs	r1, #1
 732 004c 2846     		mov	r0, r5
 733 004e FFF7FEFF 		bl	vt100_printf
 734              	.LVL37:
 735              	.LBB123:
 736              	.LBB113:
 737              		.loc 1 163 0
 738 0052 0322     		movs	r2, #3
 739 0054 2046     		mov	r0, r4
ARM GAS  /tmp/cc3rdzJM.s 			page 14


 740 0056 0421     		movs	r1, #4
 741 0058 FFF7FEFF 		bl	vt100_printf
 742              	.LBE113:
 743              	.LBE123:
 744              		.loc 1 265 0
 745 005c 2846     		mov	r0, r5
 746 005e 0221     		movs	r1, #2
 747 0060 FFF7FEFF 		bl	vt100_printf
 748              	.LVL38:
 749              	.LBB124:
 750              	.LBB114:
 751              		.loc 1 163 0
 752 0064 0322     		movs	r2, #3
 753 0066 2046     		mov	r0, r4
 754 0068 0521     		movs	r1, #5
 755 006a FFF7FEFF 		bl	vt100_printf
 756              	.LBE114:
 757              	.LBE124:
 758              		.loc 1 265 0
 759 006e 2846     		mov	r0, r5
 760 0070 0321     		movs	r1, #3
 761 0072 FFF7FEFF 		bl	vt100_printf
 762              	.LVL39:
 763              	.LBB125:
 764              	.LBB115:
 765              		.loc 1 163 0
 766 0076 0322     		movs	r2, #3
 767 0078 2046     		mov	r0, r4
 768 007a 0621     		movs	r1, #6
 769 007c FFF7FEFF 		bl	vt100_printf
 770              	.LBE115:
 771              	.LBE125:
 772              		.loc 1 265 0
 773 0080 2846     		mov	r0, r5
 774 0082 0421     		movs	r1, #4
 775 0084 FFF7FEFF 		bl	vt100_printf
 776              	.LVL40:
 777              	.LBB126:
 778              	.LBB116:
 779              		.loc 1 163 0
 780 0088 0322     		movs	r2, #3
 781 008a 2046     		mov	r0, r4
 782 008c 0721     		movs	r1, #7
 783 008e FFF7FEFF 		bl	vt100_printf
 784              	.LBE116:
 785              	.LBE126:
 786              		.loc 1 265 0
 787 0092 2846     		mov	r0, r5
 788 0094 0521     		movs	r1, #5
 789 0096 FFF7FEFF 		bl	vt100_printf
 790              	.LVL41:
 791              	.LBB127:
 792              	.LBB117:
 793              		.loc 1 163 0
 794 009a 2046     		mov	r0, r4
 795 009c 0322     		movs	r2, #3
 796 009e 0821     		movs	r1, #8
ARM GAS  /tmp/cc3rdzJM.s 			page 15


 797 00a0 FFF7FEFF 		bl	vt100_printf
 798              	.LBE117:
 799              	.LBE127:
 800              		.loc 1 265 0
 801 00a4 2846     		mov	r0, r5
 802 00a6 0621     		movs	r1, #6
 803 00a8 FFF7FEFF 		bl	vt100_printf
 804              	.LVL42:
 805              	.LBB128:
 806              	.LBB118:
 807              		.loc 1 163 0
 808 00ac 0322     		movs	r2, #3
 809 00ae 2046     		mov	r0, r4
 810 00b0 0921     		movs	r1, #9
 811 00b2 FFF7FEFF 		bl	vt100_printf
 812              	.LBE118:
 813              	.LBE128:
 814              		.loc 1 265 0
 815 00b6 2846     		mov	r0, r5
 816 00b8 0721     		movs	r1, #7
 817 00ba FFF7FEFF 		bl	vt100_printf
 818              	.LVL43:
 819              	.LBB129:
 820              	.LBB119:
 821              		.loc 1 163 0
 822 00be 0322     		movs	r2, #3
 823 00c0 2046     		mov	r0, r4
 824 00c2 0A21     		movs	r1, #10
 825 00c4 FFF7FEFF 		bl	vt100_printf
 826              	.LBE119:
 827              	.LBE129:
 828              		.loc 1 265 0
 829 00c8 2846     		mov	r0, r5
 830 00ca 0821     		movs	r1, #8
 831 00cc FFF7FEFF 		bl	vt100_printf
 832              	.LVL44:
 833              	.LBB130:
 834              	.LBB120:
 835              		.loc 1 163 0
 836 00d0 0322     		movs	r2, #3
 837 00d2 2046     		mov	r0, r4
 838 00d4 0B21     		movs	r1, #11
 839 00d6 FFF7FEFF 		bl	vt100_printf
 840              	.LBE120:
 841              	.LBE130:
 842              		.loc 1 265 0
 843 00da 2846     		mov	r0, r5
 844 00dc 0921     		movs	r1, #9
 845 00de FFF7FEFF 		bl	vt100_printf
 846              	.LVL45:
 847              	.LBB131:
 848              	.LBB121:
 849              		.loc 1 163 0
 850 00e2 0322     		movs	r2, #3
 851 00e4 2046     		mov	r0, r4
 852 00e6 0C21     		movs	r1, #12
 853 00e8 FFF7FEFF 		bl	vt100_printf
ARM GAS  /tmp/cc3rdzJM.s 			page 16


 854              	.LBE121:
 855              	.LBE131:
 856              		.loc 1 265 0
 857 00ec 2846     		mov	r0, r5
 858 00ee 0A21     		movs	r1, #10
 859 00f0 FFF7FEFF 		bl	vt100_printf
 860              	.LVL46:
 861              	.LBB132:
 862              	.LBB133:
 863              		.loc 1 163 0
 864 00f4 0D21     		movs	r1, #13
 865 00f6 0322     		movs	r2, #3
 866 00f8 2046     		mov	r0, r4
 867 00fa FFF7FEFF 		bl	vt100_printf
 868              	.LBE133:
 869              	.LBE132:
 870              		.loc 1 269 0
 871 00fe 40F20000 		movw	r0, #:lower16:.LC4
 872 0102 C0F20000 		movt	r0, #:upper16:.LC4
 873 0106 FFF7FEFF 		bl	vt100_printf
 874              	.LVL47:
 875              	.LBB134:
 876              	.LBB135:
 877              		.loc 1 163 0
 878 010a 2046     		mov	r0, r4
 879 010c 0E21     		movs	r1, #14
 880 010e 0322     		movs	r2, #3
 881 0110 FFF7FEFF 		bl	vt100_printf
 882              	.LBE135:
 883              	.LBE134:
 884              		.loc 1 271 0
 885 0114 40F20000 		movw	r0, #:lower16:.LC5
 886 0118 C0F20000 		movt	r0, #:upper16:.LC5
 887              		.loc 1 272 0
 888 011c BDE83840 		pop	{r3, r4, r5, lr}
 889              		.loc 1 271 0
 890 0120 FFF7FEBF 		b	vt100_printf
 891              		.cfi_endproc
 892              	.LFE75:
 893              		.size	apolloMotorSetup, .-apolloMotorSetup
 894 0124 AFF30080 		.section	.text.apolloDigitalSetup,"ax",%progbits
 894      AFF30080 
 894      AFF30080 
 895              		.align	2
 896              		.p2align 4,,15
 897              		.global	apolloDigitalSetup
 898              		.thumb
 899              		.thumb_func
 900              		.type	apolloDigitalSetup, %function
 901              	apolloDigitalSetup:
 902              	.LFB76:
 903              		.loc 1 279 0
 904              		.cfi_startproc
 905              		@ args = 0, pretend = 0, frame = 0
 906              		@ frame_needed = 0, uses_anonymous_args = 0
 907              	.LVL48:
 908 0000 38B5     		push	{r3, r4, r5, lr}
ARM GAS  /tmp/cc3rdzJM.s 			page 17


 909              	.LCFI7:
 910              		.cfi_def_cfa_offset 16
 911              		.cfi_offset 14, -4
 912              		.cfi_offset 5, -8
 913              		.cfi_offset 4, -12
 914              		.cfi_offset 3, -16
 915              	.LBB144:
 916              	.LBB145:
 917              		.loc 1 163 0
 918 0002 40F20004 		movw	r4, #:lower16:.LC0
 919 0006 C0F20004 		movt	r4, #:upper16:.LC0
 920              	.LBE145:
 921              	.LBE144:
 922              	.LBB148:
 923              	.LBB149:
 924              		.loc 1 167 0
 925 000a 40F20005 		movw	r5, #:lower16:.LC1
 926              	.LBE149:
 927              	.LBE148:
 928              	.LBB152:
 929              	.LBB146:
 930              		.loc 1 163 0
 931 000e 2A22     		movs	r2, #42
 932 0010 2046     		mov	r0, r4
 933 0012 0221     		movs	r1, #2
 934              	.LBE146:
 935              	.LBE152:
 936              	.LBB153:
 937              	.LBB150:
 938              		.loc 1 167 0
 939 0014 C0F20005 		movt	r5, #:upper16:.LC1
 940              	.LBE150:
 941              	.LBE153:
 942              	.LBB154:
 943              	.LBB147:
 944              		.loc 1 163 0
 945 0018 FFF7FEFF 		bl	vt100_printf
 946              	.LVL49:
 947              	.LBE147:
 948              	.LBE154:
 949              	.LBB155:
 950              	.LBB151:
 951              		.loc 1 167 0
 952 001c 0721     		movs	r1, #7
 953 001e 2846     		mov	r0, r5
 954 0020 FFF7FEFF 		bl	vt100_printf
 955              	.LBE151:
 956              	.LBE155:
 957              		.loc 1 286 0
 958 0024 40F20000 		movw	r0, #:lower16:.LC6
 959 0028 C0F20000 		movt	r0, #:upper16:.LC6
 960 002c FFF7FEFF 		bl	vt100_printf
 961              	.LVL50:
 962              	.LBB156:
 963              	.LBB157:
 964              		.loc 1 167 0
 965 0030 2846     		mov	r0, r5
ARM GAS  /tmp/cc3rdzJM.s 			page 18


 966 0032 0021     		movs	r1, #0
 967 0034 FFF7FEFF 		bl	vt100_printf
 968              	.LVL51:
 969              	.LBE157:
 970              	.LBE156:
 971              	.LBB158:
 972              	.LBB159:
 973              		.loc 1 163 0
 974 0038 0321     		movs	r1, #3
 975 003a 2B22     		movs	r2, #43
 976 003c 2046     		mov	r0, r4
 977 003e FFF7FEFF 		bl	vt100_printf
 978              	.LBE159:
 979              	.LBE158:
 980              		.loc 1 291 0
 981 0042 0020     		movs	r0, #0
 982 0044 FFF7FEFF 		bl	vexDigitalTypeGetName
 983 0048 40F20005 		movw	r5, #:lower16:.LC7
 984 004c C0F20005 		movt	r5, #:upper16:.LC7
 985 0050 0246     		mov	r2, r0
 986 0052 0121     		movs	r1, #1
 987 0054 2846     		mov	r0, r5
 988 0056 FFF7FEFF 		bl	vt100_printf
 989              	.LVL52:
 990              	.LBB171:
 991              	.LBB160:
 992              		.loc 1 163 0
 993 005a 0421     		movs	r1, #4
 994 005c 2B22     		movs	r2, #43
 995 005e 2046     		mov	r0, r4
 996 0060 FFF7FEFF 		bl	vt100_printf
 997              	.LBE160:
 998              	.LBE171:
 999              		.loc 1 291 0
 1000 0064 0120     		movs	r0, #1
 1001 0066 FFF7FEFF 		bl	vexDigitalTypeGetName
 1002 006a 0221     		movs	r1, #2
 1003 006c 0246     		mov	r2, r0
 1004 006e 2846     		mov	r0, r5
 1005 0070 FFF7FEFF 		bl	vt100_printf
 1006              	.LVL53:
 1007              	.LBB172:
 1008              	.LBB161:
 1009              		.loc 1 163 0
 1010 0074 0521     		movs	r1, #5
 1011 0076 2B22     		movs	r2, #43
 1012 0078 2046     		mov	r0, r4
 1013 007a FFF7FEFF 		bl	vt100_printf
 1014              	.LBE161:
 1015              	.LBE172:
 1016              		.loc 1 291 0
 1017 007e 0220     		movs	r0, #2
 1018 0080 FFF7FEFF 		bl	vexDigitalTypeGetName
 1019 0084 0321     		movs	r1, #3
 1020 0086 0246     		mov	r2, r0
 1021 0088 2846     		mov	r0, r5
 1022 008a FFF7FEFF 		bl	vt100_printf
ARM GAS  /tmp/cc3rdzJM.s 			page 19


 1023              	.LVL54:
 1024              	.LBB173:
 1025              	.LBB162:
 1026              		.loc 1 163 0
 1027 008e 2046     		mov	r0, r4
 1028 0090 0621     		movs	r1, #6
 1029 0092 2B22     		movs	r2, #43
 1030 0094 FFF7FEFF 		bl	vt100_printf
 1031              	.LBE162:
 1032              	.LBE173:
 1033              		.loc 1 291 0
 1034 0098 0320     		movs	r0, #3
 1035 009a FFF7FEFF 		bl	vexDigitalTypeGetName
 1036 009e 0421     		movs	r1, #4
 1037 00a0 0246     		mov	r2, r0
 1038 00a2 2846     		mov	r0, r5
 1039 00a4 FFF7FEFF 		bl	vt100_printf
 1040              	.LVL55:
 1041              	.LBB174:
 1042              	.LBB163:
 1043              		.loc 1 163 0
 1044 00a8 0721     		movs	r1, #7
 1045 00aa 2B22     		movs	r2, #43
 1046 00ac 2046     		mov	r0, r4
 1047 00ae FFF7FEFF 		bl	vt100_printf
 1048              	.LBE163:
 1049              	.LBE174:
 1050              		.loc 1 291 0
 1051 00b2 0420     		movs	r0, #4
 1052 00b4 FFF7FEFF 		bl	vexDigitalTypeGetName
 1053 00b8 0521     		movs	r1, #5
 1054 00ba 0246     		mov	r2, r0
 1055 00bc 2846     		mov	r0, r5
 1056 00be FFF7FEFF 		bl	vt100_printf
 1057              	.LVL56:
 1058              	.LBB175:
 1059              	.LBB164:
 1060              		.loc 1 163 0
 1061 00c2 0821     		movs	r1, #8
 1062 00c4 2B22     		movs	r2, #43
 1063 00c6 2046     		mov	r0, r4
 1064 00c8 FFF7FEFF 		bl	vt100_printf
 1065              	.LBE164:
 1066              	.LBE175:
 1067              		.loc 1 291 0
 1068 00cc 0520     		movs	r0, #5
 1069 00ce FFF7FEFF 		bl	vexDigitalTypeGetName
 1070 00d2 0621     		movs	r1, #6
 1071 00d4 0246     		mov	r2, r0
 1072 00d6 2846     		mov	r0, r5
 1073 00d8 FFF7FEFF 		bl	vt100_printf
 1074              	.LVL57:
 1075              	.LBB176:
 1076              	.LBB165:
 1077              		.loc 1 163 0
 1078 00dc 0921     		movs	r1, #9
 1079 00de 2B22     		movs	r2, #43
ARM GAS  /tmp/cc3rdzJM.s 			page 20


 1080 00e0 2046     		mov	r0, r4
 1081 00e2 FFF7FEFF 		bl	vt100_printf
 1082              	.LBE165:
 1083              	.LBE176:
 1084              		.loc 1 291 0
 1085 00e6 0620     		movs	r0, #6
 1086 00e8 FFF7FEFF 		bl	vexDigitalTypeGetName
 1087 00ec 0721     		movs	r1, #7
 1088 00ee 0246     		mov	r2, r0
 1089 00f0 2846     		mov	r0, r5
 1090 00f2 FFF7FEFF 		bl	vt100_printf
 1091              	.LVL58:
 1092              	.LBB177:
 1093              	.LBB166:
 1094              		.loc 1 163 0
 1095 00f6 0A21     		movs	r1, #10
 1096 00f8 2B22     		movs	r2, #43
 1097 00fa 2046     		mov	r0, r4
 1098 00fc FFF7FEFF 		bl	vt100_printf
 1099              	.LBE166:
 1100              	.LBE177:
 1101              		.loc 1 291 0
 1102 0100 0720     		movs	r0, #7
 1103 0102 FFF7FEFF 		bl	vexDigitalTypeGetName
 1104 0106 0821     		movs	r1, #8
 1105 0108 0246     		mov	r2, r0
 1106 010a 2846     		mov	r0, r5
 1107 010c FFF7FEFF 		bl	vt100_printf
 1108              	.LVL59:
 1109              	.LBB178:
 1110              	.LBB167:
 1111              		.loc 1 163 0
 1112 0110 2046     		mov	r0, r4
 1113 0112 0B21     		movs	r1, #11
 1114 0114 2B22     		movs	r2, #43
 1115 0116 FFF7FEFF 		bl	vt100_printf
 1116              	.LBE167:
 1117              	.LBE178:
 1118              		.loc 1 291 0
 1119 011a 0820     		movs	r0, #8
 1120 011c FFF7FEFF 		bl	vexDigitalTypeGetName
 1121 0120 0921     		movs	r1, #9
 1122 0122 0246     		mov	r2, r0
 1123 0124 2846     		mov	r0, r5
 1124 0126 FFF7FEFF 		bl	vt100_printf
 1125              	.LVL60:
 1126              	.LBB179:
 1127              	.LBB168:
 1128              		.loc 1 163 0
 1129 012a 0C21     		movs	r1, #12
 1130 012c 2B22     		movs	r2, #43
 1131 012e 2046     		mov	r0, r4
 1132 0130 FFF7FEFF 		bl	vt100_printf
 1133              	.LBE168:
 1134              	.LBE179:
 1135              		.loc 1 291 0
 1136 0134 0920     		movs	r0, #9
ARM GAS  /tmp/cc3rdzJM.s 			page 21


 1137 0136 FFF7FEFF 		bl	vexDigitalTypeGetName
 1138 013a 0A21     		movs	r1, #10
 1139 013c 0246     		mov	r2, r0
 1140 013e 2846     		mov	r0, r5
 1141 0140 FFF7FEFF 		bl	vt100_printf
 1142              	.LVL61:
 1143              	.LBB180:
 1144              	.LBB169:
 1145              		.loc 1 163 0
 1146 0144 0D21     		movs	r1, #13
 1147 0146 2B22     		movs	r2, #43
 1148 0148 2046     		mov	r0, r4
 1149 014a FFF7FEFF 		bl	vt100_printf
 1150              	.LBE169:
 1151              	.LBE180:
 1152              		.loc 1 291 0
 1153 014e 0A20     		movs	r0, #10
 1154 0150 FFF7FEFF 		bl	vexDigitalTypeGetName
 1155 0154 0B21     		movs	r1, #11
 1156 0156 0246     		mov	r2, r0
 1157 0158 2846     		mov	r0, r5
 1158 015a FFF7FEFF 		bl	vt100_printf
 1159              	.LVL62:
 1160              	.LBB181:
 1161              	.LBB170:
 1162              		.loc 1 163 0
 1163 015e 0E21     		movs	r1, #14
 1164 0160 2B22     		movs	r2, #43
 1165 0162 2046     		mov	r0, r4
 1166 0164 FFF7FEFF 		bl	vt100_printf
 1167              	.LBE170:
 1168              	.LBE181:
 1169              		.loc 1 291 0
 1170 0168 0B20     		movs	r0, #11
 1171 016a FFF7FEFF 		bl	vexDigitalTypeGetName
 1172 016e 0C21     		movs	r1, #12
 1173 0170 0246     		mov	r2, r0
 1174 0172 2846     		mov	r0, r5
 1175              		.loc 1 293 0
 1176 0174 BDE83840 		pop	{r3, r4, r5, lr}
 1177              		.loc 1 291 0
 1178 0178 FFF7FEBF 		b	vt100_printf
 1179              		.cfi_endproc
 1180              	.LFE76:
 1181              		.size	apolloDigitalSetup, .-apolloDigitalSetup
 1182 017c AFF30080 		.section	.text.apolloAnalogSetup,"ax",%progbits
 1183              		.align	2
 1184              		.p2align 4,,15
 1185              		.global	apolloAnalogSetup
 1186              		.thumb
 1187              		.thumb_func
 1188              		.type	apolloAnalogSetup, %function
 1189              	apolloAnalogSetup:
 1190              	.LFB77:
 1191              		.loc 1 300 0
 1192              		.cfi_startproc
 1193              		@ args = 0, pretend = 0, frame = 0
ARM GAS  /tmp/cc3rdzJM.s 			page 22


 1194              		@ frame_needed = 0, uses_anonymous_args = 0
 1195              	.LVL63:
 1196 0000 38B5     		push	{r3, r4, r5, lr}
 1197              	.LCFI8:
 1198              		.cfi_def_cfa_offset 16
 1199              		.cfi_offset 14, -4
 1200              		.cfi_offset 5, -8
 1201              		.cfi_offset 4, -12
 1202              		.cfi_offset 3, -16
 1203              	.LBB190:
 1204              	.LBB191:
 1205              		.loc 1 163 0
 1206 0002 40F20004 		movw	r4, #:lower16:.LC0
 1207 0006 C0F20004 		movt	r4, #:upper16:.LC0
 1208              	.LBE191:
 1209              	.LBE190:
 1210              	.LBB194:
 1211              	.LBB195:
 1212              		.loc 1 167 0
 1213 000a 40F20005 		movw	r5, #:lower16:.LC1
 1214              	.LBE195:
 1215              	.LBE194:
 1216              	.LBB198:
 1217              	.LBB192:
 1218              		.loc 1 163 0
 1219 000e 3E22     		movs	r2, #62
 1220 0010 2046     		mov	r0, r4
 1221 0012 0221     		movs	r1, #2
 1222              	.LBE192:
 1223              	.LBE198:
 1224              	.LBB199:
 1225              	.LBB196:
 1226              		.loc 1 167 0
 1227 0014 C0F20005 		movt	r5, #:upper16:.LC1
 1228              	.LBE196:
 1229              	.LBE199:
 1230              	.LBB200:
 1231              	.LBB193:
 1232              		.loc 1 163 0
 1233 0018 FFF7FEFF 		bl	vt100_printf
 1234              	.LVL64:
 1235              	.LBE193:
 1236              	.LBE200:
 1237              	.LBB201:
 1238              	.LBB197:
 1239              		.loc 1 167 0
 1240 001c 0721     		movs	r1, #7
 1241 001e 2846     		mov	r0, r5
 1242 0020 FFF7FEFF 		bl	vt100_printf
 1243              	.LBE197:
 1244              	.LBE201:
 1245              		.loc 1 307 0
 1246 0024 40F20000 		movw	r0, #:lower16:.LC8
 1247 0028 C0F20000 		movt	r0, #:upper16:.LC8
 1248 002c FFF7FEFF 		bl	vt100_printf
 1249              	.LVL65:
 1250              	.LBB202:
ARM GAS  /tmp/cc3rdzJM.s 			page 23


 1251              	.LBB203:
 1252              		.loc 1 167 0
 1253 0030 2846     		mov	r0, r5
 1254 0032 0021     		movs	r1, #0
 1255              	.LBE203:
 1256              	.LBE202:
 1257              		.loc 1 312 0
 1258 0034 40F20005 		movw	r5, #:lower16:.LC3
 1259 0038 C0F20005 		movt	r5, #:upper16:.LC3
 1260              	.LBB205:
 1261              	.LBB204:
 1262              		.loc 1 167 0
 1263 003c FFF7FEFF 		bl	vt100_printf
 1264              	.LVL66:
 1265              	.LBE204:
 1266              	.LBE205:
 1267              	.LBB206:
 1268              	.LBB207:
 1269              		.loc 1 163 0
 1270 0040 3F22     		movs	r2, #63
 1271 0042 2046     		mov	r0, r4
 1272 0044 0321     		movs	r1, #3
 1273 0046 FFF7FEFF 		bl	vt100_printf
 1274              	.LBE207:
 1275              	.LBE206:
 1276              		.loc 1 312 0
 1277 004a 0121     		movs	r1, #1
 1278 004c 2846     		mov	r0, r5
 1279 004e FFF7FEFF 		bl	vt100_printf
 1280              	.LVL67:
 1281              	.LBB215:
 1282              	.LBB208:
 1283              		.loc 1 163 0
 1284 0052 3F22     		movs	r2, #63
 1285 0054 2046     		mov	r0, r4
 1286 0056 0421     		movs	r1, #4
 1287 0058 FFF7FEFF 		bl	vt100_printf
 1288              	.LBE208:
 1289              	.LBE215:
 1290              		.loc 1 312 0
 1291 005c 2846     		mov	r0, r5
 1292 005e 0221     		movs	r1, #2
 1293 0060 FFF7FEFF 		bl	vt100_printf
 1294              	.LVL68:
 1295              	.LBB216:
 1296              	.LBB209:
 1297              		.loc 1 163 0
 1298 0064 3F22     		movs	r2, #63
 1299 0066 2046     		mov	r0, r4
 1300 0068 0521     		movs	r1, #5
 1301 006a FFF7FEFF 		bl	vt100_printf
 1302              	.LBE209:
 1303              	.LBE216:
 1304              		.loc 1 312 0
 1305 006e 2846     		mov	r0, r5
 1306 0070 0321     		movs	r1, #3
 1307 0072 FFF7FEFF 		bl	vt100_printf
ARM GAS  /tmp/cc3rdzJM.s 			page 24


 1308              	.LVL69:
 1309              	.LBB217:
 1310              	.LBB210:
 1311              		.loc 1 163 0
 1312 0076 3F22     		movs	r2, #63
 1313 0078 2046     		mov	r0, r4
 1314 007a 0621     		movs	r1, #6
 1315 007c FFF7FEFF 		bl	vt100_printf
 1316              	.LBE210:
 1317              	.LBE217:
 1318              		.loc 1 312 0
 1319 0080 2846     		mov	r0, r5
 1320 0082 0421     		movs	r1, #4
 1321 0084 FFF7FEFF 		bl	vt100_printf
 1322              	.LVL70:
 1323              	.LBB218:
 1324              	.LBB211:
 1325              		.loc 1 163 0
 1326 0088 2046     		mov	r0, r4
 1327 008a 3F22     		movs	r2, #63
 1328 008c 0721     		movs	r1, #7
 1329 008e FFF7FEFF 		bl	vt100_printf
 1330              	.LBE211:
 1331              	.LBE218:
 1332              		.loc 1 312 0
 1333 0092 2846     		mov	r0, r5
 1334 0094 0521     		movs	r1, #5
 1335 0096 FFF7FEFF 		bl	vt100_printf
 1336              	.LVL71:
 1337              	.LBB219:
 1338              	.LBB212:
 1339              		.loc 1 163 0
 1340 009a 3F22     		movs	r2, #63
 1341 009c 2046     		mov	r0, r4
 1342 009e 0821     		movs	r1, #8
 1343 00a0 FFF7FEFF 		bl	vt100_printf
 1344              	.LBE212:
 1345              	.LBE219:
 1346              		.loc 1 312 0
 1347 00a4 2846     		mov	r0, r5
 1348 00a6 0621     		movs	r1, #6
 1349 00a8 FFF7FEFF 		bl	vt100_printf
 1350              	.LVL72:
 1351              	.LBB220:
 1352              	.LBB213:
 1353              		.loc 1 163 0
 1354 00ac 3F22     		movs	r2, #63
 1355 00ae 2046     		mov	r0, r4
 1356 00b0 0921     		movs	r1, #9
 1357 00b2 FFF7FEFF 		bl	vt100_printf
 1358              	.LBE213:
 1359              	.LBE220:
 1360              		.loc 1 312 0
 1361 00b6 2846     		mov	r0, r5
 1362 00b8 0721     		movs	r1, #7
 1363 00ba FFF7FEFF 		bl	vt100_printf
 1364              	.LVL73:
ARM GAS  /tmp/cc3rdzJM.s 			page 25


 1365              	.LBB221:
 1366              	.LBB214:
 1367              		.loc 1 163 0
 1368 00be 2046     		mov	r0, r4
 1369 00c0 0A21     		movs	r1, #10
 1370 00c2 3F22     		movs	r2, #63
 1371 00c4 FFF7FEFF 		bl	vt100_printf
 1372              	.LBE214:
 1373              	.LBE221:
 1374              		.loc 1 312 0
 1375 00c8 2846     		mov	r0, r5
 1376 00ca 0821     		movs	r1, #8
 1377              		.loc 1 314 0
 1378 00cc BDE83840 		pop	{r3, r4, r5, lr}
 1379              		.loc 1 312 0
 1380 00d0 FFF7FEBF 		b	vt100_printf
 1381              		.cfi_endproc
 1382              	.LFE77:
 1383              		.size	apolloAnalogSetup, .-apolloAnalogSetup
 1384 00d4 AFF30080 		.section	.text.apolloJoystickSetup,"ax",%progbits
 1384      AFF30080 
 1384      AFF30080 
 1385              		.align	2
 1386              		.p2align 4,,15
 1387              		.global	apolloJoystickSetup
 1388              		.thumb
 1389              		.thumb_func
 1390              		.type	apolloJoystickSetup, %function
 1391              	apolloJoystickSetup:
 1392              	.LFB78:
 1393              		.loc 1 321 0
 1394              		.cfi_startproc
 1395              		@ args = 0, pretend = 0, frame = 0
 1396              		@ frame_needed = 0, uses_anonymous_args = 0
 1397              	.LVL74:
 1398              		.loc 1 322 0
 1399 0000 0028     		cmp	r0, #0
 1400              	.LBB246:
 1401              	.LBB247:
 1402              		.loc 1 167 0
 1403 0002 40F20000 		movw	r0, #:lower16:.LC1
 1404              	.LVL75:
 1405              	.LBE247:
 1406              	.LBE246:
 1407              		.loc 1 321 0
 1408 0006 F8B5     		push	{r3, r4, r5, r6, r7, lr}
 1409              	.LCFI9:
 1410              		.cfi_def_cfa_offset 24
 1411              		.cfi_offset 14, -4
 1412              		.cfi_offset 7, -8
 1413              		.cfi_offset 6, -12
 1414              		.cfi_offset 5, -16
 1415              		.cfi_offset 4, -20
 1416              		.cfi_offset 3, -24
 1417              	.LBB250:
 1418              	.LBB248:
 1419              		.loc 1 167 0
ARM GAS  /tmp/cc3rdzJM.s 			page 26


 1420 0008 C0F20000 		movt	r0, #:upper16:.LC1
 1421 000c 4FF00701 		mov	r1, #7
 1422              	.LBE248:
 1423              	.LBE250:
 1424              		.loc 1 322 0
 1425 0010 14BF     		ite	ne
 1426 0012 2A24     		movne	r4, #42
 1427 0014 0224     		moveq	r4, #2
 1428 0016 14BF     		ite	ne
 1429 0018 3D25     		movne	r5, #61
 1430 001a 1525     		moveq	r5, #21
 1431 001c 14BF     		ite	ne
 1432 001e 4326     		movne	r6, #67
 1433 0020 1B26     		moveq	r6, #27
 1434 0022 14BF     		ite	ne
 1435 0024 3027     		movne	r7, #48
 1436 0026 0827     		moveq	r7, #8
 1437              	.LVL76:
 1438              	.LBB251:
 1439              	.LBB249:
 1440              		.loc 1 167 0
 1441 0028 FFF7FEFF 		bl	vt100_printf
 1442              	.LVL77:
 1443              	.LBE249:
 1444              	.LBE251:
 1445              	.LBB252:
 1446              	.LBB253:
 1447              		.loc 1 163 0
 1448 002c 40F20000 		movw	r0, #:lower16:.LC0
 1449 0030 1021     		movs	r1, #16
 1450 0032 3A46     		mov	r2, r7
 1451 0034 C0F20000 		movt	r0, #:upper16:.LC0
 1452 0038 FFF7FEFF 		bl	vt100_printf
 1453              	.LBE253:
 1454              	.LBE252:
 1455              		.loc 1 326 0
 1456 003c 40F20000 		movw	r0, #:lower16:.LC9
 1457 0040 C0F20000 		movt	r0, #:upper16:.LC9
 1458 0044 FFF7FEFF 		bl	vt100_printf
 1459              	.LVL78:
 1460              	.LBB254:
 1461              	.LBB255:
 1462              		.loc 1 163 0
 1463 0048 40F20000 		movw	r0, #:lower16:.LC0
 1464 004c 1021     		movs	r1, #16
 1465 004e 3246     		mov	r2, r6
 1466 0050 C0F20000 		movt	r0, #:upper16:.LC0
 1467 0054 FFF7FEFF 		bl	vt100_printf
 1468              	.LBE255:
 1469              	.LBE254:
 1470              		.loc 1 328 0
 1471 0058 40F20000 		movw	r0, #:lower16:.LC10
 1472 005c C0F20000 		movt	r0, #:upper16:.LC10
 1473 0060 FFF7FEFF 		bl	vt100_printf
 1474              	.LVL79:
 1475              	.LBB256:
 1476              	.LBB257:
ARM GAS  /tmp/cc3rdzJM.s 			page 27


 1477              		.loc 1 163 0
 1478 0064 40F20000 		movw	r0, #:lower16:.LC0
 1479 0068 1321     		movs	r1, #19
 1480 006a 3246     		mov	r2, r6
 1481 006c C0F20000 		movt	r0, #:upper16:.LC0
 1482 0070 FFF7FEFF 		bl	vt100_printf
 1483              	.LBE257:
 1484              	.LBE256:
 1485              		.loc 1 330 0
 1486 0074 40F20000 		movw	r0, #:lower16:.LC11
 1487 0078 C0F20000 		movt	r0, #:upper16:.LC11
 1488 007c FFF7FEFF 		bl	vt100_printf
 1489              	.LVL80:
 1490              	.LBB258:
 1491              	.LBB259:
 1492              		.loc 1 163 0
 1493 0080 40F20000 		movw	r0, #:lower16:.LC0
 1494 0084 1121     		movs	r1, #17
 1495 0086 2246     		mov	r2, r4
 1496 0088 C0F20000 		movt	r0, #:upper16:.LC0
 1497 008c FFF7FEFF 		bl	vt100_printf
 1498              	.LBE259:
 1499              	.LBE258:
 1500              		.loc 1 333 0
 1501 0090 40F20000 		movw	r0, #:lower16:.LC12
 1502 0094 C0F20000 		movt	r0, #:upper16:.LC12
 1503 0098 FFF7FEFF 		bl	vt100_printf
 1504              	.LVL81:
 1505              	.LBB260:
 1506              	.LBB261:
 1507              		.loc 1 163 0
 1508 009c 40F20000 		movw	r0, #:lower16:.LC0
 1509 00a0 1221     		movs	r1, #18
 1510 00a2 2246     		mov	r2, r4
 1511 00a4 C0F20000 		movt	r0, #:upper16:.LC0
 1512 00a8 FFF7FEFF 		bl	vt100_printf
 1513              	.LBE261:
 1514              	.LBE260:
 1515              		.loc 1 335 0
 1516 00ac 40F20000 		movw	r0, #:lower16:.LC13
 1517 00b0 C0F20000 		movt	r0, #:upper16:.LC13
 1518 00b4 FFF7FEFF 		bl	vt100_printf
 1519              	.LVL82:
 1520              	.LBB262:
 1521              	.LBB263:
 1522              		.loc 1 163 0
 1523 00b8 40F20000 		movw	r0, #:lower16:.LC0
 1524 00bc 1321     		movs	r1, #19
 1525 00be 2246     		mov	r2, r4
 1526 00c0 C0F20000 		movt	r0, #:upper16:.LC0
 1527 00c4 FFF7FEFF 		bl	vt100_printf
 1528              	.LBE263:
 1529              	.LBE262:
 1530              		.loc 1 337 0
 1531 00c8 40F20000 		movw	r0, #:lower16:.LC14
 1532 00cc C0F20000 		movt	r0, #:upper16:.LC14
 1533 00d0 FFF7FEFF 		bl	vt100_printf
ARM GAS  /tmp/cc3rdzJM.s 			page 28


 1534              	.LVL83:
 1535              	.LBB264:
 1536              	.LBB265:
 1537              		.loc 1 163 0
 1538 00d4 40F20000 		movw	r0, #:lower16:.LC0
 1539 00d8 1421     		movs	r1, #20
 1540 00da 2246     		mov	r2, r4
 1541 00dc C0F20000 		movt	r0, #:upper16:.LC0
 1542 00e0 FFF7FEFF 		bl	vt100_printf
 1543              	.LBE265:
 1544              	.LBE264:
 1545              		.loc 1 339 0
 1546 00e4 40F20000 		movw	r0, #:lower16:.LC15
 1547 00e8 C0F20000 		movt	r0, #:upper16:.LC15
 1548 00ec FFF7FEFF 		bl	vt100_printf
 1549              	.LVL84:
 1550              	.LBB266:
 1551              	.LBB267:
 1552              		.loc 1 163 0
 1553 00f0 40F20000 		movw	r0, #:lower16:.LC0
 1554 00f4 1121     		movs	r1, #17
 1555 00f6 2A46     		mov	r2, r5
 1556 00f8 C0F20000 		movt	r0, #:upper16:.LC0
 1557 00fc FFF7FEFF 		bl	vt100_printf
 1558              	.LBE267:
 1559              	.LBE266:
 1560              		.loc 1 342 0
 1561 0100 40F20000 		movw	r0, #:lower16:.LC16
 1562 0104 C0F20000 		movt	r0, #:upper16:.LC16
 1563 0108 FFF7FEFF 		bl	vt100_printf
 1564              	.LVL85:
 1565              	.LBB268:
 1566              	.LBB269:
 1567              		.loc 1 163 0
 1568 010c 40F20000 		movw	r0, #:lower16:.LC0
 1569 0110 1221     		movs	r1, #18
 1570 0112 2A46     		mov	r2, r5
 1571 0114 C0F20000 		movt	r0, #:upper16:.LC0
 1572 0118 FFF7FEFF 		bl	vt100_printf
 1573              	.LBE269:
 1574              	.LBE268:
 1575              		.loc 1 344 0
 1576 011c 40F20000 		movw	r0, #:lower16:.LC17
 1577 0120 C0F20000 		movt	r0, #:upper16:.LC17
 1578 0124 FFF7FEFF 		bl	vt100_printf
 1579              	.LVL86:
 1580              	.LBB270:
 1581              	.LBB271:
 1582              		.loc 1 163 0
 1583 0128 40F20000 		movw	r0, #:lower16:.LC0
 1584 012c 1421     		movs	r1, #20
 1585 012e 2A46     		mov	r2, r5
 1586 0130 C0F20000 		movt	r0, #:upper16:.LC0
 1587 0134 FFF7FEFF 		bl	vt100_printf
 1588              	.LBE271:
 1589              	.LBE270:
 1590              		.loc 1 346 0
ARM GAS  /tmp/cc3rdzJM.s 			page 29


 1591 0138 40F20000 		movw	r0, #:lower16:.LC18
 1592 013c C0F20000 		movt	r0, #:upper16:.LC18
 1593 0140 FFF7FEFF 		bl	vt100_printf
 1594              	.LVL87:
 1595              	.LBB272:
 1596              	.LBB273:
 1597              		.loc 1 167 0
 1598 0144 40F20000 		movw	r0, #:lower16:.LC1
 1599 0148 C0F20000 		movt	r0, #:upper16:.LC1
 1600 014c 0021     		movs	r1, #0
 1601              	.LBE273:
 1602              	.LBE272:
 1603              		.loc 1 348 0
 1604 014e BDE8F840 		pop	{r3, r4, r5, r6, r7, lr}
 1605              	.LBB275:
 1606              	.LBB274:
 1607              		.loc 1 167 0
 1608 0152 FFF7FEBF 		b	vt100_printf
 1609              	.LBE274:
 1610              	.LBE275:
 1611              		.cfi_endproc
 1612              	.LFE78:
 1613              		.size	apolloJoystickSetup, .-apolloJoystickSetup
 1614              		.global	__aeabi_f2iz
 1615              		.global	__aeabi_f2d
 1616 0156 00BFAFF3 		.section	.text.apolloUpdateMotor,"ax",%progbits
 1616      0080AFF3 
 1616      0080
 1617              		.align	2
 1618              		.p2align 4,,15
 1619              		.global	apolloUpdateMotor
 1620              		.thumb
 1621              		.thumb_func
 1622              		.type	apolloUpdateMotor, %function
 1623              	apolloUpdateMotor:
 1624              	.LFB79:
 1625              		.loc 1 360 0
 1626              		.cfi_startproc
 1627              		@ args = 0, pretend = 0, frame = 16
 1628              		@ frame_needed = 0, uses_anonymous_args = 0
 1629              	.LVL88:
 1630 0000 2DE9F04F 		push	{r4, r5, r6, r7, r8, r9, sl, fp, lr}
 1631              	.LCFI10:
 1632              		.cfi_def_cfa_offset 36
 1633              		.cfi_offset 14, -4
 1634              		.cfi_offset 11, -8
 1635              		.cfi_offset 10, -12
 1636              		.cfi_offset 9, -16
 1637              		.cfi_offset 8, -20
 1638              		.cfi_offset 7, -24
 1639              		.cfi_offset 6, -28
 1640              		.cfi_offset 5, -32
 1641              		.cfi_offset 4, -36
 1642              		.loc 1 361 0
 1643 0004 06B2     		sxth	r6, r0
 1644              		.loc 1 360 0
 1645 0006 8BB0     		sub	sp, sp, #44
ARM GAS  /tmp/cc3rdzJM.s 			page 30


 1646              	.LCFI11:
 1647              		.cfi_def_cfa_offset 80
 1648              		.loc 1 360 0
 1649 0008 8346     		mov	fp, r0
 1650              		.loc 1 361 0
 1651 000a 3046     		mov	r0, r6
 1652              	.LVL89:
 1653 000c FFF7FEFF 		bl	vexMotorEncoderIdGet
 1654 0010 0446     		mov	r4, r0
 1655              	.LVL90:
 1656              		.loc 1 362 0
 1657 0012 3046     		mov	r0, r6
 1658              	.LVL91:
 1659 0014 FFF7FEFF 		bl	vexMotorGet
 1660 0018 0546     		mov	r5, r0
 1661              	.LVL92:
 1662              		.loc 1 363 0
 1663 001a 3046     		mov	r0, r6
 1664              	.LVL93:
 1665 001c FFF7FEFF 		bl	vexMotorPositionGet
 1666              		.loc 1 364 0
 1667 0020 4FFA8BF7 		sxtb	r7, fp
 1668              		.loc 1 363 0
 1669 0024 8246     		mov	sl, r0
 1670              	.LVL94:
 1671              		.loc 1 364 0
 1672 0026 3846     		mov	r0, r7
 1673              	.LVL95:
 1674 0028 FFF7FEFF 		bl	SmartMotorGetSpeed
 1675              		.loc 1 365 0
 1676 002c 0021     		movs	r1, #0
 1677              		.loc 1 364 0
 1678 002e 8146     		mov	r9, r0
 1679              	.LVL96:
 1680              		.loc 1 365 0
 1681 0030 3846     		mov	r0, r7
 1682              	.LVL97:
 1683 0032 FFF7FEFF 		bl	_SmartMotorGetCurrent
 1684 0036 8046     		mov	r8, r0
 1685              	.LVL98:
 1686              		.loc 1 366 0
 1687 0038 3846     		mov	r0, r7
 1688              	.LVL99:
 1689 003a FFF7FEFF 		bl	SmartMotorGetTemperature
 1690 003e 0746     		mov	r7, r0
 1691              	.LVL100:
 1692              	.LBB278:
 1693              	.LBB279:
 1694              		.loc 1 163 0
 1695 0040 40F20000 		movw	r0, #:lower16:.LC0
 1696              	.LVL101:
 1697 0044 C0F20000 		movt	r0, #:upper16:.LC0
 1698 0048 0BF10301 		add	r1, fp, #3
 1699 004c 0722     		movs	r2, #7
 1700 004e FFF7FEFF 		bl	vt100_printf
 1701              	.LBE279:
 1702              	.LBE278:
ARM GAS  /tmp/cc3rdzJM.s 			page 31


 1703              		.loc 1 370 0
 1704 0052 3046     		mov	r0, r6
 1705 0054 FFF7FEFF 		bl	vexMotorTypeGet
 1706 0058 0028     		cmp	r0, #0
 1707 005a 2ED0     		beq	.L48
 1708              		.loc 1 372 0
 1709 005c 3046     		mov	r0, r6
 1710 005e FFF7FEFF 		bl	vexMotorDirectionGet
 1711 0062 0028     		cmp	r0, #0
 1712 0064 0CBF     		ite	eq
 1713 0066 2026     		moveq	r6, #32
 1714 0068 5226     		movne	r6, #82
 1715              		.loc 1 364 0
 1716 006a 4846     		mov	r0, r9
 1717 006c FFF7FEFF 		bl	__aeabi_f2iz
 1718 0070 8146     		mov	r9, r0
 1719              	.LVL102:
 1720              		.loc 1 365 0
 1721 0072 4046     		mov	r0, r8
 1722 0074 FFF7FEFF 		bl	__aeabi_f2d
 1723 0078 CDE90601 		strd	r0, [sp, #24]
 1724              		.loc 1 366 0
 1725 007c 3846     		mov	r0, r7
 1726 007e FFF7FEFF 		bl	__aeabi_f2d
 1727              		.loc 1 377 0
 1728 0082 002C     		cmp	r4, #0
 1729              		.loc 1 366 0
 1730 0084 CDE90801 		strd	r0, [sp, #32]
 1731              		.loc 1 377 0
 1732 0088 20DB     		blt	.L50
 1733              		.loc 1 378 0
 1734 008a 40F20000 		movw	r0, #:lower16:.LC19
 1735 008e C0F20000 		movt	r0, #:upper16:.LC19
 1736 0092 2146     		mov	r1, r4
 1737 0094 3246     		mov	r2, r6
 1738 0096 2B46     		mov	r3, r5
 1739 0098 CDF800A0 		str	sl, [sp, #0]
 1740 009c CDF80490 		str	r9, [sp, #4]
 1741              	.L53:
 1742              		.loc 1 380 0
 1743 00a0 DDE90645 		ldrd	r4, [sp, #24]
 1744              	.LVL103:
 1745 00a4 CDE90245 		strd	r4, [sp, #8]
 1746 00a8 DDE90845 		ldrd	r4, [sp, #32]
 1747 00ac CDE90445 		strd	r4, [sp, #16]
 1748 00b0 FFF7FEFF 		bl	vt100_printf
 1749              		.loc 1 384 0
 1750 00b4 0BB0     		add	sp, sp, #44
 1751 00b6 BDE8F08F 		pop	{r4, r5, r6, r7, r8, r9, sl, fp, pc}
 1752              	.LVL104:
 1753              	.L48:
 1754              		.loc 1 383 0
 1755 00ba 40F20000 		movw	r0, #:lower16:.LC21
 1756 00be C0F20000 		movt	r0, #:upper16:.LC21
 1757              		.loc 1 384 0
 1758 00c2 0BB0     		add	sp, sp, #44
 1759 00c4 BDE8F04F 		pop	{r4, r5, r6, r7, r8, r9, sl, fp, lr}
ARM GAS  /tmp/cc3rdzJM.s 			page 32


 1760              		.loc 1 383 0
 1761 00c8 FFF7FEBF 		b	vt100_printf
 1762              	.LVL105:
 1763              	.L50:
 1764              		.loc 1 380 0
 1765 00cc 40F20000 		movw	r0, #:lower16:.LC20
 1766 00d0 C0F20000 		movt	r0, #:upper16:.LC20
 1767 00d4 3146     		mov	r1, r6
 1768 00d6 2A46     		mov	r2, r5
 1769 00d8 5346     		mov	r3, sl
 1770 00da CDF80090 		str	r9, [sp, #0]
 1771 00de DFE7     		b	.L53
 1772              		.cfi_endproc
 1773              	.LFE79:
 1774              		.size	apolloUpdateMotor, .-apolloUpdateMotor
 1775              		.section	.text.apolloUpdateCortex,"ax",%progbits
 1776              		.align	2
 1777              		.p2align 4,,15
 1778              		.global	apolloUpdateCortex
 1779              		.thumb
 1780              		.thumb_func
 1781              		.type	apolloUpdateCortex, %function
 1782              	apolloUpdateCortex:
 1783              	.LFB80:
 1784              		.loc 1 392 0
 1785              		.cfi_startproc
 1786              		@ args = 0, pretend = 0, frame = 0
 1787              		@ frame_needed = 0, uses_anonymous_args = 0
 1788              	.LVL106:
 1789 0000 70B5     		push	{r4, r5, r6, lr}
 1790              	.LCFI12:
 1791              		.cfi_def_cfa_offset 16
 1792              		.cfi_offset 14, -4
 1793              		.cfi_offset 6, -8
 1794              		.cfi_offset 5, -12
 1795              		.cfi_offset 4, -16
 1796              		.loc 1 393 0
 1797 0002 06B2     		sxth	r6, r0
 1798              		.loc 1 392 0
 1799 0004 82B0     		sub	sp, sp, #8
 1800              	.LCFI13:
 1801              		.cfi_def_cfa_offset 24
 1802              		.loc 1 392 0
 1803 0006 0546     		mov	r5, r0
 1804              		.loc 1 393 0
 1805 0008 3046     		mov	r0, r6
 1806              	.LVL107:
 1807 000a FFF7FEFF 		bl	SmartMotorGetControllerCurrent
 1808 000e 0446     		mov	r4, r0
 1809              	.LVL108:
 1810              		.loc 1 394 0
 1811 0010 3046     		mov	r0, r6
 1812              	.LVL109:
 1813 0012 FFF7FEFF 		bl	SmartMotorGetControllerTemperature
 1814 0016 0646     		mov	r6, r0
 1815              	.LVL110:
 1816              	.LBB282:
ARM GAS  /tmp/cc3rdzJM.s 			page 33


 1817              	.LBB283:
 1818              		.loc 1 163 0
 1819 0018 40F20000 		movw	r0, #:lower16:.LC0
 1820              	.LVL111:
 1821 001c 1D22     		movs	r2, #29
 1822 001e 05F10D01 		add	r1, r5, #13
 1823 0022 C0F20000 		movt	r0, #:upper16:.LC0
 1824 0026 FFF7FEFF 		bl	vt100_printf
 1825              	.LBE283:
 1826              	.LBE282:
 1827              		.loc 1 393 0
 1828 002a 2046     		mov	r0, r4
 1829 002c FFF7FEFF 		bl	__aeabi_f2d
 1830 0030 0446     		mov	r4, r0
 1831              	.LVL112:
 1832              		.loc 1 394 0
 1833 0032 3046     		mov	r0, r6
 1834              		.loc 1 393 0
 1835 0034 0D46     		mov	r5, r1
 1836              	.LVL113:
 1837              		.loc 1 394 0
 1838 0036 FFF7FEFF 		bl	__aeabi_f2d
 1839 003a CDE90001 		strd	r0, [sp]
 1840              		.loc 1 397 0
 1841 003e 40F20000 		movw	r0, #:lower16:.LC22
 1842 0042 C0F20000 		movt	r0, #:upper16:.LC22
 1843 0046 2246     		mov	r2, r4
 1844 0048 2B46     		mov	r3, r5
 1845 004a FFF7FEFF 		bl	vt100_printf
 1846              		.loc 1 398 0
 1847 004e 02B0     		add	sp, sp, #8
 1848 0050 70BD     		pop	{r4, r5, r6, pc}
 1849              		.cfi_endproc
 1850              	.LFE80:
 1851              		.size	apolloUpdateCortex, .-apolloUpdateCortex
 1852 0052 00BFAFF3 		.section	.text.apolloUpdateDigital,"ax",%progbits
 1852      0080AFF3 
 1852      0080AFF3 
 1852      0080
 1853              		.align	2
 1854              		.p2align 4,,15
 1855              		.global	apolloUpdateDigital
 1856              		.thumb
 1857              		.thumb_func
 1858              		.type	apolloUpdateDigital, %function
 1859              	apolloUpdateDigital:
 1860              	.LFB81:
 1861              		.loc 1 406 0
 1862              		.cfi_startproc
 1863              		@ args = 0, pretend = 0, frame = 0
 1864              		@ frame_needed = 0, uses_anonymous_args = 0
 1865              	.LVL114:
 1866 0000 10B5     		push	{r4, lr}
 1867              	.LCFI14:
 1868              		.cfi_def_cfa_offset 8
 1869              		.cfi_offset 14, -4
 1870              		.cfi_offset 4, -8
ARM GAS  /tmp/cc3rdzJM.s 			page 34


 1871              		.loc 1 406 0
 1872 0002 0446     		mov	r4, r0
 1873              	.LVL115:
 1874              	.LBB286:
 1875              	.LBB287:
 1876              		.loc 1 163 0
 1877 0004 40F20000 		movw	r0, #:lower16:.LC0
 1878              	.LVL116:
 1879 0008 E11C     		adds	r1, r4, #3
 1880 000a C0F20000 		movt	r0, #:upper16:.LC0
 1881 000e 3522     		movs	r2, #53
 1882              	.LBE287:
 1883              	.LBE286:
 1884              		.loc 1 411 0
 1885 0010 64B2     		sxtb	r4, r4
 1886              	.LVL117:
 1887              	.LBB289:
 1888              	.LBB288:
 1889              		.loc 1 163 0
 1890 0012 FFF7FEFF 		bl	vt100_printf
 1891              	.LVL118:
 1892              	.LBE288:
 1893              	.LBE289:
 1894              		.loc 1 411 0
 1895 0016 2046     		mov	r0, r4
 1896 0018 FFF7FEFF 		bl	vexDigitalTypeGet
 1897              	.LVL119:
 1898              		.loc 1 413 0
 1899 001c 0138     		subs	r0, r0, #1
 1900              	.LVL120:
 1901 001e 0728     		cmp	r0, #7
 1902 0020 0AD8     		bhi	.L55
 1903 0022 DFE800F0 		tbb	[pc, r0]
 1904              	.L63:
 1905 0026 0A       		.byte	(.L58-.L63)/2
 1906 0027 0A       		.byte	(.L58-.L63)/2
 1907 0028 04       		.byte	(.L59-.L63)/2
 1908 0029 1A       		.byte	(.L60-.L63)/2
 1909 002a 26       		.byte	(.L61-.L63)/2
 1910 002b 09       		.byte	(.L55-.L63)/2
 1911 002c 09       		.byte	(.L55-.L63)/2
 1912 002d 16       		.byte	(.L62-.L63)/2
 1913              		.align	1
 1914              	.L59:
 1915              		.loc 1 425 0
 1916 002e 2046     		mov	r0, r4
 1917 0030 FFF7FEFF 		bl	vexDigitalCfgGet
 1918 0034 0A28     		cmp	r0, #10
 1919 0036 28D0     		beq	.L65
 1920              	.L55:
 1921 0038 10BD     		pop	{r4, pc}
 1922              	.L58:
 1923              		.loc 1 419 0
 1924 003a 2046     		mov	r0, r4
 1925 003c FFF7FEFF 		bl	vexDigitalPinGet
 1926              	.L64:
 1927              		.loc 1 434 0
ARM GAS  /tmp/cc3rdzJM.s 			page 35


 1928 0040 0146     		mov	r1, r0
 1929 0042 40F20000 		movw	r0, #:lower16:.LC23
 1930 0046 C0F20000 		movt	r0, #:upper16:.LC23
 1931              		.loc 1 440 0
 1932 004a BDE81040 		pop	{r4, lr}
 1933              		.loc 1 434 0
 1934 004e FFF7FEBF 		b	vt100_printf
 1935              	.L62:
 1936              		.loc 1 422 0
 1937 0052 2046     		mov	r0, r4
 1938 0054 FFF7FEFF 		bl	vexDigitalIntrCountGet
 1939 0058 F2E7     		b	.L64
 1940              	.L60:
 1941              		.loc 1 429 0
 1942 005a 2046     		mov	r0, r4
 1943 005c FFF7FEFF 		bl	vexDigitalCfgGet
 1944 0060 0C28     		cmp	r0, #12
 1945 0062 E9D1     		bne	.L55
 1946              		.loc 1 430 0
 1947 0064 2046     		mov	r0, r4
 1948 0066 FFF7FEFF 		bl	vexDigitalChannelGet
 1949 006a C0B2     		uxtb	r0, r0
 1950 006c FFF7FEFF 		bl	vexSonarGetCm
 1951 0070 E6E7     		b	.L64
 1952              	.L61:
 1953              		.loc 1 433 0
 1954 0072 2046     		mov	r0, r4
 1955 0074 FFF7FEFF 		bl	vexDigitalCfgGet
 1956 0078 0C28     		cmp	r0, #12
 1957 007a DDD1     		bne	.L55
 1958              		.loc 1 434 0
 1959 007c 2046     		mov	r0, r4
 1960 007e FFF7FEFF 		bl	vexDigitalChannelGet
 1961 0082 C0B2     		uxtb	r0, r0
 1962 0084 FFF7FEFF 		bl	vexSonarGetInch
 1963 0088 DAE7     		b	.L64
 1964              	.L65:
 1965              		.loc 1 426 0
 1966 008a 2046     		mov	r0, r4
 1967 008c FFF7FEFF 		bl	vexDigitalChannelGet
 1968 0090 00B2     		sxth	r0, r0
 1969 0092 FFF7FEFF 		bl	vexEncoderGet
 1970 0096 D3E7     		b	.L64
 1971              		.cfi_endproc
 1972              	.LFE81:
 1973              		.size	apolloUpdateDigital, .-apolloUpdateDigital
 1974 0098 AFF30080 		.section	.text.apolloUpdateAnalog,"ax",%progbits
 1974      AFF30080 
 1975              		.align	2
 1976              		.p2align 4,,15
 1977              		.global	apolloUpdateAnalog
 1978              		.thumb
 1979              		.thumb_func
 1980              		.type	apolloUpdateAnalog, %function
 1981              	apolloUpdateAnalog:
 1982              	.LFB82:
 1983              		.loc 1 448 0
ARM GAS  /tmp/cc3rdzJM.s 			page 36


 1984              		.cfi_startproc
 1985              		@ args = 0, pretend = 0, frame = 0
 1986              		@ frame_needed = 0, uses_anonymous_args = 0
 1987              	.LVL121:
 1988 0000 10B5     		push	{r4, lr}
 1989              	.LCFI15:
 1990              		.cfi_def_cfa_offset 8
 1991              		.cfi_offset 14, -4
 1992              		.cfi_offset 4, -8
 1993              		.loc 1 448 0
 1994 0002 0446     		mov	r4, r0
 1995              	.LVL122:
 1996              	.LBB292:
 1997              	.LBB293:
 1998              		.loc 1 163 0
 1999 0004 40F20000 		movw	r0, #:lower16:.LC0
 2000              	.LVL123:
 2001 0008 E11C     		adds	r1, r4, #3
 2002 000a 4922     		movs	r2, #73
 2003 000c C0F20000 		movt	r0, #:upper16:.LC0
 2004 0010 FFF7FEFF 		bl	vt100_printf
 2005              	.LBE293:
 2006              	.LBE292:
 2007              		.loc 1 451 0
 2008 0014 20B2     		sxth	r0, r4
 2009 0016 FFF7FEFF 		bl	vexAdcGet
 2010 001a 0146     		mov	r1, r0
 2011 001c 40F20000 		movw	r0, #:lower16:.LC24
 2012 0020 C0F20000 		movt	r0, #:upper16:.LC24
 2013              		.loc 1 452 0
 2014 0024 BDE81040 		pop	{r4, lr}
 2015              		.loc 1 451 0
 2016 0028 FFF7FEBF 		b	vt100_printf
 2017              		.cfi_endproc
 2018              	.LFE82:
 2019              		.size	apolloUpdateAnalog, .-apolloUpdateAnalog
 2020              		.global	__aeabi_i2d
 2021              		.global	__aeabi_ddiv
 2022 002c AFF30080 		.section	.text.apolloUpdateSystem,"ax",%progbits
 2023              		.align	2
 2024              		.p2align 4,,15
 2025              		.global	apolloUpdateSystem
 2026              		.thumb
 2027              		.thumb_func
 2028              		.type	apolloUpdateSystem, %function
 2029              	apolloUpdateSystem:
 2030              	.LFB83:
 2031              		.loc 1 459 0
 2032              		.cfi_startproc
 2033              		@ args = 0, pretend = 0, frame = 0
 2034              		@ frame_needed = 0, uses_anonymous_args = 0
 2035              		.loc 1 460 0
 2036 0000 40F20003 		movw	r3, #:lower16:vtlist
 2037 0004 C0F20003 		movt	r3, #:upper16:vtlist
 2038              		.loc 1 459 0
 2039 0008 70B5     		push	{r4, r5, r6, lr}
 2040              	.LCFI16:
ARM GAS  /tmp/cc3rdzJM.s 			page 37


 2041              		.cfi_def_cfa_offset 16
 2042              		.cfi_offset 14, -4
 2043              		.cfi_offset 6, -8
 2044              		.cfi_offset 5, -12
 2045              		.cfi_offset 4, -16
 2046              		.loc 1 460 0
 2047 000a DC68     		ldr	r4, [r3, #12]
 2048 000c 44F6D353 		movw	r3, #19923
 2049 0010 C1F26203 		movt	r3, 4194
 2050 0014 A3FB0404 		umull	r0, r4, r3, r4
 2051              	.LBB296:
 2052              	.LBB297:
 2053              		.loc 1 163 0
 2054 0018 40F20000 		movw	r0, #:lower16:.LC0
 2055 001c C0F20000 		movt	r0, #:upper16:.LC0
 2056 0020 0322     		movs	r2, #3
 2057 0022 1721     		movs	r1, #23
 2058 0024 FFF7FEFF 		bl	vt100_printf
 2059              	.LBE297:
 2060              	.LBE296:
 2061              		.loc 1 465 0
 2062 0028 4BF2C531 		movw	r1, #46021
 2063              		.loc 1 460 0
 2064 002c A409     		lsrs	r4, r4, #6
 2065              	.LVL124:
 2066              		.loc 1 465 0
 2067 002e C9F2A211 		movt	r1, 37282
 2068 0032 81FB0421 		smull	r2, r1, r1, r4
 2069              		.loc 1 466 0
 2070 0036 4FF2F012 		movw	r2, #61936
 2071              		.loc 1 465 0
 2072 003a 0919     		adds	r1, r1, r4
 2073 003c C912     		asrs	r1, r1, #11
 2074              	.LVL125:
 2075              		.loc 1 466 0
 2076 003e CFF6FF72 		movt	r2, 65535
 2077 0042 02FB0142 		mla	r2, r2, r1, r4
 2078 0046 48F68905 		movw	r5, #34953
 2079 004a C8F68805 		movt	r5, 34952
 2080              		.loc 1 467 0
 2081 004e 85FB0403 		smull	r0, r3, r5, r4
 2082              		.loc 1 466 0
 2083 0052 85FB0205 		smull	r0, r5, r5, r2
 2084              		.loc 1 467 0
 2085 0056 1B19     		adds	r3, r3, r4
 2086 0058 5B11     		asrs	r3, r3, #5
 2087              		.loc 1 466 0
 2088 005a AD18     		adds	r5, r5, r2
 2089              		.loc 1 467 0
 2090 005c C3EB0313 		rsb	r3, r3, r3, lsl #4
 2091              		.loc 1 466 0
 2092 0060 D217     		asrs	r2, r2, #31
 2093              		.loc 1 469 0
 2094 0062 40F20000 		movw	r0, #:lower16:.LC25
 2095 0066 C2EB6512 		rsb	r2, r2, r5, asr #5
 2096 006a A4EB8303 		sub	r3, r4, r3, lsl #2
 2097 006e C0F20000 		movt	r0, #:upper16:.LC25
ARM GAS  /tmp/cc3rdzJM.s 			page 38


 2098 0072 FFF7FEFF 		bl	vt100_printf
 2099              	.LVL126:
 2100              		.loc 1 470 0
 2101 0076 FFF7FEFF 		bl	vexSpiGetMainBattery
 2102 007a FFF7FEFF 		bl	__aeabi_i2d
 2103 007e 10A3     		adr	r3, .L68
 2104 0080 D3E90023 		ldrd	r2, [r3]
 2105 0084 FFF7FEFF 		bl	__aeabi_ddiv
 2106 0088 0246     		mov	r2, r0
 2107 008a 40F20000 		movw	r0, #:lower16:.LC26
 2108 008e 0B46     		mov	r3, r1
 2109 0090 C0F20000 		movt	r0, #:upper16:.LC26
 2110 0094 FFF7FEFF 		bl	vt100_printf
 2111              		.loc 1 471 0
 2112 0098 FFF7FEFF 		bl	vexSpiGetBackupBattery
 2113 009c FFF7FEFF 		bl	__aeabi_i2d
 2114 00a0 07A3     		adr	r3, .L68
 2115 00a2 D3E90023 		ldrd	r2, [r3]
 2116 00a6 FFF7FEFF 		bl	__aeabi_ddiv
 2117 00aa 0246     		mov	r2, r0
 2118 00ac 40F20000 		movw	r0, #:lower16:.LC27
 2119 00b0 0B46     		mov	r3, r1
 2120 00b2 C0F20000 		movt	r0, #:upper16:.LC27
 2121              		.loc 1 472 0
 2122 00b6 BDE87040 		pop	{r4, r5, r6, lr}
 2123              		.loc 1 471 0
 2124 00ba FFF7FEBF 		b	vt100_printf
 2125              	.L69:
 2126 00be 00BF     		.align	3
 2127              	.L68:
 2128 00c0 00000000 		.word	0
 2129 00c4 00408F40 		.word	1083129856
 2130              		.cfi_endproc
 2131              	.LFE83:
 2132              		.size	apolloUpdateSystem, .-apolloUpdateSystem
 2133 00c8 AFF30080 		.section	.text.apolloUpdateJoystickButton,"ax",%progbits
 2133      AFF30080 
 2134              		.align	2
 2135              		.p2align 4,,15
 2136              		.global	apolloUpdateJoystickButton
 2137              		.thumb
 2138              		.thumb_func
 2139              		.type	apolloUpdateJoystickButton, %function
 2140              	apolloUpdateJoystickButton:
 2141              	.LFB84:
 2142              		.loc 1 485 0
 2143              		.cfi_startproc
 2144              		@ args = 8, pretend = 0, frame = 0
 2145              		@ frame_needed = 0, uses_anonymous_args = 0
 2146              	.LVL127:
 2147 0000 2DE9F041 		push	{r4, r5, r6, r7, r8, lr}
 2148              	.LCFI17:
 2149              		.cfi_def_cfa_offset 24
 2150              		.cfi_offset 14, -4
 2151              		.cfi_offset 8, -8
 2152              		.cfi_offset 7, -12
 2153              		.cfi_offset 6, -16
ARM GAS  /tmp/cc3rdzJM.s 			page 39


 2154              		.cfi_offset 5, -20
 2155              		.cfi_offset 4, -24
 2156              		.loc 1 485 0
 2157 0004 069C     		ldr	r4, [sp, #24]
 2158              		.loc 1 486 0
 2159 0006 0028     		cmp	r0, #0
 2160 0008 14BF     		ite	ne
 2161 000a 3226     		movne	r6, #50
 2162 000c 0A26     		moveq	r6, #10
 2163              	.LVL128:
 2164              	.LBB300:
 2165              	.LBB301:
 2166              		.loc 1 163 0
 2167 000e 40F20000 		movw	r0, #:lower16:.LC0
 2168              	.LVL129:
 2169 0012 1131     		adds	r1, r1, #17
 2170              	.LVL130:
 2171              	.LBE301:
 2172              	.LBE300:
 2173              		.loc 1 485 0
 2174 0014 1546     		mov	r5, r2
 2175              	.LBB304:
 2176              	.LBB302:
 2177              		.loc 1 163 0
 2178 0016 C0F20000 		movt	r0, #:upper16:.LC0
 2179 001a 3246     		mov	r2, r6
 2180              	.LVL131:
 2181              	.LBE302:
 2182              	.LBE304:
 2183              		.loc 1 485 0
 2184 001c 1F46     		mov	r7, r3
 2185 001e 079E     		ldr	r6, [sp, #28]
 2186              	.LVL132:
 2187              	.LBB305:
 2188              	.LBB303:
 2189              		.loc 1 163 0
 2190 0020 FFF7FEFF 		bl	vt100_printf
 2191              	.LVL133:
 2192              	.LBE303:
 2193              	.LBE305:
 2194              		.loc 1 489 0
 2195 0024 002C     		cmp	r4, #0
 2196 0026 0BDB     		blt	.L72
 2197              		.loc 1 490 0
 2198 0028 40F20000 		movw	r0, #:lower16:.LC28
 2199 002c C0F20000 		movt	r0, #:upper16:.LC28
 2200 0030 2946     		mov	r1, r5
 2201 0032 3A46     		mov	r2, r7
 2202 0034 2346     		mov	r3, r4
 2203 0036 0696     		str	r6, [sp, #24]
 2204              		.loc 1 493 0
 2205 0038 BDE8F041 		pop	{r4, r5, r6, r7, r8, lr}
 2206              		.loc 1 490 0
 2207 003c FFF7FEBF 		b	vt100_printf
 2208              	.L72:
 2209              		.loc 1 492 0
 2210 0040 40F20000 		movw	r0, #:lower16:.LC29
ARM GAS  /tmp/cc3rdzJM.s 			page 40


 2211 0044 C0F20000 		movt	r0, #:upper16:.LC29
 2212 0048 2946     		mov	r1, r5
 2213 004a 3A46     		mov	r2, r7
 2214              		.loc 1 493 0
 2215 004c BDE8F041 		pop	{r4, r5, r6, r7, r8, lr}
 2216              		.loc 1 492 0
 2217 0050 FFF7FEBF 		b	vt100_printf
 2218              		.cfi_endproc
 2219              	.LFE84:
 2220              		.size	apolloUpdateJoystickButton, .-apolloUpdateJoystickButton
 2221 0054 AFF30080 		.section	.text.apolloUpdateJoystickAnalog,"ax",%progbits
 2221      AFF30080 
 2221      AFF30080 
 2222              		.align	2
 2223              		.p2align 4,,15
 2224              		.global	apolloUpdateJoystickAnalog
 2225              		.thumb
 2226              		.thumb_func
 2227              		.type	apolloUpdateJoystickAnalog, %function
 2228              	apolloUpdateJoystickAnalog:
 2229              	.LFB85:
 2230              		.loc 1 504 0
 2231              		.cfi_startproc
 2232              		@ args = 0, pretend = 0, frame = 0
 2233              		@ frame_needed = 0, uses_anonymous_args = 0
 2234              	.LVL134:
 2235 0000 38B5     		push	{r3, r4, r5, lr}
 2236              	.LCFI18:
 2237              		.cfi_def_cfa_offset 16
 2238              		.cfi_offset 14, -4
 2239              		.cfi_offset 5, -8
 2240              		.cfi_offset 4, -12
 2241              		.cfi_offset 3, -16
 2242              		.loc 1 505 0
 2243 0002 0028     		cmp	r0, #0
 2244 0004 14BF     		ite	ne
 2245 0006 4425     		movne	r5, #68
 2246 0008 1C25     		moveq	r5, #28
 2247              	.LVL135:
 2248              	.LBB308:
 2249              	.LBB309:
 2250              		.loc 1 163 0
 2251 000a 40F20000 		movw	r0, #:lower16:.LC0
 2252              	.LVL136:
 2253              	.LBE309:
 2254              	.LBE308:
 2255              		.loc 1 504 0
 2256 000e 1446     		mov	r4, r2
 2257              	.LBB312:
 2258              	.LBB310:
 2259              		.loc 1 163 0
 2260 0010 1131     		adds	r1, r1, #17
 2261              	.LVL137:
 2262 0012 2A46     		mov	r2, r5
 2263              	.LVL138:
 2264 0014 C0F20000 		movt	r0, #:upper16:.LC0
 2265              	.LBE310:
ARM GAS  /tmp/cc3rdzJM.s 			page 41


 2266              	.LBE312:
 2267              		.loc 1 504 0
 2268 0018 1D46     		mov	r5, r3
 2269              	.LVL139:
 2270              	.LBB313:
 2271              	.LBB311:
 2272              		.loc 1 163 0
 2273 001a FFF7FEFF 		bl	vt100_printf
 2274              	.LVL140:
 2275              	.LBE311:
 2276              	.LBE313:
 2277              		.loc 1 509 0
 2278 001e 40F20000 		movw	r0, #:lower16:.LC30
 2279 0022 C0F20000 		movt	r0, #:upper16:.LC30
 2280 0026 2146     		mov	r1, r4
 2281 0028 2A46     		mov	r2, r5
 2282              		.loc 1 510 0
 2283 002a BDE83840 		pop	{r3, r4, r5, lr}
 2284              		.loc 1 509 0
 2285 002e FFF7FEBF 		b	vt100_printf
 2286              		.cfi_endproc
 2287              	.LFE85:
 2288              		.size	apolloUpdateJoystickAnalog, .-apolloUpdateJoystickAnalog
 2289 0032 00BFAFF3 		.section	.text.apolloInit,"ax",%progbits
 2289      0080AFF3 
 2289      0080AFF3 
 2289      0080
 2290              		.align	2
 2291              		.p2align 4,,15
 2292              		.global	apolloInit
 2293              		.thumb
 2294              		.thumb_func
 2295              		.type	apolloInit, %function
 2296              	apolloInit:
 2297              	.LFB86:
 2298              		.loc 1 517 0
 2299              		.cfi_startproc
 2300              		@ args = 0, pretend = 0, frame = 0
 2301              		@ frame_needed = 0, uses_anonymous_args = 0
 2302              	.LBB314:
 2303              	.LBB315:
 2304              		.loc 1 151 0
 2305 0000 40F20000 		movw	r0, #:lower16:.LC31
 2306              	.LBE315:
 2307              	.LBE314:
 2308              		.loc 1 517 0
 2309 0004 08B5     		push	{r3, lr}
 2310              	.LCFI19:
 2311              		.cfi_def_cfa_offset 8
 2312              		.cfi_offset 14, -4
 2313              		.cfi_offset 3, -8
 2314              	.LBB317:
 2315              	.LBB316:
 2316              		.loc 1 151 0
 2317 0006 C0F20000 		movt	r0, #:upper16:.LC31
 2318 000a FFF7FEFF 		bl	vt100_printf
 2319              	.LBE316:
ARM GAS  /tmp/cc3rdzJM.s 			page 42


 2320              	.LBE317:
 2321              	.LBB318:
 2322              	.LBB319:
 2323              		.loc 1 143 0
 2324 000e 40F20000 		movw	r0, #:lower16:.LC32
 2325 0012 C0F20000 		movt	r0, #:upper16:.LC32
 2326 0016 FFF7FEFF 		bl	vt100_printf
 2327              	.LBE319:
 2328              	.LBE318:
 2329              	.LBB320:
 2330              	.LBB321:
 2331              		.loc 1 155 0
 2332 001a 40F20000 		movw	r0, #:lower16:.LC33
 2333 001e C0F20000 		movt	r0, #:upper16:.LC33
 2334 0022 FFF7FEFF 		bl	vt100_printf
 2335              	.LBE321:
 2336              	.LBE320:
 2337              		.loc 1 526 0
 2338 0026 FFF7FEFF 		bl	apolloScreenSetup
 2339              	.LBB322:
 2340              	.LBB323:
 2341              		.loc 1 159 0
 2342 002a 40F20000 		movw	r0, #:lower16:.LC34
 2343 002e C0F20000 		movt	r0, #:upper16:.LC34
 2344 0032 FFF7FEFF 		bl	vt100_printf
 2345              	.LBE323:
 2346              	.LBE322:
 2347              		.loc 1 531 0
 2348 0036 FFF7FEFF 		bl	apolloMotorSetup
 2349              		.loc 1 532 0
 2350 003a FFF7FEFF 		bl	apolloDigitalSetup
 2351              		.loc 1 533 0
 2352 003e FFF7FEFF 		bl	apolloAnalogSetup
 2353              		.loc 1 534 0
 2354 0042 0020     		movs	r0, #0
 2355 0044 FFF7FEFF 		bl	apolloJoystickSetup
 2356              		.loc 1 535 0
 2357 0048 FFF7FEFF 		bl	vexControllerCompetitonState
 2358 004c 8307     		lsls	r3, r0, #30
 2359 004e 00D4     		bmi	.L79
 2360 0050 08BD     		pop	{r3, pc}
 2361              	.L79:
 2362              		.loc 1 536 0
 2363 0052 0120     		movs	r0, #1
 2364              		.loc 1 537 0
 2365 0054 BDE80840 		pop	{r3, lr}
 2366              		.loc 1 536 0
 2367 0058 FFF7FEBF 		b	apolloJoystickSetup
 2368              		.cfi_endproc
 2369              	.LFE86:
 2370              		.size	apolloInit, .-apolloInit
 2371 005c AFF30080 		.section	.text.apolloDeinit,"ax",%progbits
 2372              		.align	2
 2373              		.p2align 4,,15
 2374              		.global	apolloDeinit
 2375              		.thumb
 2376              		.thumb_func
ARM GAS  /tmp/cc3rdzJM.s 			page 43


 2377              		.type	apolloDeinit, %function
 2378              	apolloDeinit:
 2379              	.LFB87:
 2380              		.loc 1 544 0
 2381              		.cfi_startproc
 2382              		@ args = 0, pretend = 0, frame = 0
 2383              		@ frame_needed = 0, uses_anonymous_args = 0
 2384              	.LVL141:
 2385              	.LBB332:
 2386              	.LBB333:
 2387              		.loc 1 163 0
 2388 0000 40F20000 		movw	r0, #:lower16:.LC0
 2389              	.LBE333:
 2390              	.LBE332:
 2391              		.loc 1 544 0
 2392 0004 08B5     		push	{r3, lr}
 2393              	.LCFI20:
 2394              		.cfi_def_cfa_offset 8
 2395              		.cfi_offset 14, -4
 2396              		.cfi_offset 3, -8
 2397              	.LBB335:
 2398              	.LBB334:
 2399              		.loc 1 163 0
 2400 0006 1821     		movs	r1, #24
 2401 0008 0122     		movs	r2, #1
 2402 000a C0F20000 		movt	r0, #:upper16:.LC0
 2403 000e FFF7FEFF 		bl	vt100_printf
 2404              	.LBE334:
 2405              	.LBE335:
 2406              	.LBB336:
 2407              	.LBB337:
 2408              		.loc 1 151 0
 2409 0012 40F20000 		movw	r0, #:lower16:.LC31
 2410 0016 C0F20000 		movt	r0, #:upper16:.LC31
 2411 001a FFF7FEFF 		bl	vt100_printf
 2412              	.LBE337:
 2413              	.LBE336:
 2414              	.LBB338:
 2415              	.LBB339:
 2416              		.loc 1 147 0
 2417 001e 40F20000 		movw	r0, #:lower16:.LC35
 2418 0022 C0F20000 		movt	r0, #:upper16:.LC35
 2419 0026 FFF7FEFF 		bl	vt100_printf
 2420              	.LBE339:
 2421              	.LBE338:
 2422              	.LBB340:
 2423              	.LBB341:
 2424              		.loc 1 159 0
 2425 002a 40F20000 		movw	r0, #:lower16:.LC34
 2426 002e C0F20000 		movt	r0, #:upper16:.LC34
 2427              	.LBE341:
 2428              	.LBE340:
 2429              		.loc 1 552 0
 2430 0032 BDE80840 		pop	{r3, lr}
 2431              	.LBB343:
 2432              	.LBB342:
 2433              		.loc 1 159 0
ARM GAS  /tmp/cc3rdzJM.s 			page 44


 2434 0036 FFF7FEBF 		b	vt100_printf
 2435              	.LBE342:
 2436              	.LBE343:
 2437              		.cfi_endproc
 2438              	.LFE87:
 2439              		.size	apolloDeinit, .-apolloDeinit
 2440 003a 00BFAFF3 		.section	.text.apolloUpdate,"ax",%progbits
 2440      0080
 2441              		.align	2
 2442              		.p2align 4,,15
 2443              		.global	apolloUpdate
 2444              		.thumb
 2445              		.thumb_func
 2446              		.type	apolloUpdate, %function
 2447              	apolloUpdate:
 2448              	.LFB88:
 2449              		.loc 1 559 0
 2450              		.cfi_startproc
 2451              		@ args = 0, pretend = 0, frame = 0
 2452              		@ frame_needed = 0, uses_anonymous_args = 0
 2453              	.LVL142:
 2454 0000 F0B5     		push	{r4, r5, r6, r7, lr}
 2455              	.LCFI21:
 2456              		.cfi_def_cfa_offset 20
 2457              		.cfi_offset 14, -4
 2458              		.cfi_offset 7, -8
 2459              		.cfi_offset 6, -12
 2460              		.cfi_offset 5, -16
 2461              		.cfi_offset 4, -20
 2462              		.loc 1 564 0
 2463 0002 0020     		movs	r0, #0
 2464              		.loc 1 559 0
 2465 0004 83B0     		sub	sp, sp, #12
 2466              	.LCFI22:
 2467              		.cfi_def_cfa_offset 32
 2468              		.loc 1 564 0
 2469 0006 FFF7FEFF 		bl	apolloUpdateMotor
 2470              	.LVL143:
 2471 000a 0120     		movs	r0, #1
 2472 000c FFF7FEFF 		bl	apolloUpdateMotor
 2473              	.LVL144:
 2474 0010 0220     		movs	r0, #2
 2475 0012 FFF7FEFF 		bl	apolloUpdateMotor
 2476              	.LVL145:
 2477 0016 0320     		movs	r0, #3
 2478 0018 FFF7FEFF 		bl	apolloUpdateMotor
 2479              	.LVL146:
 2480 001c 0420     		movs	r0, #4
 2481 001e FFF7FEFF 		bl	apolloUpdateMotor
 2482              	.LVL147:
 2483 0022 0520     		movs	r0, #5
 2484 0024 FFF7FEFF 		bl	apolloUpdateMotor
 2485              	.LVL148:
 2486 0028 0620     		movs	r0, #6
 2487 002a FFF7FEFF 		bl	apolloUpdateMotor
 2488              	.LVL149:
 2489 002e 0720     		movs	r0, #7
ARM GAS  /tmp/cc3rdzJM.s 			page 45


 2490 0030 FFF7FEFF 		bl	apolloUpdateMotor
 2491              	.LVL150:
 2492 0034 0820     		movs	r0, #8
 2493 0036 FFF7FEFF 		bl	apolloUpdateMotor
 2494              	.LVL151:
 2495 003a 0920     		movs	r0, #9
 2496 003c FFF7FEFF 		bl	apolloUpdateMotor
 2497              	.LVL152:
 2498              		.loc 1 568 0
 2499 0040 0020     		movs	r0, #0
 2500 0042 FFF7FEFF 		bl	apolloUpdateDigital
 2501              	.LVL153:
 2502 0046 0120     		movs	r0, #1
 2503 0048 FFF7FEFF 		bl	apolloUpdateDigital
 2504              	.LVL154:
 2505 004c 0220     		movs	r0, #2
 2506 004e FFF7FEFF 		bl	apolloUpdateDigital
 2507              	.LVL155:
 2508 0052 0320     		movs	r0, #3
 2509 0054 FFF7FEFF 		bl	apolloUpdateDigital
 2510              	.LVL156:
 2511 0058 0420     		movs	r0, #4
 2512 005a FFF7FEFF 		bl	apolloUpdateDigital
 2513              	.LVL157:
 2514 005e 0520     		movs	r0, #5
 2515 0060 FFF7FEFF 		bl	apolloUpdateDigital
 2516              	.LVL158:
 2517 0064 0620     		movs	r0, #6
 2518 0066 FFF7FEFF 		bl	apolloUpdateDigital
 2519              	.LVL159:
 2520 006a 0720     		movs	r0, #7
 2521 006c FFF7FEFF 		bl	apolloUpdateDigital
 2522              	.LVL160:
 2523 0070 0820     		movs	r0, #8
 2524 0072 FFF7FEFF 		bl	apolloUpdateDigital
 2525              	.LVL161:
 2526 0076 0920     		movs	r0, #9
 2527 0078 FFF7FEFF 		bl	apolloUpdateDigital
 2528              	.LVL162:
 2529 007c 0A20     		movs	r0, #10
 2530 007e FFF7FEFF 		bl	apolloUpdateDigital
 2531              	.LVL163:
 2532 0082 0B20     		movs	r0, #11
 2533 0084 FFF7FEFF 		bl	apolloUpdateDigital
 2534              	.LVL164:
 2535              		.loc 1 572 0
 2536 0088 0020     		movs	r0, #0
 2537 008a FFF7FEFF 		bl	apolloUpdateAnalog
 2538              	.LVL165:
 2539 008e 0120     		movs	r0, #1
 2540 0090 FFF7FEFF 		bl	apolloUpdateAnalog
 2541              	.LVL166:
 2542 0094 0220     		movs	r0, #2
 2543 0096 FFF7FEFF 		bl	apolloUpdateAnalog
 2544              	.LVL167:
 2545 009a 0320     		movs	r0, #3
 2546 009c FFF7FEFF 		bl	apolloUpdateAnalog
ARM GAS  /tmp/cc3rdzJM.s 			page 46


 2547              	.LVL168:
 2548 00a0 0420     		movs	r0, #4
 2549 00a2 FFF7FEFF 		bl	apolloUpdateAnalog
 2550              	.LVL169:
 2551 00a6 0520     		movs	r0, #5
 2552 00a8 FFF7FEFF 		bl	apolloUpdateAnalog
 2553              	.LVL170:
 2554 00ac 0620     		movs	r0, #6
 2555 00ae FFF7FEFF 		bl	apolloUpdateAnalog
 2556              	.LVL171:
 2557 00b2 0720     		movs	r0, #7
 2558 00b4 FFF7FEFF 		bl	apolloUpdateAnalog
 2559              	.LVL172:
 2560              		.loc 1 575 0
 2561 00b8 0020     		movs	r0, #0
 2562 00ba FFF7FEFF 		bl	apolloUpdateCortex
 2563              		.loc 1 576 0
 2564 00be 0120     		movs	r0, #1
 2565 00c0 FFF7FEFF 		bl	apolloUpdateCortex
 2566              		.loc 1 577 0
 2567 00c4 FFF7FEFF 		bl	apolloUpdateSystem
 2568              		.loc 1 580 0
 2569 00c8 0D20     		movs	r0, #13
 2570 00ca FFF7FEFF 		bl	vexControllerGet
 2571 00ce 0646     		mov	r6, r0
 2572 00d0 0C20     		movs	r0, #12
 2573 00d2 FFF7FEFF 		bl	vexControllerGet
 2574 00d6 0346     		mov	r3, r0
 2575 00d8 0020     		movs	r0, #0
 2576 00da 0146     		mov	r1, r0
 2577 00dc 3246     		mov	r2, r6
 2578 00de 4FF0FF34 		mov	r4, #-1
 2579 00e2 0094     		str	r4, [sp, #0]
 2580 00e4 0194     		str	r4, [sp, #4]
 2581 00e6 FFF7FEFF 		bl	apolloUpdateJoystickButton
 2582              		.loc 1 581 0
 2583 00ea 0F20     		movs	r0, #15
 2584 00ec FFF7FEFF 		bl	vexControllerGet
 2585 00f0 0546     		mov	r5, r0
 2586 00f2 0E20     		movs	r0, #14
 2587 00f4 FFF7FEFF 		bl	vexControllerGet
 2588 00f8 0121     		movs	r1, #1
 2589 00fa 0346     		mov	r3, r0
 2590 00fc 2A46     		mov	r2, r5
 2591 00fe 0020     		movs	r0, #0
 2592 0100 0094     		str	r4, [sp, #0]
 2593 0102 0194     		str	r4, [sp, #4]
 2594 0104 FFF7FEFF 		bl	apolloUpdateJoystickButton
 2595              		.loc 1 582 0
 2596 0108 0A20     		movs	r0, #10
 2597 010a FFF7FEFF 		bl	vexControllerGet
 2598 010e 0746     		mov	r7, r0
 2599 0110 0820     		movs	r0, #8
 2600 0112 FFF7FEFF 		bl	vexControllerGet
 2601 0116 0646     		mov	r6, r0
 2602 0118 0920     		movs	r0, #9
 2603 011a FFF7FEFF 		bl	vexControllerGet
ARM GAS  /tmp/cc3rdzJM.s 			page 47


 2604 011e 0546     		mov	r5, r0
 2605 0120 0B20     		movs	r0, #11
 2606 0122 FFF7FEFF 		bl	vexControllerGet
 2607 0126 0221     		movs	r1, #2
 2608 0128 3A46     		mov	r2, r7
 2609 012a 3346     		mov	r3, r6
 2610 012c 0190     		str	r0, [sp, #4]
 2611 012e 0020     		movs	r0, #0
 2612 0130 0095     		str	r5, [sp, #0]
 2613 0132 FFF7FEFF 		bl	apolloUpdateJoystickButton
 2614              		.loc 1 583 0
 2615 0136 0620     		movs	r0, #6
 2616 0138 FFF7FEFF 		bl	vexControllerGet
 2617 013c 0746     		mov	r7, r0
 2618 013e 0420     		movs	r0, #4
 2619 0140 FFF7FEFF 		bl	vexControllerGet
 2620 0144 0646     		mov	r6, r0
 2621 0146 0520     		movs	r0, #5
 2622 0148 FFF7FEFF 		bl	vexControllerGet
 2623 014c 0546     		mov	r5, r0
 2624 014e 0720     		movs	r0, #7
 2625 0150 FFF7FEFF 		bl	vexControllerGet
 2626 0154 0321     		movs	r1, #3
 2627 0156 3A46     		mov	r2, r7
 2628 0158 3346     		mov	r3, r6
 2629 015a 0190     		str	r0, [sp, #4]
 2630 015c 0020     		movs	r0, #0
 2631 015e 0095     		str	r5, [sp, #0]
 2632 0160 FFF7FEFF 		bl	apolloUpdateJoystickButton
 2633              		.loc 1 584 0
 2634 0164 0320     		movs	r0, #3
 2635 0166 FFF7FEFF 		bl	vexControllerGet
 2636 016a 0546     		mov	r5, r0
 2637 016c 0220     		movs	r0, #2
 2638 016e FFF7FEFF 		bl	vexControllerGet
 2639 0172 0346     		mov	r3, r0
 2640 0174 0020     		movs	r0, #0
 2641 0176 0146     		mov	r1, r0
 2642 0178 2A46     		mov	r2, r5
 2643 017a FFF7FEFF 		bl	apolloUpdateJoystickAnalog
 2644              		.loc 1 585 0
 2645 017e 0020     		movs	r0, #0
 2646 0180 FFF7FEFF 		bl	vexControllerGet
 2647 0184 0546     		mov	r5, r0
 2648 0186 0120     		movs	r0, #1
 2649 0188 FFF7FEFF 		bl	vexControllerGet
 2650 018c 0121     		movs	r1, #1
 2651 018e 0346     		mov	r3, r0
 2652 0190 2A46     		mov	r2, r5
 2653 0192 0020     		movs	r0, #0
 2654 0194 FFF7FEFF 		bl	apolloUpdateJoystickAnalog
 2655              		.loc 1 586 0
 2656 0198 1020     		movs	r0, #16
 2657 019a FFF7FEFF 		bl	vexControllerGet
 2658 019e 0546     		mov	r5, r0
 2659 01a0 1120     		movs	r0, #17
 2660 01a2 FFF7FEFF 		bl	vexControllerGet
ARM GAS  /tmp/cc3rdzJM.s 			page 48


 2661 01a6 0321     		movs	r1, #3
 2662 01a8 0346     		mov	r3, r0
 2663 01aa 2A46     		mov	r2, r5
 2664 01ac 0020     		movs	r0, #0
 2665 01ae FFF7FEFF 		bl	apolloUpdateJoystickAnalog
 2666              		.loc 1 588 0
 2667 01b2 FFF7FEFF 		bl	vexControllerCompetitonState
 2668 01b6 8207     		lsls	r2, r0, #30
 2669 01b8 72D5     		bpl	.L82
 2670              		.loc 1 591 0
 2671 01ba 8D20     		movs	r0, #141
 2672 01bc FFF7FEFF 		bl	vexControllerGet
 2673 01c0 0646     		mov	r6, r0
 2674 01c2 8C20     		movs	r0, #140
 2675 01c4 FFF7FEFF 		bl	vexControllerGet
 2676 01c8 0021     		movs	r1, #0
 2677 01ca 0346     		mov	r3, r0
 2678 01cc 3246     		mov	r2, r6
 2679 01ce 0120     		movs	r0, #1
 2680 01d0 0094     		str	r4, [sp, #0]
 2681 01d2 0194     		str	r4, [sp, #4]
 2682 01d4 FFF7FEFF 		bl	apolloUpdateJoystickButton
 2683              		.loc 1 592 0
 2684 01d8 8F20     		movs	r0, #143
 2685 01da FFF7FEFF 		bl	vexControllerGet
 2686 01de 0546     		mov	r5, r0
 2687 01e0 8E20     		movs	r0, #142
 2688 01e2 FFF7FEFF 		bl	vexControllerGet
 2689 01e6 0346     		mov	r3, r0
 2690 01e8 0120     		movs	r0, #1
 2691 01ea 0146     		mov	r1, r0
 2692 01ec 2A46     		mov	r2, r5
 2693 01ee 0094     		str	r4, [sp, #0]
 2694 01f0 0194     		str	r4, [sp, #4]
 2695 01f2 FFF7FEFF 		bl	apolloUpdateJoystickButton
 2696              		.loc 1 593 0
 2697 01f6 8A20     		movs	r0, #138
 2698 01f8 FFF7FEFF 		bl	vexControllerGet
 2699 01fc 0646     		mov	r6, r0
 2700 01fe 8820     		movs	r0, #136
 2701 0200 FFF7FEFF 		bl	vexControllerGet
 2702 0204 0546     		mov	r5, r0
 2703 0206 8920     		movs	r0, #137
 2704 0208 FFF7FEFF 		bl	vexControllerGet
 2705 020c 0446     		mov	r4, r0
 2706 020e 8B20     		movs	r0, #139
 2707 0210 FFF7FEFF 		bl	vexControllerGet
 2708 0214 0221     		movs	r1, #2
 2709 0216 3246     		mov	r2, r6
 2710 0218 2B46     		mov	r3, r5
 2711 021a 0190     		str	r0, [sp, #4]
 2712 021c 0120     		movs	r0, #1
 2713 021e 0094     		str	r4, [sp, #0]
 2714 0220 FFF7FEFF 		bl	apolloUpdateJoystickButton
 2715              		.loc 1 594 0
 2716 0224 8620     		movs	r0, #134
 2717 0226 FFF7FEFF 		bl	vexControllerGet
ARM GAS  /tmp/cc3rdzJM.s 			page 49


 2718 022a 0646     		mov	r6, r0
 2719 022c 8420     		movs	r0, #132
 2720 022e FFF7FEFF 		bl	vexControllerGet
 2721 0232 0546     		mov	r5, r0
 2722 0234 8520     		movs	r0, #133
 2723 0236 FFF7FEFF 		bl	vexControllerGet
 2724 023a 0446     		mov	r4, r0
 2725 023c 8720     		movs	r0, #135
 2726 023e FFF7FEFF 		bl	vexControllerGet
 2727 0242 0321     		movs	r1, #3
 2728 0244 3246     		mov	r2, r6
 2729 0246 2B46     		mov	r3, r5
 2730 0248 0190     		str	r0, [sp, #4]
 2731 024a 0120     		movs	r0, #1
 2732 024c 0094     		str	r4, [sp, #0]
 2733 024e FFF7FEFF 		bl	apolloUpdateJoystickButton
 2734              		.loc 1 595 0
 2735 0252 8320     		movs	r0, #131
 2736 0254 FFF7FEFF 		bl	vexControllerGet
 2737 0258 0446     		mov	r4, r0
 2738 025a 8220     		movs	r0, #130
 2739 025c FFF7FEFF 		bl	vexControllerGet
 2740 0260 2246     		mov	r2, r4
 2741 0262 0346     		mov	r3, r0
 2742 0264 0021     		movs	r1, #0
 2743 0266 0120     		movs	r0, #1
 2744 0268 FFF7FEFF 		bl	apolloUpdateJoystickAnalog
 2745              		.loc 1 596 0
 2746 026c 8020     		movs	r0, #128
 2747 026e FFF7FEFF 		bl	vexControllerGet
 2748 0272 0446     		mov	r4, r0
 2749 0274 8120     		movs	r0, #129
 2750 0276 FFF7FEFF 		bl	vexControllerGet
 2751 027a 0346     		mov	r3, r0
 2752 027c 0120     		movs	r0, #1
 2753 027e 0146     		mov	r1, r0
 2754 0280 2246     		mov	r2, r4
 2755 0282 FFF7FEFF 		bl	apolloUpdateJoystickAnalog
 2756              		.loc 1 597 0
 2757 0286 9020     		movs	r0, #144
 2758 0288 FFF7FEFF 		bl	vexControllerGet
 2759 028c 0446     		mov	r4, r0
 2760 028e 9120     		movs	r0, #145
 2761 0290 FFF7FEFF 		bl	vexControllerGet
 2762 0294 0321     		movs	r1, #3
 2763 0296 0346     		mov	r3, r0
 2764 0298 2246     		mov	r2, r4
 2765 029a 0120     		movs	r0, #1
 2766 029c FFF7FEFF 		bl	apolloUpdateJoystickAnalog
 2767              	.L82:
 2768              	.LVL173:
 2769              	.LBB346:
 2770              	.LBB347:
 2771              		.loc 1 163 0
 2772 02a0 40F20000 		movw	r0, #:lower16:.LC0
 2773 02a4 C0F20000 		movt	r0, #:upper16:.LC0
 2774 02a8 1821     		movs	r1, #24
ARM GAS  /tmp/cc3rdzJM.s 			page 50


 2775 02aa 5022     		movs	r2, #80
 2776              	.LBE347:
 2777              	.LBE346:
 2778              		.loc 1 602 0
 2779 02ac 03B0     		add	sp, sp, #12
 2780 02ae BDE8F040 		pop	{r4, r5, r6, r7, lr}
 2781              	.LBB349:
 2782              	.LBB348:
 2783              		.loc 1 163 0
 2784 02b2 FFF7FEBF 		b	vt100_printf
 2785              	.LBE348:
 2786              	.LBE349:
 2787              		.cfi_endproc
 2788              	.LFE88:
 2789              		.size	apolloUpdate, .-apolloUpdate
 2790 02b6 00BFAFF3 		.section	.bss.count.7707,"aw",%nobits
 2790      0080AFF3 
 2790      0080
 2791              		.align	2
 2792              		.set	.LANCHOR0,. + 0
 2793              		.type	count.7707, %object
 2794              		.size	count.7707, 4
 2795              	count.7707:
 2796 0000 00000000 		.space	4
 2797              		.section	.rodata.str1.4,"aMS",%progbits,1
 2798              		.align	2
 2799              	.LC0:
 2800 0000 1B5B2564 		.ascii	"\033[%d;%dH\000"
 2800      3B256448 
 2800      00
 2801 0009 000000   		.space	3
 2802              	.LC1:
 2803 000c 1B5B2564 		.ascii	"\033[%dm\000"
 2803      6D00
 2804 0012 0000     		.space	2
 2805              	.LC2:
 2806 0014 204D5452 		.ascii	" MTR EID  CMD ENCODER  RPM  AMPS  TEMP \000"
 2806      20454944 
 2806      2020434D 
 2806      4420454E 
 2806      434F4445 
 2807              	.LC3:
 2808 003c 25326400 		.ascii	"%2d\000"
 2809              	.LC4:
 2810 0040 4320312D 		.ascii	"C 1-5 \000"
 2810      352000
 2811 0047 00       		.space	1
 2812              	.LC5:
 2813 0048 4320362D 		.ascii	"C 6-10\000"
 2813      313000
 2814 004f 00       		.space	1
 2815              	.LC6:
 2816 0050 20204449 		.ascii	"  DIGITAL          \000"
 2816      47495441 
 2816      4C202020 
 2816      20202020 
 2816      20202000 
ARM GAS  /tmp/cc3rdzJM.s 			page 51


 2817              	.LC7:
 2818 0064 25326420 		.ascii	"%2d %s\000"
 2818      257300
 2819 006b 00       		.space	1
 2820              	.LC8:
 2821 006c 2020414E 		.ascii	"  ANALOG          \000"
 2821      414C4F47 
 2821      20202020 
 2821      20202020 
 2821      202000
 2822 007f 00       		.space	1
 2823              	.LC9:
 2824 0080 20205520 		.ascii	"  U  D  L  R \000"
 2824      20442020 
 2824      4C202052 
 2824      2000
 2825 008e 0000     		.space	2
 2826              	.LC10:
 2827 0090 20202020 		.ascii	"    H     V \000"
 2827      48202020 
 2827      20205620 
 2827      00
 2828 009d 000000   		.space	3
 2829              	.LC11:
 2830 00a0 20202020 		.ascii	"    X     Y \000"
 2830      58202020 
 2830      20205920 
 2830      00
 2831 00ad 000000   		.space	3
 2832              	.LC12:
 2833 00b0 2042544E 		.ascii	" BTN5 \000"
 2833      352000
 2834 00b7 00       		.space	1
 2835              	.LC13:
 2836 00b8 2042544E 		.ascii	" BTN6 \000"
 2836      362000
 2837 00bf 00       		.space	1
 2838              	.LC14:
 2839 00c0 2042544E 		.ascii	" BTN7 \000"
 2839      372000
 2840 00c7 00       		.space	1
 2841              	.LC15:
 2842 00c8 2042544E 		.ascii	" BTN8 \000"
 2842      382000
 2843 00cf 00       		.space	1
 2844              	.LC16:
 2845 00d0 204A535F 		.ascii	" JS_1 \000"
 2845      312000
 2846 00d7 00       		.space	1
 2847              	.LC17:
 2848 00d8 204A535F 		.ascii	" JS_2 \000"
 2848      322000
 2849 00df 00       		.space	1
 2850              	.LC18:
 2851 00e0 20414343 		.ascii	" ACCL \000"
 2851      4C2000
 2852 00e7 00       		.space	1
ARM GAS  /tmp/cc3rdzJM.s 			page 52


 2853              	.LC19:
 2854 00e8 25326420 		.ascii	"%2d %c%4d %7d %4d %5.2f  %4.1f\000"
 2854      25632534 
 2854      64202537 
 2854      64202534 
 2854      64202535 
 2855 0107 00       		.space	1
 2856              	.LC20:
 2857 0108 2D2D2025 		.ascii	"-- %c%4d %7d %4d %5.2f  %4.1f\000"
 2857      63253464 
 2857      20253764 
 2857      20253464 
 2857      2025352E 
 2858 0126 0000     		.space	2
 2859              	.LC21:
 2860 0128 20202020 		.ascii	"    ----  ------  ---  ----  ----\000"
 2860      2D2D2D2D 
 2860      20202D2D 
 2860      2D2D2D2D 
 2860      20202D2D 
 2861 014a 0000     		.space	2
 2862              	.LC22:
 2863 014c 25352E32 		.ascii	"%5.2f  %4.1f\000"
 2863      66202025 
 2863      342E3166 
 2863      00
 2864 0159 000000   		.space	3
 2865              	.LC23:
 2866 015c 25376400 		.ascii	"%7d\000"
 2867              	.LC24:
 2868 0160 25346400 		.ascii	"%4d\000"
 2869              	.LC25:
 2870 0164 25303264 		.ascii	"%02d:%02d:%02d  \000"
 2870      3A253032 
 2870      643A2530 
 2870      32642020 
 2870      00
 2871 0175 000000   		.space	3
 2872              	.LC26:
 2873 0178 4D61696E 		.ascii	"Main %4.2fV  \000"
 2873      2025342E 
 2873      32665620 
 2873      2000
 2874 0186 0000     		.space	2
 2875              	.LC27:
 2876 0188 4261636B 		.ascii	"Backup %4.2fV\000"
 2876      75702025 
 2876      342E3266 
 2876      5600
 2877 0196 0000     		.space	2
 2878              	.LC28:
 2879 0198 25642020 		.ascii	"%d  %d  %d  %d\000"
 2879      25642020 
 2879      25642020 
 2879      256400
 2880 01a7 00       		.space	1
 2881              	.LC29:
ARM GAS  /tmp/cc3rdzJM.s 			page 53


 2882 01a8 25642020 		.ascii	"%d  %d\000"
 2882      256400
 2883 01af 00       		.space	1
 2884              	.LC30:
 2885 01b0 25346420 		.ascii	"%4d  %4d\000"
 2885      20253464 
 2885      00
 2886 01b9 000000   		.space	3
 2887              	.LC31:
 2888 01bc 1B5B324A 		.ascii	"\033[2J\000"
 2888      00
 2889 01c1 000000   		.space	3
 2890              	.LC32:
 2891 01c4 1B5B3F32 		.ascii	"\033[?25l\000"
 2891      356C00
 2892 01cb 00       		.space	1
 2893              	.LC33:
 2894 01cc 1B283000 		.ascii	"\033(0\000"
 2895              	.LC34:
 2896 01d0 1B284200 		.ascii	"\033(B\000"
 2897              	.LC35:
 2898 01d4 1B5B3F32 		.ascii	"\033[?25h\000"
 2898      356800
 2899 01db 00       		.section	.bss.buffer.7711,"aw",%nobits
 2900              		.align	2
 2901              		.set	.LANCHOR1,. + 0
 2902              		.type	buffer.7711, %object
 2903              		.size	buffer.7711, 64
 2904              	buffer.7711:
 2905 0000 00000000 		.space	64
 2905      00000000 
 2905      00000000 
 2905      00000000 
 2905      00000000 
 2906              		.text
 2907              	.Letext0:
 2908              		.file 2 "/opt/pros/toolchain/bin/../lib/gcc/arm-none-eabi/4.6.3/include/stddef.h"
 2909              		.file 3 "/opt/pros/toolchain/bin/../lib/gcc/arm-none-eabi/4.6.3/include/stdarg.h"
 2910              		.file 4 "/opt/pros/toolchain/bin/../lib/gcc/arm-none-eabi/4.6.3/../../../../arm-none-eabi/include/
 2911              		.file 5 "../ChibiOS_2.6.2/os/ports/GCC/ARMCMx/chtypes.h"
 2912              		.file 6 "../ChibiOS_2.6.2/os/kernel/include/chlists.h"
 2913              		.file 7 "<built-in>"
 2914              		.file 8 "../ChibiOS_2.6.2/os/kernel/include/chthreads.h"
 2915              		.file 9 "../ChibiOS_2.6.2/os/ports/GCC/ARMCMx/chcore_v7m.h"
 2916              		.file 10 "../ChibiOS_2.6.2/os/kernel/include/chvt.h"
 2917              		.file 11 "../ChibiOS_2.6.2/os/kernel/include/chmtx.h"
 2918              		.file 12 "../ChibiOS_2.6.2/os/kernel/include/chevents.h"
 2919              		.file 13 "../ChibiOS_2.6.2/os/kernel/include/chqueues.h"
 2920              		.file 14 "../ChibiOS_2.6.2/os/hal/platforms/STM32F1xx/stm32f10x.h"
 2921              		.file 15 "../ChibiOS_2.6.2/os/hal/include/serial.h"
 2922              		.file 16 "../convex/cortex/fw/vexmotor.h"
 2923              		.file 17 "../convex/cortex/fw/vexconfig.h"
 2924              		.file 18 "../convex/cortex/fw/vexctl.h"
 2925              		.file 19 "../ChibiOS_2.6.2/os/ports/common/ARMCMx/CMSIS/include/core_cm3.h"
 2926              		.file 20 "../ChibiOS_2.6.2/os/hal/platforms/STM32/USARTv1/serial_lld.h"
 2927              		.section	.debug_info,"",%progbits
 2928              	.Ldebug_info0:
ARM GAS  /tmp/cc3rdzJM.s 			page 54


 2929 0000 13170000 		.4byte	0x1713
 2930 0004 0200     		.2byte	0x2
 2931 0006 00000000 		.4byte	.Ldebug_abbrev0
 2932 000a 04       		.byte	0x4
 2933 000b 01       		.uleb128 0x1
 2934 000c 94080000 		.4byte	.LASF237
 2935 0010 01       		.byte	0x1
 2936 0011 5E040000 		.4byte	.LASF238
 2937 0015 36030000 		.4byte	.LASF239
 2938 0019 00000000 		.4byte	0
 2939 001d 00000000 		.4byte	0
 2940 0021 A0030000 		.4byte	.Ldebug_ranges0+0x3a0
 2941 0025 00000000 		.4byte	.Ldebug_line0
 2942 0029 02       		.uleb128 0x2
 2943 002a 01       		.byte	0x1
 2944 002b 06       		.byte	0x6
 2945 002c 30090000 		.4byte	.LASF0
 2946 0030 02       		.uleb128 0x2
 2947 0031 01       		.byte	0x1
 2948 0032 08       		.byte	0x8
 2949 0033 86080000 		.4byte	.LASF1
 2950 0037 02       		.uleb128 0x2
 2951 0038 02       		.byte	0x2
 2952 0039 05       		.byte	0x5
 2953 003a 0A070000 		.4byte	.LASF2
 2954 003e 02       		.uleb128 0x2
 2955 003f 02       		.byte	0x2
 2956 0040 07       		.byte	0x7
 2957 0041 45060000 		.4byte	.LASF3
 2958 0045 03       		.uleb128 0x3
 2959 0046 04       		.byte	0x4
 2960 0047 05       		.byte	0x5
 2961 0048 696E7400 		.ascii	"int\000"
 2962 004c 02       		.uleb128 0x2
 2963 004d 04       		.byte	0x4
 2964 004e 07       		.byte	0x7
 2965 004f CB000000 		.4byte	.LASF4
 2966 0053 02       		.uleb128 0x2
 2967 0054 08       		.byte	0x8
 2968 0055 05       		.byte	0x5
 2969 0056 37050000 		.4byte	.LASF5
 2970 005a 02       		.uleb128 0x2
 2971 005b 08       		.byte	0x8
 2972 005c 07       		.byte	0x7
 2973 005d 5C020000 		.4byte	.LASF6
 2974 0061 02       		.uleb128 0x2
 2975 0062 04       		.byte	0x4
 2976 0063 05       		.byte	0x5
 2977 0064 27070000 		.4byte	.LASF7
 2978 0068 04       		.uleb128 0x4
 2979 0069 04       		.byte	0x4
 2980 006a 02       		.uleb128 0x2
 2981 006b 04       		.byte	0x4
 2982 006c 07       		.byte	0x7
 2983 006d 0F080000 		.4byte	.LASF8
 2984 0071 05       		.uleb128 0x5
 2985 0072 04       		.byte	0x4
ARM GAS  /tmp/cc3rdzJM.s 			page 55


 2986 0073 77000000 		.4byte	0x77
 2987 0077 02       		.uleb128 0x2
 2988 0078 01       		.byte	0x1
 2989 0079 08       		.byte	0x8
 2990 007a 59040000 		.4byte	.LASF9
 2991 007e 05       		.uleb128 0x5
 2992 007f 04       		.byte	0x4
 2993 0080 84000000 		.4byte	0x84
 2994 0084 06       		.uleb128 0x6
 2995 0085 77000000 		.4byte	0x77
 2996 0089 07       		.uleb128 0x7
 2997 008a 79030000 		.4byte	.LASF10
 2998 008e 02       		.byte	0x2
 2999 008f D4       		.byte	0xd4
 3000 0090 4C000000 		.4byte	0x4c
 3001 0094 07       		.uleb128 0x7
 3002 0095 59030000 		.4byte	.LASF11
 3003 0099 03       		.byte	0x3
 3004 009a 28       		.byte	0x28
 3005 009b 9F000000 		.4byte	0x9f
 3006 009f 08       		.uleb128 0x8
 3007 00a0 FB080000 		.4byte	.LASF28
 3008 00a4 04       		.byte	0x4
 3009 00a5 07       		.byte	0x7
 3010 00a6 00       		.byte	0
 3011 00a7 B9000000 		.4byte	0xb9
 3012 00ab 09       		.uleb128 0x9
 3013 00ac AD050000 		.4byte	.LASF73
 3014 00b0 68000000 		.4byte	0x68
 3015 00b4 02       		.byte	0x2
 3016 00b5 23       		.byte	0x23
 3017 00b6 00       		.uleb128 0
 3018 00b7 01       		.byte	0x1
 3019 00b8 00       		.byte	0
 3020 00b9 07       		.uleb128 0x7
 3021 00ba 2F050000 		.4byte	.LASF12
 3022 00be 03       		.byte	0x3
 3023 00bf 66       		.byte	0x66
 3024 00c0 94000000 		.4byte	0x94
 3025 00c4 07       		.uleb128 0x7
 3026 00c5 EC040000 		.4byte	.LASF13
 3027 00c9 04       		.byte	0x4
 3028 00ca 2A       		.byte	0x2a
 3029 00cb 30000000 		.4byte	0x30
 3030 00cf 07       		.uleb128 0x7
 3031 00d0 6C060000 		.4byte	.LASF14
 3032 00d4 04       		.byte	0x4
 3033 00d5 36       		.byte	0x36
 3034 00d6 3E000000 		.4byte	0x3e
 3035 00da 07       		.uleb128 0x7
 3036 00db 35080000 		.4byte	.LASF15
 3037 00df 04       		.byte	0x4
 3038 00e0 4F       		.byte	0x4f
 3039 00e1 61000000 		.4byte	0x61
 3040 00e5 07       		.uleb128 0x7
 3041 00e6 C3010000 		.4byte	.LASF16
 3042 00ea 04       		.byte	0x4
ARM GAS  /tmp/cc3rdzJM.s 			page 56


 3043 00eb 50       		.byte	0x50
 3044 00ec 6A000000 		.4byte	0x6a
 3045 00f0 02       		.uleb128 0x2
 3046 00f1 01       		.byte	0x1
 3047 00f2 02       		.byte	0x2
 3048 00f3 BB030000 		.4byte	.LASF17
 3049 00f7 07       		.uleb128 0x7
 3050 00f8 26060000 		.4byte	.LASF18
 3051 00fc 05       		.byte	0x5
 3052 00fd 2C       		.byte	0x2c
 3053 00fe C4000000 		.4byte	0xc4
 3054 0102 07       		.uleb128 0x7
 3055 0103 A3040000 		.4byte	.LASF19
 3056 0107 05       		.byte	0x5
 3057 0108 2D       		.byte	0x2d
 3058 0109 C4000000 		.4byte	0xc4
 3059 010d 07       		.uleb128 0x7
 3060 010e EC070000 		.4byte	.LASF20
 3061 0112 05       		.byte	0x5
 3062 0113 2E       		.byte	0x2e
 3063 0114 C4000000 		.4byte	0xc4
 3064 0118 07       		.uleb128 0x7
 3065 0119 D7050000 		.4byte	.LASF21
 3066 011d 05       		.byte	0x5
 3067 011e 2F       		.byte	0x2f
 3068 011f C4000000 		.4byte	0xc4
 3069 0123 07       		.uleb128 0x7
 3070 0124 20020000 		.4byte	.LASF22
 3071 0128 05       		.byte	0x5
 3072 0129 30       		.byte	0x30
 3073 012a E5000000 		.4byte	0xe5
 3074 012e 07       		.uleb128 0x7
 3075 012f 6F050000 		.4byte	.LASF23
 3076 0133 05       		.byte	0x5
 3077 0134 31       		.byte	0x31
 3078 0135 DA000000 		.4byte	0xda
 3079 0139 07       		.uleb128 0x7
 3080 013a E8010000 		.4byte	.LASF24
 3081 013e 05       		.byte	0x5
 3082 013f 33       		.byte	0x33
 3083 0140 E5000000 		.4byte	0xe5
 3084 0144 07       		.uleb128 0x7
 3085 0145 F4040000 		.4byte	.LASF25
 3086 0149 05       		.byte	0x5
 3087 014a 34       		.byte	0x34
 3088 014b E5000000 		.4byte	0xe5
 3089 014f 07       		.uleb128 0x7
 3090 0150 67000000 		.4byte	.LASF26
 3091 0154 05       		.byte	0x5
 3092 0155 35       		.byte	0x35
 3093 0156 E5000000 		.4byte	0xe5
 3094 015a 07       		.uleb128 0x7
 3095 015b 92040000 		.4byte	.LASF27
 3096 015f 06       		.byte	0x6
 3097 0160 2A       		.byte	0x2a
 3098 0161 65010000 		.4byte	0x165
 3099 0165 08       		.uleb128 0x8
ARM GAS  /tmp/cc3rdzJM.s 			page 57


 3100 0166 92040000 		.4byte	.LASF27
 3101 016a 48       		.byte	0x48
 3102 016b 08       		.byte	0x8
 3103 016c 5E       		.byte	0x5e
 3104 016d 8A020000 		.4byte	0x28a
 3105 0171 0A       		.uleb128 0xa
 3106 0172 5F070000 		.4byte	.LASF29
 3107 0176 08       		.byte	0x8
 3108 0177 5F       		.byte	0x5f
 3109 0178 AF020000 		.4byte	0x2af
 3110 017c 02       		.byte	0x2
 3111 017d 23       		.byte	0x23
 3112 017e 00       		.uleb128 0
 3113 017f 0A       		.uleb128 0xa
 3114 0180 E5070000 		.4byte	.LASF30
 3115 0184 08       		.byte	0x8
 3116 0185 61       		.byte	0x61
 3117 0186 AF020000 		.4byte	0x2af
 3118 018a 02       		.byte	0x2
 3119 018b 23       		.byte	0x23
 3120 018c 04       		.uleb128 0x4
 3121 018d 0A       		.uleb128 0xa
 3122 018e 32000000 		.4byte	.LASF31
 3123 0192 08       		.byte	0x8
 3124 0193 63       		.byte	0x63
 3125 0194 23010000 		.4byte	0x123
 3126 0198 02       		.byte	0x2
 3127 0199 23       		.byte	0x23
 3128 019a 08       		.uleb128 0x8
 3129 019b 0A       		.uleb128 0xa
 3130 019c 7A070000 		.4byte	.LASF32
 3131 01a0 08       		.byte	0x8
 3132 01a1 64       		.byte	0x64
 3133 01a2 7B030000 		.4byte	0x37b
 3134 01a6 02       		.byte	0x2
 3135 01a7 23       		.byte	0x23
 3136 01a8 0C       		.uleb128 0xc
 3137 01a9 0A       		.uleb128 0xa
 3138 01aa 11030000 		.4byte	.LASF33
 3139 01ae 08       		.byte	0x8
 3140 01af 66       		.byte	0x66
 3141 01b0 AF020000 		.4byte	0x2af
 3142 01b4 02       		.byte	0x2
 3143 01b5 23       		.byte	0x23
 3144 01b6 10       		.uleb128 0x10
 3145 01b7 0A       		.uleb128 0xa
 3146 01b8 21040000 		.4byte	.LASF34
 3147 01bc 08       		.byte	0x8
 3148 01bd 67       		.byte	0x67
 3149 01be AF020000 		.4byte	0x2af
 3150 01c2 02       		.byte	0x2
 3151 01c3 23       		.byte	0x23
 3152 01c4 14       		.uleb128 0x14
 3153 01c5 0A       		.uleb128 0xa
 3154 01c6 45040000 		.4byte	.LASF35
 3155 01ca 08       		.byte	0x8
 3156 01cb 6E       		.byte	0x6e
ARM GAS  /tmp/cc3rdzJM.s 			page 58


 3157 01cc 7E000000 		.4byte	0x7e
 3158 01d0 02       		.byte	0x2
 3159 01d1 23       		.byte	0x23
 3160 01d2 18       		.uleb128 0x18
 3161 01d3 0A       		.uleb128 0xa
 3162 01d4 D6040000 		.4byte	.LASF36
 3163 01d8 08       		.byte	0x8
 3164 01d9 79       		.byte	0x79
 3165 01da 02010000 		.4byte	0x102
 3166 01de 02       		.byte	0x2
 3167 01df 23       		.byte	0x23
 3168 01e0 1C       		.uleb128 0x1c
 3169 01e1 0A       		.uleb128 0xa
 3170 01e2 98050000 		.4byte	.LASF37
 3171 01e6 08       		.byte	0x8
 3172 01e7 7D       		.byte	0x7d
 3173 01e8 F7000000 		.4byte	0xf7
 3174 01ec 02       		.byte	0x2
 3175 01ed 23       		.byte	0x23
 3176 01ee 1D       		.uleb128 0x1d
 3177 01ef 0A       		.uleb128 0xa
 3178 01f0 A0080000 		.4byte	.LASF38
 3179 01f4 08       		.byte	0x8
 3180 01f5 82       		.byte	0x82
 3181 01f6 0D010000 		.4byte	0x10d
 3182 01fa 02       		.byte	0x2
 3183 01fb 23       		.byte	0x23
 3184 01fc 1E       		.uleb128 0x1e
 3185 01fd 0A       		.uleb128 0xa
 3186 01fe 99040000 		.4byte	.LASF39
 3187 0202 08       		.byte	0x8
 3188 0203 88       		.byte	0x88
 3189 0204 18010000 		.4byte	0x118
 3190 0208 02       		.byte	0x2
 3191 0209 23       		.byte	0x23
 3192 020a 1F       		.uleb128 0x1f
 3193 020b 0A       		.uleb128 0xa
 3194 020c 22000000 		.4byte	.LASF40
 3195 0210 08       		.byte	0x8
 3196 0211 8F       		.byte	0x8f
 3197 0212 60040000 		.4byte	0x460
 3198 0216 02       		.byte	0x2
 3199 0217 23       		.byte	0x23
 3200 0218 20       		.uleb128 0x20
 3201 0219 0B       		.uleb128 0xb
 3202 021a 705F7500 		.ascii	"p_u\000"
 3203 021e 08       		.byte	0x8
 3204 021f B4       		.byte	0xb4
 3205 0220 34050000 		.4byte	0x534
 3206 0224 02       		.byte	0x2
 3207 0225 23       		.byte	0x23
 3208 0226 24       		.uleb128 0x24
 3209 0227 0A       		.uleb128 0xa
 3210 0228 EC000000 		.4byte	.LASF41
 3211 022c 08       		.byte	0x8
 3212 022d B9       		.byte	0xb9
 3213 022e D7020000 		.4byte	0x2d7
ARM GAS  /tmp/cc3rdzJM.s 			page 59


 3214 0232 02       		.byte	0x2
 3215 0233 23       		.byte	0x23
 3216 0234 28       		.uleb128 0x28
 3217 0235 0A       		.uleb128 0xa
 3218 0236 C0000000 		.4byte	.LASF42
 3219 023a 08       		.byte	0x8
 3220 023b BF       		.byte	0xbf
 3221 023c B5020000 		.4byte	0x2b5
 3222 0240 02       		.byte	0x2
 3223 0241 23       		.byte	0x23
 3224 0242 2C       		.uleb128 0x2c
 3225 0243 0A       		.uleb128 0xa
 3226 0244 16060000 		.4byte	.LASF43
 3227 0248 08       		.byte	0x8
 3228 0249 C3       		.byte	0xc3
 3229 024a 2E010000 		.4byte	0x12e
 3230 024e 02       		.byte	0x2
 3231 024f 23       		.byte	0x23
 3232 0250 34       		.uleb128 0x34
 3233 0251 0A       		.uleb128 0xa
 3234 0252 14070000 		.4byte	.LASF44
 3235 0256 08       		.byte	0x8
 3236 0257 C9       		.byte	0xc9
 3237 0258 39010000 		.4byte	0x139
 3238 025c 02       		.byte	0x2
 3239 025d 23       		.byte	0x23
 3240 025e 38       		.uleb128 0x38
 3241 025f 0A       		.uleb128 0xa
 3242 0260 08050000 		.4byte	.LASF45
 3243 0264 08       		.byte	0x8
 3244 0265 D0       		.byte	0xd0
 3245 0266 69050000 		.4byte	0x569
 3246 026a 02       		.byte	0x2
 3247 026b 23       		.byte	0x23
 3248 026c 3C       		.uleb128 0x3c
 3249 026d 0A       		.uleb128 0xa
 3250 026e C3060000 		.4byte	.LASF46
 3251 0272 08       		.byte	0x8
 3252 0273 D4       		.byte	0xd4
 3253 0274 23010000 		.4byte	0x123
 3254 0278 02       		.byte	0x2
 3255 0279 23       		.byte	0x23
 3256 027a 40       		.uleb128 0x40
 3257 027b 0A       		.uleb128 0xa
 3258 027c 00050000 		.4byte	.LASF47
 3259 0280 08       		.byte	0x8
 3260 0281 DA       		.byte	0xda
 3261 0282 68000000 		.4byte	0x68
 3262 0286 02       		.byte	0x2
 3263 0287 23       		.byte	0x23
 3264 0288 44       		.uleb128 0x44
 3265 0289 00       		.byte	0
 3266 028a 0C       		.uleb128 0xc
 3267 028b 08       		.byte	0x8
 3268 028c 06       		.byte	0x6
 3269 028d 61       		.byte	0x61
 3270 028e AF020000 		.4byte	0x2af
ARM GAS  /tmp/cc3rdzJM.s 			page 60


 3271 0292 0A       		.uleb128 0xa
 3272 0293 5F070000 		.4byte	.LASF29
 3273 0297 06       		.byte	0x6
 3274 0298 62       		.byte	0x62
 3275 0299 AF020000 		.4byte	0x2af
 3276 029d 02       		.byte	0x2
 3277 029e 23       		.byte	0x23
 3278 029f 00       		.uleb128 0
 3279 02a0 0A       		.uleb128 0xa
 3280 02a1 E5070000 		.4byte	.LASF30
 3281 02a5 06       		.byte	0x6
 3282 02a6 64       		.byte	0x64
 3283 02a7 AF020000 		.4byte	0x2af
 3284 02ab 02       		.byte	0x2
 3285 02ac 23       		.byte	0x23
 3286 02ad 04       		.uleb128 0x4
 3287 02ae 00       		.byte	0
 3288 02af 05       		.uleb128 0x5
 3289 02b0 04       		.byte	0x4
 3290 02b1 5A010000 		.4byte	0x15a
 3291 02b5 07       		.uleb128 0x7
 3292 02b6 4C040000 		.4byte	.LASF48
 3293 02ba 06       		.byte	0x6
 3294 02bb 66       		.byte	0x66
 3295 02bc 8A020000 		.4byte	0x28a
 3296 02c0 0C       		.uleb128 0xc
 3297 02c1 04       		.byte	0x4
 3298 02c2 06       		.byte	0x6
 3299 02c3 6B       		.byte	0x6b
 3300 02c4 D7020000 		.4byte	0x2d7
 3301 02c8 0A       		.uleb128 0xa
 3302 02c9 5F070000 		.4byte	.LASF29
 3303 02cd 06       		.byte	0x6
 3304 02ce 6D       		.byte	0x6d
 3305 02cf AF020000 		.4byte	0x2af
 3306 02d3 02       		.byte	0x2
 3307 02d4 23       		.byte	0x23
 3308 02d5 00       		.uleb128 0
 3309 02d6 00       		.byte	0
 3310 02d7 07       		.uleb128 0x7
 3311 02d8 00000000 		.4byte	.LASF49
 3312 02dc 06       		.byte	0x6
 3313 02dd 70       		.byte	0x70
 3314 02de C0020000 		.4byte	0x2c0
 3315 02e2 07       		.uleb128 0x7
 3316 02e3 29000000 		.4byte	.LASF50
 3317 02e7 09       		.byte	0x9
 3318 02e8 E5       		.byte	0xe5
 3319 02e9 68000000 		.4byte	0x68
 3320 02ed 0D       		.uleb128 0xd
 3321 02ee 75060000 		.4byte	.LASF51
 3322 02f2 24       		.byte	0x24
 3323 02f3 09       		.byte	0x9
 3324 02f4 0C01     		.2byte	0x10c
 3325 02f6 7B030000 		.4byte	0x37b
 3326 02fa 0E       		.uleb128 0xe
 3327 02fb 723400   		.ascii	"r4\000"
ARM GAS  /tmp/cc3rdzJM.s 			page 61


 3328 02fe 09       		.byte	0x9
 3329 02ff 1F01     		.2byte	0x11f
 3330 0301 E2020000 		.4byte	0x2e2
 3331 0305 02       		.byte	0x2
 3332 0306 23       		.byte	0x23
 3333 0307 00       		.uleb128 0
 3334 0308 0E       		.uleb128 0xe
 3335 0309 723500   		.ascii	"r5\000"
 3336 030c 09       		.byte	0x9
 3337 030d 2001     		.2byte	0x120
 3338 030f E2020000 		.4byte	0x2e2
 3339 0313 02       		.byte	0x2
 3340 0314 23       		.byte	0x23
 3341 0315 04       		.uleb128 0x4
 3342 0316 0E       		.uleb128 0xe
 3343 0317 723600   		.ascii	"r6\000"
 3344 031a 09       		.byte	0x9
 3345 031b 2101     		.2byte	0x121
 3346 031d E2020000 		.4byte	0x2e2
 3347 0321 02       		.byte	0x2
 3348 0322 23       		.byte	0x23
 3349 0323 08       		.uleb128 0x8
 3350 0324 0E       		.uleb128 0xe
 3351 0325 723700   		.ascii	"r7\000"
 3352 0328 09       		.byte	0x9
 3353 0329 2201     		.2byte	0x122
 3354 032b E2020000 		.4byte	0x2e2
 3355 032f 02       		.byte	0x2
 3356 0330 23       		.byte	0x23
 3357 0331 0C       		.uleb128 0xc
 3358 0332 0E       		.uleb128 0xe
 3359 0333 723800   		.ascii	"r8\000"
 3360 0336 09       		.byte	0x9
 3361 0337 2301     		.2byte	0x123
 3362 0339 E2020000 		.4byte	0x2e2
 3363 033d 02       		.byte	0x2
 3364 033e 23       		.byte	0x23
 3365 033f 10       		.uleb128 0x10
 3366 0340 0E       		.uleb128 0xe
 3367 0341 723900   		.ascii	"r9\000"
 3368 0344 09       		.byte	0x9
 3369 0345 2401     		.2byte	0x124
 3370 0347 E2020000 		.4byte	0x2e2
 3371 034b 02       		.byte	0x2
 3372 034c 23       		.byte	0x23
 3373 034d 14       		.uleb128 0x14
 3374 034e 0E       		.uleb128 0xe
 3375 034f 72313000 		.ascii	"r10\000"
 3376 0353 09       		.byte	0x9
 3377 0354 2501     		.2byte	0x125
 3378 0356 E2020000 		.4byte	0x2e2
 3379 035a 02       		.byte	0x2
 3380 035b 23       		.byte	0x23
 3381 035c 18       		.uleb128 0x18
 3382 035d 0E       		.uleb128 0xe
 3383 035e 72313100 		.ascii	"r11\000"
 3384 0362 09       		.byte	0x9
ARM GAS  /tmp/cc3rdzJM.s 			page 62


 3385 0363 2601     		.2byte	0x126
 3386 0365 E2020000 		.4byte	0x2e2
 3387 0369 02       		.byte	0x2
 3388 036a 23       		.byte	0x23
 3389 036b 1C       		.uleb128 0x1c
 3390 036c 0E       		.uleb128 0xe
 3391 036d 6C7200   		.ascii	"lr\000"
 3392 0370 09       		.byte	0x9
 3393 0371 2701     		.2byte	0x127
 3394 0373 E2020000 		.4byte	0x2e2
 3395 0377 02       		.byte	0x2
 3396 0378 23       		.byte	0x23
 3397 0379 20       		.uleb128 0x20
 3398 037a 00       		.byte	0
 3399 037b 0D       		.uleb128 0xd
 3400 037c 86050000 		.4byte	.LASF52
 3401 0380 04       		.byte	0x4
 3402 0381 09       		.byte	0x9
 3403 0382 3101     		.2byte	0x131
 3404 0384 98030000 		.4byte	0x398
 3405 0388 0E       		.uleb128 0xe
 3406 0389 72313300 		.ascii	"r13\000"
 3407 038d 09       		.byte	0x9
 3408 038e 3201     		.2byte	0x132
 3409 0390 98030000 		.4byte	0x398
 3410 0394 02       		.byte	0x2
 3411 0395 23       		.byte	0x23
 3412 0396 00       		.uleb128 0
 3413 0397 00       		.byte	0
 3414 0398 05       		.uleb128 0x5
 3415 0399 04       		.byte	0x4
 3416 039a ED020000 		.4byte	0x2ed
 3417 039e 07       		.uleb128 0x7
 3418 039f 0C000000 		.4byte	.LASF53
 3419 03a3 0A       		.byte	0xa
 3420 03a4 58       		.byte	0x58
 3421 03a5 A9030000 		.4byte	0x3a9
 3422 03a9 05       		.uleb128 0x5
 3423 03aa 04       		.byte	0x4
 3424 03ab AF030000 		.4byte	0x3af
 3425 03af 0F       		.uleb128 0xf
 3426 03b0 01       		.byte	0x1
 3427 03b1 BB030000 		.4byte	0x3bb
 3428 03b5 10       		.uleb128 0x10
 3429 03b6 68000000 		.4byte	0x68
 3430 03ba 00       		.byte	0
 3431 03bb 07       		.uleb128 0x7
 3432 03bc F4070000 		.4byte	.LASF54
 3433 03c0 0A       		.byte	0xa
 3434 03c1 5D       		.byte	0x5d
 3435 03c2 C6030000 		.4byte	0x3c6
 3436 03c6 08       		.uleb128 0x8
 3437 03c7 F4070000 		.4byte	.LASF54
 3438 03cb 14       		.byte	0x14
 3439 03cc 0A       		.byte	0xa
 3440 03cd 64       		.byte	0x64
 3441 03ce 19040000 		.4byte	0x419
ARM GAS  /tmp/cc3rdzJM.s 			page 63


 3442 03d2 0A       		.uleb128 0xa
 3443 03d3 DA080000 		.4byte	.LASF55
 3444 03d7 0A       		.byte	0xa
 3445 03d8 65       		.byte	0x65
 3446 03d9 19040000 		.4byte	0x419
 3447 03dd 02       		.byte	0x2
 3448 03de 23       		.byte	0x23
 3449 03df 00       		.uleb128 0
 3450 03e0 0A       		.uleb128 0xa
 3451 03e1 D0090000 		.4byte	.LASF56
 3452 03e5 0A       		.byte	0xa
 3453 03e6 67       		.byte	0x67
 3454 03e7 19040000 		.4byte	0x419
 3455 03eb 02       		.byte	0x2
 3456 03ec 23       		.byte	0x23
 3457 03ed 04       		.uleb128 0x4
 3458 03ee 0A       		.uleb128 0xa
 3459 03ef B5010000 		.4byte	.LASF57
 3460 03f3 0A       		.byte	0xa
 3461 03f4 69       		.byte	0x69
 3462 03f5 4F010000 		.4byte	0x14f
 3463 03f9 02       		.byte	0x2
 3464 03fa 23       		.byte	0x23
 3465 03fb 08       		.uleb128 0x8
 3466 03fc 0A       		.uleb128 0xa
 3467 03fd C8090000 		.4byte	.LASF58
 3468 0401 0A       		.byte	0xa
 3469 0402 6A       		.byte	0x6a
 3470 0403 9E030000 		.4byte	0x39e
 3471 0407 02       		.byte	0x2
 3472 0408 23       		.byte	0x23
 3473 0409 0C       		.uleb128 0xc
 3474 040a 0A       		.uleb128 0xa
 3475 040b F4010000 		.4byte	.LASF59
 3476 040f 0A       		.byte	0xa
 3477 0410 6C       		.byte	0x6c
 3478 0411 68000000 		.4byte	0x68
 3479 0415 02       		.byte	0x2
 3480 0416 23       		.byte	0x23
 3481 0417 10       		.uleb128 0x10
 3482 0418 00       		.byte	0
 3483 0419 05       		.uleb128 0x5
 3484 041a 04       		.byte	0x4
 3485 041b BB030000 		.4byte	0x3bb
 3486 041f 0C       		.uleb128 0xc
 3487 0420 10       		.byte	0x10
 3488 0421 0A       		.byte	0xa
 3489 0422 76       		.byte	0x76
 3490 0423 60040000 		.4byte	0x460
 3491 0427 0A       		.uleb128 0xa
 3492 0428 DA080000 		.4byte	.LASF55
 3493 042c 0A       		.byte	0xa
 3494 042d 77       		.byte	0x77
 3495 042e 19040000 		.4byte	0x419
 3496 0432 02       		.byte	0x2
 3497 0433 23       		.byte	0x23
 3498 0434 00       		.uleb128 0
ARM GAS  /tmp/cc3rdzJM.s 			page 64


 3499 0435 0A       		.uleb128 0xa
 3500 0436 D0090000 		.4byte	.LASF56
 3501 043a 0A       		.byte	0xa
 3502 043b 79       		.byte	0x79
 3503 043c 19040000 		.4byte	0x419
 3504 0440 02       		.byte	0x2
 3505 0441 23       		.byte	0x23
 3506 0442 04       		.uleb128 0x4
 3507 0443 0A       		.uleb128 0xa
 3508 0444 B5010000 		.4byte	.LASF57
 3509 0448 0A       		.byte	0xa
 3510 0449 7B       		.byte	0x7b
 3511 044a 4F010000 		.4byte	0x14f
 3512 044e 02       		.byte	0x2
 3513 044f 23       		.byte	0x23
 3514 0450 08       		.uleb128 0x8
 3515 0451 0A       		.uleb128 0xa
 3516 0452 AF000000 		.4byte	.LASF60
 3517 0456 0A       		.byte	0xa
 3518 0457 7C       		.byte	0x7c
 3519 0458 60040000 		.4byte	0x460
 3520 045c 02       		.byte	0x2
 3521 045d 23       		.byte	0x23
 3522 045e 0C       		.uleb128 0xc
 3523 045f 00       		.byte	0
 3524 0460 11       		.uleb128 0x11
 3525 0461 4F010000 		.4byte	0x14f
 3526 0465 07       		.uleb128 0x7
 3527 0466 AC040000 		.4byte	.LASF61
 3528 046a 0A       		.byte	0xa
 3529 046b 7D       		.byte	0x7d
 3530 046c 1F040000 		.4byte	0x41f
 3531 0470 08       		.uleb128 0x8
 3532 0471 04040000 		.4byte	.LASF62
 3533 0475 10       		.byte	0x10
 3534 0476 0B       		.byte	0xb
 3535 0477 2C       		.byte	0x2c
 3536 0478 A7040000 		.4byte	0x4a7
 3537 047c 0A       		.uleb128 0xa
 3538 047d 1F070000 		.4byte	.LASF63
 3539 0481 0B       		.byte	0xb
 3540 0482 2D       		.byte	0x2d
 3541 0483 B5020000 		.4byte	0x2b5
 3542 0487 02       		.byte	0x2
 3543 0488 23       		.byte	0x23
 3544 0489 00       		.uleb128 0
 3545 048a 0A       		.uleb128 0xa
 3546 048b 9E000000 		.4byte	.LASF64
 3547 048f 0B       		.byte	0xb
 3548 0490 2F       		.byte	0x2f
 3549 0491 AF020000 		.4byte	0x2af
 3550 0495 02       		.byte	0x2
 3551 0496 23       		.byte	0x23
 3552 0497 08       		.uleb128 0x8
 3553 0498 0A       		.uleb128 0xa
 3554 0499 05090000 		.4byte	.LASF65
 3555 049d 0B       		.byte	0xb
ARM GAS  /tmp/cc3rdzJM.s 			page 65


 3556 049e 31       		.byte	0x31
 3557 049f A7040000 		.4byte	0x4a7
 3558 04a3 02       		.byte	0x2
 3559 04a4 23       		.byte	0x23
 3560 04a5 0C       		.uleb128 0xc
 3561 04a6 00       		.byte	0
 3562 04a7 05       		.uleb128 0x5
 3563 04a8 04       		.byte	0x4
 3564 04a9 70040000 		.4byte	0x470
 3565 04ad 07       		.uleb128 0x7
 3566 04ae 04040000 		.4byte	.LASF62
 3567 04b2 0B       		.byte	0xb
 3568 04b3 33       		.byte	0x33
 3569 04b4 70040000 		.4byte	0x470
 3570 04b8 07       		.uleb128 0x7
 3571 04b9 01080000 		.4byte	.LASF66
 3572 04bd 0C       		.byte	0xc
 3573 04be 2C       		.byte	0x2c
 3574 04bf C3040000 		.4byte	0x4c3
 3575 04c3 08       		.uleb128 0x8
 3576 04c4 01080000 		.4byte	.LASF66
 3577 04c8 10       		.byte	0x10
 3578 04c9 0C       		.byte	0xc
 3579 04ca 31       		.byte	0x31
 3580 04cb 08050000 		.4byte	0x508
 3581 04cf 0A       		.uleb128 0xa
 3582 04d0 0E060000 		.4byte	.LASF67
 3583 04d4 0C       		.byte	0xc
 3584 04d5 32       		.byte	0x32
 3585 04d6 08050000 		.4byte	0x508
 3586 04da 02       		.byte	0x2
 3587 04db 23       		.byte	0x23
 3588 04dc 00       		.uleb128 0
 3589 04dd 0A       		.uleb128 0xa
 3590 04de A8070000 		.4byte	.LASF68
 3591 04e2 0C       		.byte	0xc
 3592 04e3 35       		.byte	0x35
 3593 04e4 AF020000 		.4byte	0x2af
 3594 04e8 02       		.byte	0x2
 3595 04e9 23       		.byte	0x23
 3596 04ea 04       		.uleb128 0x4
 3597 04eb 0A       		.uleb128 0xa
 3598 04ec 08010000 		.4byte	.LASF69
 3599 04f0 0C       		.byte	0xc
 3600 04f1 37       		.byte	0x37
 3601 04f2 39010000 		.4byte	0x139
 3602 04f6 02       		.byte	0x2
 3603 04f7 23       		.byte	0x23
 3604 04f8 08       		.uleb128 0x8
 3605 04f9 0A       		.uleb128 0xa
 3606 04fa 160A0000 		.4byte	.LASF70
 3607 04fe 0C       		.byte	0xc
 3608 04ff 3A       		.byte	0x3a
 3609 0500 44010000 		.4byte	0x144
 3610 0504 02       		.byte	0x2
 3611 0505 23       		.byte	0x23
 3612 0506 0C       		.uleb128 0xc
ARM GAS  /tmp/cc3rdzJM.s 			page 66


 3613 0507 00       		.byte	0
 3614 0508 05       		.uleb128 0x5
 3615 0509 04       		.byte	0x4
 3616 050a B8040000 		.4byte	0x4b8
 3617 050e 08       		.uleb128 0x8
 3618 050f 6D030000 		.4byte	.LASF71
 3619 0513 04       		.byte	0x4
 3620 0514 0C       		.byte	0xc
 3621 0515 41       		.byte	0x41
 3622 0516 29050000 		.4byte	0x529
 3623 051a 0A       		.uleb128 0xa
 3624 051b 3D020000 		.4byte	.LASF72
 3625 051f 0C       		.byte	0xc
 3626 0520 42       		.byte	0x42
 3627 0521 08050000 		.4byte	0x508
 3628 0525 02       		.byte	0x2
 3629 0526 23       		.byte	0x23
 3630 0527 00       		.uleb128 0
 3631 0528 00       		.byte	0
 3632 0529 07       		.uleb128 0x7
 3633 052a 6D030000 		.4byte	.LASF71
 3634 052e 0C       		.byte	0xc
 3635 052f 45       		.byte	0x45
 3636 0530 0E050000 		.4byte	0x50e
 3637 0534 12       		.uleb128 0x12
 3638 0535 04       		.byte	0x4
 3639 0536 08       		.byte	0x8
 3640 0537 96       		.byte	0x96
 3641 0538 69050000 		.4byte	0x569
 3642 053c 13       		.uleb128 0x13
 3643 053d 80030000 		.4byte	.LASF74
 3644 0541 08       		.byte	0x8
 3645 0542 9D       		.byte	0x9d
 3646 0543 2E010000 		.4byte	0x12e
 3647 0547 13       		.uleb128 0x13
 3648 0548 1F0A0000 		.4byte	.LASF75
 3649 054c 08       		.byte	0x8
 3650 054d A4       		.byte	0xa4
 3651 054e 2E010000 		.4byte	0x12e
 3652 0552 13       		.uleb128 0x13
 3653 0553 23010000 		.4byte	.LASF76
 3654 0557 08       		.byte	0x8
 3655 0558 AB       		.byte	0xab
 3656 0559 68000000 		.4byte	0x68
 3657 055d 13       		.uleb128 0x13
 3658 055e D3080000 		.4byte	.LASF77
 3659 0562 08       		.byte	0x8
 3660 0563 B2       		.byte	0xb2
 3661 0564 39010000 		.4byte	0x139
 3662 0568 00       		.byte	0
 3663 0569 05       		.uleb128 0x5
 3664 056a 04       		.byte	0x4
 3665 056b AD040000 		.4byte	0x4ad
 3666 056f 05       		.uleb128 0x5
 3667 0570 04       		.byte	0x4
 3668 0571 75050000 		.4byte	0x575
 3669 0575 14       		.uleb128 0x14
ARM GAS  /tmp/cc3rdzJM.s 			page 67


 3670 0576 01       		.byte	0x1
 3671 0577 2E010000 		.4byte	0x12e
 3672 057b 85050000 		.4byte	0x585
 3673 057f 10       		.uleb128 0x10
 3674 0580 68000000 		.4byte	0x68
 3675 0584 00       		.byte	0
 3676 0585 07       		.uleb128 0x7
 3677 0586 58060000 		.4byte	.LASF78
 3678 058a 0D       		.byte	0xd
 3679 058b 37       		.byte	0x37
 3680 058c 90050000 		.4byte	0x590
 3681 0590 08       		.uleb128 0x8
 3682 0591 58060000 		.4byte	.LASF78
 3683 0595 24       		.byte	0x24
 3684 0596 0D       		.byte	0xd
 3685 0597 45       		.byte	0x45
 3686 0598 0D060000 		.4byte	0x60d
 3687 059c 0A       		.uleb128 0xa
 3688 059d 1F030000 		.4byte	.LASF79
 3689 05a1 0D       		.byte	0xd
 3690 05a2 46       		.byte	0x46
 3691 05a3 B5020000 		.4byte	0x2b5
 3692 05a7 02       		.byte	0x2
 3693 05a8 23       		.byte	0x23
 3694 05a9 00       		.uleb128 0
 3695 05aa 0A       		.uleb128 0xa
 3696 05ab BE070000 		.4byte	.LASF80
 3697 05af 0D       		.byte	0xd
 3698 05b0 47       		.byte	0x47
 3699 05b1 89000000 		.4byte	0x89
 3700 05b5 02       		.byte	0x2
 3701 05b6 23       		.byte	0x23
 3702 05b7 08       		.uleb128 0x8
 3703 05b8 0A       		.uleb128 0xa
 3704 05b9 4B050000 		.4byte	.LASF81
 3705 05bd 0D       		.byte	0xd
 3706 05be 48       		.byte	0x48
 3707 05bf 30060000 		.4byte	0x630
 3708 05c3 02       		.byte	0x2
 3709 05c4 23       		.byte	0x23
 3710 05c5 0C       		.uleb128 0xc
 3711 05c6 0A       		.uleb128 0xa
 3712 05c7 DF070000 		.4byte	.LASF82
 3713 05cb 0D       		.byte	0xd
 3714 05cc 49       		.byte	0x49
 3715 05cd 30060000 		.4byte	0x630
 3716 05d1 02       		.byte	0x2
 3717 05d2 23       		.byte	0x23
 3718 05d3 10       		.uleb128 0x10
 3719 05d4 0A       		.uleb128 0xa
 3720 05d5 7C040000 		.4byte	.LASF83
 3721 05d9 0D       		.byte	0xd
 3722 05da 4B       		.byte	0x4b
 3723 05db 30060000 		.4byte	0x630
 3724 05df 02       		.byte	0x2
 3725 05e0 23       		.byte	0x23
 3726 05e1 14       		.uleb128 0x14
ARM GAS  /tmp/cc3rdzJM.s 			page 68


 3727 05e2 0A       		.uleb128 0xa
 3728 05e3 F6000000 		.4byte	.LASF84
 3729 05e7 0D       		.byte	0xd
 3730 05e8 4C       		.byte	0x4c
 3731 05e9 30060000 		.4byte	0x630
 3732 05ed 02       		.byte	0x2
 3733 05ee 23       		.byte	0x23
 3734 05ef 18       		.uleb128 0x18
 3735 05f0 0A       		.uleb128 0xa
 3736 05f1 0D0A0000 		.4byte	.LASF85
 3737 05f5 0D       		.byte	0xd
 3738 05f6 4D       		.byte	0x4d
 3739 05f7 0D060000 		.4byte	0x60d
 3740 05fb 02       		.byte	0x2
 3741 05fc 23       		.byte	0x23
 3742 05fd 1C       		.uleb128 0x1c
 3743 05fe 0A       		.uleb128 0xa
 3744 05ff 42010000 		.4byte	.LASF86
 3745 0603 0D       		.byte	0xd
 3746 0604 4E       		.byte	0x4e
 3747 0605 68000000 		.4byte	0x68
 3748 0609 02       		.byte	0x2
 3749 060a 23       		.byte	0x23
 3750 060b 20       		.uleb128 0x20
 3751 060c 00       		.byte	0
 3752 060d 07       		.uleb128 0x7
 3753 060e FE000000 		.4byte	.LASF87
 3754 0612 0D       		.byte	0xd
 3755 0613 3A       		.byte	0x3a
 3756 0614 18060000 		.4byte	0x618
 3757 0618 05       		.uleb128 0x5
 3758 0619 04       		.byte	0x4
 3759 061a 1E060000 		.4byte	0x61e
 3760 061e 0F       		.uleb128 0xf
 3761 061f 01       		.byte	0x1
 3762 0620 2A060000 		.4byte	0x62a
 3763 0624 10       		.uleb128 0x10
 3764 0625 2A060000 		.4byte	0x62a
 3765 0629 00       		.byte	0
 3766 062a 05       		.uleb128 0x5
 3767 062b 04       		.byte	0x4
 3768 062c 85050000 		.4byte	0x585
 3769 0630 05       		.uleb128 0x5
 3770 0631 04       		.byte	0x4
 3771 0632 C4000000 		.4byte	0xc4
 3772 0636 07       		.uleb128 0x7
 3773 0637 16040000 		.4byte	.LASF88
 3774 063b 0D       		.byte	0xd
 3775 063c 82       		.byte	0x82
 3776 063d 85050000 		.4byte	0x585
 3777 0641 07       		.uleb128 0x7
 3778 0642 0A040000 		.4byte	.LASF89
 3779 0646 0D       		.byte	0xd
 3780 0647 F5       		.byte	0xf5
 3781 0648 85050000 		.4byte	0x585
 3782 064c 14       		.uleb128 0x14
 3783 064d 01       		.byte	0x1
ARM GAS  /tmp/cc3rdzJM.s 			page 69


 3784 064e 89000000 		.4byte	0x89
 3785 0652 66060000 		.4byte	0x666
 3786 0656 10       		.uleb128 0x10
 3787 0657 68000000 		.4byte	0x68
 3788 065b 10       		.uleb128 0x10
 3789 065c 66060000 		.4byte	0x666
 3790 0660 10       		.uleb128 0x10
 3791 0661 89000000 		.4byte	0x89
 3792 0665 00       		.byte	0
 3793 0666 05       		.uleb128 0x5
 3794 0667 04       		.byte	0x4
 3795 0668 6C060000 		.4byte	0x66c
 3796 066c 06       		.uleb128 0x6
 3797 066d C4000000 		.4byte	0xc4
 3798 0671 05       		.uleb128 0x5
 3799 0672 04       		.byte	0x4
 3800 0673 4C060000 		.4byte	0x64c
 3801 0677 14       		.uleb128 0x14
 3802 0678 01       		.byte	0x1
 3803 0679 89000000 		.4byte	0x89
 3804 067d 91060000 		.4byte	0x691
 3805 0681 10       		.uleb128 0x10
 3806 0682 68000000 		.4byte	0x68
 3807 0686 10       		.uleb128 0x10
 3808 0687 30060000 		.4byte	0x630
 3809 068b 10       		.uleb128 0x10
 3810 068c 89000000 		.4byte	0x89
 3811 0690 00       		.byte	0
 3812 0691 05       		.uleb128 0x5
 3813 0692 04       		.byte	0x4
 3814 0693 77060000 		.4byte	0x677
 3815 0697 14       		.uleb128 0x14
 3816 0698 01       		.byte	0x1
 3817 0699 2E010000 		.4byte	0x12e
 3818 069d AC060000 		.4byte	0x6ac
 3819 06a1 10       		.uleb128 0x10
 3820 06a2 68000000 		.4byte	0x68
 3821 06a6 10       		.uleb128 0x10
 3822 06a7 C4000000 		.4byte	0xc4
 3823 06ab 00       		.byte	0
 3824 06ac 05       		.uleb128 0x5
 3825 06ad 04       		.byte	0x4
 3826 06ae 97060000 		.4byte	0x697
 3827 06b2 11       		.uleb128 0x11
 3828 06b3 CF000000 		.4byte	0xcf
 3829 06b7 11       		.uleb128 0x11
 3830 06b8 DA000000 		.4byte	0xda
 3831 06bc 15       		.uleb128 0x15
 3832 06bd 1C       		.byte	0x1c
 3833 06be 0E       		.byte	0xe
 3834 06bf E104     		.2byte	0x4e1
 3835 06c1 96070000 		.4byte	0x796
 3836 06c5 0E       		.uleb128 0xe
 3837 06c6 535200   		.ascii	"SR\000"
 3838 06c9 0E       		.byte	0xe
 3839 06ca E304     		.2byte	0x4e3
 3840 06cc B2060000 		.4byte	0x6b2
ARM GAS  /tmp/cc3rdzJM.s 			page 70


 3841 06d0 02       		.byte	0x2
 3842 06d1 23       		.byte	0x23
 3843 06d2 00       		.uleb128 0
 3844 06d3 16       		.uleb128 0x16
 3845 06d4 33020000 		.4byte	.LASF90
 3846 06d8 0E       		.byte	0xe
 3847 06d9 E404     		.2byte	0x4e4
 3848 06db CF000000 		.4byte	0xcf
 3849 06df 02       		.byte	0x2
 3850 06e0 23       		.byte	0x23
 3851 06e1 02       		.uleb128 0x2
 3852 06e2 0E       		.uleb128 0xe
 3853 06e3 445200   		.ascii	"DR\000"
 3854 06e6 0E       		.byte	0xe
 3855 06e7 E504     		.2byte	0x4e5
 3856 06e9 B2060000 		.4byte	0x6b2
 3857 06ed 02       		.byte	0x2
 3858 06ee 23       		.byte	0x23
 3859 06ef 04       		.uleb128 0x4
 3860 06f0 16       		.uleb128 0x16
 3861 06f1 CE060000 		.4byte	.LASF91
 3862 06f5 0E       		.byte	0xe
 3863 06f6 E604     		.2byte	0x4e6
 3864 06f8 CF000000 		.4byte	0xcf
 3865 06fc 02       		.byte	0x2
 3866 06fd 23       		.byte	0x23
 3867 06fe 06       		.uleb128 0x6
 3868 06ff 0E       		.uleb128 0xe
 3869 0700 42525200 		.ascii	"BRR\000"
 3870 0704 0E       		.byte	0xe
 3871 0705 E704     		.2byte	0x4e7
 3872 0707 B2060000 		.4byte	0x6b2
 3873 070b 02       		.byte	0x2
 3874 070c 23       		.byte	0x23
 3875 070d 08       		.uleb128 0x8
 3876 070e 16       		.uleb128 0x16
 3877 070f D8060000 		.4byte	.LASF92
 3878 0713 0E       		.byte	0xe
 3879 0714 E804     		.2byte	0x4e8
 3880 0716 CF000000 		.4byte	0xcf
 3881 071a 02       		.byte	0x2
 3882 071b 23       		.byte	0x23
 3883 071c 0A       		.uleb128 0xa
 3884 071d 0E       		.uleb128 0xe
 3885 071e 43523100 		.ascii	"CR1\000"
 3886 0722 0E       		.byte	0xe
 3887 0723 E904     		.2byte	0x4e9
 3888 0725 B2060000 		.4byte	0x6b2
 3889 0729 02       		.byte	0x2
 3890 072a 23       		.byte	0x23
 3891 072b 0C       		.uleb128 0xc
 3892 072c 16       		.uleb128 0x16
 3893 072d E2060000 		.4byte	.LASF93
 3894 0731 0E       		.byte	0xe
 3895 0732 EA04     		.2byte	0x4ea
 3896 0734 CF000000 		.4byte	0xcf
 3897 0738 02       		.byte	0x2
ARM GAS  /tmp/cc3rdzJM.s 			page 71


 3898 0739 23       		.byte	0x23
 3899 073a 0E       		.uleb128 0xe
 3900 073b 0E       		.uleb128 0xe
 3901 073c 43523200 		.ascii	"CR2\000"
 3902 0740 0E       		.byte	0xe
 3903 0741 EB04     		.2byte	0x4eb
 3904 0743 B2060000 		.4byte	0x6b2
 3905 0747 02       		.byte	0x2
 3906 0748 23       		.byte	0x23
 3907 0749 10       		.uleb128 0x10
 3908 074a 16       		.uleb128 0x16
 3909 074b EC060000 		.4byte	.LASF94
 3910 074f 0E       		.byte	0xe
 3911 0750 EC04     		.2byte	0x4ec
 3912 0752 CF000000 		.4byte	0xcf
 3913 0756 02       		.byte	0x2
 3914 0757 23       		.byte	0x23
 3915 0758 12       		.uleb128 0x12
 3916 0759 0E       		.uleb128 0xe
 3917 075a 43523300 		.ascii	"CR3\000"
 3918 075e 0E       		.byte	0xe
 3919 075f ED04     		.2byte	0x4ed
 3920 0761 B2060000 		.4byte	0x6b2
 3921 0765 02       		.byte	0x2
 3922 0766 23       		.byte	0x23
 3923 0767 14       		.uleb128 0x14
 3924 0768 16       		.uleb128 0x16
 3925 0769 F6060000 		.4byte	.LASF95
 3926 076d 0E       		.byte	0xe
 3927 076e EE04     		.2byte	0x4ee
 3928 0770 CF000000 		.4byte	0xcf
 3929 0774 02       		.byte	0x2
 3930 0775 23       		.byte	0x23
 3931 0776 16       		.uleb128 0x16
 3932 0777 16       		.uleb128 0x16
 3933 0778 A3010000 		.4byte	.LASF96
 3934 077c 0E       		.byte	0xe
 3935 077d EF04     		.2byte	0x4ef
 3936 077f B2060000 		.4byte	0x6b2
 3937 0783 02       		.byte	0x2
 3938 0784 23       		.byte	0x23
 3939 0785 18       		.uleb128 0x18
 3940 0786 16       		.uleb128 0x16
 3941 0787 00070000 		.4byte	.LASF97
 3942 078b 0E       		.byte	0xe
 3943 078c F004     		.2byte	0x4f0
 3944 078e CF000000 		.4byte	0xcf
 3945 0792 02       		.byte	0x2
 3946 0793 23       		.byte	0x23
 3947 0794 1A       		.uleb128 0x1a
 3948 0795 00       		.byte	0
 3949 0796 17       		.uleb128 0x17
 3950 0797 5C080000 		.4byte	.LASF98
 3951 079b 0E       		.byte	0xe
 3952 079c F104     		.2byte	0x4f1
 3953 079e BC060000 		.4byte	0x6bc
 3954 07a2 14       		.uleb128 0x14
ARM GAS  /tmp/cc3rdzJM.s 			page 72


 3955 07a3 01       		.byte	0x1
 3956 07a4 2E010000 		.4byte	0x12e
 3957 07a8 BC070000 		.4byte	0x7bc
 3958 07ac 10       		.uleb128 0x10
 3959 07ad 68000000 		.4byte	0x68
 3960 07b1 10       		.uleb128 0x10
 3961 07b2 C4000000 		.4byte	0xc4
 3962 07b6 10       		.uleb128 0x10
 3963 07b7 4F010000 		.4byte	0x14f
 3964 07bb 00       		.byte	0
 3965 07bc 05       		.uleb128 0x5
 3966 07bd 04       		.byte	0x4
 3967 07be A2070000 		.4byte	0x7a2
 3968 07c2 14       		.uleb128 0x14
 3969 07c3 01       		.byte	0x1
 3970 07c4 2E010000 		.4byte	0x12e
 3971 07c8 D7070000 		.4byte	0x7d7
 3972 07cc 10       		.uleb128 0x10
 3973 07cd 68000000 		.4byte	0x68
 3974 07d1 10       		.uleb128 0x10
 3975 07d2 4F010000 		.4byte	0x14f
 3976 07d6 00       		.byte	0
 3977 07d7 05       		.uleb128 0x5
 3978 07d8 04       		.byte	0x4
 3979 07d9 C2070000 		.4byte	0x7c2
 3980 07dd 14       		.uleb128 0x14
 3981 07de 01       		.byte	0x1
 3982 07df 89000000 		.4byte	0x89
 3983 07e3 FC070000 		.4byte	0x7fc
 3984 07e7 10       		.uleb128 0x10
 3985 07e8 68000000 		.4byte	0x68
 3986 07ec 10       		.uleb128 0x10
 3987 07ed 66060000 		.4byte	0x666
 3988 07f1 10       		.uleb128 0x10
 3989 07f2 89000000 		.4byte	0x89
 3990 07f6 10       		.uleb128 0x10
 3991 07f7 4F010000 		.4byte	0x14f
 3992 07fb 00       		.byte	0
 3993 07fc 05       		.uleb128 0x5
 3994 07fd 04       		.byte	0x4
 3995 07fe DD070000 		.4byte	0x7dd
 3996 0802 14       		.uleb128 0x14
 3997 0803 01       		.byte	0x1
 3998 0804 89000000 		.4byte	0x89
 3999 0808 21080000 		.4byte	0x821
 4000 080c 10       		.uleb128 0x10
 4001 080d 68000000 		.4byte	0x68
 4002 0811 10       		.uleb128 0x10
 4003 0812 30060000 		.4byte	0x630
 4004 0816 10       		.uleb128 0x10
 4005 0817 89000000 		.4byte	0x89
 4006 081b 10       		.uleb128 0x10
 4007 081c 4F010000 		.4byte	0x14f
 4008 0820 00       		.byte	0
 4009 0821 05       		.uleb128 0x5
 4010 0822 04       		.byte	0x4
 4011 0823 02080000 		.4byte	0x802
ARM GAS  /tmp/cc3rdzJM.s 			page 73


 4012 0827 18       		.uleb128 0x18
 4013 0828 01       		.byte	0x1
 4014 0829 0F       		.byte	0xf
 4015 082a 64       		.byte	0x64
 4016 082b 42080000 		.4byte	0x842
 4017 082f 19       		.uleb128 0x19
 4018 0830 B4070000 		.4byte	.LASF99
 4019 0834 00       		.sleb128 0
 4020 0835 19       		.uleb128 0x19
 4021 0836 C1030000 		.4byte	.LASF100
 4022 083a 01       		.sleb128 1
 4023 083b 19       		.uleb128 0x19
 4024 083c 9D060000 		.4byte	.LASF101
 4025 0840 02       		.sleb128 2
 4026 0841 00       		.byte	0
 4027 0842 07       		.uleb128 0x7
 4028 0843 01020000 		.4byte	.LASF102
 4029 0847 0F       		.byte	0xf
 4030 0848 68       		.byte	0x68
 4031 0849 27080000 		.4byte	0x827
 4032 084d 07       		.uleb128 0x7
 4033 084e 15000000 		.4byte	.LASF103
 4034 0852 0F       		.byte	0xf
 4035 0853 6D       		.byte	0x6d
 4036 0854 58080000 		.4byte	0x858
 4037 0858 08       		.uleb128 0x8
 4038 0859 15000000 		.4byte	.LASF103
 4039 085d D8       		.byte	0xd8
 4040 085e 0F       		.byte	0xf
 4041 085f 87       		.byte	0x87
 4042 0860 D5080000 		.4byte	0x8d5
 4043 0864 0B       		.uleb128 0xb
 4044 0865 766D7400 		.ascii	"vmt\000"
 4045 0869 0F       		.byte	0xf
 4046 086a 89       		.byte	0x89
 4047 086b 52090000 		.4byte	0x952
 4048 086f 02       		.byte	0x2
 4049 0870 23       		.byte	0x23
 4050 0871 00       		.uleb128 0
 4051 0872 0A       		.uleb128 0xa
 4052 0873 0B020000 		.4byte	.LASF104
 4053 0877 0F       		.byte	0xf
 4054 0878 8A       		.byte	0x8a
 4055 0879 29050000 		.4byte	0x529
 4056 087d 02       		.byte	0x2
 4057 087e 23       		.byte	0x23
 4058 087f 04       		.uleb128 0x4
 4059 0880 0A       		.uleb128 0xa
 4060 0881 CD080000 		.4byte	.LASF105
 4061 0885 0F       		.byte	0xf
 4062 0886 8A       		.byte	0x8a
 4063 0887 42080000 		.4byte	0x842
 4064 088b 02       		.byte	0x2
 4065 088c 23       		.byte	0x23
 4066 088d 08       		.uleb128 0x8
 4067 088e 0A       		.uleb128 0xa
 4068 088f AE010000 		.4byte	.LASF106
ARM GAS  /tmp/cc3rdzJM.s 			page 74


 4069 0893 0F       		.byte	0xf
 4070 0894 8A       		.byte	0x8a
 4071 0895 36060000 		.4byte	0x636
 4072 0899 02       		.byte	0x2
 4073 089a 23       		.byte	0x23
 4074 089b 0C       		.uleb128 0xc
 4075 089c 0A       		.uleb128 0xa
 4076 089d 65060000 		.4byte	.LASF107
 4077 08a1 0F       		.byte	0xf
 4078 08a2 8A       		.byte	0x8a
 4079 08a3 41060000 		.4byte	0x641
 4080 08a7 02       		.byte	0x2
 4081 08a8 23       		.byte	0x23
 4082 08a9 30       		.uleb128 0x30
 4083 08aa 0B       		.uleb128 0xb
 4084 08ab 696200   		.ascii	"ib\000"
 4085 08ae 0F       		.byte	0xf
 4086 08af 8A       		.byte	0x8a
 4087 08b0 5D090000 		.4byte	0x95d
 4088 08b4 02       		.byte	0x2
 4089 08b5 23       		.byte	0x23
 4090 08b6 54       		.uleb128 0x54
 4091 08b7 0B       		.uleb128 0xb
 4092 08b8 6F6200   		.ascii	"ob\000"
 4093 08bb 0F       		.byte	0xf
 4094 08bc 8A       		.byte	0x8a
 4095 08bd 5D090000 		.4byte	0x95d
 4096 08c1 03       		.byte	0x3
 4097 08c2 23       		.byte	0x23
 4098 08c3 9401     		.uleb128 0x94
 4099 08c5 0A       		.uleb128 0xa
 4100 08c6 23050000 		.4byte	.LASF108
 4101 08ca 0F       		.byte	0xf
 4102 08cb 8A       		.byte	0x8a
 4103 08cc 6D090000 		.4byte	0x96d
 4104 08d0 03       		.byte	0x3
 4105 08d1 23       		.byte	0x23
 4106 08d2 D401     		.uleb128 0xd4
 4107 08d4 00       		.byte	0
 4108 08d5 08       		.uleb128 0x8
 4109 08d6 73090000 		.4byte	.LASF109
 4110 08da 20       		.byte	0x20
 4111 08db 0F       		.byte	0xf
 4112 08dc 7C       		.byte	0x7c
 4113 08dd 52090000 		.4byte	0x952
 4114 08e1 0A       		.uleb128 0xa
 4115 08e2 45050000 		.4byte	.LASF110
 4116 08e6 0F       		.byte	0xf
 4117 08e7 7D       		.byte	0x7d
 4118 08e8 71060000 		.4byte	0x671
 4119 08ec 02       		.byte	0x2
 4120 08ed 23       		.byte	0x23
 4121 08ee 00       		.uleb128 0
 4122 08ef 0A       		.uleb128 0xa
 4123 08f0 A3070000 		.4byte	.LASF111
 4124 08f4 0F       		.byte	0xf
 4125 08f5 7D       		.byte	0x7d
ARM GAS  /tmp/cc3rdzJM.s 			page 75


 4126 08f6 91060000 		.4byte	0x691
 4127 08fa 02       		.byte	0x2
 4128 08fb 23       		.byte	0x23
 4129 08fc 04       		.uleb128 0x4
 4130 08fd 0B       		.uleb128 0xb
 4131 08fe 70757400 		.ascii	"put\000"
 4132 0902 0F       		.byte	0xf
 4133 0903 7D       		.byte	0x7d
 4134 0904 AC060000 		.4byte	0x6ac
 4135 0908 02       		.byte	0x2
 4136 0909 23       		.byte	0x23
 4137 090a 08       		.uleb128 0x8
 4138 090b 0B       		.uleb128 0xb
 4139 090c 67657400 		.ascii	"get\000"
 4140 0910 0F       		.byte	0xf
 4141 0911 7D       		.byte	0x7d
 4142 0912 6F050000 		.4byte	0x56f
 4143 0916 02       		.byte	0x2
 4144 0917 23       		.byte	0x23
 4145 0918 0C       		.uleb128 0xc
 4146 0919 0A       		.uleb128 0xa
 4147 091a 68030000 		.4byte	.LASF112
 4148 091e 0F       		.byte	0xf
 4149 091f 7D       		.byte	0x7d
 4150 0920 BC070000 		.4byte	0x7bc
 4151 0924 02       		.byte	0x2
 4152 0925 23       		.byte	0x23
 4153 0926 10       		.uleb128 0x10
 4154 0927 0A       		.uleb128 0xa
 4155 0928 C8070000 		.4byte	.LASF113
 4156 092c 0F       		.byte	0xf
 4157 092d 7D       		.byte	0x7d
 4158 092e D7070000 		.4byte	0x7d7
 4159 0932 02       		.byte	0x2
 4160 0933 23       		.byte	0x23
 4161 0934 14       		.uleb128 0x14
 4162 0935 0A       		.uleb128 0xa
 4163 0936 9C010000 		.4byte	.LASF114
 4164 093a 0F       		.byte	0xf
 4165 093b 7D       		.byte	0x7d
 4166 093c FC070000 		.4byte	0x7fc
 4167 0940 02       		.byte	0x2
 4168 0941 23       		.byte	0x23
 4169 0942 18       		.uleb128 0x18
 4170 0943 0A       		.uleb128 0xa
 4171 0944 6D090000 		.4byte	.LASF115
 4172 0948 0F       		.byte	0xf
 4173 0949 7D       		.byte	0x7d
 4174 094a 21080000 		.4byte	0x821
 4175 094e 02       		.byte	0x2
 4176 094f 23       		.byte	0x23
 4177 0950 1C       		.uleb128 0x1c
 4178 0951 00       		.byte	0
 4179 0952 05       		.uleb128 0x5
 4180 0953 04       		.byte	0x4
 4181 0954 58090000 		.4byte	0x958
 4182 0958 06       		.uleb128 0x6
ARM GAS  /tmp/cc3rdzJM.s 			page 76


 4183 0959 D5080000 		.4byte	0x8d5
 4184 095d 1A       		.uleb128 0x1a
 4185 095e C4000000 		.4byte	0xc4
 4186 0962 6D090000 		.4byte	0x96d
 4187 0966 1B       		.uleb128 0x1b
 4188 0967 4C000000 		.4byte	0x4c
 4189 096b 3F       		.byte	0x3f
 4190 096c 00       		.byte	0
 4191 096d 05       		.uleb128 0x5
 4192 096e 04       		.byte	0x4
 4193 096f 96070000 		.4byte	0x796
 4194 0973 18       		.uleb128 0x18
 4195 0974 01       		.byte	0x1
 4196 0975 10       		.byte	0x10
 4197 0976 63       		.byte	0x63
 4198 0977 94090000 		.4byte	0x994
 4199 097b 19       		.uleb128 0x19
 4200 097c E4020000 		.4byte	.LASF116
 4201 0980 00       		.sleb128 0
 4202 0981 19       		.uleb128 0x19
 4203 0982 4F080000 		.4byte	.LASF117
 4204 0986 01       		.sleb128 1
 4205 0987 19       		.uleb128 0x19
 4206 0988 AD030000 		.4byte	.LASF118
 4207 098c 02       		.sleb128 2
 4208 098d 19       		.uleb128 0x19
 4209 098e 9F030000 		.4byte	.LASF119
 4210 0992 03       		.sleb128 3
 4211 0993 00       		.byte	0
 4212 0994 18       		.uleb128 0x18
 4213 0995 01       		.byte	0x1
 4214 0996 11       		.byte	0x11
 4215 0997 3A       		.byte	0x3a
 4216 0998 D3090000 		.4byte	0x9d3
 4217 099c 19       		.uleb128 0x19
 4218 099d 11020000 		.4byte	.LASF120
 4219 09a1 00       		.sleb128 0
 4220 09a2 19       		.uleb128 0x19
 4221 09a3 5B010000 		.4byte	.LASF121
 4222 09a7 01       		.sleb128 1
 4223 09a8 19       		.uleb128 0x19
 4224 09a9 B3040000 		.4byte	.LASF122
 4225 09ad 02       		.sleb128 2
 4226 09ae 19       		.uleb128 0x19
 4227 09af 87060000 		.4byte	.LASF123
 4228 09b3 03       		.sleb128 3
 4229 09b4 19       		.uleb128 0x19
 4230 09b5 B1060000 		.4byte	.LASF124
 4231 09b9 04       		.sleb128 4
 4232 09ba 19       		.uleb128 0x19
 4233 09bb D4030000 		.4byte	.LASF125
 4234 09bf 05       		.sleb128 5
 4235 09c0 19       		.uleb128 0x19
 4236 09c1 0C090000 		.4byte	.LASF126
 4237 09c5 06       		.sleb128 6
 4238 09c6 19       		.uleb128 0x19
 4239 09c7 80070000 		.4byte	.LASF127
ARM GAS  /tmp/cc3rdzJM.s 			page 77


 4240 09cb 07       		.sleb128 7
 4241 09cc 19       		.uleb128 0x19
 4242 09cd 78010000 		.4byte	.LASF128
 4243 09d1 08       		.sleb128 8
 4244 09d2 00       		.byte	0
 4245 09d3 07       		.uleb128 0x7
 4246 09d4 EC080000 		.4byte	.LASF129
 4247 09d8 11       		.byte	0x11
 4248 09d9 45       		.byte	0x45
 4249 09da 94090000 		.4byte	0x994
 4250 09de 18       		.uleb128 0x18
 4251 09df 01       		.byte	0x1
 4252 09e0 11       		.byte	0x11
 4253 09e1 50       		.byte	0x50
 4254 09e2 110A0000 		.4byte	0xa11
 4255 09e6 19       		.uleb128 0x19
 4256 09e7 FE050000 		.4byte	.LASF130
 4257 09eb 00       		.sleb128 0
 4258 09ec 19       		.uleb128 0x19
 4259 09ed F7020000 		.4byte	.LASF131
 4260 09f1 01       		.sleb128 1
 4261 09f2 19       		.uleb128 0x19
 4262 09f3 3C090000 		.4byte	.LASF132
 4263 09f7 0A       		.sleb128 10
 4264 09f8 19       		.uleb128 0x19
 4265 09f9 4F090000 		.4byte	.LASF133
 4266 09fd 0B       		.sleb128 11
 4267 09fe 19       		.uleb128 0x19
 4268 09ff 10010000 		.4byte	.LASF134
 4269 0a03 0C       		.sleb128 12
 4270 0a04 19       		.uleb128 0x19
 4271 0a05 3D080000 		.4byte	.LASF135
 4272 0a09 0D       		.sleb128 13
 4273 0a0a 19       		.uleb128 0x19
 4274 0a0b 66070000 		.4byte	.LASF136
 4275 0a0f 0E       		.sleb128 14
 4276 0a10 00       		.byte	0
 4277 0a11 18       		.uleb128 0x18
 4278 0a12 01       		.byte	0x1
 4279 0a13 12       		.byte	0x12
 4280 0a14 3F       		.byte	0x3f
 4281 0a15 520B0000 		.4byte	0xb52
 4282 0a19 1C       		.uleb128 0x1c
 4283 0a1a 43683100 		.ascii	"Ch1\000"
 4284 0a1e 00       		.sleb128 0
 4285 0a1f 1C       		.uleb128 0x1c
 4286 0a20 43683200 		.ascii	"Ch2\000"
 4287 0a24 01       		.sleb128 1
 4288 0a25 1C       		.uleb128 0x1c
 4289 0a26 43683300 		.ascii	"Ch3\000"
 4290 0a2a 02       		.sleb128 2
 4291 0a2b 1C       		.uleb128 0x1c
 4292 0a2c 43683400 		.ascii	"Ch4\000"
 4293 0a30 03       		.sleb128 3
 4294 0a31 19       		.uleb128 0x19
 4295 0a32 7A020000 		.4byte	.LASF137
 4296 0a36 04       		.sleb128 4
ARM GAS  /tmp/cc3rdzJM.s 			page 78


 4297 0a37 19       		.uleb128 0x19
 4298 0a38 89020000 		.4byte	.LASF138
 4299 0a3c 05       		.sleb128 5
 4300 0a3d 19       		.uleb128 0x19
 4301 0a3e B8020000 		.4byte	.LASF139
 4302 0a42 06       		.sleb128 6
 4303 0a43 19       		.uleb128 0x19
 4304 0a44 9F020000 		.4byte	.LASF140
 4305 0a48 07       		.sleb128 7
 4306 0a49 19       		.uleb128 0x19
 4307 0a4a A8010000 		.4byte	.LASF141
 4308 0a4e 08       		.sleb128 8
 4309 0a4f 19       		.uleb128 0x19
 4310 0a50 BD010000 		.4byte	.LASF142
 4311 0a54 09       		.sleb128 9
 4312 0a55 19       		.uleb128 0x19
 4313 0a56 DD010000 		.4byte	.LASF143
 4314 0a5a 0A       		.sleb128 10
 4315 0a5b 19       		.uleb128 0x19
 4316 0a5c CC010000 		.4byte	.LASF144
 4317 0a60 0B       		.sleb128 11
 4318 0a61 19       		.uleb128 0x19
 4319 0a62 61000000 		.4byte	.LASF145
 4320 0a66 0C       		.sleb128 12
 4321 0a67 19       		.uleb128 0x19
 4322 0a68 BA000000 		.4byte	.LASF146
 4323 0a6c 0D       		.sleb128 13
 4324 0a6d 19       		.uleb128 0x19
 4325 0a6e 31010000 		.4byte	.LASF147
 4326 0a72 0E       		.sleb128 14
 4327 0a73 19       		.uleb128 0x19
 4328 0a74 72010000 		.4byte	.LASF148
 4329 0a78 0F       		.sleb128 15
 4330 0a79 19       		.uleb128 0x19
 4331 0a7a BB080000 		.4byte	.LASF149
 4332 0a7e 10       		.sleb128 16
 4333 0a7f 19       		.uleb128 0x19
 4334 0a80 C1080000 		.4byte	.LASF150
 4335 0a84 11       		.sleb128 17
 4336 0a85 19       		.uleb128 0x19
 4337 0a86 C7080000 		.4byte	.LASF151
 4338 0a8a 12       		.sleb128 18
 4339 0a8b 19       		.uleb128 0x19
 4340 0a8c E7000000 		.4byte	.LASF152
 4341 0a90 13       		.sleb128 19
 4342 0a91 19       		.uleb128 0x19
 4343 0a92 A6090000 		.4byte	.LASF153
 4344 0a96 14       		.sleb128 20
 4345 0a97 19       		.uleb128 0x19
 4346 0a98 AB090000 		.4byte	.LASF154
 4347 0a9c 15       		.sleb128 21
 4348 0a9d 19       		.uleb128 0x19
 4349 0a9e B0090000 		.4byte	.LASF155
 4350 0aa2 16       		.sleb128 22
 4351 0aa3 19       		.uleb128 0x19
 4352 0aa4 D0050000 		.4byte	.LASF156
 4353 0aa8 17       		.sleb128 23
ARM GAS  /tmp/cc3rdzJM.s 			page 79


 4354 0aa9 19       		.uleb128 0x19
 4355 0aaa 80020000 		.4byte	.LASF157
 4356 0aae 8001     		.sleb128 128
 4357 0ab0 19       		.uleb128 0x19
 4358 0ab1 2C080000 		.4byte	.LASF158
 4359 0ab5 8101     		.sleb128 129
 4360 0ab7 19       		.uleb128 0x19
 4361 0ab8 84040000 		.4byte	.LASF159
 4362 0abc 8201     		.sleb128 130
 4363 0abe 19       		.uleb128 0x19
 4364 0abf A6000000 		.4byte	.LASF160
 4365 0ac3 8301     		.sleb128 131
 4366 0ac5 19       		.uleb128 0x19
 4367 0ac6 C9030000 		.4byte	.LASF161
 4368 0aca 8401     		.sleb128 132
 4369 0acc 19       		.uleb128 0x19
 4370 0acd 91010000 		.4byte	.LASF162
 4371 0ad1 8501     		.sleb128 133
 4372 0ad3 19       		.uleb128 0x19
 4373 0ad4 E1050000 		.4byte	.LASF163
 4374 0ad8 8601     		.sleb128 134
 4375 0ada 19       		.uleb128 0x19
 4376 0adb F7090000 		.4byte	.LASF164
 4377 0adf 8701     		.sleb128 135
 4378 0ae1 19       		.uleb128 0x19
 4379 0ae2 21080000 		.4byte	.LASF165
 4380 0ae6 8801     		.sleb128 136
 4381 0ae8 19       		.uleb128 0x19
 4382 0ae9 EC050000 		.4byte	.LASF166
 4383 0aed 8901     		.sleb128 137
 4384 0aef 19       		.uleb128 0x19
 4385 0af0 7C060000 		.4byte	.LASF167
 4386 0af4 8A01     		.sleb128 138
 4387 0af6 19       		.uleb128 0x19
 4388 0af7 D2010000 		.4byte	.LASF168
 4389 0afb 8B01     		.sleb128 139
 4390 0afd 19       		.uleb128 0x19
 4391 0afe A6060000 		.4byte	.LASF169
 4392 0b02 8C01     		.sleb128 140
 4393 0b04 19       		.uleb128 0x19
 4394 0b05 37010000 		.4byte	.LASF170
 4395 0b09 8D01     		.sleb128 141
 4396 0b0b 19       		.uleb128 0x19
 4397 0b0c 020A0000 		.4byte	.LASF171
 4398 0b10 8E01     		.sleb128 142
 4399 0b12 19       		.uleb128 0x19
 4400 0b13 CB040000 		.4byte	.LASF172
 4401 0b17 8F01     		.sleb128 143
 4402 0b19 19       		.uleb128 0x19
 4403 0b1a D9020000 		.4byte	.LASF173
 4404 0b1e 9001     		.sleb128 144
 4405 0b20 19       		.uleb128 0x19
 4406 0b21 62090000 		.4byte	.LASF174
 4407 0b25 9101     		.sleb128 145
 4408 0b27 19       		.uleb128 0x19
 4409 0b28 C5050000 		.4byte	.LASF175
 4410 0b2c 9201     		.sleb128 146
ARM GAS  /tmp/cc3rdzJM.s 			page 80


 4411 0b2e 19       		.uleb128 0x19
 4412 0b2f 52020000 		.4byte	.LASF176
 4413 0b33 9301     		.sleb128 147
 4414 0b35 19       		.uleb128 0x19
 4415 0b36 E2080000 		.4byte	.LASF177
 4416 0b3a 9401     		.sleb128 148
 4417 0b3c 19       		.uleb128 0x19
 4418 0b3d 8E050000 		.4byte	.LASF178
 4419 0b41 9501     		.sleb128 149
 4420 0b43 19       		.uleb128 0x19
 4421 0b44 36060000 		.4byte	.LASF179
 4422 0b48 9601     		.sleb128 150
 4423 0b4a 19       		.uleb128 0x19
 4424 0b4b 12050000 		.4byte	.LASF180
 4425 0b4f 9701     		.sleb128 151
 4426 0b51 00       		.byte	0
 4427 0b52 18       		.uleb128 0x18
 4428 0b53 01       		.byte	0x1
 4429 0b54 12       		.byte	0x12
 4430 0b55 56       		.byte	0x56
 4431 0b56 930B0000 		.4byte	0xb93
 4432 0b5a 19       		.uleb128 0x19
 4433 0b5b F5030000 		.4byte	.LASF181
 4434 0b5f 00       		.sleb128 0
 4435 0b60 19       		.uleb128 0x19
 4436 0b61 1A090000 		.4byte	.LASF182
 4437 0b65 01       		.sleb128 1
 4438 0b66 19       		.uleb128 0x19
 4439 0b67 25090000 		.4byte	.LASF183
 4440 0b6b 02       		.sleb128 2
 4441 0b6c 19       		.uleb128 0x19
 4442 0b6d 1C060000 		.4byte	.LASF184
 4443 0b71 04       		.sleb128 4
 4444 0b72 19       		.uleb128 0x19
 4445 0b73 6F080000 		.4byte	.LASF185
 4446 0b77 08       		.sleb128 8
 4447 0b78 19       		.uleb128 0x19
 4448 0b79 35040000 		.4byte	.LASF186
 4449 0b7d 10       		.sleb128 16
 4450 0b7e 19       		.uleb128 0x19
 4451 0b7f 4D000000 		.4byte	.LASF187
 4452 0b83 20       		.sleb128 32
 4453 0b84 19       		.uleb128 0x19
 4454 0b85 39000000 		.4byte	.LASF188
 4455 0b89 C000     		.sleb128 64
 4456 0b8b 19       		.uleb128 0x19
 4457 0b8c D8090000 		.4byte	.LASF189
 4458 0b90 8001     		.sleb128 128
 4459 0b92 00       		.byte	0
 4460 0b93 02       		.uleb128 0x2
 4461 0b94 04       		.byte	0x4
 4462 0b95 04       		.byte	0x4
 4463 0b96 FB010000 		.4byte	.LASF190
 4464 0b9a 1D       		.uleb128 0x1d
 4465 0b9b 30070000 		.4byte	.LASF198
 4466 0b9f 01       		.byte	0x1
 4467 0ba0 52       		.byte	0x52
ARM GAS  /tmp/cc3rdzJM.s 			page 81


 4468 0ba1 01       		.byte	0x1
 4469 0ba2 01       		.byte	0x1
 4470 0ba3 BC0B0000 		.4byte	0xbbc
 4471 0ba7 1E       		.uleb128 0x1e
 4472 0ba8 6300     		.ascii	"c\000"
 4473 0baa 01       		.byte	0x1
 4474 0bab 52       		.byte	0x52
 4475 0bac C4000000 		.4byte	0xc4
 4476 0bb0 1F       		.uleb128 0x1f
 4477 0bb1 2D020000 		.4byte	.LASF211
 4478 0bb5 01       		.byte	0x1
 4479 0bb6 54       		.byte	0x54
 4480 0bb7 45000000 		.4byte	0x45
 4481 0bbb 00       		.byte	0
 4482 0bbc 20       		.uleb128 0x20
 4483 0bbd 78000000 		.4byte	.LASF191
 4484 0bc1 01       		.byte	0x1
 4485 0bc2 95       		.byte	0x95
 4486 0bc3 01       		.byte	0x1
 4487 0bc4 03       		.byte	0x3
 4488 0bc5 20       		.uleb128 0x20
 4489 0bc6 E6090000 		.4byte	.LASF192
 4490 0bca 01       		.byte	0x1
 4491 0bcb 8D       		.byte	0x8d
 4492 0bcc 01       		.byte	0x1
 4493 0bcd 03       		.byte	0x3
 4494 0bce 20       		.uleb128 0x20
 4495 0bcf D8000000 		.4byte	.LASF193
 4496 0bd3 01       		.byte	0x1
 4497 0bd4 99       		.byte	0x99
 4498 0bd5 01       		.byte	0x1
 4499 0bd6 03       		.byte	0x3
 4500 0bd7 20       		.uleb128 0x20
 4501 0bd8 29040000 		.4byte	.LASF194
 4502 0bdc 01       		.byte	0x1
 4503 0bdd 9D       		.byte	0x9d
 4504 0bde 01       		.byte	0x1
 4505 0bdf 03       		.byte	0x3
 4506 0be0 20       		.uleb128 0x20
 4507 0be1 75050000 		.4byte	.LASF195
 4508 0be5 01       		.byte	0x1
 4509 0be6 91       		.byte	0x91
 4510 0be7 01       		.byte	0x1
 4511 0be8 03       		.byte	0x3
 4512 0be9 21       		.uleb128 0x21
 4513 0bea 9A0B0000 		.4byte	0xb9a
 4514 0bee 00000000 		.4byte	.LFB64
 4515 0bf2 34000000 		.4byte	.LFE64
 4516 0bf6 00000000 		.4byte	.LLST0
 4517 0bfa 390C0000 		.4byte	0xc39
 4518 0bfe 22       		.uleb128 0x22
 4519 0bff A70B0000 		.4byte	0xba7
 4520 0c03 20000000 		.4byte	.LLST1
 4521 0c07 23       		.uleb128 0x23
 4522 0c08 B00B0000 		.4byte	0xbb0
 4523 0c0c 05       		.byte	0x5
 4524 0c0d 03       		.byte	0x3
ARM GAS  /tmp/cc3rdzJM.s 			page 82


 4525 0c0e 00000000 		.4byte	count.7707
 4526 0c12 24       		.uleb128 0x24
 4527 0c13 9A0B0000 		.4byte	0xb9a
 4528 0c17 22000000 		.4byte	.LBB18
 4529 0c1b 00000000 		.4byte	.Ldebug_ranges0+0
 4530 0c1f 01       		.byte	0x1
 4531 0c20 52       		.byte	0x52
 4532 0c21 25       		.uleb128 0x25
 4533 0c22 18000000 		.4byte	.Ldebug_ranges0+0x18
 4534 0c26 26       		.uleb128 0x26
 4535 0c27 A70B0000 		.4byte	0xba7
 4536 0c2b 23       		.uleb128 0x23
 4537 0c2c B00B0000 		.4byte	0xbb0
 4538 0c30 05       		.byte	0x5
 4539 0c31 03       		.byte	0x3
 4540 0c32 00000000 		.4byte	count.7707
 4541 0c36 00       		.byte	0
 4542 0c37 00       		.byte	0
 4543 0c38 00       		.byte	0
 4544 0c39 27       		.uleb128 0x27
 4545 0c3a 29030000 		.4byte	.LASF240
 4546 0c3e 01       		.byte	0x1
 4547 0c3f 6C       		.byte	0x6c
 4548 0c40 01       		.byte	0x1
 4549 0c41 00000000 		.4byte	.LFB65
 4550 0c45 50000000 		.4byte	.LFE65
 4551 0c49 33000000 		.4byte	.LLST2
 4552 0c4d 8D0C0000 		.4byte	0xc8d
 4553 0c51 28       		.uleb128 0x28
 4554 0c52 666D7400 		.ascii	"fmt\000"
 4555 0c56 01       		.byte	0x1
 4556 0c57 6C       		.byte	0x6c
 4557 0c58 71000000 		.4byte	0x71
 4558 0c5c 02       		.byte	0x2
 4559 0c5d 91       		.byte	0x91
 4560 0c5e 70       		.sleb128 -16
 4561 0c5f 29       		.uleb128 0x29
 4562 0c60 2A       		.uleb128 0x2a
 4563 0c61 71000000 		.4byte	.LASF196
 4564 0c65 01       		.byte	0x1
 4565 0c66 6E       		.byte	0x6e
 4566 0c67 8D0C0000 		.4byte	0xc8d
 4567 0c6b 05       		.byte	0x5
 4568 0c6c 03       		.byte	0x3
 4569 0c6d 00000000 		.4byte	buffer.7711
 4570 0c71 2B       		.uleb128 0x2b
 4571 0c72 6900     		.ascii	"i\000"
 4572 0c74 01       		.byte	0x1
 4573 0c75 6F       		.byte	0x6f
 4574 0c76 45000000 		.4byte	0x45
 4575 0c7a 6B000000 		.4byte	.LLST3
 4576 0c7e 2A       		.uleb128 0x2a
 4577 0c7f 40060000 		.4byte	.LASF197
 4578 0c83 01       		.byte	0x1
 4579 0c84 71       		.byte	0x71
 4580 0c85 B9000000 		.4byte	0xb9
 4581 0c89 02       		.byte	0x2
ARM GAS  /tmp/cc3rdzJM.s 			page 83


 4582 0c8a 91       		.byte	0x91
 4583 0c8b 5C       		.sleb128 -36
 4584 0c8c 00       		.byte	0
 4585 0c8d 1A       		.uleb128 0x1a
 4586 0c8e 77000000 		.4byte	0x77
 4587 0c92 9D0C0000 		.4byte	0xc9d
 4588 0c96 1B       		.uleb128 0x1b
 4589 0c97 4C000000 		.4byte	0x4c
 4590 0c9b 3F       		.byte	0x3f
 4591 0c9c 00       		.byte	0
 4592 0c9d 1D       		.uleb128 0x1d
 4593 0c9e 45020000 		.4byte	.LASF199
 4594 0ca2 01       		.byte	0x1
 4595 0ca3 A1       		.byte	0xa1
 4596 0ca4 01       		.byte	0x1
 4597 0ca5 03       		.byte	0x3
 4598 0ca6 C10C0000 		.4byte	0xcc1
 4599 0caa 1E       		.uleb128 0x1e
 4600 0cab 636F6C00 		.ascii	"col\000"
 4601 0caf 01       		.byte	0x1
 4602 0cb0 A1       		.byte	0xa1
 4603 0cb1 45000000 		.4byte	0x45
 4604 0cb5 1E       		.uleb128 0x1e
 4605 0cb6 726F7700 		.ascii	"row\000"
 4606 0cba 01       		.byte	0x1
 4607 0cbb A1       		.byte	0xa1
 4608 0cbc 45000000 		.4byte	0x45
 4609 0cc0 00       		.byte	0
 4610 0cc1 2C       		.uleb128 0x2c
 4611 0cc2 01       		.byte	0x1
 4612 0cc3 DE040000 		.4byte	.LASF202
 4613 0cc7 01       		.byte	0x1
 4614 0cc8 B3       		.byte	0xb3
 4615 0cc9 01       		.byte	0x1
 4616 0cca 00000000 		.4byte	.LFB73
 4617 0cce AC010000 		.4byte	.LFE73
 4618 0cd2 7F000000 		.4byte	.LLST4
 4619 0cd6 B40D0000 		.4byte	0xdb4
 4620 0cda 2D       		.uleb128 0x2d
 4621 0cdb 636F6C00 		.ascii	"col\000"
 4622 0cdf 01       		.byte	0x1
 4623 0ce0 B3       		.byte	0xb3
 4624 0ce1 45000000 		.4byte	0x45
 4625 0ce5 9F000000 		.4byte	.LLST5
 4626 0ce9 2D       		.uleb128 0x2d
 4627 0cea 726F7700 		.ascii	"row\000"
 4628 0cee 01       		.byte	0x1
 4629 0cef B3       		.byte	0xb3
 4630 0cf0 45000000 		.4byte	0x45
 4631 0cf4 BD000000 		.4byte	.LLST6
 4632 0cf8 2E       		.uleb128 0x2e
 4633 0cf9 87030000 		.4byte	.LASF200
 4634 0cfd 01       		.byte	0x1
 4635 0cfe B3       		.byte	0xb3
 4636 0cff 45000000 		.4byte	0x45
 4637 0d03 DB000000 		.4byte	.LLST7
 4638 0d07 2E       		.uleb128 0x2e
ARM GAS  /tmp/cc3rdzJM.s 			page 84


 4639 0d08 F7050000 		.4byte	.LASF201
 4640 0d0c 01       		.byte	0x1
 4641 0d0d B3       		.byte	0xb3
 4642 0d0e 45000000 		.4byte	0x45
 4643 0d12 06010000 		.4byte	.LLST8
 4644 0d16 2B       		.uleb128 0x2b
 4645 0d17 6900     		.ascii	"i\000"
 4646 0d19 01       		.byte	0x1
 4647 0d1a B5       		.byte	0xb5
 4648 0d1b 45000000 		.4byte	0x45
 4649 0d1f 24010000 		.4byte	.LLST9
 4650 0d23 2F       		.uleb128 0x2f
 4651 0d24 9D0C0000 		.4byte	0xc9d
 4652 0d28 06000000 		.4byte	.LBB30
 4653 0d2c 30000000 		.4byte	.Ldebug_ranges0+0x30
 4654 0d30 01       		.byte	0x1
 4655 0d31 B8       		.byte	0xb8
 4656 0d32 490D0000 		.4byte	0xd49
 4657 0d36 22       		.uleb128 0x22
 4658 0d37 B50C0000 		.4byte	0xcb5
 4659 0d3b 50010000 		.4byte	.LLST10
 4660 0d3f 22       		.uleb128 0x22
 4661 0d40 AA0C0000 		.4byte	0xcaa
 4662 0d44 6E010000 		.4byte	.LLST11
 4663 0d48 00       		.byte	0
 4664 0d49 2F       		.uleb128 0x2f
 4665 0d4a 9D0C0000 		.4byte	0xc9d
 4666 0d4e 72000000 		.4byte	.LBB36
 4667 0d52 50000000 		.4byte	.Ldebug_ranges0+0x50
 4668 0d56 01       		.byte	0x1
 4669 0d57 C0       		.byte	0xc0
 4670 0d58 6B0D0000 		.4byte	0xd6b
 4671 0d5c 26       		.uleb128 0x26
 4672 0d5d B50C0000 		.4byte	0xcb5
 4673 0d61 22       		.uleb128 0x22
 4674 0d62 AA0C0000 		.4byte	0xcaa
 4675 0d66 8C010000 		.4byte	.LLST12
 4676 0d6a 00       		.byte	0
 4677 0d6b 2F       		.uleb128 0x2f
 4678 0d6c 9D0C0000 		.4byte	0xc9d
 4679 0d70 96000000 		.4byte	.LBB43
 4680 0d74 80000000 		.4byte	.Ldebug_ranges0+0x80
 4681 0d78 01       		.byte	0x1
 4682 0d79 C3       		.byte	0xc3
 4683 0d7a 910D0000 		.4byte	0xd91
 4684 0d7e 22       		.uleb128 0x22
 4685 0d7f B50C0000 		.4byte	0xcb5
 4686 0d83 9F010000 		.4byte	.LLST13
 4687 0d87 22       		.uleb128 0x22
 4688 0d88 AA0C0000 		.4byte	0xcaa
 4689 0d8c B2010000 		.4byte	.LLST14
 4690 0d90 00       		.byte	0
 4691 0d91 30       		.uleb128 0x30
 4692 0d92 9D0C0000 		.4byte	0xc9d
 4693 0d96 56010000 		.4byte	.LBB54
 4694 0d9a 66010000 		.4byte	.LBE54
 4695 0d9e 01       		.byte	0x1
ARM GAS  /tmp/cc3rdzJM.s 			page 85


 4696 0d9f C8       		.byte	0xc8
 4697 0da0 22       		.uleb128 0x22
 4698 0da1 B50C0000 		.4byte	0xcb5
 4699 0da5 C5010000 		.4byte	.LLST15
 4700 0da9 22       		.uleb128 0x22
 4701 0daa AA0C0000 		.4byte	0xcaa
 4702 0dae EA010000 		.4byte	.LLST16
 4703 0db2 00       		.byte	0
 4704 0db3 00       		.byte	0
 4705 0db4 2C       		.uleb128 0x2c
 4706 0db5 01       		.byte	0x1
 4707 0db6 49010000 		.4byte	.LASF203
 4708 0dba 01       		.byte	0x1
 4709 0dbb DA       		.byte	0xda
 4710 0dbc 01       		.byte	0x1
 4711 0dbd 00000000 		.4byte	.LFB74
 4712 0dc1 9E000000 		.4byte	.LFE74
 4713 0dc5 FD010000 		.4byte	.LLST17
 4714 0dc9 8A0E0000 		.4byte	0xe8a
 4715 0dcd 2F       		.uleb128 0x2f
 4716 0dce 9D0C0000 		.4byte	0xc9d
 4717 0dd2 1A000000 		.4byte	.LBB68
 4718 0dd6 A8000000 		.4byte	.Ldebug_ranges0+0xa8
 4719 0dda 01       		.byte	0x1
 4720 0ddb E7       		.byte	0xe7
 4721 0ddc ED0D0000 		.4byte	0xded
 4722 0de0 31       		.uleb128 0x31
 4723 0de1 B50C0000 		.4byte	0xcb5
 4724 0de5 0F       		.byte	0xf
 4725 0de6 31       		.uleb128 0x31
 4726 0de7 AA0C0000 		.4byte	0xcaa
 4727 0deb 01       		.byte	0x1
 4728 0dec 00       		.byte	0
 4729 0ded 32       		.uleb128 0x32
 4730 0dee 9D0C0000 		.4byte	0xc9d
 4731 0df2 4A000000 		.4byte	.LBB74
 4732 0df6 54000000 		.4byte	.LBE74
 4733 0dfa 01       		.byte	0x1
 4734 0dfb E9       		.byte	0xe9
 4735 0dfc 0D0E0000 		.4byte	0xe0d
 4736 0e00 31       		.uleb128 0x31
 4737 0e01 B50C0000 		.4byte	0xcb5
 4738 0e05 0F       		.byte	0xf
 4739 0e06 31       		.uleb128 0x31
 4740 0e07 AA0C0000 		.4byte	0xcaa
 4741 0e0b 50       		.byte	0x50
 4742 0e0c 00       		.byte	0
 4743 0e0d 32       		.uleb128 0x32
 4744 0e0e 9D0C0000 		.4byte	0xc9d
 4745 0e12 5A000000 		.4byte	.LBB76
 4746 0e16 64000000 		.4byte	.LBE76
 4747 0e1a 01       		.byte	0x1
 4748 0e1b EC       		.byte	0xec
 4749 0e1c 2D0E0000 		.4byte	0xe2d
 4750 0e20 31       		.uleb128 0x31
 4751 0e21 B50C0000 		.4byte	0xcb5
 4752 0e25 01       		.byte	0x1
ARM GAS  /tmp/cc3rdzJM.s 			page 86


 4753 0e26 31       		.uleb128 0x31
 4754 0e27 AA0C0000 		.4byte	0xcaa
 4755 0e2b 29       		.byte	0x29
 4756 0e2c 00       		.byte	0
 4757 0e2d 32       		.uleb128 0x32
 4758 0e2e 9D0C0000 		.4byte	0xc9d
 4759 0e32 6A000000 		.4byte	.LBB78
 4760 0e36 74000000 		.4byte	.LBE78
 4761 0e3a 01       		.byte	0x1
 4762 0e3b EE       		.byte	0xee
 4763 0e3c 4D0E0000 		.4byte	0xe4d
 4764 0e40 31       		.uleb128 0x31
 4765 0e41 B50C0000 		.4byte	0xcb5
 4766 0e45 01       		.byte	0x1
 4767 0e46 31       		.uleb128 0x31
 4768 0e47 AA0C0000 		.4byte	0xcaa
 4769 0e4b 3D       		.byte	0x3d
 4770 0e4c 00       		.byte	0
 4771 0e4d 32       		.uleb128 0x32
 4772 0e4e 9D0C0000 		.4byte	0xc9d
 4773 0e52 7A000000 		.4byte	.LBB80
 4774 0e56 84000000 		.4byte	.LBE80
 4775 0e5a 01       		.byte	0x1
 4776 0e5b F1       		.byte	0xf1
 4777 0e5c 6D0E0000 		.4byte	0xe6d
 4778 0e60 31       		.uleb128 0x31
 4779 0e61 B50C0000 		.4byte	0xcb5
 4780 0e65 0F       		.byte	0xf
 4781 0e66 31       		.uleb128 0x31
 4782 0e67 AA0C0000 		.4byte	0xcaa
 4783 0e6b 29       		.byte	0x29
 4784 0e6c 00       		.byte	0
 4785 0e6d 30       		.uleb128 0x30
 4786 0e6e 9D0C0000 		.4byte	0xc9d
 4787 0e72 8A000000 		.4byte	.LBB82
 4788 0e76 94000000 		.4byte	.LBE82
 4789 0e7a 01       		.byte	0x1
 4790 0e7b F3       		.byte	0xf3
 4791 0e7c 31       		.uleb128 0x31
 4792 0e7d B50C0000 		.4byte	0xcb5
 4793 0e81 0F       		.byte	0xf
 4794 0e82 31       		.uleb128 0x31
 4795 0e83 AA0C0000 		.4byte	0xcaa
 4796 0e87 3D       		.byte	0x3d
 4797 0e88 00       		.byte	0
 4798 0e89 00       		.byte	0
 4799 0e8a 1D       		.uleb128 0x1d
 4800 0e8b 8F020000 		.4byte	.LASF204
 4801 0e8f 01       		.byte	0x1
 4802 0e90 A5       		.byte	0xa5
 4803 0e91 01       		.byte	0x1
 4804 0e92 03       		.byte	0x3
 4805 0e93 A30E0000 		.4byte	0xea3
 4806 0e97 33       		.uleb128 0x33
 4807 0e98 8C010000 		.4byte	.LASF205
 4808 0e9c 01       		.byte	0x1
 4809 0e9d A5       		.byte	0xa5
ARM GAS  /tmp/cc3rdzJM.s 			page 87


 4810 0e9e 45000000 		.4byte	0x45
 4811 0ea2 00       		.byte	0
 4812 0ea3 2C       		.uleb128 0x2c
 4813 0ea4 01       		.byte	0x1
 4814 0ea5 83090000 		.4byte	.LASF206
 4815 0ea9 01       		.byte	0x1
 4816 0eaa FC       		.byte	0xfc
 4817 0eab 01       		.byte	0x1
 4818 0eac 00000000 		.4byte	.LFB75
 4819 0eb0 24010000 		.4byte	.LFE75
 4820 0eb4 1D020000 		.4byte	.LLST18
 4821 0eb8 830F0000 		.4byte	0xf83
 4822 0ebc 2B       		.uleb128 0x2b
 4823 0ebd 6900     		.ascii	"i\000"
 4824 0ebf 01       		.byte	0x1
 4825 0ec0 FE       		.byte	0xfe
 4826 0ec1 45000000 		.4byte	0x45
 4827 0ec5 3D020000 		.4byte	.LLST19
 4828 0ec9 34       		.uleb128 0x34
 4829 0eca 9D0C0000 		.4byte	0xc9d
 4830 0ece 02000000 		.4byte	.LBB96
 4831 0ed2 C8000000 		.4byte	.Ldebug_ranges0+0xc8
 4832 0ed6 01       		.byte	0x1
 4833 0ed7 0101     		.2byte	0x101
 4834 0ed9 EA0E0000 		.4byte	0xeea
 4835 0edd 31       		.uleb128 0x31
 4836 0ede B50C0000 		.4byte	0xcb5
 4837 0ee2 02       		.byte	0x2
 4838 0ee3 31       		.uleb128 0x31
 4839 0ee4 AA0C0000 		.4byte	0xcaa
 4840 0ee8 02       		.byte	0x2
 4841 0ee9 00       		.byte	0
 4842 0eea 34       		.uleb128 0x34
 4843 0eeb 8A0E0000 		.4byte	0xe8a
 4844 0eef 0C000000 		.4byte	.LBB100
 4845 0ef3 E8000000 		.4byte	.Ldebug_ranges0+0xe8
 4846 0ef7 01       		.byte	0x1
 4847 0ef8 0301     		.2byte	0x103
 4848 0efa 050F0000 		.4byte	0xf05
 4849 0efe 31       		.uleb128 0x31
 4850 0eff 970E0000 		.4byte	0xe97
 4851 0f03 07       		.byte	0x7
 4852 0f04 00       		.byte	0
 4853 0f05 35       		.uleb128 0x35
 4854 0f06 8A0E0000 		.4byte	0xe8a
 4855 0f0a 30000000 		.4byte	.LBB108
 4856 0f0e 38000000 		.4byte	.LBE108
 4857 0f12 01       		.byte	0x1
 4858 0f13 0501     		.2byte	0x105
 4859 0f15 200F0000 		.4byte	0xf20
 4860 0f19 31       		.uleb128 0x31
 4861 0f1a 970E0000 		.4byte	0xe97
 4862 0f1e 00       		.byte	0
 4863 0f1f 00       		.byte	0
 4864 0f20 34       		.uleb128 0x34
 4865 0f21 9D0C0000 		.4byte	0xc9d
 4866 0f25 3C000000 		.4byte	.LBB110
ARM GAS  /tmp/cc3rdzJM.s 			page 88


 4867 0f29 08010000 		.4byte	.Ldebug_ranges0+0x108
 4868 0f2d 01       		.byte	0x1
 4869 0f2e 0801     		.2byte	0x108
 4870 0f30 440F0000 		.4byte	0xf44
 4871 0f34 22       		.uleb128 0x22
 4872 0f35 B50C0000 		.4byte	0xcb5
 4873 0f39 C9020000 		.4byte	.LLST20
 4874 0f3d 31       		.uleb128 0x31
 4875 0f3e AA0C0000 		.4byte	0xcaa
 4876 0f42 03       		.byte	0x3
 4877 0f43 00       		.byte	0
 4878 0f44 35       		.uleb128 0x35
 4879 0f45 9D0C0000 		.4byte	0xc9d
 4880 0f49 F4000000 		.4byte	.LBB132
 4881 0f4d FE000000 		.4byte	.LBE132
 4882 0f51 01       		.byte	0x1
 4883 0f52 0C01     		.2byte	0x10c
 4884 0f54 650F0000 		.4byte	0xf65
 4885 0f58 31       		.uleb128 0x31
 4886 0f59 B50C0000 		.4byte	0xcb5
 4887 0f5d 0D       		.byte	0xd
 4888 0f5e 31       		.uleb128 0x31
 4889 0f5f AA0C0000 		.4byte	0xcaa
 4890 0f63 03       		.byte	0x3
 4891 0f64 00       		.byte	0
 4892 0f65 36       		.uleb128 0x36
 4893 0f66 9D0C0000 		.4byte	0xc9d
 4894 0f6a 0A010000 		.4byte	.LBB134
 4895 0f6e 14010000 		.4byte	.LBE134
 4896 0f72 01       		.byte	0x1
 4897 0f73 0E01     		.2byte	0x10e
 4898 0f75 31       		.uleb128 0x31
 4899 0f76 B50C0000 		.4byte	0xcb5
 4900 0f7a 0E       		.byte	0xe
 4901 0f7b 31       		.uleb128 0x31
 4902 0f7c AA0C0000 		.4byte	0xcaa
 4903 0f80 03       		.byte	0x3
 4904 0f81 00       		.byte	0
 4905 0f82 00       		.byte	0
 4906 0f83 37       		.uleb128 0x37
 4907 0f84 01       		.byte	0x1
 4908 0f85 B5090000 		.4byte	.LASF207
 4909 0f89 01       		.byte	0x1
 4910 0f8a 1601     		.2byte	0x116
 4911 0f8c 01       		.byte	0x1
 4912 0f8d 00000000 		.4byte	.LFB76
 4913 0f91 7C010000 		.4byte	.LFE76
 4914 0f95 49030000 		.4byte	.LLST21
 4915 0f99 23100000 		.4byte	0x1023
 4916 0f9d 38       		.uleb128 0x38
 4917 0f9e 6900     		.ascii	"i\000"
 4918 0fa0 01       		.byte	0x1
 4919 0fa1 1801     		.2byte	0x118
 4920 0fa3 45000000 		.4byte	0x45
 4921 0fa7 69030000 		.4byte	.LLST22
 4922 0fab 34       		.uleb128 0x34
 4923 0fac 9D0C0000 		.4byte	0xc9d
ARM GAS  /tmp/cc3rdzJM.s 			page 89


 4924 0fb0 02000000 		.4byte	.LBB144
 4925 0fb4 68010000 		.4byte	.Ldebug_ranges0+0x168
 4926 0fb8 01       		.byte	0x1
 4927 0fb9 1B01     		.2byte	0x11b
 4928 0fbb CC0F0000 		.4byte	0xfcc
 4929 0fbf 31       		.uleb128 0x31
 4930 0fc0 B50C0000 		.4byte	0xcb5
 4931 0fc4 02       		.byte	0x2
 4932 0fc5 31       		.uleb128 0x31
 4933 0fc6 AA0C0000 		.4byte	0xcaa
 4934 0fca 2A       		.byte	0x2a
 4935 0fcb 00       		.byte	0
 4936 0fcc 34       		.uleb128 0x34
 4937 0fcd 8A0E0000 		.4byte	0xe8a
 4938 0fd1 0A000000 		.4byte	.LBB148
 4939 0fd5 88010000 		.4byte	.Ldebug_ranges0+0x188
 4940 0fd9 01       		.byte	0x1
 4941 0fda 1D01     		.2byte	0x11d
 4942 0fdc E70F0000 		.4byte	0xfe7
 4943 0fe0 31       		.uleb128 0x31
 4944 0fe1 970E0000 		.4byte	0xe97
 4945 0fe5 07       		.byte	0x7
 4946 0fe6 00       		.byte	0
 4947 0fe7 35       		.uleb128 0x35
 4948 0fe8 8A0E0000 		.4byte	0xe8a
 4949 0fec 30000000 		.4byte	.LBB156
 4950 0ff0 38000000 		.4byte	.LBE156
 4951 0ff4 01       		.byte	0x1
 4952 0ff5 1F01     		.2byte	0x11f
 4953 0ff7 02100000 		.4byte	0x1002
 4954 0ffb 31       		.uleb128 0x31
 4955 0ffc 970E0000 		.4byte	0xe97
 4956 1000 00       		.byte	0
 4957 1001 00       		.byte	0
 4958 1002 39       		.uleb128 0x39
 4959 1003 9D0C0000 		.4byte	0xc9d
 4960 1007 38000000 		.4byte	.LBB158
 4961 100b A8010000 		.4byte	.Ldebug_ranges0+0x1a8
 4962 100f 01       		.byte	0x1
 4963 1010 2201     		.2byte	0x122
 4964 1012 22       		.uleb128 0x22
 4965 1013 B50C0000 		.4byte	0xcb5
 4966 1017 01040000 		.4byte	.LLST23
 4967 101b 31       		.uleb128 0x31
 4968 101c AA0C0000 		.4byte	0xcaa
 4969 1020 2B       		.byte	0x2b
 4970 1021 00       		.byte	0
 4971 1022 00       		.byte	0
 4972 1023 37       		.uleb128 0x37
 4973 1024 01       		.byte	0x1
 4974 1025 94090000 		.4byte	.LASF208
 4975 1029 01       		.byte	0x1
 4976 102a 2B01     		.2byte	0x12b
 4977 102c 01       		.byte	0x1
 4978 102d 00000000 		.4byte	.LFB77
 4979 1031 D4000000 		.4byte	.LFE77
 4980 1035 99040000 		.4byte	.LLST24
ARM GAS  /tmp/cc3rdzJM.s 			page 90


 4981 1039 C3100000 		.4byte	0x10c3
 4982 103d 38       		.uleb128 0x38
 4983 103e 6900     		.ascii	"i\000"
 4984 1040 01       		.byte	0x1
 4985 1041 2D01     		.2byte	0x12d
 4986 1043 45000000 		.4byte	0x45
 4987 1047 B9040000 		.4byte	.LLST25
 4988 104b 34       		.uleb128 0x34
 4989 104c 9D0C0000 		.4byte	0xc9d
 4990 1050 02000000 		.4byte	.LBB190
 4991 1054 10020000 		.4byte	.Ldebug_ranges0+0x210
 4992 1058 01       		.byte	0x1
 4993 1059 3001     		.2byte	0x130
 4994 105b 6C100000 		.4byte	0x106c
 4995 105f 31       		.uleb128 0x31
 4996 1060 B50C0000 		.4byte	0xcb5
 4997 1064 02       		.byte	0x2
 4998 1065 31       		.uleb128 0x31
 4999 1066 AA0C0000 		.4byte	0xcaa
 5000 106a 3E       		.byte	0x3e
 5001 106b 00       		.byte	0
 5002 106c 34       		.uleb128 0x34
 5003 106d 8A0E0000 		.4byte	0xe8a
 5004 1071 0A000000 		.4byte	.LBB194
 5005 1075 30020000 		.4byte	.Ldebug_ranges0+0x230
 5006 1079 01       		.byte	0x1
 5007 107a 3201     		.2byte	0x132
 5008 107c 87100000 		.4byte	0x1087
 5009 1080 31       		.uleb128 0x31
 5010 1081 970E0000 		.4byte	0xe97
 5011 1085 07       		.byte	0x7
 5012 1086 00       		.byte	0
 5013 1087 34       		.uleb128 0x34
 5014 1088 8A0E0000 		.4byte	0xe8a
 5015 108c 30000000 		.4byte	.LBB202
 5016 1090 50020000 		.4byte	.Ldebug_ranges0+0x250
 5017 1094 01       		.byte	0x1
 5018 1095 3401     		.2byte	0x134
 5019 1097 A2100000 		.4byte	0x10a2
 5020 109b 31       		.uleb128 0x31
 5021 109c 970E0000 		.4byte	0xe97
 5022 10a0 00       		.byte	0
 5023 10a1 00       		.byte	0
 5024 10a2 39       		.uleb128 0x39
 5025 10a3 9D0C0000 		.4byte	0xc9d
 5026 10a7 40000000 		.4byte	.LBB206
 5027 10ab 68020000 		.4byte	.Ldebug_ranges0+0x268
 5028 10af 01       		.byte	0x1
 5029 10b0 3701     		.2byte	0x137
 5030 10b2 22       		.uleb128 0x22
 5031 10b3 B50C0000 		.4byte	0xcb5
 5032 10b7 21050000 		.4byte	.LLST26
 5033 10bb 31       		.uleb128 0x31
 5034 10bc AA0C0000 		.4byte	0xcaa
 5035 10c0 3F       		.byte	0x3f
 5036 10c1 00       		.byte	0
 5037 10c2 00       		.byte	0
ARM GAS  /tmp/cc3rdzJM.s 			page 91


 5038 10c3 37       		.uleb128 0x37
 5039 10c4 01       		.byte	0x1
 5040 10c5 A7080000 		.4byte	.LASF209
 5041 10c9 01       		.byte	0x1
 5042 10ca 4001     		.2byte	0x140
 5043 10cc 01       		.byte	0x1
 5044 10cd 00000000 		.4byte	.LFB78
 5045 10d1 56010000 		.4byte	.LFE78
 5046 10d5 89050000 		.4byte	.LLST27
 5047 10d9 80120000 		.4byte	0x1280
 5048 10dd 3A       		.uleb128 0x3a
 5049 10de 08030000 		.4byte	.LASF210
 5050 10e2 01       		.byte	0x1
 5051 10e3 4001     		.2byte	0x140
 5052 10e5 45000000 		.4byte	0x45
 5053 10e9 A9050000 		.4byte	.LLST28
 5054 10ed 3B       		.uleb128 0x3b
 5055 10ee 73020000 		.4byte	.LASF212
 5056 10f2 01       		.byte	0x1
 5057 10f3 4201     		.2byte	0x142
 5058 10f5 45000000 		.4byte	0x45
 5059 10f9 34       		.uleb128 0x34
 5060 10fa 8A0E0000 		.4byte	0xe8a
 5061 10fe 02000000 		.4byte	.LBB246
 5062 1102 B0020000 		.4byte	.Ldebug_ranges0+0x2b0
 5063 1106 01       		.byte	0x1
 5064 1107 4401     		.2byte	0x144
 5065 1109 14110000 		.4byte	0x1114
 5066 110d 31       		.uleb128 0x31
 5067 110e 970E0000 		.4byte	0xe97
 5068 1112 07       		.byte	0x7
 5069 1113 00       		.byte	0
 5070 1114 35       		.uleb128 0x35
 5071 1115 9D0C0000 		.4byte	0xc9d
 5072 1119 2C000000 		.4byte	.LBB252
 5073 111d 3C000000 		.4byte	.LBE252
 5074 1121 01       		.byte	0x1
 5075 1122 4501     		.2byte	0x145
 5076 1124 36110000 		.4byte	0x1136
 5077 1128 31       		.uleb128 0x31
 5078 1129 B50C0000 		.4byte	0xcb5
 5079 112d 10       		.byte	0x10
 5080 112e 3C       		.uleb128 0x3c
 5081 112f AA0C0000 		.4byte	0xcaa
 5082 1133 01       		.byte	0x1
 5083 1134 57       		.byte	0x57
 5084 1135 00       		.byte	0
 5085 1136 35       		.uleb128 0x35
 5086 1137 9D0C0000 		.4byte	0xc9d
 5087 113b 48000000 		.4byte	.LBB254
 5088 113f 58000000 		.4byte	.LBE254
 5089 1143 01       		.byte	0x1
 5090 1144 4701     		.2byte	0x147
 5091 1146 58110000 		.4byte	0x1158
 5092 114a 31       		.uleb128 0x31
 5093 114b B50C0000 		.4byte	0xcb5
 5094 114f 10       		.byte	0x10
ARM GAS  /tmp/cc3rdzJM.s 			page 92


 5095 1150 3C       		.uleb128 0x3c
 5096 1151 AA0C0000 		.4byte	0xcaa
 5097 1155 01       		.byte	0x1
 5098 1156 56       		.byte	0x56
 5099 1157 00       		.byte	0
 5100 1158 35       		.uleb128 0x35
 5101 1159 9D0C0000 		.4byte	0xc9d
 5102 115d 64000000 		.4byte	.LBB256
 5103 1161 74000000 		.4byte	.LBE256
 5104 1165 01       		.byte	0x1
 5105 1166 4901     		.2byte	0x149
 5106 1168 7A110000 		.4byte	0x117a
 5107 116c 31       		.uleb128 0x31
 5108 116d B50C0000 		.4byte	0xcb5
 5109 1171 13       		.byte	0x13
 5110 1172 3C       		.uleb128 0x3c
 5111 1173 AA0C0000 		.4byte	0xcaa
 5112 1177 01       		.byte	0x1
 5113 1178 56       		.byte	0x56
 5114 1179 00       		.byte	0
 5115 117a 35       		.uleb128 0x35
 5116 117b 9D0C0000 		.4byte	0xc9d
 5117 117f 80000000 		.4byte	.LBB258
 5118 1183 90000000 		.4byte	.LBE258
 5119 1187 01       		.byte	0x1
 5120 1188 4C01     		.2byte	0x14c
 5121 118a 9C110000 		.4byte	0x119c
 5122 118e 31       		.uleb128 0x31
 5123 118f B50C0000 		.4byte	0xcb5
 5124 1193 11       		.byte	0x11
 5125 1194 3C       		.uleb128 0x3c
 5126 1195 AA0C0000 		.4byte	0xcaa
 5127 1199 01       		.byte	0x1
 5128 119a 54       		.byte	0x54
 5129 119b 00       		.byte	0
 5130 119c 35       		.uleb128 0x35
 5131 119d 9D0C0000 		.4byte	0xc9d
 5132 11a1 9C000000 		.4byte	.LBB260
 5133 11a5 AC000000 		.4byte	.LBE260
 5134 11a9 01       		.byte	0x1
 5135 11aa 4E01     		.2byte	0x14e
 5136 11ac BE110000 		.4byte	0x11be
 5137 11b0 31       		.uleb128 0x31
 5138 11b1 B50C0000 		.4byte	0xcb5
 5139 11b5 12       		.byte	0x12
 5140 11b6 3C       		.uleb128 0x3c
 5141 11b7 AA0C0000 		.4byte	0xcaa
 5142 11bb 01       		.byte	0x1
 5143 11bc 54       		.byte	0x54
 5144 11bd 00       		.byte	0
 5145 11be 35       		.uleb128 0x35
 5146 11bf 9D0C0000 		.4byte	0xc9d
 5147 11c3 B8000000 		.4byte	.LBB262
 5148 11c7 C8000000 		.4byte	.LBE262
 5149 11cb 01       		.byte	0x1
 5150 11cc 5001     		.2byte	0x150
 5151 11ce E0110000 		.4byte	0x11e0
ARM GAS  /tmp/cc3rdzJM.s 			page 93


 5152 11d2 31       		.uleb128 0x31
 5153 11d3 B50C0000 		.4byte	0xcb5
 5154 11d7 13       		.byte	0x13
 5155 11d8 3C       		.uleb128 0x3c
 5156 11d9 AA0C0000 		.4byte	0xcaa
 5157 11dd 01       		.byte	0x1
 5158 11de 54       		.byte	0x54
 5159 11df 00       		.byte	0
 5160 11e0 35       		.uleb128 0x35
 5161 11e1 9D0C0000 		.4byte	0xc9d
 5162 11e5 D4000000 		.4byte	.LBB264
 5163 11e9 E4000000 		.4byte	.LBE264
 5164 11ed 01       		.byte	0x1
 5165 11ee 5201     		.2byte	0x152
 5166 11f0 02120000 		.4byte	0x1202
 5167 11f4 31       		.uleb128 0x31
 5168 11f5 B50C0000 		.4byte	0xcb5
 5169 11f9 14       		.byte	0x14
 5170 11fa 3C       		.uleb128 0x3c
 5171 11fb AA0C0000 		.4byte	0xcaa
 5172 11ff 01       		.byte	0x1
 5173 1200 54       		.byte	0x54
 5174 1201 00       		.byte	0
 5175 1202 35       		.uleb128 0x35
 5176 1203 9D0C0000 		.4byte	0xc9d
 5177 1207 F0000000 		.4byte	.LBB266
 5178 120b 00010000 		.4byte	.LBE266
 5179 120f 01       		.byte	0x1
 5180 1210 5501     		.2byte	0x155
 5181 1212 24120000 		.4byte	0x1224
 5182 1216 31       		.uleb128 0x31
 5183 1217 B50C0000 		.4byte	0xcb5
 5184 121b 11       		.byte	0x11
 5185 121c 3C       		.uleb128 0x3c
 5186 121d AA0C0000 		.4byte	0xcaa
 5187 1221 01       		.byte	0x1
 5188 1222 55       		.byte	0x55
 5189 1223 00       		.byte	0
 5190 1224 35       		.uleb128 0x35
 5191 1225 9D0C0000 		.4byte	0xc9d
 5192 1229 0C010000 		.4byte	.LBB268
 5193 122d 1C010000 		.4byte	.LBE268
 5194 1231 01       		.byte	0x1
 5195 1232 5701     		.2byte	0x157
 5196 1234 46120000 		.4byte	0x1246
 5197 1238 31       		.uleb128 0x31
 5198 1239 B50C0000 		.4byte	0xcb5
 5199 123d 12       		.byte	0x12
 5200 123e 3C       		.uleb128 0x3c
 5201 123f AA0C0000 		.4byte	0xcaa
 5202 1243 01       		.byte	0x1
 5203 1244 55       		.byte	0x55
 5204 1245 00       		.byte	0
 5205 1246 35       		.uleb128 0x35
 5206 1247 9D0C0000 		.4byte	0xc9d
 5207 124b 28010000 		.4byte	.LBB270
 5208 124f 38010000 		.4byte	.LBE270
ARM GAS  /tmp/cc3rdzJM.s 			page 94


 5209 1253 01       		.byte	0x1
 5210 1254 5901     		.2byte	0x159
 5211 1256 68120000 		.4byte	0x1268
 5212 125a 31       		.uleb128 0x31
 5213 125b B50C0000 		.4byte	0xcb5
 5214 125f 14       		.byte	0x14
 5215 1260 3C       		.uleb128 0x3c
 5216 1261 AA0C0000 		.4byte	0xcaa
 5217 1265 01       		.byte	0x1
 5218 1266 55       		.byte	0x55
 5219 1267 00       		.byte	0
 5220 1268 39       		.uleb128 0x39
 5221 1269 8A0E0000 		.4byte	0xe8a
 5222 126d 44010000 		.4byte	.LBB272
 5223 1271 D0020000 		.4byte	.Ldebug_ranges0+0x2d0
 5224 1275 01       		.byte	0x1
 5225 1276 5B01     		.2byte	0x15b
 5226 1278 31       		.uleb128 0x31
 5227 1279 970E0000 		.4byte	0xe97
 5228 127d 00       		.byte	0
 5229 127e 00       		.byte	0
 5230 127f 00       		.byte	0
 5231 1280 37       		.uleb128 0x37
 5232 1281 01       		.byte	0x1
 5233 1282 CD070000 		.4byte	.LASF213
 5234 1286 01       		.byte	0x1
 5235 1287 6701     		.2byte	0x167
 5236 1289 01       		.byte	0x1
 5237 128a 00000000 		.4byte	.LFB79
 5238 128e E0000000 		.4byte	.LFE79
 5239 1292 BC050000 		.4byte	.LLST29
 5240 1296 28130000 		.4byte	0x1328
 5241 129a 3D       		.uleb128 0x3d
 5242 129b 6D00     		.ascii	"m\000"
 5243 129d 01       		.byte	0x1
 5244 129e 6701     		.2byte	0x167
 5245 12a0 45000000 		.4byte	0x45
 5246 12a4 E9050000 		.4byte	.LLST30
 5247 12a8 38       		.uleb128 0x38
 5248 12a9 696400   		.ascii	"id\000"
 5249 12ac 01       		.byte	0x1
 5250 12ad 6901     		.2byte	0x169
 5251 12af 45000000 		.4byte	0x45
 5252 12b3 07060000 		.4byte	.LLST31
 5253 12b7 3E       		.uleb128 0x3e
 5254 12b8 19030000 		.4byte	.LASF214
 5255 12bc 01       		.byte	0x1
 5256 12bd 6A01     		.2byte	0x16a
 5257 12bf 45000000 		.4byte	0x45
 5258 12c3 42060000 		.4byte	.LLST32
 5259 12c7 38       		.uleb128 0x38
 5260 12c8 656E6300 		.ascii	"enc\000"
 5261 12cc 01       		.byte	0x1
 5262 12cd 6B01     		.2byte	0x16b
 5263 12cf 61000000 		.4byte	0x61
 5264 12d3 6C060000 		.4byte	.LLST33
 5265 12d7 3F       		.uleb128 0x3f
ARM GAS  /tmp/cc3rdzJM.s 			page 95


 5266 12d8 72706D00 		.ascii	"rpm\000"
 5267 12dc 01       		.byte	0x1
 5268 12dd 6C01     		.2byte	0x16c
 5269 12df 45000000 		.4byte	0x45
 5270 12e3 3B       		.uleb128 0x3b
 5271 12e4 28020000 		.4byte	.LASF215
 5272 12e8 01       		.byte	0x1
 5273 12e9 6D01     		.2byte	0x16d
 5274 12eb 28130000 		.4byte	0x1328
 5275 12ef 3B       		.uleb128 0x3b
 5276 12f0 47070000 		.4byte	.LASF216
 5277 12f4 01       		.byte	0x1
 5278 12f5 6E01     		.2byte	0x16e
 5279 12f7 28130000 		.4byte	0x1328
 5280 12fb 3F       		.uleb128 0x3f
 5281 12fc 72657600 		.ascii	"rev\000"
 5282 1300 01       		.byte	0x1
 5283 1301 6F01     		.2byte	0x16f
 5284 1303 77000000 		.4byte	0x77
 5285 1307 36       		.uleb128 0x36
 5286 1308 9D0C0000 		.4byte	0xc9d
 5287 130c 40000000 		.4byte	.LBB278
 5288 1310 52000000 		.4byte	.LBE278
 5289 1314 01       		.byte	0x1
 5290 1315 7101     		.2byte	0x171
 5291 1317 3C       		.uleb128 0x3c
 5292 1318 B50C0000 		.4byte	0xcb5
 5293 131c 03       		.byte	0x3
 5294 131d 7B       		.byte	0x7b
 5295 131e 03       		.sleb128 3
 5296 131f 9F       		.byte	0x9f
 5297 1320 31       		.uleb128 0x31
 5298 1321 AA0C0000 		.4byte	0xcaa
 5299 1325 07       		.byte	0x7
 5300 1326 00       		.byte	0
 5301 1327 00       		.byte	0
 5302 1328 02       		.uleb128 0x2
 5303 1329 08       		.byte	0x8
 5304 132a 04       		.byte	0x4
 5305 132b 98030000 		.4byte	.LASF217
 5306 132f 37       		.uleb128 0x37
 5307 1330 01       		.byte	0x1
 5308 1331 4C070000 		.4byte	.LASF218
 5309 1335 01       		.byte	0x1
 5310 1336 8701     		.2byte	0x187
 5311 1338 01       		.byte	0x1
 5312 1339 00000000 		.4byte	.LFB80
 5313 133d 52000000 		.4byte	.LFE80
 5314 1341 8A060000 		.4byte	.LLST34
 5315 1345 90130000 		.4byte	0x1390
 5316 1349 3D       		.uleb128 0x3d
 5317 134a 7000     		.ascii	"p\000"
 5318 134c 01       		.byte	0x1
 5319 134d 8701     		.2byte	0x187
 5320 134f 45000000 		.4byte	0x45
 5321 1353 B6060000 		.4byte	.LLST35
 5322 1357 3B       		.uleb128 0x3b
ARM GAS  /tmp/cc3rdzJM.s 			page 96


 5323 1358 28020000 		.4byte	.LASF215
 5324 135c 01       		.byte	0x1
 5325 135d 8901     		.2byte	0x189
 5326 135f 28130000 		.4byte	0x1328
 5327 1363 3B       		.uleb128 0x3b
 5328 1364 47070000 		.4byte	.LASF216
 5329 1368 01       		.byte	0x1
 5330 1369 8A01     		.2byte	0x18a
 5331 136b 28130000 		.4byte	0x1328
 5332 136f 36       		.uleb128 0x36
 5333 1370 9D0C0000 		.4byte	0xc9d
 5334 1374 18000000 		.4byte	.LBB282
 5335 1378 2A000000 		.4byte	.LBE282
 5336 137c 01       		.byte	0x1
 5337 137d 8C01     		.2byte	0x18c
 5338 137f 22       		.uleb128 0x22
 5339 1380 B50C0000 		.4byte	0xcb5
 5340 1384 D4060000 		.4byte	.LLST36
 5341 1388 31       		.uleb128 0x31
 5342 1389 AA0C0000 		.4byte	0xcaa
 5343 138d 1D       		.byte	0x1d
 5344 138e 00       		.byte	0
 5345 138f 00       		.byte	0
 5346 1390 37       		.uleb128 0x37
 5347 1391 01       		.byte	0x1
 5348 1392 8A000000 		.4byte	.LASF219
 5349 1396 01       		.byte	0x1
 5350 1397 9501     		.2byte	0x195
 5351 1399 01       		.byte	0x1
 5352 139a 00000000 		.4byte	.LFB81
 5353 139e 98000000 		.4byte	.LFE81
 5354 13a2 E9060000 		.4byte	.LLST37
 5355 13a6 EB130000 		.4byte	0x13eb
 5356 13aa 3D       		.uleb128 0x3d
 5357 13ab 70696E00 		.ascii	"pin\000"
 5358 13af 01       		.byte	0x1
 5359 13b0 9501     		.2byte	0x195
 5360 13b2 45000000 		.4byte	0x45
 5361 13b6 09070000 		.4byte	.LLST38
 5362 13ba 3E       		.uleb128 0x3e
 5363 13bb 6A080000 		.4byte	.LASF220
 5364 13bf 01       		.byte	0x1
 5365 13c0 9701     		.2byte	0x197
 5366 13c2 D3090000 		.4byte	0x9d3
 5367 13c6 1C070000 		.4byte	.LLST39
 5368 13ca 39       		.uleb128 0x39
 5369 13cb 9D0C0000 		.4byte	0xc9d
 5370 13cf 04000000 		.4byte	.LBB286
 5371 13d3 E8020000 		.4byte	.Ldebug_ranges0+0x2e8
 5372 13d7 01       		.byte	0x1
 5373 13d8 9901     		.2byte	0x199
 5374 13da 22       		.uleb128 0x22
 5375 13db B50C0000 		.4byte	0xcb5
 5376 13df 2F070000 		.4byte	.LLST40
 5377 13e3 31       		.uleb128 0x31
 5378 13e4 AA0C0000 		.4byte	0xcaa
 5379 13e8 35       		.byte	0x35
ARM GAS  /tmp/cc3rdzJM.s 			page 97


 5380 13e9 00       		.byte	0
 5381 13ea 00       		.byte	0
 5382 13eb 37       		.uleb128 0x37
 5383 13ec 01       		.byte	0x1
 5384 13ed B2050000 		.4byte	.LASF221
 5385 13f1 01       		.byte	0x1
 5386 13f2 BF01     		.2byte	0x1bf
 5387 13f4 01       		.byte	0x1
 5388 13f5 00000000 		.4byte	.LFB82
 5389 13f9 2C000000 		.4byte	.LFE82
 5390 13fd 5C070000 		.4byte	.LLST41
 5391 1401 36140000 		.4byte	0x1436
 5392 1405 3D       		.uleb128 0x3d
 5393 1406 70696E00 		.ascii	"pin\000"
 5394 140a 01       		.byte	0x1
 5395 140b BF01     		.2byte	0x1bf
 5396 140d 45000000 		.4byte	0x45
 5397 1411 7C070000 		.4byte	.LLST42
 5398 1415 36       		.uleb128 0x36
 5399 1416 9D0C0000 		.4byte	0xc9d
 5400 141a 04000000 		.4byte	.LBB292
 5401 141e 14000000 		.4byte	.LBE292
 5402 1422 01       		.byte	0x1
 5403 1423 C101     		.2byte	0x1c1
 5404 1425 22       		.uleb128 0x22
 5405 1426 B50C0000 		.4byte	0xcb5
 5406 142a 8F070000 		.4byte	.LLST43
 5407 142e 31       		.uleb128 0x31
 5408 142f AA0C0000 		.4byte	0xcaa
 5409 1433 49       		.byte	0x49
 5410 1434 00       		.byte	0
 5411 1435 00       		.byte	0
 5412 1436 37       		.uleb128 0x37
 5413 1437 01       		.byte	0x1
 5414 1438 A5020000 		.4byte	.LASF222
 5415 143c 01       		.byte	0x1
 5416 143d CA01     		.2byte	0x1ca
 5417 143f 01       		.byte	0x1
 5418 1440 00000000 		.4byte	.LFB83
 5419 1444 C8000000 		.4byte	.LFE83
 5420 1448 B1070000 		.4byte	.LLST44
 5421 144c B3140000 		.4byte	0x14b3
 5422 1450 40       		.uleb128 0x40
 5423 1451 2E060000 		.4byte	.LASF223
 5424 1455 01       		.byte	0x1
 5425 1456 CC01     		.2byte	0x1cc
 5426 1458 61000000 		.4byte	0x61
 5427 145c 01       		.byte	0x1
 5428 145d 54       		.byte	0x54
 5429 145e 3E       		.uleb128 0x3e
 5430 145f 9D070000 		.4byte	.LASF224
 5431 1463 01       		.byte	0x1
 5432 1464 CD01     		.2byte	0x1cd
 5433 1466 45000000 		.4byte	0x45
 5434 146a D1070000 		.4byte	.LLST45
 5435 146e 3E       		.uleb128 0x3e
 5436 146f 8D040000 		.4byte	.LASF225
ARM GAS  /tmp/cc3rdzJM.s 			page 98


 5437 1473 01       		.byte	0x1
 5438 1474 CD01     		.2byte	0x1cd
 5439 1476 45000000 		.4byte	0x45
 5440 147a E4070000 		.4byte	.LLST46
 5441 147e 40       		.uleb128 0x40
 5442 147f 1E050000 		.4byte	.LASF226
 5443 1483 01       		.byte	0x1
 5444 1484 CD01     		.2byte	0x1cd
 5445 1486 45000000 		.4byte	0x45
 5446 148a 0A       		.byte	0xa
 5447 148b 74       		.byte	0x74
 5448 148c 00       		.sleb128 0
 5449 148d 08       		.byte	0x8
 5450 148e 3C       		.byte	0x3c
 5451 148f 14       		.byte	0x14
 5452 1490 14       		.byte	0x14
 5453 1491 1B       		.byte	0x1b
 5454 1492 1E       		.byte	0x1e
 5455 1493 1C       		.byte	0x1c
 5456 1494 9F       		.byte	0x9f
 5457 1495 36       		.uleb128 0x36
 5458 1496 9D0C0000 		.4byte	0xc9d
 5459 149a 18000000 		.4byte	.LBB296
 5460 149e 28000000 		.4byte	.LBE296
 5461 14a2 01       		.byte	0x1
 5462 14a3 CF01     		.2byte	0x1cf
 5463 14a5 31       		.uleb128 0x31
 5464 14a6 B50C0000 		.4byte	0xcb5
 5465 14aa 17       		.byte	0x17
 5466 14ab 31       		.uleb128 0x31
 5467 14ac AA0C0000 		.4byte	0xcaa
 5468 14b0 03       		.byte	0x3
 5469 14b1 00       		.byte	0
 5470 14b2 00       		.byte	0
 5471 14b3 37       		.uleb128 0x37
 5472 14b4 01       		.byte	0x1
 5473 14b5 54050000 		.4byte	.LASF227
 5474 14b9 01       		.byte	0x1
 5475 14ba E401     		.2byte	0x1e4
 5476 14bc 01       		.byte	0x1
 5477 14bd 00000000 		.4byte	.LFB84
 5478 14c1 54000000 		.4byte	.LFE84
 5479 14c5 03080000 		.4byte	.LLST47
 5480 14c9 5A150000 		.4byte	0x155a
 5481 14cd 3A       		.uleb128 0x3a
 5482 14ce 08030000 		.4byte	.LASF210
 5483 14d2 01       		.byte	0x1
 5484 14d3 E401     		.2byte	0x1e4
 5485 14d5 45000000 		.4byte	0x45
 5486 14d9 23080000 		.4byte	.LLST48
 5487 14dd 3D       		.uleb128 0x3d
 5488 14de 726F7700 		.ascii	"row\000"
 5489 14e2 01       		.byte	0x1
 5490 14e3 E401     		.2byte	0x1e4
 5491 14e5 45000000 		.4byte	0x45
 5492 14e9 36080000 		.4byte	.LLST49
 5493 14ed 3D       		.uleb128 0x3d
ARM GAS  /tmp/cc3rdzJM.s 			page 99


 5494 14ee 757000   		.ascii	"up\000"
 5495 14f1 01       		.byte	0x1
 5496 14f2 E401     		.2byte	0x1e4
 5497 14f4 45000000 		.4byte	0x45
 5498 14f8 56080000 		.4byte	.LLST50
 5499 14fc 3A       		.uleb128 0x3a
 5500 14fd E3010000 		.4byte	.LASF228
 5501 1501 01       		.byte	0x1
 5502 1502 E401     		.2byte	0x1e4
 5503 1504 45000000 		.4byte	0x45
 5504 1508 74080000 		.4byte	.LLST51
 5505 150c 41       		.uleb128 0x41
 5506 150d 98070000 		.4byte	.LASF229
 5507 1511 01       		.byte	0x1
 5508 1512 E401     		.2byte	0x1e4
 5509 1514 45000000 		.4byte	0x45
 5510 1518 02       		.byte	0x2
 5511 1519 91       		.byte	0x91
 5512 151a 00       		.sleb128 0
 5513 151b 41       		.uleb128 0x41
 5514 151c 29050000 		.4byte	.LASF230
 5515 1520 01       		.byte	0x1
 5516 1521 E401     		.2byte	0x1e4
 5517 1523 45000000 		.4byte	0x45
 5518 1527 02       		.byte	0x2
 5519 1528 91       		.byte	0x91
 5520 1529 04       		.sleb128 4
 5521 152a 3B       		.uleb128 0x3b
 5522 152b 73020000 		.4byte	.LASF212
 5523 152f 01       		.byte	0x1
 5524 1530 E601     		.2byte	0x1e6
 5525 1532 45000000 		.4byte	0x45
 5526 1536 39       		.uleb128 0x39
 5527 1537 9D0C0000 		.4byte	0xc9d
 5528 153b 0E000000 		.4byte	.LBB300
 5529 153f 00030000 		.4byte	.Ldebug_ranges0+0x300
 5530 1543 01       		.byte	0x1
 5531 1544 E801     		.2byte	0x1e8
 5532 1546 22       		.uleb128 0x22
 5533 1547 B50C0000 		.4byte	0xcb5
 5534 154b 92080000 		.4byte	.LLST52
 5535 154f 22       		.uleb128 0x22
 5536 1550 AA0C0000 		.4byte	0xcaa
 5537 1554 B2080000 		.4byte	.LLST53
 5538 1558 00       		.byte	0
 5539 1559 00       		.byte	0
 5540 155a 37       		.uleb128 0x37
 5541 155b 01       		.byte	0x1
 5542 155c BE020000 		.4byte	.LASF231
 5543 1560 01       		.byte	0x1
 5544 1561 F701     		.2byte	0x1f7
 5545 1563 01       		.byte	0x1
 5546 1564 00000000 		.4byte	.LFB85
 5547 1568 32000000 		.4byte	.LFE85
 5548 156c D0080000 		.4byte	.LLST54
 5549 1570 E0150000 		.4byte	0x15e0
 5550 1574 3A       		.uleb128 0x3a
ARM GAS  /tmp/cc3rdzJM.s 			page 100


 5551 1575 08030000 		.4byte	.LASF210
 5552 1579 01       		.byte	0x1
 5553 157a F701     		.2byte	0x1f7
 5554 157c 45000000 		.4byte	0x45
 5555 1580 F0080000 		.4byte	.LLST55
 5556 1584 3D       		.uleb128 0x3d
 5557 1585 726F7700 		.ascii	"row\000"
 5558 1589 01       		.byte	0x1
 5559 158a F701     		.2byte	0x1f7
 5560 158c 45000000 		.4byte	0x45
 5561 1590 03090000 		.4byte	.LLST56
 5562 1594 3D       		.uleb128 0x3d
 5563 1595 6800     		.ascii	"h\000"
 5564 1597 01       		.byte	0x1
 5565 1598 F701     		.2byte	0x1f7
 5566 159a 45000000 		.4byte	0x45
 5567 159e 16090000 		.4byte	.LLST57
 5568 15a2 3D       		.uleb128 0x3d
 5569 15a3 7600     		.ascii	"v\000"
 5570 15a5 01       		.byte	0x1
 5571 15a6 F701     		.2byte	0x1f7
 5572 15a8 45000000 		.4byte	0x45
 5573 15ac 34090000 		.4byte	.LLST58
 5574 15b0 3B       		.uleb128 0x3b
 5575 15b1 73020000 		.4byte	.LASF212
 5576 15b5 01       		.byte	0x1
 5577 15b6 F901     		.2byte	0x1f9
 5578 15b8 45000000 		.4byte	0x45
 5579 15bc 39       		.uleb128 0x39
 5580 15bd 9D0C0000 		.4byte	0xc9d
 5581 15c1 0A000000 		.4byte	.LBB308
 5582 15c5 20030000 		.4byte	.Ldebug_ranges0+0x320
 5583 15c9 01       		.byte	0x1
 5584 15ca FB01     		.2byte	0x1fb
 5585 15cc 22       		.uleb128 0x22
 5586 15cd B50C0000 		.4byte	0xcb5
 5587 15d1 52090000 		.4byte	.LLST59
 5588 15d5 22       		.uleb128 0x22
 5589 15d6 AA0C0000 		.4byte	0xcaa
 5590 15da 72090000 		.4byte	.LLST60
 5591 15de 00       		.byte	0
 5592 15df 00       		.byte	0
 5593 15e0 37       		.uleb128 0x37
 5594 15e1 01       		.byte	0x1
 5595 15e2 8D030000 		.4byte	.LASF232
 5596 15e6 01       		.byte	0x1
 5597 15e7 0402     		.2byte	0x204
 5598 15e9 01       		.byte	0x1
 5599 15ea 00000000 		.4byte	.LFB86
 5600 15ee 5C000000 		.4byte	.LFE86
 5601 15f2 90090000 		.4byte	.LLST61
 5602 15f6 3B160000 		.4byte	0x163b
 5603 15fa 42       		.uleb128 0x42
 5604 15fb BC0B0000 		.4byte	0xbbc
 5605 15ff 00000000 		.4byte	.LBB314
 5606 1603 40030000 		.4byte	.Ldebug_ranges0+0x340
 5607 1607 01       		.byte	0x1
ARM GAS  /tmp/cc3rdzJM.s 			page 101


 5608 1608 0702     		.2byte	0x207
 5609 160a 43       		.uleb128 0x43
 5610 160b C50B0000 		.4byte	0xbc5
 5611 160f 0E000000 		.4byte	.LBB318
 5612 1613 1A000000 		.4byte	.LBE318
 5613 1617 01       		.byte	0x1
 5614 1618 0902     		.2byte	0x209
 5615 161a 43       		.uleb128 0x43
 5616 161b CE0B0000 		.4byte	0xbce
 5617 161f 1A000000 		.4byte	.LBB320
 5618 1623 26000000 		.4byte	.LBE320
 5619 1627 01       		.byte	0x1
 5620 1628 0C02     		.2byte	0x20c
 5621 162a 43       		.uleb128 0x43
 5622 162b D70B0000 		.4byte	0xbd7
 5623 162f 2A000000 		.4byte	.LBB322
 5624 1633 36000000 		.4byte	.LBE322
 5625 1637 01       		.byte	0x1
 5626 1638 1102     		.2byte	0x211
 5627 163a 00       		.byte	0
 5628 163b 37       		.uleb128 0x37
 5629 163c 01       		.byte	0x1
 5630 163d E8030000 		.4byte	.LASF233
 5631 1641 01       		.byte	0x1
 5632 1642 1F02     		.2byte	0x21f
 5633 1644 01       		.byte	0x1
 5634 1645 00000000 		.4byte	.LFB87
 5635 1649 3A000000 		.4byte	.LFE87
 5636 164d B0090000 		.4byte	.LLST62
 5637 1651 A7160000 		.4byte	0x16a7
 5638 1655 34       		.uleb128 0x34
 5639 1656 9D0C0000 		.4byte	0xc9d
 5640 165a 00000000 		.4byte	.LBB332
 5641 165e 58030000 		.4byte	.Ldebug_ranges0+0x358
 5642 1662 01       		.byte	0x1
 5643 1663 2102     		.2byte	0x221
 5644 1665 76160000 		.4byte	0x1676
 5645 1669 31       		.uleb128 0x31
 5646 166a B50C0000 		.4byte	0xcb5
 5647 166e 18       		.byte	0x18
 5648 166f 31       		.uleb128 0x31
 5649 1670 AA0C0000 		.4byte	0xcaa
 5650 1674 01       		.byte	0x1
 5651 1675 00       		.byte	0
 5652 1676 43       		.uleb128 0x43
 5653 1677 BC0B0000 		.4byte	0xbbc
 5654 167b 12000000 		.4byte	.LBB336
 5655 167f 1E000000 		.4byte	.LBE336
 5656 1683 01       		.byte	0x1
 5657 1684 2302     		.2byte	0x223
 5658 1686 43       		.uleb128 0x43
 5659 1687 E00B0000 		.4byte	0xbe0
 5660 168b 1E000000 		.4byte	.LBB338
 5661 168f 2A000000 		.4byte	.LBE338
 5662 1693 01       		.byte	0x1
 5663 1694 2502     		.2byte	0x225
 5664 1696 42       		.uleb128 0x42
ARM GAS  /tmp/cc3rdzJM.s 			page 102


 5665 1697 D70B0000 		.4byte	0xbd7
 5666 169b 2A000000 		.4byte	.LBB340
 5667 169f 70030000 		.4byte	.Ldebug_ranges0+0x370
 5668 16a3 01       		.byte	0x1
 5669 16a4 2702     		.2byte	0x227
 5670 16a6 00       		.byte	0
 5671 16a7 37       		.uleb128 0x37
 5672 16a8 01       		.byte	0x1
 5673 16a9 A0050000 		.4byte	.LASF234
 5674 16ad 01       		.byte	0x1
 5675 16ae 2E02     		.2byte	0x22e
 5676 16b0 01       		.byte	0x1
 5677 16b1 00000000 		.4byte	.LFB88
 5678 16b5 B6020000 		.4byte	.LFE88
 5679 16b9 D0090000 		.4byte	.LLST63
 5680 16bd ED160000 		.4byte	0x16ed
 5681 16c1 38       		.uleb128 0x38
 5682 16c2 6900     		.ascii	"i\000"
 5683 16c4 01       		.byte	0x1
 5684 16c5 3002     		.2byte	0x230
 5685 16c7 45000000 		.4byte	0x45
 5686 16cb FC090000 		.4byte	.LLST64
 5687 16cf 39       		.uleb128 0x39
 5688 16d0 9D0C0000 		.4byte	0xc9d
 5689 16d4 A0020000 		.4byte	.LBB346
 5690 16d8 88030000 		.4byte	.Ldebug_ranges0+0x388
 5691 16dc 01       		.byte	0x1
 5692 16dd 5902     		.2byte	0x259
 5693 16df 31       		.uleb128 0x31
 5694 16e0 B50C0000 		.4byte	0xcb5
 5695 16e4 18       		.byte	0x18
 5696 16e5 31       		.uleb128 0x31
 5697 16e6 AA0C0000 		.4byte	0xcaa
 5698 16ea 50       		.byte	0x50
 5699 16eb 00       		.byte	0
 5700 16ec 00       		.byte	0
 5701 16ed 44       		.uleb128 0x44
 5702 16ee 2A010000 		.4byte	.LASF235
 5703 16f2 0A       		.byte	0xa
 5704 16f3 F5       		.byte	0xf5
 5705 16f4 65040000 		.4byte	0x465
 5706 16f8 01       		.byte	0x1
 5707 16f9 01       		.byte	0x1
 5708 16fa 45       		.uleb128 0x45
 5709 16fb 3A070000 		.4byte	.LASF236
 5710 16ff 13       		.byte	0x13
 5711 1700 0706     		.2byte	0x607
 5712 1702 B7060000 		.4byte	0x6b7
 5713 1706 01       		.byte	0x1
 5714 1707 01       		.byte	0x1
 5715 1708 46       		.uleb128 0x46
 5716 1709 53443100 		.ascii	"SD1\000"
 5717 170d 14       		.byte	0x14
 5718 170e 0F01     		.2byte	0x10f
 5719 1710 4D080000 		.4byte	0x84d
 5720 1714 01       		.byte	0x1
 5721 1715 01       		.byte	0x1
ARM GAS  /tmp/cc3rdzJM.s 			page 103


 5722 1716 00       		.byte	0
 5723              		.section	.debug_abbrev,"",%progbits
 5724              	.Ldebug_abbrev0:
 5725 0000 01       		.uleb128 0x1
 5726 0001 11       		.uleb128 0x11
 5727 0002 01       		.byte	0x1
 5728 0003 25       		.uleb128 0x25
 5729 0004 0E       		.uleb128 0xe
 5730 0005 13       		.uleb128 0x13
 5731 0006 0B       		.uleb128 0xb
 5732 0007 03       		.uleb128 0x3
 5733 0008 0E       		.uleb128 0xe
 5734 0009 1B       		.uleb128 0x1b
 5735 000a 0E       		.uleb128 0xe
 5736 000b 11       		.uleb128 0x11
 5737 000c 01       		.uleb128 0x1
 5738 000d 52       		.uleb128 0x52
 5739 000e 01       		.uleb128 0x1
 5740 000f 55       		.uleb128 0x55
 5741 0010 06       		.uleb128 0x6
 5742 0011 10       		.uleb128 0x10
 5743 0012 06       		.uleb128 0x6
 5744 0013 00       		.byte	0
 5745 0014 00       		.byte	0
 5746 0015 02       		.uleb128 0x2
 5747 0016 24       		.uleb128 0x24
 5748 0017 00       		.byte	0
 5749 0018 0B       		.uleb128 0xb
 5750 0019 0B       		.uleb128 0xb
 5751 001a 3E       		.uleb128 0x3e
 5752 001b 0B       		.uleb128 0xb
 5753 001c 03       		.uleb128 0x3
 5754 001d 0E       		.uleb128 0xe
 5755 001e 00       		.byte	0
 5756 001f 00       		.byte	0
 5757 0020 03       		.uleb128 0x3
 5758 0021 24       		.uleb128 0x24
 5759 0022 00       		.byte	0
 5760 0023 0B       		.uleb128 0xb
 5761 0024 0B       		.uleb128 0xb
 5762 0025 3E       		.uleb128 0x3e
 5763 0026 0B       		.uleb128 0xb
 5764 0027 03       		.uleb128 0x3
 5765 0028 08       		.uleb128 0x8
 5766 0029 00       		.byte	0
 5767 002a 00       		.byte	0
 5768 002b 04       		.uleb128 0x4
 5769 002c 0F       		.uleb128 0xf
 5770 002d 00       		.byte	0
 5771 002e 0B       		.uleb128 0xb
 5772 002f 0B       		.uleb128 0xb
 5773 0030 00       		.byte	0
 5774 0031 00       		.byte	0
 5775 0032 05       		.uleb128 0x5
 5776 0033 0F       		.uleb128 0xf
 5777 0034 00       		.byte	0
 5778 0035 0B       		.uleb128 0xb
ARM GAS  /tmp/cc3rdzJM.s 			page 104


 5779 0036 0B       		.uleb128 0xb
 5780 0037 49       		.uleb128 0x49
 5781 0038 13       		.uleb128 0x13
 5782 0039 00       		.byte	0
 5783 003a 00       		.byte	0
 5784 003b 06       		.uleb128 0x6
 5785 003c 26       		.uleb128 0x26
 5786 003d 00       		.byte	0
 5787 003e 49       		.uleb128 0x49
 5788 003f 13       		.uleb128 0x13
 5789 0040 00       		.byte	0
 5790 0041 00       		.byte	0
 5791 0042 07       		.uleb128 0x7
 5792 0043 16       		.uleb128 0x16
 5793 0044 00       		.byte	0
 5794 0045 03       		.uleb128 0x3
 5795 0046 0E       		.uleb128 0xe
 5796 0047 3A       		.uleb128 0x3a
 5797 0048 0B       		.uleb128 0xb
 5798 0049 3B       		.uleb128 0x3b
 5799 004a 0B       		.uleb128 0xb
 5800 004b 49       		.uleb128 0x49
 5801 004c 13       		.uleb128 0x13
 5802 004d 00       		.byte	0
 5803 004e 00       		.byte	0
 5804 004f 08       		.uleb128 0x8
 5805 0050 13       		.uleb128 0x13
 5806 0051 01       		.byte	0x1
 5807 0052 03       		.uleb128 0x3
 5808 0053 0E       		.uleb128 0xe
 5809 0054 0B       		.uleb128 0xb
 5810 0055 0B       		.uleb128 0xb
 5811 0056 3A       		.uleb128 0x3a
 5812 0057 0B       		.uleb128 0xb
 5813 0058 3B       		.uleb128 0x3b
 5814 0059 0B       		.uleb128 0xb
 5815 005a 01       		.uleb128 0x1
 5816 005b 13       		.uleb128 0x13
 5817 005c 00       		.byte	0
 5818 005d 00       		.byte	0
 5819 005e 09       		.uleb128 0x9
 5820 005f 0D       		.uleb128 0xd
 5821 0060 00       		.byte	0
 5822 0061 03       		.uleb128 0x3
 5823 0062 0E       		.uleb128 0xe
 5824 0063 49       		.uleb128 0x49
 5825 0064 13       		.uleb128 0x13
 5826 0065 38       		.uleb128 0x38
 5827 0066 0A       		.uleb128 0xa
 5828 0067 34       		.uleb128 0x34
 5829 0068 0C       		.uleb128 0xc
 5830 0069 00       		.byte	0
 5831 006a 00       		.byte	0
 5832 006b 0A       		.uleb128 0xa
 5833 006c 0D       		.uleb128 0xd
 5834 006d 00       		.byte	0
 5835 006e 03       		.uleb128 0x3
ARM GAS  /tmp/cc3rdzJM.s 			page 105


 5836 006f 0E       		.uleb128 0xe
 5837 0070 3A       		.uleb128 0x3a
 5838 0071 0B       		.uleb128 0xb
 5839 0072 3B       		.uleb128 0x3b
 5840 0073 0B       		.uleb128 0xb
 5841 0074 49       		.uleb128 0x49
 5842 0075 13       		.uleb128 0x13
 5843 0076 38       		.uleb128 0x38
 5844 0077 0A       		.uleb128 0xa
 5845 0078 00       		.byte	0
 5846 0079 00       		.byte	0
 5847 007a 0B       		.uleb128 0xb
 5848 007b 0D       		.uleb128 0xd
 5849 007c 00       		.byte	0
 5850 007d 03       		.uleb128 0x3
 5851 007e 08       		.uleb128 0x8
 5852 007f 3A       		.uleb128 0x3a
 5853 0080 0B       		.uleb128 0xb
 5854 0081 3B       		.uleb128 0x3b
 5855 0082 0B       		.uleb128 0xb
 5856 0083 49       		.uleb128 0x49
 5857 0084 13       		.uleb128 0x13
 5858 0085 38       		.uleb128 0x38
 5859 0086 0A       		.uleb128 0xa
 5860 0087 00       		.byte	0
 5861 0088 00       		.byte	0
 5862 0089 0C       		.uleb128 0xc
 5863 008a 13       		.uleb128 0x13
 5864 008b 01       		.byte	0x1
 5865 008c 0B       		.uleb128 0xb
 5866 008d 0B       		.uleb128 0xb
 5867 008e 3A       		.uleb128 0x3a
 5868 008f 0B       		.uleb128 0xb
 5869 0090 3B       		.uleb128 0x3b
 5870 0091 0B       		.uleb128 0xb
 5871 0092 01       		.uleb128 0x1
 5872 0093 13       		.uleb128 0x13
 5873 0094 00       		.byte	0
 5874 0095 00       		.byte	0
 5875 0096 0D       		.uleb128 0xd
 5876 0097 13       		.uleb128 0x13
 5877 0098 01       		.byte	0x1
 5878 0099 03       		.uleb128 0x3
 5879 009a 0E       		.uleb128 0xe
 5880 009b 0B       		.uleb128 0xb
 5881 009c 0B       		.uleb128 0xb
 5882 009d 3A       		.uleb128 0x3a
 5883 009e 0B       		.uleb128 0xb
 5884 009f 3B       		.uleb128 0x3b
 5885 00a0 05       		.uleb128 0x5
 5886 00a1 01       		.uleb128 0x1
 5887 00a2 13       		.uleb128 0x13
 5888 00a3 00       		.byte	0
 5889 00a4 00       		.byte	0
 5890 00a5 0E       		.uleb128 0xe
 5891 00a6 0D       		.uleb128 0xd
 5892 00a7 00       		.byte	0
ARM GAS  /tmp/cc3rdzJM.s 			page 106


 5893 00a8 03       		.uleb128 0x3
 5894 00a9 08       		.uleb128 0x8
 5895 00aa 3A       		.uleb128 0x3a
 5896 00ab 0B       		.uleb128 0xb
 5897 00ac 3B       		.uleb128 0x3b
 5898 00ad 05       		.uleb128 0x5
 5899 00ae 49       		.uleb128 0x49
 5900 00af 13       		.uleb128 0x13
 5901 00b0 38       		.uleb128 0x38
 5902 00b1 0A       		.uleb128 0xa
 5903 00b2 00       		.byte	0
 5904 00b3 00       		.byte	0
 5905 00b4 0F       		.uleb128 0xf
 5906 00b5 15       		.uleb128 0x15
 5907 00b6 01       		.byte	0x1
 5908 00b7 27       		.uleb128 0x27
 5909 00b8 0C       		.uleb128 0xc
 5910 00b9 01       		.uleb128 0x1
 5911 00ba 13       		.uleb128 0x13
 5912 00bb 00       		.byte	0
 5913 00bc 00       		.byte	0
 5914 00bd 10       		.uleb128 0x10
 5915 00be 05       		.uleb128 0x5
 5916 00bf 00       		.byte	0
 5917 00c0 49       		.uleb128 0x49
 5918 00c1 13       		.uleb128 0x13
 5919 00c2 00       		.byte	0
 5920 00c3 00       		.byte	0
 5921 00c4 11       		.uleb128 0x11
 5922 00c5 35       		.uleb128 0x35
 5923 00c6 00       		.byte	0
 5924 00c7 49       		.uleb128 0x49
 5925 00c8 13       		.uleb128 0x13
 5926 00c9 00       		.byte	0
 5927 00ca 00       		.byte	0
 5928 00cb 12       		.uleb128 0x12
 5929 00cc 17       		.uleb128 0x17
 5930 00cd 01       		.byte	0x1
 5931 00ce 0B       		.uleb128 0xb
 5932 00cf 0B       		.uleb128 0xb
 5933 00d0 3A       		.uleb128 0x3a
 5934 00d1 0B       		.uleb128 0xb
 5935 00d2 3B       		.uleb128 0x3b
 5936 00d3 0B       		.uleb128 0xb
 5937 00d4 01       		.uleb128 0x1
 5938 00d5 13       		.uleb128 0x13
 5939 00d6 00       		.byte	0
 5940 00d7 00       		.byte	0
 5941 00d8 13       		.uleb128 0x13
 5942 00d9 0D       		.uleb128 0xd
 5943 00da 00       		.byte	0
 5944 00db 03       		.uleb128 0x3
 5945 00dc 0E       		.uleb128 0xe
 5946 00dd 3A       		.uleb128 0x3a
 5947 00de 0B       		.uleb128 0xb
 5948 00df 3B       		.uleb128 0x3b
 5949 00e0 0B       		.uleb128 0xb
ARM GAS  /tmp/cc3rdzJM.s 			page 107


 5950 00e1 49       		.uleb128 0x49
 5951 00e2 13       		.uleb128 0x13
 5952 00e3 00       		.byte	0
 5953 00e4 00       		.byte	0
 5954 00e5 14       		.uleb128 0x14
 5955 00e6 15       		.uleb128 0x15
 5956 00e7 01       		.byte	0x1
 5957 00e8 27       		.uleb128 0x27
 5958 00e9 0C       		.uleb128 0xc
 5959 00ea 49       		.uleb128 0x49
 5960 00eb 13       		.uleb128 0x13
 5961 00ec 01       		.uleb128 0x1
 5962 00ed 13       		.uleb128 0x13
 5963 00ee 00       		.byte	0
 5964 00ef 00       		.byte	0
 5965 00f0 15       		.uleb128 0x15
 5966 00f1 13       		.uleb128 0x13
 5967 00f2 01       		.byte	0x1
 5968 00f3 0B       		.uleb128 0xb
 5969 00f4 0B       		.uleb128 0xb
 5970 00f5 3A       		.uleb128 0x3a
 5971 00f6 0B       		.uleb128 0xb
 5972 00f7 3B       		.uleb128 0x3b
 5973 00f8 05       		.uleb128 0x5
 5974 00f9 01       		.uleb128 0x1
 5975 00fa 13       		.uleb128 0x13
 5976 00fb 00       		.byte	0
 5977 00fc 00       		.byte	0
 5978 00fd 16       		.uleb128 0x16
 5979 00fe 0D       		.uleb128 0xd
 5980 00ff 00       		.byte	0
 5981 0100 03       		.uleb128 0x3
 5982 0101 0E       		.uleb128 0xe
 5983 0102 3A       		.uleb128 0x3a
 5984 0103 0B       		.uleb128 0xb
 5985 0104 3B       		.uleb128 0x3b
 5986 0105 05       		.uleb128 0x5
 5987 0106 49       		.uleb128 0x49
 5988 0107 13       		.uleb128 0x13
 5989 0108 38       		.uleb128 0x38
 5990 0109 0A       		.uleb128 0xa
 5991 010a 00       		.byte	0
 5992 010b 00       		.byte	0
 5993 010c 17       		.uleb128 0x17
 5994 010d 16       		.uleb128 0x16
 5995 010e 00       		.byte	0
 5996 010f 03       		.uleb128 0x3
 5997 0110 0E       		.uleb128 0xe
 5998 0111 3A       		.uleb128 0x3a
 5999 0112 0B       		.uleb128 0xb
 6000 0113 3B       		.uleb128 0x3b
 6001 0114 05       		.uleb128 0x5
 6002 0115 49       		.uleb128 0x49
 6003 0116 13       		.uleb128 0x13
 6004 0117 00       		.byte	0
 6005 0118 00       		.byte	0
 6006 0119 18       		.uleb128 0x18
ARM GAS  /tmp/cc3rdzJM.s 			page 108


 6007 011a 04       		.uleb128 0x4
 6008 011b 01       		.byte	0x1
 6009 011c 0B       		.uleb128 0xb
 6010 011d 0B       		.uleb128 0xb
 6011 011e 3A       		.uleb128 0x3a
 6012 011f 0B       		.uleb128 0xb
 6013 0120 3B       		.uleb128 0x3b
 6014 0121 0B       		.uleb128 0xb
 6015 0122 01       		.uleb128 0x1
 6016 0123 13       		.uleb128 0x13
 6017 0124 00       		.byte	0
 6018 0125 00       		.byte	0
 6019 0126 19       		.uleb128 0x19
 6020 0127 28       		.uleb128 0x28
 6021 0128 00       		.byte	0
 6022 0129 03       		.uleb128 0x3
 6023 012a 0E       		.uleb128 0xe
 6024 012b 1C       		.uleb128 0x1c
 6025 012c 0D       		.uleb128 0xd
 6026 012d 00       		.byte	0
 6027 012e 00       		.byte	0
 6028 012f 1A       		.uleb128 0x1a
 6029 0130 01       		.uleb128 0x1
 6030 0131 01       		.byte	0x1
 6031 0132 49       		.uleb128 0x49
 6032 0133 13       		.uleb128 0x13
 6033 0134 01       		.uleb128 0x1
 6034 0135 13       		.uleb128 0x13
 6035 0136 00       		.byte	0
 6036 0137 00       		.byte	0
 6037 0138 1B       		.uleb128 0x1b
 6038 0139 21       		.uleb128 0x21
 6039 013a 00       		.byte	0
 6040 013b 49       		.uleb128 0x49
 6041 013c 13       		.uleb128 0x13
 6042 013d 2F       		.uleb128 0x2f
 6043 013e 0B       		.uleb128 0xb
 6044 013f 00       		.byte	0
 6045 0140 00       		.byte	0
 6046 0141 1C       		.uleb128 0x1c
 6047 0142 28       		.uleb128 0x28
 6048 0143 00       		.byte	0
 6049 0144 03       		.uleb128 0x3
 6050 0145 08       		.uleb128 0x8
 6051 0146 1C       		.uleb128 0x1c
 6052 0147 0D       		.uleb128 0xd
 6053 0148 00       		.byte	0
 6054 0149 00       		.byte	0
 6055 014a 1D       		.uleb128 0x1d
 6056 014b 2E       		.uleb128 0x2e
 6057 014c 01       		.byte	0x1
 6058 014d 03       		.uleb128 0x3
 6059 014e 0E       		.uleb128 0xe
 6060 014f 3A       		.uleb128 0x3a
 6061 0150 0B       		.uleb128 0xb
 6062 0151 3B       		.uleb128 0x3b
 6063 0152 0B       		.uleb128 0xb
ARM GAS  /tmp/cc3rdzJM.s 			page 109


 6064 0153 27       		.uleb128 0x27
 6065 0154 0C       		.uleb128 0xc
 6066 0155 20       		.uleb128 0x20
 6067 0156 0B       		.uleb128 0xb
 6068 0157 01       		.uleb128 0x1
 6069 0158 13       		.uleb128 0x13
 6070 0159 00       		.byte	0
 6071 015a 00       		.byte	0
 6072 015b 1E       		.uleb128 0x1e
 6073 015c 05       		.uleb128 0x5
 6074 015d 00       		.byte	0
 6075 015e 03       		.uleb128 0x3
 6076 015f 08       		.uleb128 0x8
 6077 0160 3A       		.uleb128 0x3a
 6078 0161 0B       		.uleb128 0xb
 6079 0162 3B       		.uleb128 0x3b
 6080 0163 0B       		.uleb128 0xb
 6081 0164 49       		.uleb128 0x49
 6082 0165 13       		.uleb128 0x13
 6083 0166 00       		.byte	0
 6084 0167 00       		.byte	0
 6085 0168 1F       		.uleb128 0x1f
 6086 0169 34       		.uleb128 0x34
 6087 016a 00       		.byte	0
 6088 016b 03       		.uleb128 0x3
 6089 016c 0E       		.uleb128 0xe
 6090 016d 3A       		.uleb128 0x3a
 6091 016e 0B       		.uleb128 0xb
 6092 016f 3B       		.uleb128 0x3b
 6093 0170 0B       		.uleb128 0xb
 6094 0171 49       		.uleb128 0x49
 6095 0172 13       		.uleb128 0x13
 6096 0173 00       		.byte	0
 6097 0174 00       		.byte	0
 6098 0175 20       		.uleb128 0x20
 6099 0176 2E       		.uleb128 0x2e
 6100 0177 00       		.byte	0
 6101 0178 03       		.uleb128 0x3
 6102 0179 0E       		.uleb128 0xe
 6103 017a 3A       		.uleb128 0x3a
 6104 017b 0B       		.uleb128 0xb
 6105 017c 3B       		.uleb128 0x3b
 6106 017d 0B       		.uleb128 0xb
 6107 017e 27       		.uleb128 0x27
 6108 017f 0C       		.uleb128 0xc
 6109 0180 20       		.uleb128 0x20
 6110 0181 0B       		.uleb128 0xb
 6111 0182 00       		.byte	0
 6112 0183 00       		.byte	0
 6113 0184 21       		.uleb128 0x21
 6114 0185 2E       		.uleb128 0x2e
 6115 0186 01       		.byte	0x1
 6116 0187 31       		.uleb128 0x31
 6117 0188 13       		.uleb128 0x13
 6118 0189 11       		.uleb128 0x11
 6119 018a 01       		.uleb128 0x1
 6120 018b 12       		.uleb128 0x12
ARM GAS  /tmp/cc3rdzJM.s 			page 110


 6121 018c 01       		.uleb128 0x1
 6122 018d 40       		.uleb128 0x40
 6123 018e 06       		.uleb128 0x6
 6124 018f 01       		.uleb128 0x1
 6125 0190 13       		.uleb128 0x13
 6126 0191 00       		.byte	0
 6127 0192 00       		.byte	0
 6128 0193 22       		.uleb128 0x22
 6129 0194 05       		.uleb128 0x5
 6130 0195 00       		.byte	0
 6131 0196 31       		.uleb128 0x31
 6132 0197 13       		.uleb128 0x13
 6133 0198 02       		.uleb128 0x2
 6134 0199 06       		.uleb128 0x6
 6135 019a 00       		.byte	0
 6136 019b 00       		.byte	0
 6137 019c 23       		.uleb128 0x23
 6138 019d 34       		.uleb128 0x34
 6139 019e 00       		.byte	0
 6140 019f 31       		.uleb128 0x31
 6141 01a0 13       		.uleb128 0x13
 6142 01a1 02       		.uleb128 0x2
 6143 01a2 0A       		.uleb128 0xa
 6144 01a3 00       		.byte	0
 6145 01a4 00       		.byte	0
 6146 01a5 24       		.uleb128 0x24
 6147 01a6 1D       		.uleb128 0x1d
 6148 01a7 01       		.byte	0x1
 6149 01a8 31       		.uleb128 0x31
 6150 01a9 13       		.uleb128 0x13
 6151 01aa 52       		.uleb128 0x52
 6152 01ab 01       		.uleb128 0x1
 6153 01ac 55       		.uleb128 0x55
 6154 01ad 06       		.uleb128 0x6
 6155 01ae 58       		.uleb128 0x58
 6156 01af 0B       		.uleb128 0xb
 6157 01b0 59       		.uleb128 0x59
 6158 01b1 0B       		.uleb128 0xb
 6159 01b2 00       		.byte	0
 6160 01b3 00       		.byte	0
 6161 01b4 25       		.uleb128 0x25
 6162 01b5 0B       		.uleb128 0xb
 6163 01b6 01       		.byte	0x1
 6164 01b7 55       		.uleb128 0x55
 6165 01b8 06       		.uleb128 0x6
 6166 01b9 00       		.byte	0
 6167 01ba 00       		.byte	0
 6168 01bb 26       		.uleb128 0x26
 6169 01bc 05       		.uleb128 0x5
 6170 01bd 00       		.byte	0
 6171 01be 31       		.uleb128 0x31
 6172 01bf 13       		.uleb128 0x13
 6173 01c0 00       		.byte	0
 6174 01c1 00       		.byte	0
 6175 01c2 27       		.uleb128 0x27
 6176 01c3 2E       		.uleb128 0x2e
 6177 01c4 01       		.byte	0x1
ARM GAS  /tmp/cc3rdzJM.s 			page 111


 6178 01c5 03       		.uleb128 0x3
 6179 01c6 0E       		.uleb128 0xe
 6180 01c7 3A       		.uleb128 0x3a
 6181 01c8 0B       		.uleb128 0xb
 6182 01c9 3B       		.uleb128 0x3b
 6183 01ca 0B       		.uleb128 0xb
 6184 01cb 27       		.uleb128 0x27
 6185 01cc 0C       		.uleb128 0xc
 6186 01cd 11       		.uleb128 0x11
 6187 01ce 01       		.uleb128 0x1
 6188 01cf 12       		.uleb128 0x12
 6189 01d0 01       		.uleb128 0x1
 6190 01d1 40       		.uleb128 0x40
 6191 01d2 06       		.uleb128 0x6
 6192 01d3 01       		.uleb128 0x1
 6193 01d4 13       		.uleb128 0x13
 6194 01d5 00       		.byte	0
 6195 01d6 00       		.byte	0
 6196 01d7 28       		.uleb128 0x28
 6197 01d8 05       		.uleb128 0x5
 6198 01d9 00       		.byte	0
 6199 01da 03       		.uleb128 0x3
 6200 01db 08       		.uleb128 0x8
 6201 01dc 3A       		.uleb128 0x3a
 6202 01dd 0B       		.uleb128 0xb
 6203 01de 3B       		.uleb128 0x3b
 6204 01df 0B       		.uleb128 0xb
 6205 01e0 49       		.uleb128 0x49
 6206 01e1 13       		.uleb128 0x13
 6207 01e2 02       		.uleb128 0x2
 6208 01e3 0A       		.uleb128 0xa
 6209 01e4 00       		.byte	0
 6210 01e5 00       		.byte	0
 6211 01e6 29       		.uleb128 0x29
 6212 01e7 18       		.uleb128 0x18
 6213 01e8 00       		.byte	0
 6214 01e9 00       		.byte	0
 6215 01ea 00       		.byte	0
 6216 01eb 2A       		.uleb128 0x2a
 6217 01ec 34       		.uleb128 0x34
 6218 01ed 00       		.byte	0
 6219 01ee 03       		.uleb128 0x3
 6220 01ef 0E       		.uleb128 0xe
 6221 01f0 3A       		.uleb128 0x3a
 6222 01f1 0B       		.uleb128 0xb
 6223 01f2 3B       		.uleb128 0x3b
 6224 01f3 0B       		.uleb128 0xb
 6225 01f4 49       		.uleb128 0x49
 6226 01f5 13       		.uleb128 0x13
 6227 01f6 02       		.uleb128 0x2
 6228 01f7 0A       		.uleb128 0xa
 6229 01f8 00       		.byte	0
 6230 01f9 00       		.byte	0
 6231 01fa 2B       		.uleb128 0x2b
 6232 01fb 34       		.uleb128 0x34
 6233 01fc 00       		.byte	0
 6234 01fd 03       		.uleb128 0x3
ARM GAS  /tmp/cc3rdzJM.s 			page 112


 6235 01fe 08       		.uleb128 0x8
 6236 01ff 3A       		.uleb128 0x3a
 6237 0200 0B       		.uleb128 0xb
 6238 0201 3B       		.uleb128 0x3b
 6239 0202 0B       		.uleb128 0xb
 6240 0203 49       		.uleb128 0x49
 6241 0204 13       		.uleb128 0x13
 6242 0205 02       		.uleb128 0x2
 6243 0206 06       		.uleb128 0x6
 6244 0207 00       		.byte	0
 6245 0208 00       		.byte	0
 6246 0209 2C       		.uleb128 0x2c
 6247 020a 2E       		.uleb128 0x2e
 6248 020b 01       		.byte	0x1
 6249 020c 3F       		.uleb128 0x3f
 6250 020d 0C       		.uleb128 0xc
 6251 020e 03       		.uleb128 0x3
 6252 020f 0E       		.uleb128 0xe
 6253 0210 3A       		.uleb128 0x3a
 6254 0211 0B       		.uleb128 0xb
 6255 0212 3B       		.uleb128 0x3b
 6256 0213 0B       		.uleb128 0xb
 6257 0214 27       		.uleb128 0x27
 6258 0215 0C       		.uleb128 0xc
 6259 0216 11       		.uleb128 0x11
 6260 0217 01       		.uleb128 0x1
 6261 0218 12       		.uleb128 0x12
 6262 0219 01       		.uleb128 0x1
 6263 021a 40       		.uleb128 0x40
 6264 021b 06       		.uleb128 0x6
 6265 021c 01       		.uleb128 0x1
 6266 021d 13       		.uleb128 0x13
 6267 021e 00       		.byte	0
 6268 021f 00       		.byte	0
 6269 0220 2D       		.uleb128 0x2d
 6270 0221 05       		.uleb128 0x5
 6271 0222 00       		.byte	0
 6272 0223 03       		.uleb128 0x3
 6273 0224 08       		.uleb128 0x8
 6274 0225 3A       		.uleb128 0x3a
 6275 0226 0B       		.uleb128 0xb
 6276 0227 3B       		.uleb128 0x3b
 6277 0228 0B       		.uleb128 0xb
 6278 0229 49       		.uleb128 0x49
 6279 022a 13       		.uleb128 0x13
 6280 022b 02       		.uleb128 0x2
 6281 022c 06       		.uleb128 0x6
 6282 022d 00       		.byte	0
 6283 022e 00       		.byte	0
 6284 022f 2E       		.uleb128 0x2e
 6285 0230 05       		.uleb128 0x5
 6286 0231 00       		.byte	0
 6287 0232 03       		.uleb128 0x3
 6288 0233 0E       		.uleb128 0xe
 6289 0234 3A       		.uleb128 0x3a
 6290 0235 0B       		.uleb128 0xb
 6291 0236 3B       		.uleb128 0x3b
ARM GAS  /tmp/cc3rdzJM.s 			page 113


 6292 0237 0B       		.uleb128 0xb
 6293 0238 49       		.uleb128 0x49
 6294 0239 13       		.uleb128 0x13
 6295 023a 02       		.uleb128 0x2
 6296 023b 06       		.uleb128 0x6
 6297 023c 00       		.byte	0
 6298 023d 00       		.byte	0
 6299 023e 2F       		.uleb128 0x2f
 6300 023f 1D       		.uleb128 0x1d
 6301 0240 01       		.byte	0x1
 6302 0241 31       		.uleb128 0x31
 6303 0242 13       		.uleb128 0x13
 6304 0243 52       		.uleb128 0x52
 6305 0244 01       		.uleb128 0x1
 6306 0245 55       		.uleb128 0x55
 6307 0246 06       		.uleb128 0x6
 6308 0247 58       		.uleb128 0x58
 6309 0248 0B       		.uleb128 0xb
 6310 0249 59       		.uleb128 0x59
 6311 024a 0B       		.uleb128 0xb
 6312 024b 01       		.uleb128 0x1
 6313 024c 13       		.uleb128 0x13
 6314 024d 00       		.byte	0
 6315 024e 00       		.byte	0
 6316 024f 30       		.uleb128 0x30
 6317 0250 1D       		.uleb128 0x1d
 6318 0251 01       		.byte	0x1
 6319 0252 31       		.uleb128 0x31
 6320 0253 13       		.uleb128 0x13
 6321 0254 11       		.uleb128 0x11
 6322 0255 01       		.uleb128 0x1
 6323 0256 12       		.uleb128 0x12
 6324 0257 01       		.uleb128 0x1
 6325 0258 58       		.uleb128 0x58
 6326 0259 0B       		.uleb128 0xb
 6327 025a 59       		.uleb128 0x59
 6328 025b 0B       		.uleb128 0xb
 6329 025c 00       		.byte	0
 6330 025d 00       		.byte	0
 6331 025e 31       		.uleb128 0x31
 6332 025f 05       		.uleb128 0x5
 6333 0260 00       		.byte	0
 6334 0261 31       		.uleb128 0x31
 6335 0262 13       		.uleb128 0x13
 6336 0263 1C       		.uleb128 0x1c
 6337 0264 0B       		.uleb128 0xb
 6338 0265 00       		.byte	0
 6339 0266 00       		.byte	0
 6340 0267 32       		.uleb128 0x32
 6341 0268 1D       		.uleb128 0x1d
 6342 0269 01       		.byte	0x1
 6343 026a 31       		.uleb128 0x31
 6344 026b 13       		.uleb128 0x13
 6345 026c 11       		.uleb128 0x11
 6346 026d 01       		.uleb128 0x1
 6347 026e 12       		.uleb128 0x12
 6348 026f 01       		.uleb128 0x1
ARM GAS  /tmp/cc3rdzJM.s 			page 114


 6349 0270 58       		.uleb128 0x58
 6350 0271 0B       		.uleb128 0xb
 6351 0272 59       		.uleb128 0x59
 6352 0273 0B       		.uleb128 0xb
 6353 0274 01       		.uleb128 0x1
 6354 0275 13       		.uleb128 0x13
 6355 0276 00       		.byte	0
 6356 0277 00       		.byte	0
 6357 0278 33       		.uleb128 0x33
 6358 0279 05       		.uleb128 0x5
 6359 027a 00       		.byte	0
 6360 027b 03       		.uleb128 0x3
 6361 027c 0E       		.uleb128 0xe
 6362 027d 3A       		.uleb128 0x3a
 6363 027e 0B       		.uleb128 0xb
 6364 027f 3B       		.uleb128 0x3b
 6365 0280 0B       		.uleb128 0xb
 6366 0281 49       		.uleb128 0x49
 6367 0282 13       		.uleb128 0x13
 6368 0283 00       		.byte	0
 6369 0284 00       		.byte	0
 6370 0285 34       		.uleb128 0x34
 6371 0286 1D       		.uleb128 0x1d
 6372 0287 01       		.byte	0x1
 6373 0288 31       		.uleb128 0x31
 6374 0289 13       		.uleb128 0x13
 6375 028a 52       		.uleb128 0x52
 6376 028b 01       		.uleb128 0x1
 6377 028c 55       		.uleb128 0x55
 6378 028d 06       		.uleb128 0x6
 6379 028e 58       		.uleb128 0x58
 6380 028f 0B       		.uleb128 0xb
 6381 0290 59       		.uleb128 0x59
 6382 0291 05       		.uleb128 0x5
 6383 0292 01       		.uleb128 0x1
 6384 0293 13       		.uleb128 0x13
 6385 0294 00       		.byte	0
 6386 0295 00       		.byte	0
 6387 0296 35       		.uleb128 0x35
 6388 0297 1D       		.uleb128 0x1d
 6389 0298 01       		.byte	0x1
 6390 0299 31       		.uleb128 0x31
 6391 029a 13       		.uleb128 0x13
 6392 029b 11       		.uleb128 0x11
 6393 029c 01       		.uleb128 0x1
 6394 029d 12       		.uleb128 0x12
 6395 029e 01       		.uleb128 0x1
 6396 029f 58       		.uleb128 0x58
 6397 02a0 0B       		.uleb128 0xb
 6398 02a1 59       		.uleb128 0x59
 6399 02a2 05       		.uleb128 0x5
 6400 02a3 01       		.uleb128 0x1
 6401 02a4 13       		.uleb128 0x13
 6402 02a5 00       		.byte	0
 6403 02a6 00       		.byte	0
 6404 02a7 36       		.uleb128 0x36
 6405 02a8 1D       		.uleb128 0x1d
ARM GAS  /tmp/cc3rdzJM.s 			page 115


 6406 02a9 01       		.byte	0x1
 6407 02aa 31       		.uleb128 0x31
 6408 02ab 13       		.uleb128 0x13
 6409 02ac 11       		.uleb128 0x11
 6410 02ad 01       		.uleb128 0x1
 6411 02ae 12       		.uleb128 0x12
 6412 02af 01       		.uleb128 0x1
 6413 02b0 58       		.uleb128 0x58
 6414 02b1 0B       		.uleb128 0xb
 6415 02b2 59       		.uleb128 0x59
 6416 02b3 05       		.uleb128 0x5
 6417 02b4 00       		.byte	0
 6418 02b5 00       		.byte	0
 6419 02b6 37       		.uleb128 0x37
 6420 02b7 2E       		.uleb128 0x2e
 6421 02b8 01       		.byte	0x1
 6422 02b9 3F       		.uleb128 0x3f
 6423 02ba 0C       		.uleb128 0xc
 6424 02bb 03       		.uleb128 0x3
 6425 02bc 0E       		.uleb128 0xe
 6426 02bd 3A       		.uleb128 0x3a
 6427 02be 0B       		.uleb128 0xb
 6428 02bf 3B       		.uleb128 0x3b
 6429 02c0 05       		.uleb128 0x5
 6430 02c1 27       		.uleb128 0x27
 6431 02c2 0C       		.uleb128 0xc
 6432 02c3 11       		.uleb128 0x11
 6433 02c4 01       		.uleb128 0x1
 6434 02c5 12       		.uleb128 0x12
 6435 02c6 01       		.uleb128 0x1
 6436 02c7 40       		.uleb128 0x40
 6437 02c8 06       		.uleb128 0x6
 6438 02c9 01       		.uleb128 0x1
 6439 02ca 13       		.uleb128 0x13
 6440 02cb 00       		.byte	0
 6441 02cc 00       		.byte	0
 6442 02cd 38       		.uleb128 0x38
 6443 02ce 34       		.uleb128 0x34
 6444 02cf 00       		.byte	0
 6445 02d0 03       		.uleb128 0x3
 6446 02d1 08       		.uleb128 0x8
 6447 02d2 3A       		.uleb128 0x3a
 6448 02d3 0B       		.uleb128 0xb
 6449 02d4 3B       		.uleb128 0x3b
 6450 02d5 05       		.uleb128 0x5
 6451 02d6 49       		.uleb128 0x49
 6452 02d7 13       		.uleb128 0x13
 6453 02d8 02       		.uleb128 0x2
 6454 02d9 06       		.uleb128 0x6
 6455 02da 00       		.byte	0
 6456 02db 00       		.byte	0
 6457 02dc 39       		.uleb128 0x39
 6458 02dd 1D       		.uleb128 0x1d
 6459 02de 01       		.byte	0x1
 6460 02df 31       		.uleb128 0x31
 6461 02e0 13       		.uleb128 0x13
 6462 02e1 52       		.uleb128 0x52
ARM GAS  /tmp/cc3rdzJM.s 			page 116


 6463 02e2 01       		.uleb128 0x1
 6464 02e3 55       		.uleb128 0x55
 6465 02e4 06       		.uleb128 0x6
 6466 02e5 58       		.uleb128 0x58
 6467 02e6 0B       		.uleb128 0xb
 6468 02e7 59       		.uleb128 0x59
 6469 02e8 05       		.uleb128 0x5
 6470 02e9 00       		.byte	0
 6471 02ea 00       		.byte	0
 6472 02eb 3A       		.uleb128 0x3a
 6473 02ec 05       		.uleb128 0x5
 6474 02ed 00       		.byte	0
 6475 02ee 03       		.uleb128 0x3
 6476 02ef 0E       		.uleb128 0xe
 6477 02f0 3A       		.uleb128 0x3a
 6478 02f1 0B       		.uleb128 0xb
 6479 02f2 3B       		.uleb128 0x3b
 6480 02f3 05       		.uleb128 0x5
 6481 02f4 49       		.uleb128 0x49
 6482 02f5 13       		.uleb128 0x13
 6483 02f6 02       		.uleb128 0x2
 6484 02f7 06       		.uleb128 0x6
 6485 02f8 00       		.byte	0
 6486 02f9 00       		.byte	0
 6487 02fa 3B       		.uleb128 0x3b
 6488 02fb 34       		.uleb128 0x34
 6489 02fc 00       		.byte	0
 6490 02fd 03       		.uleb128 0x3
 6491 02fe 0E       		.uleb128 0xe
 6492 02ff 3A       		.uleb128 0x3a
 6493 0300 0B       		.uleb128 0xb
 6494 0301 3B       		.uleb128 0x3b
 6495 0302 05       		.uleb128 0x5
 6496 0303 49       		.uleb128 0x49
 6497 0304 13       		.uleb128 0x13
 6498 0305 00       		.byte	0
 6499 0306 00       		.byte	0
 6500 0307 3C       		.uleb128 0x3c
 6501 0308 05       		.uleb128 0x5
 6502 0309 00       		.byte	0
 6503 030a 31       		.uleb128 0x31
 6504 030b 13       		.uleb128 0x13
 6505 030c 02       		.uleb128 0x2
 6506 030d 0A       		.uleb128 0xa
 6507 030e 00       		.byte	0
 6508 030f 00       		.byte	0
 6509 0310 3D       		.uleb128 0x3d
 6510 0311 05       		.uleb128 0x5
 6511 0312 00       		.byte	0
 6512 0313 03       		.uleb128 0x3
 6513 0314 08       		.uleb128 0x8
 6514 0315 3A       		.uleb128 0x3a
 6515 0316 0B       		.uleb128 0xb
 6516 0317 3B       		.uleb128 0x3b
 6517 0318 05       		.uleb128 0x5
 6518 0319 49       		.uleb128 0x49
 6519 031a 13       		.uleb128 0x13
ARM GAS  /tmp/cc3rdzJM.s 			page 117


 6520 031b 02       		.uleb128 0x2
 6521 031c 06       		.uleb128 0x6
 6522 031d 00       		.byte	0
 6523 031e 00       		.byte	0
 6524 031f 3E       		.uleb128 0x3e
 6525 0320 34       		.uleb128 0x34
 6526 0321 00       		.byte	0
 6527 0322 03       		.uleb128 0x3
 6528 0323 0E       		.uleb128 0xe
 6529 0324 3A       		.uleb128 0x3a
 6530 0325 0B       		.uleb128 0xb
 6531 0326 3B       		.uleb128 0x3b
 6532 0327 05       		.uleb128 0x5
 6533 0328 49       		.uleb128 0x49
 6534 0329 13       		.uleb128 0x13
 6535 032a 02       		.uleb128 0x2
 6536 032b 06       		.uleb128 0x6
 6537 032c 00       		.byte	0
 6538 032d 00       		.byte	0
 6539 032e 3F       		.uleb128 0x3f
 6540 032f 34       		.uleb128 0x34
 6541 0330 00       		.byte	0
 6542 0331 03       		.uleb128 0x3
 6543 0332 08       		.uleb128 0x8
 6544 0333 3A       		.uleb128 0x3a
 6545 0334 0B       		.uleb128 0xb
 6546 0335 3B       		.uleb128 0x3b
 6547 0336 05       		.uleb128 0x5
 6548 0337 49       		.uleb128 0x49
 6549 0338 13       		.uleb128 0x13
 6550 0339 00       		.byte	0
 6551 033a 00       		.byte	0
 6552 033b 40       		.uleb128 0x40
 6553 033c 34       		.uleb128 0x34
 6554 033d 00       		.byte	0
 6555 033e 03       		.uleb128 0x3
 6556 033f 0E       		.uleb128 0xe
 6557 0340 3A       		.uleb128 0x3a
 6558 0341 0B       		.uleb128 0xb
 6559 0342 3B       		.uleb128 0x3b
 6560 0343 05       		.uleb128 0x5
 6561 0344 49       		.uleb128 0x49
 6562 0345 13       		.uleb128 0x13
 6563 0346 02       		.uleb128 0x2
 6564 0347 0A       		.uleb128 0xa
 6565 0348 00       		.byte	0
 6566 0349 00       		.byte	0
 6567 034a 41       		.uleb128 0x41
 6568 034b 05       		.uleb128 0x5
 6569 034c 00       		.byte	0
 6570 034d 03       		.uleb128 0x3
 6571 034e 0E       		.uleb128 0xe
 6572 034f 3A       		.uleb128 0x3a
 6573 0350 0B       		.uleb128 0xb
 6574 0351 3B       		.uleb128 0x3b
 6575 0352 05       		.uleb128 0x5
 6576 0353 49       		.uleb128 0x49
ARM GAS  /tmp/cc3rdzJM.s 			page 118


 6577 0354 13       		.uleb128 0x13
 6578 0355 02       		.uleb128 0x2
 6579 0356 0A       		.uleb128 0xa
 6580 0357 00       		.byte	0
 6581 0358 00       		.byte	0
 6582 0359 42       		.uleb128 0x42
 6583 035a 1D       		.uleb128 0x1d
 6584 035b 00       		.byte	0
 6585 035c 31       		.uleb128 0x31
 6586 035d 13       		.uleb128 0x13
 6587 035e 52       		.uleb128 0x52
 6588 035f 01       		.uleb128 0x1
 6589 0360 55       		.uleb128 0x55
 6590 0361 06       		.uleb128 0x6
 6591 0362 58       		.uleb128 0x58
 6592 0363 0B       		.uleb128 0xb
 6593 0364 59       		.uleb128 0x59
 6594 0365 05       		.uleb128 0x5
 6595 0366 00       		.byte	0
 6596 0367 00       		.byte	0
 6597 0368 43       		.uleb128 0x43
 6598 0369 1D       		.uleb128 0x1d
 6599 036a 00       		.byte	0
 6600 036b 31       		.uleb128 0x31
 6601 036c 13       		.uleb128 0x13
 6602 036d 11       		.uleb128 0x11
 6603 036e 01       		.uleb128 0x1
 6604 036f 12       		.uleb128 0x12
 6605 0370 01       		.uleb128 0x1
 6606 0371 58       		.uleb128 0x58
 6607 0372 0B       		.uleb128 0xb
 6608 0373 59       		.uleb128 0x59
 6609 0374 05       		.uleb128 0x5
 6610 0375 00       		.byte	0
 6611 0376 00       		.byte	0
 6612 0377 44       		.uleb128 0x44
 6613 0378 34       		.uleb128 0x34
 6614 0379 00       		.byte	0
 6615 037a 03       		.uleb128 0x3
 6616 037b 0E       		.uleb128 0xe
 6617 037c 3A       		.uleb128 0x3a
 6618 037d 0B       		.uleb128 0xb
 6619 037e 3B       		.uleb128 0x3b
 6620 037f 0B       		.uleb128 0xb
 6621 0380 49       		.uleb128 0x49
 6622 0381 13       		.uleb128 0x13
 6623 0382 3F       		.uleb128 0x3f
 6624 0383 0C       		.uleb128 0xc
 6625 0384 3C       		.uleb128 0x3c
 6626 0385 0C       		.uleb128 0xc
 6627 0386 00       		.byte	0
 6628 0387 00       		.byte	0
 6629 0388 45       		.uleb128 0x45
 6630 0389 34       		.uleb128 0x34
 6631 038a 00       		.byte	0
 6632 038b 03       		.uleb128 0x3
 6633 038c 0E       		.uleb128 0xe
ARM GAS  /tmp/cc3rdzJM.s 			page 119


 6634 038d 3A       		.uleb128 0x3a
 6635 038e 0B       		.uleb128 0xb
 6636 038f 3B       		.uleb128 0x3b
 6637 0390 05       		.uleb128 0x5
 6638 0391 49       		.uleb128 0x49
 6639 0392 13       		.uleb128 0x13
 6640 0393 3F       		.uleb128 0x3f
 6641 0394 0C       		.uleb128 0xc
 6642 0395 3C       		.uleb128 0x3c
 6643 0396 0C       		.uleb128 0xc
 6644 0397 00       		.byte	0
 6645 0398 00       		.byte	0
 6646 0399 46       		.uleb128 0x46
 6647 039a 34       		.uleb128 0x34
 6648 039b 00       		.byte	0
 6649 039c 03       		.uleb128 0x3
 6650 039d 08       		.uleb128 0x8
 6651 039e 3A       		.uleb128 0x3a
 6652 039f 0B       		.uleb128 0xb
 6653 03a0 3B       		.uleb128 0x3b
 6654 03a1 05       		.uleb128 0x5
 6655 03a2 49       		.uleb128 0x49
 6656 03a3 13       		.uleb128 0x13
 6657 03a4 3F       		.uleb128 0x3f
 6658 03a5 0C       		.uleb128 0xc
 6659 03a6 3C       		.uleb128 0x3c
 6660 03a7 0C       		.uleb128 0xc
 6661 03a8 00       		.byte	0
 6662 03a9 00       		.byte	0
 6663 03aa 00       		.byte	0
 6664              		.section	.debug_loc,"",%progbits
 6665              	.Ldebug_loc0:
 6666              	.LLST0:
 6667 0000 00000000 		.4byte	.LFB64
 6668 0004 02000000 		.4byte	.LCFI0
 6669 0008 0200     		.2byte	0x2
 6670 000a 7D       		.byte	0x7d
 6671 000b 00       		.sleb128 0
 6672 000c 02000000 		.4byte	.LCFI0
 6673 0010 34000000 		.4byte	.LFE64
 6674 0014 0200     		.2byte	0x2
 6675 0016 7D       		.byte	0x7d
 6676 0017 08       		.sleb128 8
 6677 0018 00000000 		.4byte	0
 6678 001c 00000000 		.4byte	0
 6679              	.LLST1:
 6680 0020 00000000 		.4byte	.LVL0
 6681 0024 0A000000 		.4byte	.LVL1
 6682 0028 0100     		.2byte	0x1
 6683 002a 50       		.byte	0x50
 6684 002b 00000000 		.4byte	0
 6685 002f 00000000 		.4byte	0
 6686              	.LLST2:
 6687 0033 00000000 		.4byte	.LFB65
 6688 0037 02000000 		.4byte	.LCFI1
 6689 003b 0200     		.2byte	0x2
 6690 003d 7D       		.byte	0x7d
ARM GAS  /tmp/cc3rdzJM.s 			page 120


 6691 003e 00       		.sleb128 0
 6692 003f 02000000 		.4byte	.LCFI1
 6693 0043 04000000 		.4byte	.LCFI2
 6694 0047 0200     		.2byte	0x2
 6695 0049 7D       		.byte	0x7d
 6696 004a 10       		.sleb128 16
 6697 004b 04000000 		.4byte	.LCFI2
 6698 004f 06000000 		.4byte	.LCFI3
 6699 0053 0200     		.2byte	0x2
 6700 0055 7D       		.byte	0x7d
 6701 0056 1C       		.sleb128 28
 6702 0057 06000000 		.4byte	.LCFI3
 6703 005b 50000000 		.4byte	.LFE65
 6704 005f 0200     		.2byte	0x2
 6705 0061 7D       		.byte	0x7d
 6706 0062 28       		.sleb128 40
 6707 0063 00000000 		.4byte	0
 6708 0067 00000000 		.4byte	0
 6709              	.LLST3:
 6710 006b 22000000 		.4byte	.LVL3
 6711 006f 24000000 		.4byte	.LVL4
 6712 0073 0200     		.2byte	0x2
 6713 0075 30       		.byte	0x30
 6714 0076 9F       		.byte	0x9f
 6715 0077 00000000 		.4byte	0
 6716 007b 00000000 		.4byte	0
 6717              	.LLST4:
 6718 007f 00000000 		.4byte	.LFB73
 6719 0083 04000000 		.4byte	.LCFI4
 6720 0087 0200     		.2byte	0x2
 6721 0089 7D       		.byte	0x7d
 6722 008a 00       		.sleb128 0
 6723 008b 04000000 		.4byte	.LCFI4
 6724 008f AC010000 		.4byte	.LFE73
 6725 0093 0200     		.2byte	0x2
 6726 0095 7D       		.byte	0x7d
 6727 0096 28       		.sleb128 40
 6728 0097 00000000 		.4byte	0
 6729 009b 00000000 		.4byte	0
 6730              	.LLST5:
 6731 009f 00000000 		.4byte	.LVL5
 6732 00a3 0A000000 		.4byte	.LVL7
 6733 00a7 0100     		.2byte	0x1
 6734 00a9 50       		.byte	0x50
 6735 00aa 4E000000 		.4byte	.LVL13
 6736 00ae 74010000 		.4byte	.LVL25
 6737 00b2 0100     		.2byte	0x1
 6738 00b4 54       		.byte	0x54
 6739 00b5 00000000 		.4byte	0
 6740 00b9 00000000 		.4byte	0
 6741              	.LLST6:
 6742 00bd 00000000 		.4byte	.LVL5
 6743 00c1 1D000000 		.4byte	.LVL10-1
 6744 00c5 0100     		.2byte	0x1
 6745 00c7 51       		.byte	0x51
 6746 00c8 4E000000 		.4byte	.LVL13
 6747 00cc 56010000 		.4byte	.LVL21
ARM GAS  /tmp/cc3rdzJM.s 			page 121


 6748 00d0 0100     		.2byte	0x1
 6749 00d2 55       		.byte	0x55
 6750 00d3 00000000 		.4byte	0
 6751 00d7 00000000 		.4byte	0
 6752              	.LLST7:
 6753 00db 00000000 		.4byte	.LVL5
 6754 00df 12000000 		.4byte	.LVL8
 6755 00e3 0100     		.2byte	0x1
 6756 00e5 52       		.byte	0x52
 6757 00e6 12000000 		.4byte	.LVL8
 6758 00ea 88000000 		.4byte	.LVL16
 6759 00ee 0100     		.2byte	0x1
 6760 00f0 58       		.byte	0x58
 6761 00f1 88000000 		.4byte	.LVL16
 6762 00f5 AC010000 		.4byte	.LFE73
 6763 00f9 0300     		.2byte	0x3
 6764 00fb 77       		.byte	0x77
 6765 00fc 02       		.sleb128 2
 6766 00fd 9F       		.byte	0x9f
 6767 00fe 00000000 		.4byte	0
 6768 0102 00000000 		.4byte	0
 6769              	.LLST8:
 6770 0106 00000000 		.4byte	.LVL5
 6771 010a 1D000000 		.4byte	.LVL10-1
 6772 010e 0100     		.2byte	0x1
 6773 0110 53       		.byte	0x53
 6774 0111 1D000000 		.4byte	.LVL10-1
 6775 0115 AC010000 		.4byte	.LFE73
 6776 0119 0100     		.2byte	0x1
 6777 011b 5B       		.byte	0x5b
 6778 011c 00000000 		.4byte	0
 6779 0120 00000000 		.4byte	0
 6780              	.LLST9:
 6781 0124 24000000 		.4byte	.LVL11
 6782 0128 38000000 		.4byte	.LVL12
 6783 012c 0200     		.2byte	0x2
 6784 012e 30       		.byte	0x30
 6785 012f 9F       		.byte	0x9f
 6786 0130 6A000000 		.4byte	.LVL14
 6787 0134 AE000000 		.4byte	.LVL19
 6788 0138 0200     		.2byte	0x2
 6789 013a 31       		.byte	0x31
 6790 013b 9F       		.byte	0x9f
 6791 013c 6C010000 		.4byte	.LVL24
 6792 0140 7A010000 		.4byte	.LVL26
 6793 0144 0200     		.2byte	0x2
 6794 0146 30       		.byte	0x30
 6795 0147 9F       		.byte	0x9f
 6796 0148 00000000 		.4byte	0
 6797 014c 00000000 		.4byte	0
 6798              	.LLST10:
 6799 0150 14000000 		.4byte	.LVL9
 6800 0154 1D000000 		.4byte	.LVL10-1
 6801 0158 0100     		.2byte	0x1
 6802 015a 51       		.byte	0x51
 6803 015b 1D000000 		.4byte	.LVL10-1
 6804 015f 56010000 		.4byte	.LVL21
ARM GAS  /tmp/cc3rdzJM.s 			page 122


 6805 0163 0100     		.2byte	0x1
 6806 0165 55       		.byte	0x55
 6807 0166 00000000 		.4byte	0
 6808 016a 00000000 		.4byte	0
 6809              	.LLST11:
 6810 016e 06000000 		.4byte	.LVL6
 6811 0172 0A000000 		.4byte	.LVL7
 6812 0176 0100     		.2byte	0x1
 6813 0178 50       		.byte	0x50
 6814 0179 0A000000 		.4byte	.LVL7
 6815 017d 74010000 		.4byte	.LVL25
 6816 0181 0100     		.2byte	0x1
 6817 0183 54       		.byte	0x54
 6818 0184 00000000 		.4byte	0
 6819 0188 00000000 		.4byte	0
 6820              	.LLST12:
 6821 018c 72000000 		.4byte	.LVL15
 6822 0190 54010000 		.4byte	.LVL20
 6823 0194 0100     		.2byte	0x1
 6824 0196 54       		.byte	0x54
 6825 0197 00000000 		.4byte	0
 6826 019b 00000000 		.4byte	0
 6827              	.LLST13:
 6828 019f 96000000 		.4byte	.LVL17
 6829 01a3 A8000000 		.4byte	.LVL18
 6830 01a7 0100     		.2byte	0x1
 6831 01a9 56       		.byte	0x56
 6832 01aa 00000000 		.4byte	0
 6833 01ae 00000000 		.4byte	0
 6834              	.LLST14:
 6835 01b2 96000000 		.4byte	.LVL17
 6836 01b6 54010000 		.4byte	.LVL20
 6837 01ba 0100     		.2byte	0x1
 6838 01bc 58       		.byte	0x58
 6839 01bd 00000000 		.4byte	0
 6840 01c1 00000000 		.4byte	0
 6841              	.LLST15:
 6842 01c5 54010000 		.4byte	.LVL20
 6843 01c9 56010000 		.4byte	.LVL21
 6844 01cd 0800     		.2byte	0x8
 6845 01cf 75       		.byte	0x75
 6846 01d0 00       		.sleb128 0
 6847 01d1 7B       		.byte	0x7b
 6848 01d2 00       		.sleb128 0
 6849 01d3 22       		.byte	0x22
 6850 01d4 31       		.byte	0x31
 6851 01d5 1C       		.byte	0x1c
 6852 01d6 9F       		.byte	0x9f
 6853 01d7 5C010000 		.4byte	.LVL22
 6854 01db 65010000 		.4byte	.LVL23-1
 6855 01df 0100     		.2byte	0x1
 6856 01e1 51       		.byte	0x51
 6857 01e2 00000000 		.4byte	0
 6858 01e6 00000000 		.4byte	0
 6859              	.LLST16:
 6860 01ea 54010000 		.4byte	.LVL20
 6861 01ee 74010000 		.4byte	.LVL25
ARM GAS  /tmp/cc3rdzJM.s 			page 123


 6862 01f2 0100     		.2byte	0x1
 6863 01f4 54       		.byte	0x54
 6864 01f5 00000000 		.4byte	0
 6865 01f9 00000000 		.4byte	0
 6866              	.LLST17:
 6867 01fd 00000000 		.4byte	.LFB74
 6868 0201 04000000 		.4byte	.LCFI5
 6869 0205 0200     		.2byte	0x2
 6870 0207 7D       		.byte	0x7d
 6871 0208 00       		.sleb128 0
 6872 0209 04000000 		.4byte	.LCFI5
 6873 020d 9E000000 		.4byte	.LFE74
 6874 0211 0200     		.2byte	0x2
 6875 0213 7D       		.byte	0x7d
 6876 0214 08       		.sleb128 8
 6877 0215 00000000 		.4byte	0
 6878 0219 00000000 		.4byte	0
 6879              	.LLST18:
 6880 021d 00000000 		.4byte	.LFB75
 6881 0221 02000000 		.4byte	.LCFI6
 6882 0225 0200     		.2byte	0x2
 6883 0227 7D       		.byte	0x7d
 6884 0228 00       		.sleb128 0
 6885 0229 02000000 		.4byte	.LCFI6
 6886 022d 24010000 		.4byte	.LFE75
 6887 0231 0200     		.2byte	0x2
 6888 0233 7D       		.byte	0x7d
 6889 0234 10       		.sleb128 16
 6890 0235 00000000 		.4byte	0
 6891 0239 00000000 		.4byte	0
 6892              	.LLST19:
 6893 023d 38000000 		.4byte	.LVL36
 6894 0241 52000000 		.4byte	.LVL37
 6895 0245 0200     		.2byte	0x2
 6896 0247 31       		.byte	0x31
 6897 0248 9F       		.byte	0x9f
 6898 0249 52000000 		.4byte	.LVL37
 6899 024d 64000000 		.4byte	.LVL38
 6900 0251 0200     		.2byte	0x2
 6901 0253 32       		.byte	0x32
 6902 0254 9F       		.byte	0x9f
 6903 0255 64000000 		.4byte	.LVL38
 6904 0259 76000000 		.4byte	.LVL39
 6905 025d 0200     		.2byte	0x2
 6906 025f 33       		.byte	0x33
 6907 0260 9F       		.byte	0x9f
 6908 0261 76000000 		.4byte	.LVL39
 6909 0265 88000000 		.4byte	.LVL40
 6910 0269 0200     		.2byte	0x2
 6911 026b 34       		.byte	0x34
 6912 026c 9F       		.byte	0x9f
 6913 026d 88000000 		.4byte	.LVL40
 6914 0271 9A000000 		.4byte	.LVL41
 6915 0275 0200     		.2byte	0x2
 6916 0277 35       		.byte	0x35
 6917 0278 9F       		.byte	0x9f
 6918 0279 9A000000 		.4byte	.LVL41
ARM GAS  /tmp/cc3rdzJM.s 			page 124


 6919 027d AC000000 		.4byte	.LVL42
 6920 0281 0200     		.2byte	0x2
 6921 0283 36       		.byte	0x36
 6922 0284 9F       		.byte	0x9f
 6923 0285 AC000000 		.4byte	.LVL42
 6924 0289 BE000000 		.4byte	.LVL43
 6925 028d 0200     		.2byte	0x2
 6926 028f 37       		.byte	0x37
 6927 0290 9F       		.byte	0x9f
 6928 0291 BE000000 		.4byte	.LVL43
 6929 0295 D0000000 		.4byte	.LVL44
 6930 0299 0200     		.2byte	0x2
 6931 029b 38       		.byte	0x38
 6932 029c 9F       		.byte	0x9f
 6933 029d D0000000 		.4byte	.LVL44
 6934 02a1 E2000000 		.4byte	.LVL45
 6935 02a5 0200     		.2byte	0x2
 6936 02a7 39       		.byte	0x39
 6937 02a8 9F       		.byte	0x9f
 6938 02a9 E2000000 		.4byte	.LVL45
 6939 02ad F4000000 		.4byte	.LVL46
 6940 02b1 0200     		.2byte	0x2
 6941 02b3 3A       		.byte	0x3a
 6942 02b4 9F       		.byte	0x9f
 6943 02b5 F4000000 		.4byte	.LVL46
 6944 02b9 24010000 		.4byte	.LFE75
 6945 02bd 0200     		.2byte	0x2
 6946 02bf 3B       		.byte	0x3b
 6947 02c0 9F       		.byte	0x9f
 6948 02c1 00000000 		.4byte	0
 6949 02c5 00000000 		.4byte	0
 6950              	.LLST20:
 6951 02c9 38000000 		.4byte	.LVL36
 6952 02cd 52000000 		.4byte	.LVL37
 6953 02d1 0200     		.2byte	0x2
 6954 02d3 33       		.byte	0x33
 6955 02d4 9F       		.byte	0x9f
 6956 02d5 52000000 		.4byte	.LVL37
 6957 02d9 64000000 		.4byte	.LVL38
 6958 02dd 0200     		.2byte	0x2
 6959 02df 34       		.byte	0x34
 6960 02e0 9F       		.byte	0x9f
 6961 02e1 64000000 		.4byte	.LVL38
 6962 02e5 76000000 		.4byte	.LVL39
 6963 02e9 0200     		.2byte	0x2
 6964 02eb 35       		.byte	0x35
 6965 02ec 9F       		.byte	0x9f
 6966 02ed 76000000 		.4byte	.LVL39
 6967 02f1 88000000 		.4byte	.LVL40
 6968 02f5 0200     		.2byte	0x2
 6969 02f7 36       		.byte	0x36
 6970 02f8 9F       		.byte	0x9f
 6971 02f9 88000000 		.4byte	.LVL40
 6972 02fd 9A000000 		.4byte	.LVL41
 6973 0301 0200     		.2byte	0x2
 6974 0303 37       		.byte	0x37
 6975 0304 9F       		.byte	0x9f
ARM GAS  /tmp/cc3rdzJM.s 			page 125


 6976 0305 9A000000 		.4byte	.LVL41
 6977 0309 AC000000 		.4byte	.LVL42
 6978 030d 0200     		.2byte	0x2
 6979 030f 38       		.byte	0x38
 6980 0310 9F       		.byte	0x9f
 6981 0311 AC000000 		.4byte	.LVL42
 6982 0315 BE000000 		.4byte	.LVL43
 6983 0319 0200     		.2byte	0x2
 6984 031b 39       		.byte	0x39
 6985 031c 9F       		.byte	0x9f
 6986 031d BE000000 		.4byte	.LVL43
 6987 0321 D0000000 		.4byte	.LVL44
 6988 0325 0200     		.2byte	0x2
 6989 0327 3A       		.byte	0x3a
 6990 0328 9F       		.byte	0x9f
 6991 0329 D0000000 		.4byte	.LVL44
 6992 032d E2000000 		.4byte	.LVL45
 6993 0331 0200     		.2byte	0x2
 6994 0333 3B       		.byte	0x3b
 6995 0334 9F       		.byte	0x9f
 6996 0335 E2000000 		.4byte	.LVL45
 6997 0339 24010000 		.4byte	.LFE75
 6998 033d 0200     		.2byte	0x2
 6999 033f 3C       		.byte	0x3c
 7000 0340 9F       		.byte	0x9f
 7001 0341 00000000 		.4byte	0
 7002 0345 00000000 		.4byte	0
 7003              	.LLST21:
 7004 0349 00000000 		.4byte	.LFB76
 7005 034d 02000000 		.4byte	.LCFI7
 7006 0351 0200     		.2byte	0x2
 7007 0353 7D       		.byte	0x7d
 7008 0354 00       		.sleb128 0
 7009 0355 02000000 		.4byte	.LCFI7
 7010 0359 7C010000 		.4byte	.LFE76
 7011 035d 0200     		.2byte	0x2
 7012 035f 7D       		.byte	0x7d
 7013 0360 10       		.sleb128 16
 7014 0361 00000000 		.4byte	0
 7015 0365 00000000 		.4byte	0
 7016              	.LLST22:
 7017 0369 38000000 		.4byte	.LVL51
 7018 036d 5A000000 		.4byte	.LVL52
 7019 0371 0200     		.2byte	0x2
 7020 0373 31       		.byte	0x31
 7021 0374 9F       		.byte	0x9f
 7022 0375 5A000000 		.4byte	.LVL52
 7023 0379 74000000 		.4byte	.LVL53
 7024 037d 0200     		.2byte	0x2
 7025 037f 32       		.byte	0x32
 7026 0380 9F       		.byte	0x9f
 7027 0381 74000000 		.4byte	.LVL53
 7028 0385 8E000000 		.4byte	.LVL54
 7029 0389 0200     		.2byte	0x2
 7030 038b 33       		.byte	0x33
 7031 038c 9F       		.byte	0x9f
 7032 038d 8E000000 		.4byte	.LVL54
ARM GAS  /tmp/cc3rdzJM.s 			page 126


 7033 0391 A8000000 		.4byte	.LVL55
 7034 0395 0200     		.2byte	0x2
 7035 0397 34       		.byte	0x34
 7036 0398 9F       		.byte	0x9f
 7037 0399 A8000000 		.4byte	.LVL55
 7038 039d C2000000 		.4byte	.LVL56
 7039 03a1 0200     		.2byte	0x2
 7040 03a3 35       		.byte	0x35
 7041 03a4 9F       		.byte	0x9f
 7042 03a5 C2000000 		.4byte	.LVL56
 7043 03a9 DC000000 		.4byte	.LVL57
 7044 03ad 0200     		.2byte	0x2
 7045 03af 36       		.byte	0x36
 7046 03b0 9F       		.byte	0x9f
 7047 03b1 DC000000 		.4byte	.LVL57
 7048 03b5 F6000000 		.4byte	.LVL58
 7049 03b9 0200     		.2byte	0x2
 7050 03bb 37       		.byte	0x37
 7051 03bc 9F       		.byte	0x9f
 7052 03bd F6000000 		.4byte	.LVL58
 7053 03c1 10010000 		.4byte	.LVL59
 7054 03c5 0200     		.2byte	0x2
 7055 03c7 38       		.byte	0x38
 7056 03c8 9F       		.byte	0x9f
 7057 03c9 10010000 		.4byte	.LVL59
 7058 03cd 2A010000 		.4byte	.LVL60
 7059 03d1 0200     		.2byte	0x2
 7060 03d3 39       		.byte	0x39
 7061 03d4 9F       		.byte	0x9f
 7062 03d5 2A010000 		.4byte	.LVL60
 7063 03d9 44010000 		.4byte	.LVL61
 7064 03dd 0200     		.2byte	0x2
 7065 03df 3A       		.byte	0x3a
 7066 03e0 9F       		.byte	0x9f
 7067 03e1 44010000 		.4byte	.LVL61
 7068 03e5 5E010000 		.4byte	.LVL62
 7069 03e9 0200     		.2byte	0x2
 7070 03eb 3B       		.byte	0x3b
 7071 03ec 9F       		.byte	0x9f
 7072 03ed 5E010000 		.4byte	.LVL62
 7073 03f1 7C010000 		.4byte	.LFE76
 7074 03f5 0200     		.2byte	0x2
 7075 03f7 3C       		.byte	0x3c
 7076 03f8 9F       		.byte	0x9f
 7077 03f9 00000000 		.4byte	0
 7078 03fd 00000000 		.4byte	0
 7079              	.LLST23:
 7080 0401 38000000 		.4byte	.LVL51
 7081 0405 5A000000 		.4byte	.LVL52
 7082 0409 0200     		.2byte	0x2
 7083 040b 33       		.byte	0x33
 7084 040c 9F       		.byte	0x9f
 7085 040d 5A000000 		.4byte	.LVL52
 7086 0411 74000000 		.4byte	.LVL53
 7087 0415 0200     		.2byte	0x2
 7088 0417 34       		.byte	0x34
 7089 0418 9F       		.byte	0x9f
ARM GAS  /tmp/cc3rdzJM.s 			page 127


 7090 0419 74000000 		.4byte	.LVL53
 7091 041d 8E000000 		.4byte	.LVL54
 7092 0421 0200     		.2byte	0x2
 7093 0423 35       		.byte	0x35
 7094 0424 9F       		.byte	0x9f
 7095 0425 8E000000 		.4byte	.LVL54
 7096 0429 A8000000 		.4byte	.LVL55
 7097 042d 0200     		.2byte	0x2
 7098 042f 36       		.byte	0x36
 7099 0430 9F       		.byte	0x9f
 7100 0431 A8000000 		.4byte	.LVL55
 7101 0435 C2000000 		.4byte	.LVL56
 7102 0439 0200     		.2byte	0x2
 7103 043b 37       		.byte	0x37
 7104 043c 9F       		.byte	0x9f
 7105 043d C2000000 		.4byte	.LVL56
 7106 0441 DC000000 		.4byte	.LVL57
 7107 0445 0200     		.2byte	0x2
 7108 0447 38       		.byte	0x38
 7109 0448 9F       		.byte	0x9f
 7110 0449 DC000000 		.4byte	.LVL57
 7111 044d F6000000 		.4byte	.LVL58
 7112 0451 0200     		.2byte	0x2
 7113 0453 39       		.byte	0x39
 7114 0454 9F       		.byte	0x9f
 7115 0455 F6000000 		.4byte	.LVL58
 7116 0459 10010000 		.4byte	.LVL59
 7117 045d 0200     		.2byte	0x2
 7118 045f 3A       		.byte	0x3a
 7119 0460 9F       		.byte	0x9f
 7120 0461 10010000 		.4byte	.LVL59
 7121 0465 2A010000 		.4byte	.LVL60
 7122 0469 0200     		.2byte	0x2
 7123 046b 3B       		.byte	0x3b
 7124 046c 9F       		.byte	0x9f
 7125 046d 2A010000 		.4byte	.LVL60
 7126 0471 44010000 		.4byte	.LVL61
 7127 0475 0200     		.2byte	0x2
 7128 0477 3C       		.byte	0x3c
 7129 0478 9F       		.byte	0x9f
 7130 0479 44010000 		.4byte	.LVL61
 7131 047d 5E010000 		.4byte	.LVL62
 7132 0481 0200     		.2byte	0x2
 7133 0483 3D       		.byte	0x3d
 7134 0484 9F       		.byte	0x9f
 7135 0485 5E010000 		.4byte	.LVL62
 7136 0489 7C010000 		.4byte	.LFE76
 7137 048d 0200     		.2byte	0x2
 7138 048f 3E       		.byte	0x3e
 7139 0490 9F       		.byte	0x9f
 7140 0491 00000000 		.4byte	0
 7141 0495 00000000 		.4byte	0
 7142              	.LLST24:
 7143 0499 00000000 		.4byte	.LFB77
 7144 049d 02000000 		.4byte	.LCFI8
 7145 04a1 0200     		.2byte	0x2
 7146 04a3 7D       		.byte	0x7d
ARM GAS  /tmp/cc3rdzJM.s 			page 128


 7147 04a4 00       		.sleb128 0
 7148 04a5 02000000 		.4byte	.LCFI8
 7149 04a9 D4000000 		.4byte	.LFE77
 7150 04ad 0200     		.2byte	0x2
 7151 04af 7D       		.byte	0x7d
 7152 04b0 10       		.sleb128 16
 7153 04b1 00000000 		.4byte	0
 7154 04b5 00000000 		.4byte	0
 7155              	.LLST25:
 7156 04b9 40000000 		.4byte	.LVL66
 7157 04bd 52000000 		.4byte	.LVL67
 7158 04c1 0200     		.2byte	0x2
 7159 04c3 31       		.byte	0x31
 7160 04c4 9F       		.byte	0x9f
 7161 04c5 52000000 		.4byte	.LVL67
 7162 04c9 64000000 		.4byte	.LVL68
 7163 04cd 0200     		.2byte	0x2
 7164 04cf 32       		.byte	0x32
 7165 04d0 9F       		.byte	0x9f
 7166 04d1 64000000 		.4byte	.LVL68
 7167 04d5 76000000 		.4byte	.LVL69
 7168 04d9 0200     		.2byte	0x2
 7169 04db 33       		.byte	0x33
 7170 04dc 9F       		.byte	0x9f
 7171 04dd 76000000 		.4byte	.LVL69
 7172 04e1 88000000 		.4byte	.LVL70
 7173 04e5 0200     		.2byte	0x2
 7174 04e7 34       		.byte	0x34
 7175 04e8 9F       		.byte	0x9f
 7176 04e9 88000000 		.4byte	.LVL70
 7177 04ed 9A000000 		.4byte	.LVL71
 7178 04f1 0200     		.2byte	0x2
 7179 04f3 35       		.byte	0x35
 7180 04f4 9F       		.byte	0x9f
 7181 04f5 9A000000 		.4byte	.LVL71
 7182 04f9 AC000000 		.4byte	.LVL72
 7183 04fd 0200     		.2byte	0x2
 7184 04ff 36       		.byte	0x36
 7185 0500 9F       		.byte	0x9f
 7186 0501 AC000000 		.4byte	.LVL72
 7187 0505 BE000000 		.4byte	.LVL73
 7188 0509 0200     		.2byte	0x2
 7189 050b 37       		.byte	0x37
 7190 050c 9F       		.byte	0x9f
 7191 050d BE000000 		.4byte	.LVL73
 7192 0511 D4000000 		.4byte	.LFE77
 7193 0515 0200     		.2byte	0x2
 7194 0517 38       		.byte	0x38
 7195 0518 9F       		.byte	0x9f
 7196 0519 00000000 		.4byte	0
 7197 051d 00000000 		.4byte	0
 7198              	.LLST26:
 7199 0521 40000000 		.4byte	.LVL66
 7200 0525 52000000 		.4byte	.LVL67
 7201 0529 0200     		.2byte	0x2
 7202 052b 33       		.byte	0x33
 7203 052c 9F       		.byte	0x9f
ARM GAS  /tmp/cc3rdzJM.s 			page 129


 7204 052d 52000000 		.4byte	.LVL67
 7205 0531 64000000 		.4byte	.LVL68
 7206 0535 0200     		.2byte	0x2
 7207 0537 34       		.byte	0x34
 7208 0538 9F       		.byte	0x9f
 7209 0539 64000000 		.4byte	.LVL68
 7210 053d 76000000 		.4byte	.LVL69
 7211 0541 0200     		.2byte	0x2
 7212 0543 35       		.byte	0x35
 7213 0544 9F       		.byte	0x9f
 7214 0545 76000000 		.4byte	.LVL69
 7215 0549 88000000 		.4byte	.LVL70
 7216 054d 0200     		.2byte	0x2
 7217 054f 36       		.byte	0x36
 7218 0550 9F       		.byte	0x9f
 7219 0551 88000000 		.4byte	.LVL70
 7220 0555 9A000000 		.4byte	.LVL71
 7221 0559 0200     		.2byte	0x2
 7222 055b 37       		.byte	0x37
 7223 055c 9F       		.byte	0x9f
 7224 055d 9A000000 		.4byte	.LVL71
 7225 0561 AC000000 		.4byte	.LVL72
 7226 0565 0200     		.2byte	0x2
 7227 0567 38       		.byte	0x38
 7228 0568 9F       		.byte	0x9f
 7229 0569 AC000000 		.4byte	.LVL72
 7230 056d BE000000 		.4byte	.LVL73
 7231 0571 0200     		.2byte	0x2
 7232 0573 39       		.byte	0x39
 7233 0574 9F       		.byte	0x9f
 7234 0575 BE000000 		.4byte	.LVL73
 7235 0579 D4000000 		.4byte	.LFE77
 7236 057d 0200     		.2byte	0x2
 7237 057f 3A       		.byte	0x3a
 7238 0580 9F       		.byte	0x9f
 7239 0581 00000000 		.4byte	0
 7240 0585 00000000 		.4byte	0
 7241              	.LLST27:
 7242 0589 00000000 		.4byte	.LFB78
 7243 058d 08000000 		.4byte	.LCFI9
 7244 0591 0200     		.2byte	0x2
 7245 0593 7D       		.byte	0x7d
 7246 0594 00       		.sleb128 0
 7247 0595 08000000 		.4byte	.LCFI9
 7248 0599 56010000 		.4byte	.LFE78
 7249 059d 0200     		.2byte	0x2
 7250 059f 7D       		.byte	0x7d
 7251 05a0 18       		.sleb128 24
 7252 05a1 00000000 		.4byte	0
 7253 05a5 00000000 		.4byte	0
 7254              	.LLST28:
 7255 05a9 00000000 		.4byte	.LVL74
 7256 05ad 06000000 		.4byte	.LVL75
 7257 05b1 0100     		.2byte	0x1
 7258 05b3 50       		.byte	0x50
 7259 05b4 00000000 		.4byte	0
 7260 05b8 00000000 		.4byte	0
ARM GAS  /tmp/cc3rdzJM.s 			page 130


 7261              	.LLST29:
 7262 05bc 00000000 		.4byte	.LFB79
 7263 05c0 04000000 		.4byte	.LCFI10
 7264 05c4 0200     		.2byte	0x2
 7265 05c6 7D       		.byte	0x7d
 7266 05c7 00       		.sleb128 0
 7267 05c8 04000000 		.4byte	.LCFI10
 7268 05cc 08000000 		.4byte	.LCFI11
 7269 05d0 0200     		.2byte	0x2
 7270 05d2 7D       		.byte	0x7d
 7271 05d3 24       		.sleb128 36
 7272 05d4 08000000 		.4byte	.LCFI11
 7273 05d8 E0000000 		.4byte	.LFE79
 7274 05dc 0300     		.2byte	0x3
 7275 05de 7D       		.byte	0x7d
 7276 05df D000     		.sleb128 80
 7277 05e1 00000000 		.4byte	0
 7278 05e5 00000000 		.4byte	0
 7279              	.LLST30:
 7280 05e9 00000000 		.4byte	.LVL88
 7281 05ed 0C000000 		.4byte	.LVL89
 7282 05f1 0100     		.2byte	0x1
 7283 05f3 50       		.byte	0x50
 7284 05f4 0C000000 		.4byte	.LVL89
 7285 05f8 E0000000 		.4byte	.LFE79
 7286 05fc 0100     		.2byte	0x1
 7287 05fe 5B       		.byte	0x5b
 7288 05ff 00000000 		.4byte	0
 7289 0603 00000000 		.4byte	0
 7290              	.LLST31:
 7291 0607 12000000 		.4byte	.LVL90
 7292 060b 14000000 		.4byte	.LVL91
 7293 060f 0700     		.2byte	0x7
 7294 0611 70       		.byte	0x70
 7295 0612 00       		.sleb128 0
 7296 0613 40       		.byte	0x40
 7297 0614 24       		.byte	0x24
 7298 0615 40       		.byte	0x40
 7299 0616 26       		.byte	0x26
 7300 0617 9F       		.byte	0x9f
 7301 0618 14000000 		.4byte	.LVL91
 7302 061c A4000000 		.4byte	.LVL103
 7303 0620 0700     		.2byte	0x7
 7304 0622 74       		.byte	0x74
 7305 0623 00       		.sleb128 0
 7306 0624 40       		.byte	0x40
 7307 0625 24       		.byte	0x24
 7308 0626 40       		.byte	0x40
 7309 0627 26       		.byte	0x26
 7310 0628 9F       		.byte	0x9f
 7311 0629 BA000000 		.4byte	.LVL104
 7312 062d E0000000 		.4byte	.LFE79
 7313 0631 0700     		.2byte	0x7
 7314 0633 74       		.byte	0x74
 7315 0634 00       		.sleb128 0
 7316 0635 40       		.byte	0x40
 7317 0636 24       		.byte	0x24
ARM GAS  /tmp/cc3rdzJM.s 			page 131


 7318 0637 40       		.byte	0x40
 7319 0638 26       		.byte	0x26
 7320 0639 9F       		.byte	0x9f
 7321 063a 00000000 		.4byte	0
 7322 063e 00000000 		.4byte	0
 7323              	.LLST32:
 7324 0642 1A000000 		.4byte	.LVL92
 7325 0646 1C000000 		.4byte	.LVL93
 7326 064a 0700     		.2byte	0x7
 7327 064c 70       		.byte	0x70
 7328 064d 00       		.sleb128 0
 7329 064e 40       		.byte	0x40
 7330 064f 24       		.byte	0x24
 7331 0650 40       		.byte	0x40
 7332 0651 26       		.byte	0x26
 7333 0652 9F       		.byte	0x9f
 7334 0653 1C000000 		.4byte	.LVL93
 7335 0657 E0000000 		.4byte	.LFE79
 7336 065b 0700     		.2byte	0x7
 7337 065d 75       		.byte	0x75
 7338 065e 00       		.sleb128 0
 7339 065f 40       		.byte	0x40
 7340 0660 24       		.byte	0x24
 7341 0661 40       		.byte	0x40
 7342 0662 26       		.byte	0x26
 7343 0663 9F       		.byte	0x9f
 7344 0664 00000000 		.4byte	0
 7345 0668 00000000 		.4byte	0
 7346              	.LLST33:
 7347 066c 26000000 		.4byte	.LVL94
 7348 0670 28000000 		.4byte	.LVL95
 7349 0674 0100     		.2byte	0x1
 7350 0676 50       		.byte	0x50
 7351 0677 28000000 		.4byte	.LVL95
 7352 067b E0000000 		.4byte	.LFE79
 7353 067f 0100     		.2byte	0x1
 7354 0681 5A       		.byte	0x5a
 7355 0682 00000000 		.4byte	0
 7356 0686 00000000 		.4byte	0
 7357              	.LLST34:
 7358 068a 00000000 		.4byte	.LFB80
 7359 068e 02000000 		.4byte	.LCFI12
 7360 0692 0200     		.2byte	0x2
 7361 0694 7D       		.byte	0x7d
 7362 0695 00       		.sleb128 0
 7363 0696 02000000 		.4byte	.LCFI12
 7364 069a 06000000 		.4byte	.LCFI13
 7365 069e 0200     		.2byte	0x2
 7366 06a0 7D       		.byte	0x7d
 7367 06a1 10       		.sleb128 16
 7368 06a2 06000000 		.4byte	.LCFI13
 7369 06a6 52000000 		.4byte	.LFE80
 7370 06aa 0200     		.2byte	0x2
 7371 06ac 7D       		.byte	0x7d
 7372 06ad 18       		.sleb128 24
 7373 06ae 00000000 		.4byte	0
 7374 06b2 00000000 		.4byte	0
ARM GAS  /tmp/cc3rdzJM.s 			page 132


 7375              	.LLST35:
 7376 06b6 00000000 		.4byte	.LVL106
 7377 06ba 0A000000 		.4byte	.LVL107
 7378 06be 0100     		.2byte	0x1
 7379 06c0 50       		.byte	0x50
 7380 06c1 0A000000 		.4byte	.LVL107
 7381 06c5 36000000 		.4byte	.LVL113
 7382 06c9 0100     		.2byte	0x1
 7383 06cb 55       		.byte	0x55
 7384 06cc 00000000 		.4byte	0
 7385 06d0 00000000 		.4byte	0
 7386              	.LLST36:
 7387 06d4 18000000 		.4byte	.LVL110
 7388 06d8 36000000 		.4byte	.LVL113
 7389 06dc 0300     		.2byte	0x3
 7390 06de 75       		.byte	0x75
 7391 06df 0D       		.sleb128 13
 7392 06e0 9F       		.byte	0x9f
 7393 06e1 00000000 		.4byte	0
 7394 06e5 00000000 		.4byte	0
 7395              	.LLST37:
 7396 06e9 00000000 		.4byte	.LFB81
 7397 06ed 02000000 		.4byte	.LCFI14
 7398 06f1 0200     		.2byte	0x2
 7399 06f3 7D       		.byte	0x7d
 7400 06f4 00       		.sleb128 0
 7401 06f5 02000000 		.4byte	.LCFI14
 7402 06f9 98000000 		.4byte	.LFE81
 7403 06fd 0200     		.2byte	0x2
 7404 06ff 7D       		.byte	0x7d
 7405 0700 08       		.sleb128 8
 7406 0701 00000000 		.4byte	0
 7407 0705 00000000 		.4byte	0
 7408              	.LLST38:
 7409 0709 00000000 		.4byte	.LVL114
 7410 070d 08000000 		.4byte	.LVL116
 7411 0711 0100     		.2byte	0x1
 7412 0713 50       		.byte	0x50
 7413 0714 00000000 		.4byte	0
 7414 0718 00000000 		.4byte	0
 7415              	.LLST39:
 7416 071c 1C000000 		.4byte	.LVL119
 7417 0720 1E000000 		.4byte	.LVL120
 7418 0724 0100     		.2byte	0x1
 7419 0726 50       		.byte	0x50
 7420 0727 00000000 		.4byte	0
 7421 072b 00000000 		.4byte	0
 7422              	.LLST40:
 7423 072f 04000000 		.4byte	.LVL115
 7424 0733 08000000 		.4byte	.LVL116
 7425 0737 0300     		.2byte	0x3
 7426 0739 70       		.byte	0x70
 7427 073a 03       		.sleb128 3
 7428 073b 9F       		.byte	0x9f
 7429 073c 08000000 		.4byte	.LVL116
 7430 0740 12000000 		.4byte	.LVL117
 7431 0744 0300     		.2byte	0x3
ARM GAS  /tmp/cc3rdzJM.s 			page 133


 7432 0746 74       		.byte	0x74
 7433 0747 03       		.sleb128 3
 7434 0748 9F       		.byte	0x9f
 7435 0749 12000000 		.4byte	.LVL117
 7436 074d 15000000 		.4byte	.LVL118-1
 7437 0751 0100     		.2byte	0x1
 7438 0753 51       		.byte	0x51
 7439 0754 00000000 		.4byte	0
 7440 0758 00000000 		.4byte	0
 7441              	.LLST41:
 7442 075c 00000000 		.4byte	.LFB82
 7443 0760 02000000 		.4byte	.LCFI15
 7444 0764 0200     		.2byte	0x2
 7445 0766 7D       		.byte	0x7d
 7446 0767 00       		.sleb128 0
 7447 0768 02000000 		.4byte	.LCFI15
 7448 076c 2C000000 		.4byte	.LFE82
 7449 0770 0200     		.2byte	0x2
 7450 0772 7D       		.byte	0x7d
 7451 0773 08       		.sleb128 8
 7452 0774 00000000 		.4byte	0
 7453 0778 00000000 		.4byte	0
 7454              	.LLST42:
 7455 077c 00000000 		.4byte	.LVL121
 7456 0780 08000000 		.4byte	.LVL123
 7457 0784 0100     		.2byte	0x1
 7458 0786 50       		.byte	0x50
 7459 0787 00000000 		.4byte	0
 7460 078b 00000000 		.4byte	0
 7461              	.LLST43:
 7462 078f 04000000 		.4byte	.LVL122
 7463 0793 08000000 		.4byte	.LVL123
 7464 0797 0300     		.2byte	0x3
 7465 0799 70       		.byte	0x70
 7466 079a 03       		.sleb128 3
 7467 079b 9F       		.byte	0x9f
 7468 079c 08000000 		.4byte	.LVL123
 7469 07a0 2C000000 		.4byte	.LFE82
 7470 07a4 0300     		.2byte	0x3
 7471 07a6 74       		.byte	0x74
 7472 07a7 03       		.sleb128 3
 7473 07a8 9F       		.byte	0x9f
 7474 07a9 00000000 		.4byte	0
 7475 07ad 00000000 		.4byte	0
 7476              	.LLST44:
 7477 07b1 00000000 		.4byte	.LFB83
 7478 07b5 0A000000 		.4byte	.LCFI16
 7479 07b9 0200     		.2byte	0x2
 7480 07bb 7D       		.byte	0x7d
 7481 07bc 00       		.sleb128 0
 7482 07bd 0A000000 		.4byte	.LCFI16
 7483 07c1 C8000000 		.4byte	.LFE83
 7484 07c5 0200     		.2byte	0x2
 7485 07c7 7D       		.byte	0x7d
 7486 07c8 10       		.sleb128 16
 7487 07c9 00000000 		.4byte	0
 7488 07cd 00000000 		.4byte	0
ARM GAS  /tmp/cc3rdzJM.s 			page 134


 7489              	.LLST45:
 7490 07d1 3E000000 		.4byte	.LVL125
 7491 07d5 75000000 		.4byte	.LVL126-1
 7492 07d9 0100     		.2byte	0x1
 7493 07db 51       		.byte	0x51
 7494 07dc 00000000 		.4byte	0
 7495 07e0 00000000 		.4byte	0
 7496              	.LLST46:
 7497 07e4 3E000000 		.4byte	.LVL125
 7498 07e8 75000000 		.4byte	.LVL126-1
 7499 07ec 0D00     		.2byte	0xd
 7500 07ee 71       		.byte	0x71
 7501 07ef 00       		.sleb128 0
 7502 07f0 0B       		.byte	0xb
 7503 07f1 F0F1     		.2byte	0xf1f0
 7504 07f3 1E       		.byte	0x1e
 7505 07f4 74       		.byte	0x74
 7506 07f5 00       		.sleb128 0
 7507 07f6 22       		.byte	0x22
 7508 07f7 08       		.byte	0x8
 7509 07f8 3C       		.byte	0x3c
 7510 07f9 1B       		.byte	0x1b
 7511 07fa 9F       		.byte	0x9f
 7512 07fb 00000000 		.4byte	0
 7513 07ff 00000000 		.4byte	0
 7514              	.LLST47:
 7515 0803 00000000 		.4byte	.LFB84
 7516 0807 04000000 		.4byte	.LCFI17
 7517 080b 0200     		.2byte	0x2
 7518 080d 7D       		.byte	0x7d
 7519 080e 00       		.sleb128 0
 7520 080f 04000000 		.4byte	.LCFI17
 7521 0813 54000000 		.4byte	.LFE84
 7522 0817 0200     		.2byte	0x2
 7523 0819 7D       		.byte	0x7d
 7524 081a 18       		.sleb128 24
 7525 081b 00000000 		.4byte	0
 7526 081f 00000000 		.4byte	0
 7527              	.LLST48:
 7528 0823 00000000 		.4byte	.LVL127
 7529 0827 12000000 		.4byte	.LVL129
 7530 082b 0100     		.2byte	0x1
 7531 082d 50       		.byte	0x50
 7532 082e 00000000 		.4byte	0
 7533 0832 00000000 		.4byte	0
 7534              	.LLST49:
 7535 0836 00000000 		.4byte	.LVL127
 7536 083a 14000000 		.4byte	.LVL130
 7537 083e 0100     		.2byte	0x1
 7538 0840 51       		.byte	0x51
 7539 0841 14000000 		.4byte	.LVL130
 7540 0845 23000000 		.4byte	.LVL133-1
 7541 0849 0300     		.2byte	0x3
 7542 084b 71       		.byte	0x71
 7543 084c 6F       		.sleb128 -17
 7544 084d 9F       		.byte	0x9f
 7545 084e 00000000 		.4byte	0
ARM GAS  /tmp/cc3rdzJM.s 			page 135


 7546 0852 00000000 		.4byte	0
 7547              	.LLST50:
 7548 0856 00000000 		.4byte	.LVL127
 7549 085a 1C000000 		.4byte	.LVL131
 7550 085e 0100     		.2byte	0x1
 7551 0860 52       		.byte	0x52
 7552 0861 1C000000 		.4byte	.LVL131
 7553 0865 54000000 		.4byte	.LFE84
 7554 0869 0100     		.2byte	0x1
 7555 086b 55       		.byte	0x55
 7556 086c 00000000 		.4byte	0
 7557 0870 00000000 		.4byte	0
 7558              	.LLST51:
 7559 0874 00000000 		.4byte	.LVL127
 7560 0878 23000000 		.4byte	.LVL133-1
 7561 087c 0100     		.2byte	0x1
 7562 087e 53       		.byte	0x53
 7563 087f 23000000 		.4byte	.LVL133-1
 7564 0883 54000000 		.4byte	.LFE84
 7565 0887 0100     		.2byte	0x1
 7566 0889 57       		.byte	0x57
 7567 088a 00000000 		.4byte	0
 7568 088e 00000000 		.4byte	0
 7569              	.LLST52:
 7570 0892 0E000000 		.4byte	.LVL128
 7571 0896 14000000 		.4byte	.LVL130
 7572 089a 0300     		.2byte	0x3
 7573 089c 71       		.byte	0x71
 7574 089d 11       		.sleb128 17
 7575 089e 9F       		.byte	0x9f
 7576 089f 14000000 		.4byte	.LVL130
 7577 08a3 23000000 		.4byte	.LVL133-1
 7578 08a7 0100     		.2byte	0x1
 7579 08a9 51       		.byte	0x51
 7580 08aa 00000000 		.4byte	0
 7581 08ae 00000000 		.4byte	0
 7582              	.LLST53:
 7583 08b2 0E000000 		.4byte	.LVL128
 7584 08b6 20000000 		.4byte	.LVL132
 7585 08ba 0100     		.2byte	0x1
 7586 08bc 56       		.byte	0x56
 7587 08bd 20000000 		.4byte	.LVL132
 7588 08c1 23000000 		.4byte	.LVL133-1
 7589 08c5 0100     		.2byte	0x1
 7590 08c7 52       		.byte	0x52
 7591 08c8 00000000 		.4byte	0
 7592 08cc 00000000 		.4byte	0
 7593              	.LLST54:
 7594 08d0 00000000 		.4byte	.LFB85
 7595 08d4 02000000 		.4byte	.LCFI18
 7596 08d8 0200     		.2byte	0x2
 7597 08da 7D       		.byte	0x7d
 7598 08db 00       		.sleb128 0
 7599 08dc 02000000 		.4byte	.LCFI18
 7600 08e0 32000000 		.4byte	.LFE85
 7601 08e4 0200     		.2byte	0x2
 7602 08e6 7D       		.byte	0x7d
ARM GAS  /tmp/cc3rdzJM.s 			page 136


 7603 08e7 10       		.sleb128 16
 7604 08e8 00000000 		.4byte	0
 7605 08ec 00000000 		.4byte	0
 7606              	.LLST55:
 7607 08f0 00000000 		.4byte	.LVL134
 7608 08f4 0E000000 		.4byte	.LVL136
 7609 08f8 0100     		.2byte	0x1
 7610 08fa 50       		.byte	0x50
 7611 08fb 00000000 		.4byte	0
 7612 08ff 00000000 		.4byte	0
 7613              	.LLST56:
 7614 0903 00000000 		.4byte	.LVL134
 7615 0907 12000000 		.4byte	.LVL137
 7616 090b 0100     		.2byte	0x1
 7617 090d 51       		.byte	0x51
 7618 090e 00000000 		.4byte	0
 7619 0912 00000000 		.4byte	0
 7620              	.LLST57:
 7621 0916 00000000 		.4byte	.LVL134
 7622 091a 14000000 		.4byte	.LVL138
 7623 091e 0100     		.2byte	0x1
 7624 0920 52       		.byte	0x52
 7625 0921 14000000 		.4byte	.LVL138
 7626 0925 32000000 		.4byte	.LFE85
 7627 0929 0100     		.2byte	0x1
 7628 092b 54       		.byte	0x54
 7629 092c 00000000 		.4byte	0
 7630 0930 00000000 		.4byte	0
 7631              	.LLST58:
 7632 0934 00000000 		.4byte	.LVL134
 7633 0938 1D000000 		.4byte	.LVL140-1
 7634 093c 0100     		.2byte	0x1
 7635 093e 53       		.byte	0x53
 7636 093f 1D000000 		.4byte	.LVL140-1
 7637 0943 32000000 		.4byte	.LFE85
 7638 0947 0100     		.2byte	0x1
 7639 0949 55       		.byte	0x55
 7640 094a 00000000 		.4byte	0
 7641 094e 00000000 		.4byte	0
 7642              	.LLST59:
 7643 0952 0A000000 		.4byte	.LVL135
 7644 0956 12000000 		.4byte	.LVL137
 7645 095a 0300     		.2byte	0x3
 7646 095c 71       		.byte	0x71
 7647 095d 11       		.sleb128 17
 7648 095e 9F       		.byte	0x9f
 7649 095f 12000000 		.4byte	.LVL137
 7650 0963 1D000000 		.4byte	.LVL140-1
 7651 0967 0100     		.2byte	0x1
 7652 0969 51       		.byte	0x51
 7653 096a 00000000 		.4byte	0
 7654 096e 00000000 		.4byte	0
 7655              	.LLST60:
 7656 0972 0A000000 		.4byte	.LVL135
 7657 0976 1A000000 		.4byte	.LVL139
 7658 097a 0100     		.2byte	0x1
 7659 097c 55       		.byte	0x55
ARM GAS  /tmp/cc3rdzJM.s 			page 137


 7660 097d 1A000000 		.4byte	.LVL139
 7661 0981 1D000000 		.4byte	.LVL140-1
 7662 0985 0100     		.2byte	0x1
 7663 0987 52       		.byte	0x52
 7664 0988 00000000 		.4byte	0
 7665 098c 00000000 		.4byte	0
 7666              	.LLST61:
 7667 0990 00000000 		.4byte	.LFB86
 7668 0994 06000000 		.4byte	.LCFI19
 7669 0998 0200     		.2byte	0x2
 7670 099a 7D       		.byte	0x7d
 7671 099b 00       		.sleb128 0
 7672 099c 06000000 		.4byte	.LCFI19
 7673 09a0 5C000000 		.4byte	.LFE86
 7674 09a4 0200     		.2byte	0x2
 7675 09a6 7D       		.byte	0x7d
 7676 09a7 08       		.sleb128 8
 7677 09a8 00000000 		.4byte	0
 7678 09ac 00000000 		.4byte	0
 7679              	.LLST62:
 7680 09b0 00000000 		.4byte	.LFB87
 7681 09b4 06000000 		.4byte	.LCFI20
 7682 09b8 0200     		.2byte	0x2
 7683 09ba 7D       		.byte	0x7d
 7684 09bb 00       		.sleb128 0
 7685 09bc 06000000 		.4byte	.LCFI20
 7686 09c0 3A000000 		.4byte	.LFE87
 7687 09c4 0200     		.2byte	0x2
 7688 09c6 7D       		.byte	0x7d
 7689 09c7 08       		.sleb128 8
 7690 09c8 00000000 		.4byte	0
 7691 09cc 00000000 		.4byte	0
 7692              	.LLST63:
 7693 09d0 00000000 		.4byte	.LFB88
 7694 09d4 02000000 		.4byte	.LCFI21
 7695 09d8 0200     		.2byte	0x2
 7696 09da 7D       		.byte	0x7d
 7697 09db 00       		.sleb128 0
 7698 09dc 02000000 		.4byte	.LCFI21
 7699 09e0 06000000 		.4byte	.LCFI22
 7700 09e4 0200     		.2byte	0x2
 7701 09e6 7D       		.byte	0x7d
 7702 09e7 14       		.sleb128 20
 7703 09e8 06000000 		.4byte	.LCFI22
 7704 09ec B6020000 		.4byte	.LFE88
 7705 09f0 0200     		.2byte	0x2
 7706 09f2 7D       		.byte	0x7d
 7707 09f3 20       		.sleb128 32
 7708 09f4 00000000 		.4byte	0
 7709 09f8 00000000 		.4byte	0
 7710              	.LLST64:
 7711 09fc 00000000 		.4byte	.LVL142
 7712 0a00 0A000000 		.4byte	.LVL143
 7713 0a04 0200     		.2byte	0x2
 7714 0a06 30       		.byte	0x30
 7715 0a07 9F       		.byte	0x9f
 7716 0a08 0A000000 		.4byte	.LVL143
ARM GAS  /tmp/cc3rdzJM.s 			page 138


 7717 0a0c 10000000 		.4byte	.LVL144
 7718 0a10 0200     		.2byte	0x2
 7719 0a12 31       		.byte	0x31
 7720 0a13 9F       		.byte	0x9f
 7721 0a14 10000000 		.4byte	.LVL144
 7722 0a18 16000000 		.4byte	.LVL145
 7723 0a1c 0200     		.2byte	0x2
 7724 0a1e 32       		.byte	0x32
 7725 0a1f 9F       		.byte	0x9f
 7726 0a20 16000000 		.4byte	.LVL145
 7727 0a24 1C000000 		.4byte	.LVL146
 7728 0a28 0200     		.2byte	0x2
 7729 0a2a 33       		.byte	0x33
 7730 0a2b 9F       		.byte	0x9f
 7731 0a2c 1C000000 		.4byte	.LVL146
 7732 0a30 22000000 		.4byte	.LVL147
 7733 0a34 0200     		.2byte	0x2
 7734 0a36 34       		.byte	0x34
 7735 0a37 9F       		.byte	0x9f
 7736 0a38 22000000 		.4byte	.LVL147
 7737 0a3c 28000000 		.4byte	.LVL148
 7738 0a40 0200     		.2byte	0x2
 7739 0a42 35       		.byte	0x35
 7740 0a43 9F       		.byte	0x9f
 7741 0a44 28000000 		.4byte	.LVL148
 7742 0a48 2E000000 		.4byte	.LVL149
 7743 0a4c 0200     		.2byte	0x2
 7744 0a4e 36       		.byte	0x36
 7745 0a4f 9F       		.byte	0x9f
 7746 0a50 2E000000 		.4byte	.LVL149
 7747 0a54 34000000 		.4byte	.LVL150
 7748 0a58 0200     		.2byte	0x2
 7749 0a5a 37       		.byte	0x37
 7750 0a5b 9F       		.byte	0x9f
 7751 0a5c 34000000 		.4byte	.LVL150
 7752 0a60 3A000000 		.4byte	.LVL151
 7753 0a64 0200     		.2byte	0x2
 7754 0a66 38       		.byte	0x38
 7755 0a67 9F       		.byte	0x9f
 7756 0a68 3A000000 		.4byte	.LVL151
 7757 0a6c 40000000 		.4byte	.LVL152
 7758 0a70 0200     		.2byte	0x2
 7759 0a72 39       		.byte	0x39
 7760 0a73 9F       		.byte	0x9f
 7761 0a74 40000000 		.4byte	.LVL152
 7762 0a78 46000000 		.4byte	.LVL153
 7763 0a7c 0200     		.2byte	0x2
 7764 0a7e 3A       		.byte	0x3a
 7765 0a7f 9F       		.byte	0x9f
 7766 0a80 46000000 		.4byte	.LVL153
 7767 0a84 4C000000 		.4byte	.LVL154
 7768 0a88 0200     		.2byte	0x2
 7769 0a8a 31       		.byte	0x31
 7770 0a8b 9F       		.byte	0x9f
 7771 0a8c 4C000000 		.4byte	.LVL154
 7772 0a90 52000000 		.4byte	.LVL155
 7773 0a94 0200     		.2byte	0x2
ARM GAS  /tmp/cc3rdzJM.s 			page 139


 7774 0a96 32       		.byte	0x32
 7775 0a97 9F       		.byte	0x9f
 7776 0a98 52000000 		.4byte	.LVL155
 7777 0a9c 58000000 		.4byte	.LVL156
 7778 0aa0 0200     		.2byte	0x2
 7779 0aa2 33       		.byte	0x33
 7780 0aa3 9F       		.byte	0x9f
 7781 0aa4 58000000 		.4byte	.LVL156
 7782 0aa8 5E000000 		.4byte	.LVL157
 7783 0aac 0200     		.2byte	0x2
 7784 0aae 34       		.byte	0x34
 7785 0aaf 9F       		.byte	0x9f
 7786 0ab0 5E000000 		.4byte	.LVL157
 7787 0ab4 64000000 		.4byte	.LVL158
 7788 0ab8 0200     		.2byte	0x2
 7789 0aba 35       		.byte	0x35
 7790 0abb 9F       		.byte	0x9f
 7791 0abc 64000000 		.4byte	.LVL158
 7792 0ac0 6A000000 		.4byte	.LVL159
 7793 0ac4 0200     		.2byte	0x2
 7794 0ac6 36       		.byte	0x36
 7795 0ac7 9F       		.byte	0x9f
 7796 0ac8 6A000000 		.4byte	.LVL159
 7797 0acc 70000000 		.4byte	.LVL160
 7798 0ad0 0200     		.2byte	0x2
 7799 0ad2 37       		.byte	0x37
 7800 0ad3 9F       		.byte	0x9f
 7801 0ad4 70000000 		.4byte	.LVL160
 7802 0ad8 76000000 		.4byte	.LVL161
 7803 0adc 0200     		.2byte	0x2
 7804 0ade 38       		.byte	0x38
 7805 0adf 9F       		.byte	0x9f
 7806 0ae0 76000000 		.4byte	.LVL161
 7807 0ae4 7C000000 		.4byte	.LVL162
 7808 0ae8 0200     		.2byte	0x2
 7809 0aea 39       		.byte	0x39
 7810 0aeb 9F       		.byte	0x9f
 7811 0aec 7C000000 		.4byte	.LVL162
 7812 0af0 82000000 		.4byte	.LVL163
 7813 0af4 0200     		.2byte	0x2
 7814 0af6 3A       		.byte	0x3a
 7815 0af7 9F       		.byte	0x9f
 7816 0af8 82000000 		.4byte	.LVL163
 7817 0afc 88000000 		.4byte	.LVL164
 7818 0b00 0200     		.2byte	0x2
 7819 0b02 3B       		.byte	0x3b
 7820 0b03 9F       		.byte	0x9f
 7821 0b04 88000000 		.4byte	.LVL164
 7822 0b08 8E000000 		.4byte	.LVL165
 7823 0b0c 0200     		.2byte	0x2
 7824 0b0e 3C       		.byte	0x3c
 7825 0b0f 9F       		.byte	0x9f
 7826 0b10 8E000000 		.4byte	.LVL165
 7827 0b14 94000000 		.4byte	.LVL166
 7828 0b18 0200     		.2byte	0x2
 7829 0b1a 31       		.byte	0x31
 7830 0b1b 9F       		.byte	0x9f
ARM GAS  /tmp/cc3rdzJM.s 			page 140


 7831 0b1c 94000000 		.4byte	.LVL166
 7832 0b20 9A000000 		.4byte	.LVL167
 7833 0b24 0200     		.2byte	0x2
 7834 0b26 32       		.byte	0x32
 7835 0b27 9F       		.byte	0x9f
 7836 0b28 9A000000 		.4byte	.LVL167
 7837 0b2c A0000000 		.4byte	.LVL168
 7838 0b30 0200     		.2byte	0x2
 7839 0b32 33       		.byte	0x33
 7840 0b33 9F       		.byte	0x9f
 7841 0b34 A0000000 		.4byte	.LVL168
 7842 0b38 A6000000 		.4byte	.LVL169
 7843 0b3c 0200     		.2byte	0x2
 7844 0b3e 34       		.byte	0x34
 7845 0b3f 9F       		.byte	0x9f
 7846 0b40 A6000000 		.4byte	.LVL169
 7847 0b44 AC000000 		.4byte	.LVL170
 7848 0b48 0200     		.2byte	0x2
 7849 0b4a 35       		.byte	0x35
 7850 0b4b 9F       		.byte	0x9f
 7851 0b4c AC000000 		.4byte	.LVL170
 7852 0b50 B2000000 		.4byte	.LVL171
 7853 0b54 0200     		.2byte	0x2
 7854 0b56 36       		.byte	0x36
 7855 0b57 9F       		.byte	0x9f
 7856 0b58 B2000000 		.4byte	.LVL171
 7857 0b5c B8000000 		.4byte	.LVL172
 7858 0b60 0200     		.2byte	0x2
 7859 0b62 37       		.byte	0x37
 7860 0b63 9F       		.byte	0x9f
 7861 0b64 B8000000 		.4byte	.LVL172
 7862 0b68 B6020000 		.4byte	.LFE88
 7863 0b6c 0200     		.2byte	0x2
 7864 0b6e 38       		.byte	0x38
 7865 0b6f 9F       		.byte	0x9f
 7866 0b70 00000000 		.4byte	0
 7867 0b74 00000000 		.4byte	0
 7868              		.section	.debug_aranges,"",%progbits
 7869 0000 A4000000 		.4byte	0xa4
 7870 0004 0200     		.2byte	0x2
 7871 0006 00000000 		.4byte	.Ldebug_info0
 7872 000a 04       		.byte	0x4
 7873 000b 00       		.byte	0
 7874 000c 0000     		.2byte	0
 7875 000e 0000     		.2byte	0
 7876 0010 00000000 		.4byte	.LFB64
 7877 0014 34000000 		.4byte	.LFE64-.LFB64
 7878 0018 00000000 		.4byte	.LFB65
 7879 001c 50000000 		.4byte	.LFE65-.LFB65
 7880 0020 00000000 		.4byte	.LFB73
 7881 0024 AC010000 		.4byte	.LFE73-.LFB73
 7882 0028 00000000 		.4byte	.LFB74
 7883 002c 9E000000 		.4byte	.LFE74-.LFB74
 7884 0030 00000000 		.4byte	.LFB75
 7885 0034 24010000 		.4byte	.LFE75-.LFB75
 7886 0038 00000000 		.4byte	.LFB76
 7887 003c 7C010000 		.4byte	.LFE76-.LFB76
ARM GAS  /tmp/cc3rdzJM.s 			page 141


 7888 0040 00000000 		.4byte	.LFB77
 7889 0044 D4000000 		.4byte	.LFE77-.LFB77
 7890 0048 00000000 		.4byte	.LFB78
 7891 004c 56010000 		.4byte	.LFE78-.LFB78
 7892 0050 00000000 		.4byte	.LFB79
 7893 0054 E0000000 		.4byte	.LFE79-.LFB79
 7894 0058 00000000 		.4byte	.LFB80
 7895 005c 52000000 		.4byte	.LFE80-.LFB80
 7896 0060 00000000 		.4byte	.LFB81
 7897 0064 98000000 		.4byte	.LFE81-.LFB81
 7898 0068 00000000 		.4byte	.LFB82
 7899 006c 2C000000 		.4byte	.LFE82-.LFB82
 7900 0070 00000000 		.4byte	.LFB83
 7901 0074 C8000000 		.4byte	.LFE83-.LFB83
 7902 0078 00000000 		.4byte	.LFB84
 7903 007c 54000000 		.4byte	.LFE84-.LFB84
 7904 0080 00000000 		.4byte	.LFB85
 7905 0084 32000000 		.4byte	.LFE85-.LFB85
 7906 0088 00000000 		.4byte	.LFB86
 7907 008c 5C000000 		.4byte	.LFE86-.LFB86
 7908 0090 00000000 		.4byte	.LFB87
 7909 0094 3A000000 		.4byte	.LFE87-.LFB87
 7910 0098 00000000 		.4byte	.LFB88
 7911 009c B6020000 		.4byte	.LFE88-.LFB88
 7912 00a0 00000000 		.4byte	0
 7913 00a4 00000000 		.4byte	0
 7914              		.section	.debug_ranges,"",%progbits
 7915              	.Ldebug_ranges0:
 7916 0000 22000000 		.4byte	.LBB18
 7917 0004 28000000 		.4byte	.LBE18
 7918 0008 2C000000 		.4byte	.LBB21
 7919 000c 34000000 		.4byte	.LBE21
 7920 0010 00000000 		.4byte	0
 7921 0014 00000000 		.4byte	0
 7922 0018 22000000 		.4byte	.LBB19
 7923 001c 28000000 		.4byte	.LBE19
 7924 0020 2C000000 		.4byte	.LBB20
 7925 0024 34000000 		.4byte	.LBE20
 7926 0028 00000000 		.4byte	0
 7927 002c 00000000 		.4byte	0
 7928 0030 06000000 		.4byte	.LBB30
 7929 0034 0A000000 		.4byte	.LBE30
 7930 0038 0C000000 		.4byte	.LBB34
 7931 003c 12000000 		.4byte	.LBE34
 7932 0040 1A000000 		.4byte	.LBB35
 7933 0044 1E000000 		.4byte	.LBE35
 7934 0048 00000000 		.4byte	0
 7935 004c 00000000 		.4byte	0
 7936 0050 72000000 		.4byte	.LBB36
 7937 0054 86000000 		.4byte	.LBE36
 7938 0058 88000000 		.4byte	.LBB42
 7939 005c 8C000000 		.4byte	.LBE42
 7940 0060 BA000000 		.4byte	.LBB48
 7941 0064 CA000000 		.4byte	.LBE48
 7942 0068 F0000000 		.4byte	.LBB50
 7943 006c 00010000 		.4byte	.LBE50
 7944 0070 22010000 		.4byte	.LBB52
ARM GAS  /tmp/cc3rdzJM.s 			page 142


 7945 0074 32010000 		.4byte	.LBE52
 7946 0078 00000000 		.4byte	0
 7947 007c 00000000 		.4byte	0
 7948 0080 96000000 		.4byte	.LBB43
 7949 0084 A6000000 		.4byte	.LBE43
 7950 0088 D0000000 		.4byte	.LBB49
 7951 008c E0000000 		.4byte	.LBE49
 7952 0090 06010000 		.4byte	.LBB51
 7953 0094 16010000 		.4byte	.LBE51
 7954 0098 38010000 		.4byte	.LBB53
 7955 009c 48010000 		.4byte	.LBE53
 7956 00a0 00000000 		.4byte	0
 7957 00a4 00000000 		.4byte	0
 7958 00a8 1A000000 		.4byte	.LBB68
 7959 00ac 1E000000 		.4byte	.LBE68
 7960 00b0 26000000 		.4byte	.LBB72
 7961 00b4 2A000000 		.4byte	.LBE72
 7962 00b8 3A000000 		.4byte	.LBB73
 7963 00bc 44000000 		.4byte	.LBE73
 7964 00c0 00000000 		.4byte	0
 7965 00c4 00000000 		.4byte	0
 7966 00c8 02000000 		.4byte	.LBB96
 7967 00cc 0C000000 		.4byte	.LBE96
 7968 00d0 10000000 		.4byte	.LBB104
 7969 00d4 14000000 		.4byte	.LBE104
 7970 00d8 18000000 		.4byte	.LBB106
 7971 00dc 1C000000 		.4byte	.LBE106
 7972 00e0 00000000 		.4byte	0
 7973 00e4 00000000 		.4byte	0
 7974 00e8 0C000000 		.4byte	.LBB100
 7975 00ec 10000000 		.4byte	.LBE100
 7976 00f0 14000000 		.4byte	.LBB105
 7977 00f4 18000000 		.4byte	.LBE105
 7978 00f8 1C000000 		.4byte	.LBB107
 7979 00fc 24000000 		.4byte	.LBE107
 7980 0100 00000000 		.4byte	0
 7981 0104 00000000 		.4byte	0
 7982 0108 3C000000 		.4byte	.LBB110
 7983 010c 3E000000 		.4byte	.LBE110
 7984 0110 42000000 		.4byte	.LBB122
 7985 0114 4A000000 		.4byte	.LBE122
 7986 0118 52000000 		.4byte	.LBB123
 7987 011c 5C000000 		.4byte	.LBE123
 7988 0120 64000000 		.4byte	.LBB124
 7989 0124 6E000000 		.4byte	.LBE124
 7990 0128 76000000 		.4byte	.LBB125
 7991 012c 80000000 		.4byte	.LBE125
 7992 0130 88000000 		.4byte	.LBB126
 7993 0134 92000000 		.4byte	.LBE126
 7994 0138 9A000000 		.4byte	.LBB127
 7995 013c A4000000 		.4byte	.LBE127
 7996 0140 AC000000 		.4byte	.LBB128
 7997 0144 B6000000 		.4byte	.LBE128
 7998 0148 BE000000 		.4byte	.LBB129
 7999 014c C8000000 		.4byte	.LBE129
 8000 0150 D0000000 		.4byte	.LBB130
 8001 0154 DA000000 		.4byte	.LBE130
ARM GAS  /tmp/cc3rdzJM.s 			page 143


 8002 0158 E2000000 		.4byte	.LBB131
 8003 015c EC000000 		.4byte	.LBE131
 8004 0160 00000000 		.4byte	0
 8005 0164 00000000 		.4byte	0
 8006 0168 02000000 		.4byte	.LBB144
 8007 016c 0A000000 		.4byte	.LBE144
 8008 0170 0E000000 		.4byte	.LBB152
 8009 0174 14000000 		.4byte	.LBE152
 8010 0178 18000000 		.4byte	.LBB154
 8011 017c 1C000000 		.4byte	.LBE154
 8012 0180 00000000 		.4byte	0
 8013 0184 00000000 		.4byte	0
 8014 0188 0A000000 		.4byte	.LBB148
 8015 018c 0E000000 		.4byte	.LBE148
 8016 0190 14000000 		.4byte	.LBB153
 8017 0194 18000000 		.4byte	.LBE153
 8018 0198 1C000000 		.4byte	.LBB155
 8019 019c 24000000 		.4byte	.LBE155
 8020 01a0 00000000 		.4byte	0
 8021 01a4 00000000 		.4byte	0
 8022 01a8 38000000 		.4byte	.LBB158
 8023 01ac 42000000 		.4byte	.LBE158
 8024 01b0 5A000000 		.4byte	.LBB171
 8025 01b4 64000000 		.4byte	.LBE171
 8026 01b8 74000000 		.4byte	.LBB172
 8027 01bc 7E000000 		.4byte	.LBE172
 8028 01c0 8E000000 		.4byte	.LBB173
 8029 01c4 98000000 		.4byte	.LBE173
 8030 01c8 A8000000 		.4byte	.LBB174
 8031 01cc B2000000 		.4byte	.LBE174
 8032 01d0 C2000000 		.4byte	.LBB175
 8033 01d4 CC000000 		.4byte	.LBE175
 8034 01d8 DC000000 		.4byte	.LBB176
 8035 01dc E6000000 		.4byte	.LBE176
 8036 01e0 F6000000 		.4byte	.LBB177
 8037 01e4 00010000 		.4byte	.LBE177
 8038 01e8 10010000 		.4byte	.LBB178
 8039 01ec 1A010000 		.4byte	.LBE178
 8040 01f0 2A010000 		.4byte	.LBB179
 8041 01f4 34010000 		.4byte	.LBE179
 8042 01f8 44010000 		.4byte	.LBB180
 8043 01fc 4E010000 		.4byte	.LBE180
 8044 0200 5E010000 		.4byte	.LBB181
 8045 0204 68010000 		.4byte	.LBE181
 8046 0208 00000000 		.4byte	0
 8047 020c 00000000 		.4byte	0
 8048 0210 02000000 		.4byte	.LBB190
 8049 0214 0A000000 		.4byte	.LBE190
 8050 0218 0E000000 		.4byte	.LBB198
 8051 021c 14000000 		.4byte	.LBE198
 8052 0220 18000000 		.4byte	.LBB200
 8053 0224 1C000000 		.4byte	.LBE200
 8054 0228 00000000 		.4byte	0
 8055 022c 00000000 		.4byte	0
 8056 0230 0A000000 		.4byte	.LBB194
 8057 0234 0E000000 		.4byte	.LBE194
 8058 0238 14000000 		.4byte	.LBB199
ARM GAS  /tmp/cc3rdzJM.s 			page 144


 8059 023c 18000000 		.4byte	.LBE199
 8060 0240 1C000000 		.4byte	.LBB201
 8061 0244 24000000 		.4byte	.LBE201
 8062 0248 00000000 		.4byte	0
 8063 024c 00000000 		.4byte	0
 8064 0250 30000000 		.4byte	.LBB202
 8065 0254 34000000 		.4byte	.LBE202
 8066 0258 3C000000 		.4byte	.LBB205
 8067 025c 40000000 		.4byte	.LBE205
 8068 0260 00000000 		.4byte	0
 8069 0264 00000000 		.4byte	0
 8070 0268 40000000 		.4byte	.LBB206
 8071 026c 4A000000 		.4byte	.LBE206
 8072 0270 52000000 		.4byte	.LBB215
 8073 0274 5C000000 		.4byte	.LBE215
 8074 0278 64000000 		.4byte	.LBB216
 8075 027c 6E000000 		.4byte	.LBE216
 8076 0280 76000000 		.4byte	.LBB217
 8077 0284 80000000 		.4byte	.LBE217
 8078 0288 88000000 		.4byte	.LBB218
 8079 028c 92000000 		.4byte	.LBE218
 8080 0290 9A000000 		.4byte	.LBB219
 8081 0294 A4000000 		.4byte	.LBE219
 8082 0298 AC000000 		.4byte	.LBB220
 8083 029c B6000000 		.4byte	.LBE220
 8084 02a0 BE000000 		.4byte	.LBB221
 8085 02a4 C8000000 		.4byte	.LBE221
 8086 02a8 00000000 		.4byte	0
 8087 02ac 00000000 		.4byte	0
 8088 02b0 02000000 		.4byte	.LBB246
 8089 02b4 06000000 		.4byte	.LBE246
 8090 02b8 08000000 		.4byte	.LBB250
 8091 02bc 10000000 		.4byte	.LBE250
 8092 02c0 28000000 		.4byte	.LBB251
 8093 02c4 2C000000 		.4byte	.LBE251
 8094 02c8 00000000 		.4byte	0
 8095 02cc 00000000 		.4byte	0
 8096 02d0 44010000 		.4byte	.LBB272
 8097 02d4 4E010000 		.4byte	.LBE272
 8098 02d8 52010000 		.4byte	.LBB275
 8099 02dc 56010000 		.4byte	.LBE275
 8100 02e0 00000000 		.4byte	0
 8101 02e4 00000000 		.4byte	0
 8102 02e8 04000000 		.4byte	.LBB286
 8103 02ec 10000000 		.4byte	.LBE286
 8104 02f0 12000000 		.4byte	.LBB289
 8105 02f4 16000000 		.4byte	.LBE289
 8106 02f8 00000000 		.4byte	0
 8107 02fc 00000000 		.4byte	0
 8108 0300 0E000000 		.4byte	.LBB300
 8109 0304 14000000 		.4byte	.LBE300
 8110 0308 16000000 		.4byte	.LBB304
 8111 030c 1C000000 		.4byte	.LBE304
 8112 0310 20000000 		.4byte	.LBB305
 8113 0314 24000000 		.4byte	.LBE305
 8114 0318 00000000 		.4byte	0
 8115 031c 00000000 		.4byte	0
ARM GAS  /tmp/cc3rdzJM.s 			page 145


 8116 0320 0A000000 		.4byte	.LBB308
 8117 0324 0E000000 		.4byte	.LBE308
 8118 0328 10000000 		.4byte	.LBB312
 8119 032c 18000000 		.4byte	.LBE312
 8120 0330 1A000000 		.4byte	.LBB313
 8121 0334 1E000000 		.4byte	.LBE313
 8122 0338 00000000 		.4byte	0
 8123 033c 00000000 		.4byte	0
 8124 0340 00000000 		.4byte	.LBB314
 8125 0344 04000000 		.4byte	.LBE314
 8126 0348 06000000 		.4byte	.LBB317
 8127 034c 0E000000 		.4byte	.LBE317
 8128 0350 00000000 		.4byte	0
 8129 0354 00000000 		.4byte	0
 8130 0358 00000000 		.4byte	.LBB332
 8131 035c 04000000 		.4byte	.LBE332
 8132 0360 06000000 		.4byte	.LBB335
 8133 0364 12000000 		.4byte	.LBE335
 8134 0368 00000000 		.4byte	0
 8135 036c 00000000 		.4byte	0
 8136 0370 2A000000 		.4byte	.LBB340
 8137 0374 32000000 		.4byte	.LBE340
 8138 0378 36000000 		.4byte	.LBB343
 8139 037c 3A000000 		.4byte	.LBE343
 8140 0380 00000000 		.4byte	0
 8141 0384 00000000 		.4byte	0
 8142 0388 A0020000 		.4byte	.LBB346
 8143 038c AC020000 		.4byte	.LBE346
 8144 0390 B2020000 		.4byte	.LBB349
 8145 0394 B6020000 		.4byte	.LBE349
 8146 0398 00000000 		.4byte	0
 8147 039c 00000000 		.4byte	0
 8148 03a0 00000000 		.4byte	.LFB64
 8149 03a4 34000000 		.4byte	.LFE64
 8150 03a8 00000000 		.4byte	.LFB65
 8151 03ac 50000000 		.4byte	.LFE65
 8152 03b0 00000000 		.4byte	.LFB73
 8153 03b4 AC010000 		.4byte	.LFE73
 8154 03b8 00000000 		.4byte	.LFB74
 8155 03bc 9E000000 		.4byte	.LFE74
 8156 03c0 00000000 		.4byte	.LFB75
 8157 03c4 24010000 		.4byte	.LFE75
 8158 03c8 00000000 		.4byte	.LFB76
 8159 03cc 7C010000 		.4byte	.LFE76
 8160 03d0 00000000 		.4byte	.LFB77
 8161 03d4 D4000000 		.4byte	.LFE77
 8162 03d8 00000000 		.4byte	.LFB78
 8163 03dc 56010000 		.4byte	.LFE78
 8164 03e0 00000000 		.4byte	.LFB79
 8165 03e4 E0000000 		.4byte	.LFE79
 8166 03e8 00000000 		.4byte	.LFB80
 8167 03ec 52000000 		.4byte	.LFE80
 8168 03f0 00000000 		.4byte	.LFB81
 8169 03f4 98000000 		.4byte	.LFE81
 8170 03f8 00000000 		.4byte	.LFB82
 8171 03fc 2C000000 		.4byte	.LFE82
 8172 0400 00000000 		.4byte	.LFB83
ARM GAS  /tmp/cc3rdzJM.s 			page 146


 8173 0404 C8000000 		.4byte	.LFE83
 8174 0408 00000000 		.4byte	.LFB84
 8175 040c 54000000 		.4byte	.LFE84
 8176 0410 00000000 		.4byte	.LFB85
 8177 0414 32000000 		.4byte	.LFE85
 8178 0418 00000000 		.4byte	.LFB86
 8179 041c 5C000000 		.4byte	.LFE86
 8180 0420 00000000 		.4byte	.LFB87
 8181 0424 3A000000 		.4byte	.LFE87
 8182 0428 00000000 		.4byte	.LFB88
 8183 042c B6020000 		.4byte	.LFE88
 8184 0430 00000000 		.4byte	0
 8185 0434 00000000 		.4byte	0
 8186              		.section	.debug_line,"",%progbits
 8187              	.Ldebug_line0:
 8188 0000 3F080000 		.section	.debug_str,"MS",%progbits,1
 8188      0200D802 
 8188      00000201 
 8188      FB0E0D00 
 8188      01010101 
 8189              	.LASF49:
 8190 0000 54687265 		.ascii	"ThreadsList\000"
 8190      6164734C 
 8190      69737400 
 8191              	.LASF53:
 8192 000c 76746675 		.ascii	"vtfunc_t\000"
 8192      6E635F74 
 8192      00
 8193              	.LASF103:
 8194 0015 53657269 		.ascii	"SerialDriver\000"
 8194      616C4472 
 8194      69766572 
 8194      00
 8195              	.LASF40:
 8196 0022 705F7469 		.ascii	"p_time\000"
 8196      6D6500
 8197              	.LASF50:
 8198 0029 72656761 		.ascii	"regarm_t\000"
 8198      726D5F74 
 8198      00
 8199              	.LASF31:
 8200 0032 705F7072 		.ascii	"p_prio\000"
 8200      696F00
 8201              	.LASF188:
 8202 0039 6B466C61 		.ascii	"kFlagAutonomousMode\000"
 8202      67417574 
 8202      6F6E6F6D 
 8202      6F75734D 
 8202      6F646500 
 8203              	.LASF187:
 8204 004d 6B466C61 		.ascii	"kFlagGameController\000"
 8204      6747616D 
 8204      65436F6E 
 8204      74726F6C 
 8204      6C657200 
 8205              	.LASF145:
 8206 0061 42746E35 		.ascii	"Btn5D\000"
ARM GAS  /tmp/cc3rdzJM.s 			page 147


 8206      4400
 8207              	.LASF26:
 8208 0067 73797374 		.ascii	"systime_t\000"
 8208      696D655F 
 8208      7400
 8209              	.LASF196:
 8210 0071 62756666 		.ascii	"buffer\000"
 8210      657200
 8211              	.LASF191:
 8212 0078 76743130 		.ascii	"vt100_clearscreen\000"
 8212      305F636C 
 8212      65617273 
 8212      63726565 
 8212      6E00
 8213              	.LASF219:
 8214 008a 61706F6C 		.ascii	"apolloUpdateDigital\000"
 8214      6C6F5570 
 8214      64617465 
 8214      44696769 
 8214      74616C00 
 8215              	.LASF64:
 8216 009e 6D5F6F77 		.ascii	"m_owner\000"
 8216      6E657200 
 8217              	.LASF160:
 8218 00a6 43683458 		.ascii	"Ch4Xmtr2\000"
 8218      6D747232 
 8218      00
 8219              	.LASF60:
 8220 00af 76745F73 		.ascii	"vt_systime\000"
 8220      79737469 
 8220      6D6500
 8221              	.LASF146:
 8222 00ba 42746E35 		.ascii	"Btn5U\000"
 8222      5500
 8223              	.LASF42:
 8224 00c0 705F6D73 		.ascii	"p_msgqueue\000"
 8224      67717565 
 8224      756500
 8225              	.LASF4:
 8226 00cb 756E7369 		.ascii	"unsigned int\000"
 8226      676E6564 
 8226      20696E74 
 8226      00
 8227              	.LASF193:
 8228 00d8 76743130 		.ascii	"vt100_graphics\000"
 8228      305F6772 
 8228      61706869 
 8228      637300
 8229              	.LASF152:
 8230 00e7 42746E35 		.ascii	"Btn5\000"
 8230      00
 8231              	.LASF41:
 8232 00ec 705F7761 		.ascii	"p_waiting\000"
 8232      6974696E 
 8232      6700
 8233              	.LASF84:
 8234 00f6 715F7264 		.ascii	"q_rdptr\000"
ARM GAS  /tmp/cc3rdzJM.s 			page 148


 8234      70747200 
 8235              	.LASF87:
 8236 00fe 716E6F74 		.ascii	"qnotify_t\000"
 8236      6966795F 
 8236      7400
 8237              	.LASF69:
 8238 0108 656C5F6D 		.ascii	"el_mask\000"
 8238      61736B00 
 8239              	.LASF134:
 8240 0110 6B566578 		.ascii	"kVexConfigSonarOut\000"
 8240      436F6E66 
 8240      6967536F 
 8240      6E61724F 
 8240      757400
 8241              	.LASF76:
 8242 0123 77746F62 		.ascii	"wtobjp\000"
 8242      6A7000
 8243              	.LASF235:
 8244 012a 76746C69 		.ascii	"vtlist\000"
 8244      737400
 8245              	.LASF147:
 8246 0131 42746E36 		.ascii	"Btn6D\000"
 8246      4400
 8247              	.LASF170:
 8248 0137 42746E35 		.ascii	"Btn5UXmtr2\000"
 8248      55586D74 
 8248      723200
 8249              	.LASF86:
 8250 0142 715F6C69 		.ascii	"q_link\000"
 8250      6E6B00
 8251              	.LASF203:
 8252 0149 61706F6C 		.ascii	"apolloScreenSetup\000"
 8252      6C6F5363 
 8252      7265656E 
 8252      53657475 
 8252      7000
 8253              	.LASF121:
 8254 015b 6B566578 		.ascii	"kVexSensorDigitalInput\000"
 8254      53656E73 
 8254      6F724469 
 8254      67697461 
 8254      6C496E70 
 8255              	.LASF148:
 8256 0172 42746E36 		.ascii	"Btn6U\000"
 8256      5500
 8257              	.LASF128:
 8258 0178 6B566578 		.ascii	"kVexSensorInterrupt\000"
 8258      53656E73 
 8258      6F72496E 
 8258      74657272 
 8258      75707400 
 8259              	.LASF205:
 8260 018c 6D6F6465 		.ascii	"mode\000"
 8260      00
 8261              	.LASF162:
 8262 0191 42746E38 		.ascii	"Btn8LXmtr2\000"
 8262      4C586D74 
ARM GAS  /tmp/cc3rdzJM.s 			page 149


 8262      723200
 8263              	.LASF114:
 8264 019c 77726974 		.ascii	"writet\000"
 8264      657400
 8265              	.LASF96:
 8266 01a3 47545052 		.ascii	"GTPR\000"
 8266      00
 8267              	.LASF141:
 8268 01a8 42746E37 		.ascii	"Btn7D\000"
 8268      4400
 8269              	.LASF106:
 8270 01ae 69717565 		.ascii	"iqueue\000"
 8270      756500
 8271              	.LASF57:
 8272 01b5 76745F74 		.ascii	"vt_time\000"
 8272      696D6500 
 8273              	.LASF142:
 8274 01bd 42746E37 		.ascii	"Btn7L\000"
 8274      4C00
 8275              	.LASF16:
 8276 01c3 75696E74 		.ascii	"uint32_t\000"
 8276      33325F74 
 8276      00
 8277              	.LASF144:
 8278 01cc 42746E37 		.ascii	"Btn7R\000"
 8278      5200
 8279              	.LASF168:
 8280 01d2 42746E37 		.ascii	"Btn7RXmtr2\000"
 8280      52586D74 
 8280      723200
 8281              	.LASF143:
 8282 01dd 42746E37 		.ascii	"Btn7U\000"
 8282      5500
 8283              	.LASF228:
 8284 01e3 646F776E 		.ascii	"down\000"
 8284      00
 8285              	.LASF24:
 8286 01e8 6576656E 		.ascii	"eventmask_t\000"
 8286      746D6173 
 8286      6B5F7400 
 8287              	.LASF59:
 8288 01f4 76745F70 		.ascii	"vt_par\000"
 8288      617200
 8289              	.LASF190:
 8290 01fb 666C6F61 		.ascii	"float\000"
 8290      7400
 8291              	.LASF102:
 8292 0201 73647374 		.ascii	"sdstate_t\000"
 8292      6174655F 
 8292      7400
 8293              	.LASF104:
 8294 020b 6576656E 		.ascii	"event\000"
 8294      7400
 8295              	.LASF120:
 8296 0211 6B566578 		.ascii	"kVexSensorNone\000"
 8296      53656E73 
 8296      6F724E6F 
ARM GAS  /tmp/cc3rdzJM.s 			page 150


 8296      6E6500
 8297              	.LASF22:
 8298 0220 74707269 		.ascii	"tprio_t\000"
 8298      6F5F7400 
 8299              	.LASF215:
 8300 0228 616D7073 		.ascii	"amps\000"
 8300      00
 8301              	.LASF211:
 8302 022d 636F756E 		.ascii	"count\000"
 8302      7400
 8303              	.LASF90:
 8304 0233 52455345 		.ascii	"RESERVED0\000"
 8304      52564544 
 8304      3000
 8305              	.LASF72:
 8306 023d 65735F6E 		.ascii	"es_next\000"
 8306      65787400 
 8307              	.LASF199:
 8308 0245 76743130 		.ascii	"vt100_cursor\000"
 8308      305F6375 
 8308      72736F72 
 8308      00
 8309              	.LASF176:
 8310 0252 42746E35 		.ascii	"Btn5Xmtr2\000"
 8310      586D7472 
 8310      3200
 8311              	.LASF6:
 8312 025c 6C6F6E67 		.ascii	"long long unsigned int\000"
 8312      206C6F6E 
 8312      6720756E 
 8312      7369676E 
 8312      65642069 
 8313              	.LASF212:
 8314 0273 6F666673 		.ascii	"offset\000"
 8314      657400
 8315              	.LASF137:
 8316 027a 42746E38 		.ascii	"Btn8D\000"
 8316      4400
 8317              	.LASF157:
 8318 0280 43683158 		.ascii	"Ch1Xmtr2\000"
 8318      6D747232 
 8318      00
 8319              	.LASF138:
 8320 0289 42746E38 		.ascii	"Btn8L\000"
 8320      4C00
 8321              	.LASF204:
 8322 028f 76743130 		.ascii	"vt100_videomode\000"
 8322      305F7669 
 8322      64656F6D 
 8322      6F646500 
 8323              	.LASF140:
 8324 029f 42746E38 		.ascii	"Btn8R\000"
 8324      5200
 8325              	.LASF222:
 8326 02a5 61706F6C 		.ascii	"apolloUpdateSystem\000"
 8326      6C6F5570 
 8326      64617465 
ARM GAS  /tmp/cc3rdzJM.s 			page 151


 8326      53797374 
 8326      656D00
 8327              	.LASF139:
 8328 02b8 42746E38 		.ascii	"Btn8U\000"
 8328      5500
 8329              	.LASF231:
 8330 02be 61706F6C 		.ascii	"apolloUpdateJoystickAnalog\000"
 8330      6C6F5570 
 8330      64617465 
 8330      4A6F7973 
 8330      7469636B 
 8331              	.LASF173:
 8332 02d9 4163636C 		.ascii	"AcclXXmtr2\000"
 8332      58586D74 
 8332      723200
 8333              	.LASF116:
 8334 02e4 6B566578 		.ascii	"kVexMotorUndefined\000"
 8334      4D6F746F 
 8334      72556E64 
 8334      6566696E 
 8334      656400
 8335              	.LASF131:
 8336 02f7 6B566578 		.ascii	"kVexConfigOutput\000"
 8336      436F6E66 
 8336      69674F75 
 8336      74707574 
 8336      00
 8337              	.LASF210:
 8338 0308 6A6F7973 		.ascii	"joystick\000"
 8338      7469636B 
 8338      00
 8339              	.LASF33:
 8340 0311 705F6E65 		.ascii	"p_newer\000"
 8340      77657200 
 8341              	.LASF214:
 8342 0319 76616C75 		.ascii	"value\000"
 8342      6500
 8343              	.LASF79:
 8344 031f 715F7761 		.ascii	"q_waiting\000"
 8344      6974696E 
 8344      6700
 8345              	.LASF240:
 8346 0329 76743130 		.ascii	"vt100_printf\000"
 8346      305F7072 
 8346      696E7466 
 8346      00
 8347              	.LASF239:
 8348 0336 2F686F6D 		.ascii	"/home/aolsen/vrc-9999/TossUp-Joker\000"
 8348      652F616F 
 8348      6C73656E 
 8348      2F767263 
 8348      2D393939 
 8349              	.LASF11:
 8350 0359 5F5F676E 		.ascii	"__gnuc_va_list\000"
 8350      75635F76 
 8350      615F6C69 
 8350      737400
ARM GAS  /tmp/cc3rdzJM.s 			page 152


 8351              	.LASF112:
 8352 0368 70757474 		.ascii	"putt\000"
 8352      00
 8353              	.LASF71:
 8354 036d 4576656E 		.ascii	"EventSource\000"
 8354      74536F75 
 8354      72636500 
 8355              	.LASF10:
 8356 0379 73697A65 		.ascii	"size_t\000"
 8356      5F7400
 8357              	.LASF74:
 8358 0380 7264796D 		.ascii	"rdymsg\000"
 8358      736700
 8359              	.LASF200:
 8360 0387 77696474 		.ascii	"width\000"
 8360      6800
 8361              	.LASF232:
 8362 038d 61706F6C 		.ascii	"apolloInit\000"
 8362      6C6F496E 
 8362      697400
 8363              	.LASF217:
 8364 0398 646F7562 		.ascii	"double\000"
 8364      6C6500
 8365              	.LASF119:
 8366 039f 6B566578 		.ascii	"kVexMotor393S\000"
 8366      4D6F746F 
 8366      72333933 
 8366      5300
 8367              	.LASF118:
 8368 03ad 6B566578 		.ascii	"kVexMotor393T\000"
 8368      4D6F746F 
 8368      72333933 
 8368      5400
 8369              	.LASF17:
 8370 03bb 5F426F6F 		.ascii	"_Bool\000"
 8370      6C00
 8371              	.LASF100:
 8372 03c1 53445F53 		.ascii	"SD_STOP\000"
 8372      544F5000 
 8373              	.LASF161:
 8374 03c9 42746E38 		.ascii	"Btn8DXmtr2\000"
 8374      44586D74 
 8374      723200
 8375              	.LASF125:
 8376 03d4 6B566578 		.ascii	"kVexSensorSonarInch\000"
 8376      53656E73 
 8376      6F72536F 
 8376      6E617249 
 8376      6E636800 
 8377              	.LASF233:
 8378 03e8 61706F6C 		.ascii	"apolloDeinit\000"
 8378      6C6F4465 
 8378      696E6974 
 8378      00
 8379              	.LASF181:
 8380 03f5 6B466C61 		.ascii	"kFlagNoXmiters\000"
 8380      674E6F58 
ARM GAS  /tmp/cc3rdzJM.s 			page 153


 8380      6D697465 
 8380      727300
 8381              	.LASF62:
 8382 0404 4D757465 		.ascii	"Mutex\000"
 8382      7800
 8383              	.LASF89:
 8384 040a 4F757470 		.ascii	"OutputQueue\000"
 8384      75745175 
 8384      65756500 
 8385              	.LASF88:
 8386 0416 496E7075 		.ascii	"InputQueue\000"
 8386      74517565 
 8386      756500
 8387              	.LASF34:
 8388 0421 705F6F6C 		.ascii	"p_older\000"
 8388      64657200 
 8389              	.LASF194:
 8390 0429 76743130 		.ascii	"vt100_ascii\000"
 8390      305F6173 
 8390      63696900 
 8391              	.LASF186:
 8392 0435 6B466C61 		.ascii	"kFlagResetSlave\000"
 8392      67526573 
 8392      6574536C 
 8392      61766500 
 8393              	.LASF35:
 8394 0445 705F6E61 		.ascii	"p_name\000"
 8394      6D6500
 8395              	.LASF48:
 8396 044c 54687265 		.ascii	"ThreadsQueue\000"
 8396      61647351 
 8396      75657565 
 8396      00
 8397              	.LASF9:
 8398 0459 63686172 		.ascii	"char\000"
 8398      00
 8399              	.LASF238:
 8400 045e 2E2E2F63 		.ascii	"../convex/cortex/opt/apollo.c\000"
 8400      6F6E7665 
 8400      782F636F 
 8400      72746578 
 8400      2F6F7074 
 8401              	.LASF83:
 8402 047c 715F7772 		.ascii	"q_wrptr\000"
 8402      70747200 
 8403              	.LASF159:
 8404 0484 43683358 		.ascii	"Ch3Xmtr2\000"
 8404      6D747232 
 8404      00
 8405              	.LASF225:
 8406 048d 6D696E73 		.ascii	"mins\000"
 8406      00
 8407              	.LASF27:
 8408 0492 54687265 		.ascii	"Thread\000"
 8408      616400
 8409              	.LASF39:
 8410 0499 705F7072 		.ascii	"p_preempt\000"
ARM GAS  /tmp/cc3rdzJM.s 			page 154


 8410      65656D70 
 8410      7400
 8411              	.LASF19:
 8412 04a3 74737461 		.ascii	"tstate_t\000"
 8412      74655F74 
 8412      00
 8413              	.LASF61:
 8414 04ac 56544C69 		.ascii	"VTList\000"
 8414      737400
 8415              	.LASF122:
 8416 04b3 6B566578 		.ascii	"kVexSensorDigitalOutput\000"
 8416      53656E73 
 8416      6F724469 
 8416      67697461 
 8416      6C4F7574 
 8417              	.LASF172:
 8418 04cb 42746E36 		.ascii	"Btn6UXmtr2\000"
 8418      55586D74 
 8418      723200
 8419              	.LASF36:
 8420 04d6 705F7374 		.ascii	"p_state\000"
 8420      61746500 
 8421              	.LASF202:
 8422 04de 76743130 		.ascii	"vt100_drawbox\000"
 8422      305F6472 
 8422      6177626F 
 8422      7800
 8423              	.LASF13:
 8424 04ec 75696E74 		.ascii	"uint8_t\000"
 8424      385F7400 
 8425              	.LASF25:
 8426 04f4 666C6167 		.ascii	"flagsmask_t\000"
 8426      736D6173 
 8426      6B5F7400 
 8427              	.LASF47:
 8428 0500 705F6D70 		.ascii	"p_mpool\000"
 8428      6F6F6C00 
 8429              	.LASF45:
 8430 0508 705F6D74 		.ascii	"p_mtxlist\000"
 8430      786C6973 
 8430      7400
 8431              	.LASF180:
 8432 0512 42746E41 		.ascii	"BtnAnyXmtr2\000"
 8432      6E79586D 
 8432      74723200 
 8433              	.LASF226:
 8434 051e 73656373 		.ascii	"secs\000"
 8434      00
 8435              	.LASF108:
 8436 0523 75736172 		.ascii	"usart\000"
 8436      7400
 8437              	.LASF230:
 8438 0529 72696768 		.ascii	"right\000"
 8438      7400
 8439              	.LASF12:
 8440 052f 76615F6C 		.ascii	"va_list\000"
 8440      69737400 
ARM GAS  /tmp/cc3rdzJM.s 			page 155


 8441              	.LASF5:
 8442 0537 6C6F6E67 		.ascii	"long long int\000"
 8442      206C6F6E 
 8442      6720696E 
 8442      7400
 8443              	.LASF110:
 8444 0545 77726974 		.ascii	"write\000"
 8444      6500
 8445              	.LASF81:
 8446 054b 715F6275 		.ascii	"q_buffer\000"
 8446      66666572 
 8446      00
 8447              	.LASF227:
 8448 0554 61706F6C 		.ascii	"apolloUpdateJoystickButton\000"
 8448      6C6F5570 
 8448      64617465 
 8448      4A6F7973 
 8448      7469636B 
 8449              	.LASF23:
 8450 056f 6D73675F 		.ascii	"msg_t\000"
 8450      7400
 8451              	.LASF195:
 8452 0575 76743130 		.ascii	"vt100_showcursor\000"
 8452      305F7368 
 8452      6F776375 
 8452      72736F72 
 8452      00
 8453              	.LASF52:
 8454 0586 636F6E74 		.ascii	"context\000"
 8454      65787400 
 8455              	.LASF178:
 8456 058e 42746E37 		.ascii	"Btn7Xmtr2\000"
 8456      586D7472 
 8456      3200
 8457              	.LASF37:
 8458 0598 705F666C 		.ascii	"p_flags\000"
 8458      61677300 
 8459              	.LASF234:
 8460 05a0 61706F6C 		.ascii	"apolloUpdate\000"
 8460      6C6F5570 
 8460      64617465 
 8460      00
 8461              	.LASF73:
 8462 05ad 5F5F6170 		.ascii	"__ap\000"
 8462      00
 8463              	.LASF221:
 8464 05b2 61706F6C 		.ascii	"apolloUpdateAnalog\000"
 8464      6C6F5570 
 8464      64617465 
 8464      416E616C 
 8464      6F6700
 8465              	.LASF175:
 8466 05c5 4163636C 		.ascii	"AcclZXmtr2\000"
 8466      5A586D74 
 8466      723200
 8467              	.LASF156:
 8468 05d0 42746E41 		.ascii	"BtnAny\000"
ARM GAS  /tmp/cc3rdzJM.s 			page 156


 8468      6E7900
 8469              	.LASF21:
 8470 05d7 74736C69 		.ascii	"tslices_t\000"
 8470      6365735F 
 8470      7400
 8471              	.LASF163:
 8472 05e1 42746E38 		.ascii	"Btn8UXmtr2\000"
 8472      55586D74 
 8472      723200
 8473              	.LASF166:
 8474 05ec 42746E37 		.ascii	"Btn7LXmtr2\000"
 8474      4C586D74 
 8474      723200
 8475              	.LASF201:
 8476 05f7 68656967 		.ascii	"height\000"
 8476      687400
 8477              	.LASF130:
 8478 05fe 6B566578 		.ascii	"kVexConfigInput\000"
 8478      436F6E66 
 8478      6967496E 
 8478      70757400 
 8479              	.LASF67:
 8480 060e 656C5F6E 		.ascii	"el_next\000"
 8480      65787400 
 8481              	.LASF43:
 8482 0616 705F6D73 		.ascii	"p_msg\000"
 8482      6700
 8483              	.LASF184:
 8484 061c 6B466C61 		.ascii	"kFlagBit2\000"
 8484      67426974 
 8484      3200
 8485              	.LASF18:
 8486 0626 746D6F64 		.ascii	"tmode_t\000"
 8486      655F7400 
 8487              	.LASF223:
 8488 062e 73797374 		.ascii	"systime\000"
 8488      696D6500 
 8489              	.LASF179:
 8490 0636 42746E38 		.ascii	"Btn8mXtr2\000"
 8490      6D587472 
 8490      3200
 8491              	.LASF197:
 8492 0640 61726773 		.ascii	"args\000"
 8492      00
 8493              	.LASF3:
 8494 0645 73686F72 		.ascii	"short unsigned int\000"
 8494      7420756E 
 8494      7369676E 
 8494      65642069 
 8494      6E7400
 8495              	.LASF78:
 8496 0658 47656E65 		.ascii	"GenericQueue\000"
 8496      72696351 
 8496      75657565 
 8496      00
 8497              	.LASF107:
 8498 0665 6F717565 		.ascii	"oqueue\000"
ARM GAS  /tmp/cc3rdzJM.s 			page 157


 8498      756500
 8499              	.LASF14:
 8500 066c 75696E74 		.ascii	"uint16_t\000"
 8500      31365F74 
 8500      00
 8501              	.LASF51:
 8502 0675 696E7463 		.ascii	"intctx\000"
 8502      747800
 8503              	.LASF167:
 8504 067c 42746E37 		.ascii	"Btn7UXmtr2\000"
 8504      55586D74 
 8504      723200
 8505              	.LASF123:
 8506 0687 6B566578 		.ascii	"kVexSensorQuadEncoder\000"
 8506      53656E73 
 8506      6F725175 
 8506      6164456E 
 8506      636F6465 
 8507              	.LASF101:
 8508 069d 53445F52 		.ascii	"SD_READY\000"
 8508      45414459 
 8508      00
 8509              	.LASF169:
 8510 06a6 42746E35 		.ascii	"Btn5DXmtr2\000"
 8510      44586D74 
 8510      723200
 8511              	.LASF124:
 8512 06b1 6B566578 		.ascii	"kVexSensorSonarCm\000"
 8512      53656E73 
 8512      6F72536F 
 8512      6E617243 
 8512      6D00
 8513              	.LASF46:
 8514 06c3 705F7265 		.ascii	"p_realprio\000"
 8514      616C7072 
 8514      696F00
 8515              	.LASF91:
 8516 06ce 52455345 		.ascii	"RESERVED1\000"
 8516      52564544 
 8516      3100
 8517              	.LASF92:
 8518 06d8 52455345 		.ascii	"RESERVED2\000"
 8518      52564544 
 8518      3200
 8519              	.LASF93:
 8520 06e2 52455345 		.ascii	"RESERVED3\000"
 8520      52564544 
 8520      3300
 8521              	.LASF94:
 8522 06ec 52455345 		.ascii	"RESERVED4\000"
 8522      52564544 
 8522      3400
 8523              	.LASF95:
 8524 06f6 52455345 		.ascii	"RESERVED5\000"
 8524      52564544 
 8524      3500
 8525              	.LASF97:
ARM GAS  /tmp/cc3rdzJM.s 			page 158


 8526 0700 52455345 		.ascii	"RESERVED6\000"
 8526      52564544 
 8526      3600
 8527              	.LASF2:
 8528 070a 73686F72 		.ascii	"short int\000"
 8528      7420696E 
 8528      7400
 8529              	.LASF44:
 8530 0714 705F6570 		.ascii	"p_epending\000"
 8530      656E6469 
 8530      6E6700
 8531              	.LASF63:
 8532 071f 6D5F7175 		.ascii	"m_queue\000"
 8532      65756500 
 8533              	.LASF7:
 8534 0727 6C6F6E67 		.ascii	"long int\000"
 8534      20696E74 
 8534      00
 8535              	.LASF198:
 8536 0730 61706F6C 		.ascii	"apolloPut\000"
 8536      6C6F5075 
 8536      7400
 8537              	.LASF236:
 8538 073a 49544D5F 		.ascii	"ITM_RxBuffer\000"
 8538      52784275 
 8538      66666572 
 8538      00
 8539              	.LASF216:
 8540 0747 74656D70 		.ascii	"temp\000"
 8540      00
 8541              	.LASF218:
 8542 074c 61706F6C 		.ascii	"apolloUpdateCortex\000"
 8542      6C6F5570 
 8542      64617465 
 8542      436F7274 
 8542      657800
 8543              	.LASF29:
 8544 075f 705F6E65 		.ascii	"p_next\000"
 8544      787400
 8545              	.LASF136:
 8546 0766 6B566578 		.ascii	"kVexConfigInterrupt\000"
 8546      436F6E66 
 8546      6967496E 
 8546      74657272 
 8546      75707400 
 8547              	.LASF32:
 8548 077a 705F6374 		.ascii	"p_ctx\000"
 8548      7800
 8549              	.LASF127:
 8550 0780 6B566578 		.ascii	"kVexSensorPotentiometer\000"
 8550      53656E73 
 8550      6F72506F 
 8550      74656E74 
 8550      696F6D65 
 8551              	.LASF229:
 8552 0798 6C656674 		.ascii	"left\000"
 8552      00
ARM GAS  /tmp/cc3rdzJM.s 			page 159


 8553              	.LASF224:
 8554 079d 686F7572 		.ascii	"hours\000"
 8554      7300
 8555              	.LASF111:
 8556 07a3 72656164 		.ascii	"read\000"
 8556      00
 8557              	.LASF68:
 8558 07a8 656C5F6C 		.ascii	"el_listener\000"
 8558      69737465 
 8558      6E657200 
 8559              	.LASF99:
 8560 07b4 53445F55 		.ascii	"SD_UNINIT\000"
 8560      4E494E49 
 8560      5400
 8561              	.LASF80:
 8562 07be 715F636F 		.ascii	"q_counter\000"
 8562      756E7465 
 8562      7200
 8563              	.LASF113:
 8564 07c8 67657474 		.ascii	"gett\000"
 8564      00
 8565              	.LASF213:
 8566 07cd 61706F6C 		.ascii	"apolloUpdateMotor\000"
 8566      6C6F5570 
 8566      64617465 
 8566      4D6F746F 
 8566      7200
 8567              	.LASF82:
 8568 07df 715F746F 		.ascii	"q_top\000"
 8568      7000
 8569              	.LASF30:
 8570 07e5 705F7072 		.ascii	"p_prev\000"
 8570      657600
 8571              	.LASF20:
 8572 07ec 74726566 		.ascii	"trefs_t\000"
 8572      735F7400 
 8573              	.LASF54:
 8574 07f4 56697274 		.ascii	"VirtualTimer\000"
 8574      75616C54 
 8574      696D6572 
 8574      00
 8575              	.LASF66:
 8576 0801 4576656E 		.ascii	"EventListener\000"
 8576      744C6973 
 8576      74656E65 
 8576      7200
 8577              	.LASF8:
 8578 080f 6C6F6E67 		.ascii	"long unsigned int\000"
 8578      20756E73 
 8578      69676E65 
 8578      6420696E 
 8578      7400
 8579              	.LASF165:
 8580 0821 42746E37 		.ascii	"Btn7DXmtr2\000"
 8580      44586D74 
 8580      723200
 8581              	.LASF158:
ARM GAS  /tmp/cc3rdzJM.s 			page 160


 8582 082c 43683258 		.ascii	"Ch2Xmtr2\000"
 8582      6D747232 
 8582      00
 8583              	.LASF15:
 8584 0835 696E7433 		.ascii	"int32_t\000"
 8584      325F7400 
 8585              	.LASF135:
 8586 083d 6B566578 		.ascii	"kVexConfigSonarIn\000"
 8586      436F6E66 
 8586      6967536F 
 8586      6E617249 
 8586      6E00
 8587              	.LASF117:
 8588 084f 6B566578 		.ascii	"kVexMotor269\000"
 8588      4D6F746F 
 8588      72323639 
 8588      00
 8589              	.LASF98:
 8590 085c 55534152 		.ascii	"USART_TypeDef\000"
 8590      545F5479 
 8590      70654465 
 8590      6600
 8591              	.LASF220:
 8592 086a 74797065 		.ascii	"type\000"
 8592      00
 8593              	.LASF185:
 8594 086f 6B466C61 		.ascii	"kFlagCompetitionSwitch\000"
 8594      67436F6D 
 8594      70657469 
 8594      74696F6E 
 8594      53776974 
 8595              	.LASF1:
 8596 0886 756E7369 		.ascii	"unsigned char\000"
 8596      676E6564 
 8596      20636861 
 8596      7200
 8597              	.LASF237:
 8598 0894 474E5520 		.ascii	"GNU C 4.6.3\000"
 8598      4320342E 
 8598      362E3300 
 8599              	.LASF38:
 8600 08a0 705F7265 		.ascii	"p_refs\000"
 8600      667300
 8601              	.LASF209:
 8602 08a7 61706F6C 		.ascii	"apolloJoystickSetup\000"
 8602      6C6F4A6F 
 8602      79737469 
 8602      636B5365 
 8602      74757000 
 8603              	.LASF149:
 8604 08bb 4163636C 		.ascii	"AcclX\000"
 8604      5800
 8605              	.LASF150:
 8606 08c1 4163636C 		.ascii	"AcclY\000"
 8606      5900
 8607              	.LASF151:
 8608 08c7 4163636C 		.ascii	"AcclZ\000"
ARM GAS  /tmp/cc3rdzJM.s 			page 161


 8608      5A00
 8609              	.LASF105:
 8610 08cd 73746174 		.ascii	"state\000"
 8610      6500
 8611              	.LASF77:
 8612 08d3 65776D61 		.ascii	"ewmask\000"
 8612      736B00
 8613              	.LASF55:
 8614 08da 76745F6E 		.ascii	"vt_next\000"
 8614      65787400 
 8615              	.LASF177:
 8616 08e2 42746E36 		.ascii	"Btn6Xmtr2\000"
 8616      586D7472 
 8616      3200
 8617              	.LASF129:
 8618 08ec 74566578 		.ascii	"tVexSensorType\000"
 8618      53656E73 
 8618      6F725479 
 8618      706500
 8619              	.LASF28:
 8620 08fb 5F5F7661 		.ascii	"__va_list\000"
 8620      5F6C6973 
 8620      7400
 8621              	.LASF65:
 8622 0905 6D5F6E65 		.ascii	"m_next\000"
 8622      787400
 8623              	.LASF126:
 8624 090c 6B566578 		.ascii	"kVexSensorIME\000"
 8624      53656E73 
 8624      6F72494D 
 8624      4500
 8625              	.LASF182:
 8626 091a 6B466C61 		.ascii	"kFlagXmit1\000"
 8626      67586D69 
 8626      743100
 8627              	.LASF183:
 8628 0925 6B466C61 		.ascii	"kFlagXmit2\000"
 8628      67586D69 
 8628      743200
 8629              	.LASF0:
 8630 0930 7369676E 		.ascii	"signed char\000"
 8630      65642063 
 8630      68617200 
 8631              	.LASF132:
 8632 093c 6B566578 		.ascii	"kVexConfigQuadEnc1\000"
 8632      436F6E66 
 8632      69675175 
 8632      6164456E 
 8632      633100
 8633              	.LASF133:
 8634 094f 6B566578 		.ascii	"kVexConfigQuadEnc2\000"
 8634      436F6E66 
 8634      69675175 
 8634      6164456E 
 8634      633200
 8635              	.LASF174:
 8636 0962 4163636C 		.ascii	"AcclYXmtr2\000"
ARM GAS  /tmp/cc3rdzJM.s 			page 162


 8636      59586D74 
 8636      723200
 8637              	.LASF115:
 8638 096d 72656164 		.ascii	"readt\000"
 8638      7400
 8639              	.LASF109:
 8640 0973 53657269 		.ascii	"SerialDriverVMT\000"
 8640      616C4472 
 8640      69766572 
 8640      564D5400 
 8641              	.LASF206:
 8642 0983 61706F6C 		.ascii	"apolloMotorSetup\000"
 8642      6C6F4D6F 
 8642      746F7253 
 8642      65747570 
 8642      00
 8643              	.LASF208:
 8644 0994 61706F6C 		.ascii	"apolloAnalogSetup\000"
 8644      6C6F416E 
 8644      616C6F67 
 8644      53657475 
 8644      7000
 8645              	.LASF153:
 8646 09a6 42746E36 		.ascii	"Btn6\000"
 8646      00
 8647              	.LASF154:
 8648 09ab 42746E37 		.ascii	"Btn7\000"
 8648      00
 8649              	.LASF155:
 8650 09b0 42746E38 		.ascii	"Btn8\000"
 8650      00
 8651              	.LASF207:
 8652 09b5 61706F6C 		.ascii	"apolloDigitalSetup\000"
 8652      6C6F4469 
 8652      67697461 
 8652      6C536574 
 8652      757000
 8653              	.LASF58:
 8654 09c8 76745F66 		.ascii	"vt_func\000"
 8654      756E6300 
 8655              	.LASF56:
 8656 09d0 76745F70 		.ascii	"vt_prev\000"
 8656      72657600 
 8657              	.LASF189:
 8658 09d8 6B466C61 		.ascii	"kFlagDisabled\000"
 8658      67446973 
 8658      61626C65 
 8658      6400
 8659              	.LASF192:
 8660 09e6 76743130 		.ascii	"vt100_hidecursor\000"
 8660      305F6869 
 8660      64656375 
 8660      72736F72 
 8660      00
 8661              	.LASF164:
 8662 09f7 42746E38 		.ascii	"Btn8RXmtr2\000"
 8662      52586D74 
ARM GAS  /tmp/cc3rdzJM.s 			page 163


 8662      723200
 8663              	.LASF171:
 8664 0a02 42746E36 		.ascii	"Btn6DXmtr2\000"
 8664      44586D74 
 8664      723200
 8665              	.LASF85:
 8666 0a0d 715F6E6F 		.ascii	"q_notify\000"
 8666      74696679 
 8666      00
 8667              	.LASF70:
 8668 0a16 656C5F66 		.ascii	"el_flags\000"
 8668      6C616773 
 8668      00
 8669              	.LASF75:
 8670 0a1f 65786974 		.ascii	"exitcode\000"
 8670      636F6465 
 8670      00
 8671              		.ident	"GCC: (Sourcery CodeBench Lite 2012.03-56) 4.6.3"
ARM GAS  /tmp/cc3rdzJM.s 			page 164


DEFINED SYMBOLS
                            *ABS*:00000000 apollo.c
     /tmp/cc3rdzJM.s:19     .text.apolloPut:00000000 $t
     /tmp/cc3rdzJM.s:24     .text.apolloPut:00000000 apolloPut
     /tmp/cc3rdzJM.s:2792   .bss.count.7707:00000000 .LANCHOR0
     /tmp/cc3rdzJM.s:73     .text.apolloPut:00000030 $d
     /tmp/cc3rdzJM.s:80     .text.vt100_printf:00000000 $t
     /tmp/cc3rdzJM.s:85     .text.vt100_printf:00000000 vt100_printf
     /tmp/cc3rdzJM.s:2901   .bss.buffer.7711:00000000 .LANCHOR1
     /tmp/cc3rdzJM.s:159    .text.vt100_printf:0000004c $d
     /tmp/cc3rdzJM.s:164    .text.vt100_drawbox:00000000 $t
     /tmp/cc3rdzJM.s:170    .text.vt100_drawbox:00000000 vt100_drawbox
     /tmp/cc3rdzJM.s:2799   .rodata.str1.4:00000000 .LC0
     /tmp/cc3rdzJM.s:495    .text.apolloScreenSetup:00000000 $t
     /tmp/cc3rdzJM.s:501    .text.apolloScreenSetup:00000000 apolloScreenSetup
     /tmp/cc3rdzJM.s:636    .text.apolloMotorSetup:00000000 $t
     /tmp/cc3rdzJM.s:642    .text.apolloMotorSetup:00000000 apolloMotorSetup
     /tmp/cc3rdzJM.s:2802   .rodata.str1.4:0000000c .LC1
     /tmp/cc3rdzJM.s:2805   .rodata.str1.4:00000014 .LC2
     /tmp/cc3rdzJM.s:2807   .rodata.str1.4:0000003c .LC3
     /tmp/cc3rdzJM.s:2809   .rodata.str1.4:00000040 .LC4
     /tmp/cc3rdzJM.s:2812   .rodata.str1.4:00000048 .LC5
     /tmp/cc3rdzJM.s:895    .text.apolloDigitalSetup:00000000 $t
     /tmp/cc3rdzJM.s:901    .text.apolloDigitalSetup:00000000 apolloDigitalSetup
     /tmp/cc3rdzJM.s:2815   .rodata.str1.4:00000050 .LC6
     /tmp/cc3rdzJM.s:2817   .rodata.str1.4:00000064 .LC7
     /tmp/cc3rdzJM.s:1183   .text.apolloAnalogSetup:00000000 $t
     /tmp/cc3rdzJM.s:1189   .text.apolloAnalogSetup:00000000 apolloAnalogSetup
     /tmp/cc3rdzJM.s:2820   .rodata.str1.4:0000006c .LC8
     /tmp/cc3rdzJM.s:1385   .text.apolloJoystickSetup:00000000 $t
     /tmp/cc3rdzJM.s:1391   .text.apolloJoystickSetup:00000000 apolloJoystickSetup
     /tmp/cc3rdzJM.s:2823   .rodata.str1.4:00000080 .LC9
     /tmp/cc3rdzJM.s:2826   .rodata.str1.4:00000090 .LC10
     /tmp/cc3rdzJM.s:2829   .rodata.str1.4:000000a0 .LC11
     /tmp/cc3rdzJM.s:2832   .rodata.str1.4:000000b0 .LC12
     /tmp/cc3rdzJM.s:2835   .rodata.str1.4:000000b8 .LC13
     /tmp/cc3rdzJM.s:2838   .rodata.str1.4:000000c0 .LC14
     /tmp/cc3rdzJM.s:2841   .rodata.str1.4:000000c8 .LC15
     /tmp/cc3rdzJM.s:2844   .rodata.str1.4:000000d0 .LC16
     /tmp/cc3rdzJM.s:2847   .rodata.str1.4:000000d8 .LC17
     /tmp/cc3rdzJM.s:2850   .rodata.str1.4:000000e0 .LC18
     /tmp/cc3rdzJM.s:1617   .text.apolloUpdateMotor:00000000 $t
     /tmp/cc3rdzJM.s:1623   .text.apolloUpdateMotor:00000000 apolloUpdateMotor
     /tmp/cc3rdzJM.s:2853   .rodata.str1.4:000000e8 .LC19
     /tmp/cc3rdzJM.s:2859   .rodata.str1.4:00000128 .LC21
     /tmp/cc3rdzJM.s:2856   .rodata.str1.4:00000108 .LC20
     /tmp/cc3rdzJM.s:1776   .text.apolloUpdateCortex:00000000 $t
     /tmp/cc3rdzJM.s:1782   .text.apolloUpdateCortex:00000000 apolloUpdateCortex
     /tmp/cc3rdzJM.s:2862   .rodata.str1.4:0000014c .LC22
     /tmp/cc3rdzJM.s:1853   .text.apolloUpdateDigital:00000000 $t
     /tmp/cc3rdzJM.s:1859   .text.apolloUpdateDigital:00000000 apolloUpdateDigital
     /tmp/cc3rdzJM.s:1905   .text.apolloUpdateDigital:00000026 $d
     /tmp/cc3rdzJM.s:1913   .text.apolloUpdateDigital:0000002e $t
     /tmp/cc3rdzJM.s:2865   .rodata.str1.4:0000015c .LC23
     /tmp/cc3rdzJM.s:1975   .text.apolloUpdateAnalog:00000000 $t
     /tmp/cc3rdzJM.s:1981   .text.apolloUpdateAnalog:00000000 apolloUpdateAnalog
     /tmp/cc3rdzJM.s:2867   .rodata.str1.4:00000160 .LC24
ARM GAS  /tmp/cc3rdzJM.s 			page 165


     /tmp/cc3rdzJM.s:2023   .text.apolloUpdateSystem:00000000 $t
     /tmp/cc3rdzJM.s:2029   .text.apolloUpdateSystem:00000000 apolloUpdateSystem
     /tmp/cc3rdzJM.s:2869   .rodata.str1.4:00000164 .LC25
     /tmp/cc3rdzJM.s:2872   .rodata.str1.4:00000178 .LC26
     /tmp/cc3rdzJM.s:2875   .rodata.str1.4:00000188 .LC27
     /tmp/cc3rdzJM.s:2128   .text.apolloUpdateSystem:000000c0 $d
     /tmp/cc3rdzJM.s:2134   .text.apolloUpdateJoystickButton:00000000 $t
     /tmp/cc3rdzJM.s:2140   .text.apolloUpdateJoystickButton:00000000 apolloUpdateJoystickButton
     /tmp/cc3rdzJM.s:2878   .rodata.str1.4:00000198 .LC28
     /tmp/cc3rdzJM.s:2881   .rodata.str1.4:000001a8 .LC29
     /tmp/cc3rdzJM.s:2222   .text.apolloUpdateJoystickAnalog:00000000 $t
     /tmp/cc3rdzJM.s:2228   .text.apolloUpdateJoystickAnalog:00000000 apolloUpdateJoystickAnalog
     /tmp/cc3rdzJM.s:2884   .rodata.str1.4:000001b0 .LC30
     /tmp/cc3rdzJM.s:2290   .text.apolloInit:00000000 $t
     /tmp/cc3rdzJM.s:2296   .text.apolloInit:00000000 apolloInit
     /tmp/cc3rdzJM.s:2887   .rodata.str1.4:000001bc .LC31
     /tmp/cc3rdzJM.s:2890   .rodata.str1.4:000001c4 .LC32
     /tmp/cc3rdzJM.s:2893   .rodata.str1.4:000001cc .LC33
     /tmp/cc3rdzJM.s:2895   .rodata.str1.4:000001d0 .LC34
     /tmp/cc3rdzJM.s:2372   .text.apolloDeinit:00000000 $t
     /tmp/cc3rdzJM.s:2378   .text.apolloDeinit:00000000 apolloDeinit
     /tmp/cc3rdzJM.s:2897   .rodata.str1.4:000001d4 .LC35
     /tmp/cc3rdzJM.s:2441   .text.apolloUpdate:00000000 $t
     /tmp/cc3rdzJM.s:2447   .text.apolloUpdate:00000000 apolloUpdate
     /tmp/cc3rdzJM.s:2791   .bss.count.7707:00000000 $d
     /tmp/cc3rdzJM.s:2795   .bss.count.7707:00000000 count.7707
     /tmp/cc3rdzJM.s:2798   .rodata.str1.4:00000000 $d
     /tmp/cc3rdzJM.s:2900   .bss.buffer.7711:00000000 $d
     /tmp/cc3rdzJM.s:2904   .bss.buffer.7711:00000000 buffer.7711
                     .debug_frame:00000010 $d
     /tmp/cc3rdzJM.s:79     .text.apolloPut:00000034 $t
     /tmp/cc3rdzJM.s:2133   .text.apolloUpdateSystem:000000c8 $t

UNDEFINED SYMBOLS
chOQPutTimeout
chThdSleep
SD1
vex_vsnprintf
vexDigitalTypeGetName
__aeabi_f2iz
__aeabi_f2d
vexMotorEncoderIdGet
vexMotorGet
vexMotorPositionGet
SmartMotorGetSpeed
_SmartMotorGetCurrent
SmartMotorGetTemperature
vexMotorTypeGet
vexMotorDirectionGet
SmartMotorGetControllerCurrent
SmartMotorGetControllerTemperature
vexDigitalTypeGet
vexDigitalCfgGet
vexDigitalPinGet
vexDigitalIntrCountGet
vexDigitalChannelGet
vexSonarGetCm
ARM GAS  /tmp/cc3rdzJM.s 			page 166


vexSonarGetInch
vexEncoderGet
vexAdcGet
__aeabi_i2d
__aeabi_ddiv
vtlist
vexSpiGetMainBattery
vexSpiGetBackupBattery
vexControllerCompetitonState
vexControllerGet
