ARM GAS  /tmp/cciba5Va.s 			page 1


   1              		.syntax unified
   2              		.cpu cortex-m3
   3              		.fpu softvfp
   4              		.eabi_attribute 20, 1
   5              		.eabi_attribute 21, 1
   6              		.eabi_attribute 23, 3
   7              		.eabi_attribute 24, 1
   8              		.eabi_attribute 25, 1
   9              		.eabi_attribute 26, 1
  10              		.eabi_attribute 30, 2
  11              		.eabi_attribute 34, 1
  12              		.eabi_attribute 18, 4
  13              		.thumb
  14              		.file	"chmempools.c"
  15              		.text
  16              	.Ltext0:
  17              		.cfi_sections	.debug_frame
  18              		.section	.text.chPoolInit,"ax",%progbits
  19              		.align	2
  20              		.p2align 4,,15
  21              		.global	chPoolInit
  22              		.thumb
  23              		.thumb_func
  24              		.type	chPoolInit, %function
  25              	chPoolInit:
  26              	.LFB7:
  27              		.file 1 "../ChibiOS_2.6.2/os/kernel/src/chmempools.c"
  28              		.loc 1 62 0
  29              		.cfi_startproc
  30              		@ args = 0, pretend = 0, frame = 0
  31              		@ frame_needed = 0, uses_anonymous_args = 0
  32              		@ link register save eliminated.
  33              	.LVL0:
  34              		.loc 1 66 0
  35 0000 0023     		movs	r3, #0
  36 0002 0360     		str	r3, [r0, #0]
  37              		.loc 1 67 0
  38 0004 4160     		str	r1, [r0, #4]
  39              		.loc 1 68 0
  40 0006 8260     		str	r2, [r0, #8]
  41              		.loc 1 69 0
  42 0008 7047     		bx	lr
  43              		.cfi_endproc
  44              	.LFE7:
  45              		.size	chPoolInit, .-chPoolInit
  46 000a 00BFAFF3 		.section	.text.chPoolLoadArray,"ax",%progbits
  46      0080
  47              		.align	2
  48              		.p2align 4,,15
  49              		.global	chPoolLoadArray
  50              		.thumb
  51              		.thumb_func
  52              		.type	chPoolLoadArray, %function
  53              	chPoolLoadArray:
  54              	.LFB8:
  55              		.loc 1 84 0
  56              		.cfi_startproc
ARM GAS  /tmp/cciba5Va.s 			page 2


  57              		@ args = 0, pretend = 0, frame = 0
  58              		@ frame_needed = 0, uses_anonymous_args = 0
  59              		@ link register save eliminated.
  60              	.LVL1:
  61 0000 70B4     		push	{r4, r5, r6}
  62              	.LCFI0:
  63              		.cfi_def_cfa_offset 12
  64              		.cfi_offset 6, -4
  65              		.cfi_offset 5, -8
  66              		.cfi_offset 4, -12
  67              		.loc 1 88 0
  68 0002 002A     		cmp	r2, #0
  69 0004 35D0     		beq	.L2
  70 0006 013A     		subs	r2, r2, #1
  71              	.LVL2:
  72 0008 02F00105 		and	r5, r2, #1
  73              	.LVL3:
  74              	.LBB16:
  75              	.LBB17:
  76              		.loc 1 173 0
  77 000c 2023     		movs	r3, #32
  78              	.LVL4:
  79              	@ 173 "../ChibiOS_2.6.2/os/kernel/src/chmempools.c" 1
  80 000e 83F31188 		msr     BASEPRI, r3
  81              	@ 0 "" 2
  82              	.LVL5:
  83              		.thumb
  84              	.LBE17:
  85              	.LBB18:
  86              	.LBB19:
  87              		.loc 1 155 0
  88 0012 0468     		ldr	r4, [r0, #0]
  89              	.LBE19:
  90              	.LBE18:
  91              	.LBB27:
  92              		.loc 1 175 0
  93 0014 0023     		movs	r3, #0
  94              	.LVL6:
  95              	.LBE27:
  96              	.LBB28:
  97              	.LBB20:
  98              		.loc 1 155 0
  99 0016 0C60     		str	r4, [r1, #0]
 100              		.loc 1 156 0
 101 0018 0160     		str	r1, [r0, #0]
 102              	.LBE20:
 103              	.LBE28:
 104              	.LBB29:
 105              		.loc 1 175 0
 106              	@ 175 "../ChibiOS_2.6.2/os/kernel/src/chmempools.c" 1
 107 001a 83F31188 		msr     BASEPRI, r3
 108              	@ 0 "" 2
 109              	.LVL7:
 110              		.thumb
 111              	.LBE29:
 112              	.LBE16:
 113              		.loc 1 90 0
ARM GAS  /tmp/cciba5Va.s 			page 3


 114 001e 4368     		ldr	r3, [r0, #4]
 115              	.LVL8:
 116 0020 C918     		adds	r1, r1, r3
 117              	.LVL9:
 118              		.loc 1 88 0
 119 0022 32B3     		cbz	r2, .L2
 120              	.LVL10:
 121 0024 65B1     		cbz	r5, .L5
 122              	.LVL11:
 123              	.LBB45:
 124              	.LBB30:
 125              		.loc 1 173 0
 126 0026 2023     		movs	r3, #32
 127              	@ 173 "../ChibiOS_2.6.2/os/kernel/src/chmempools.c" 1
 128 0028 83F31188 		msr     BASEPRI, r3
 129              	@ 0 "" 2
 130              	.LVL12:
 131              		.thumb
 132              	.LBE30:
 133              	.LBB31:
 134              	.LBB21:
 135              		.loc 1 155 0
 136 002c 0468     		ldr	r4, [r0, #0]
 137              	.LBE21:
 138              	.LBE31:
 139              	.LBB32:
 140              		.loc 1 175 0
 141 002e 0023     		movs	r3, #0
 142              	.LVL13:
 143              	.LBE32:
 144              	.LBB33:
 145              	.LBB22:
 146              		.loc 1 155 0
 147 0030 0C60     		str	r4, [r1, #0]
 148              		.loc 1 156 0
 149 0032 0160     		str	r1, [r0, #0]
 150              	.LBE22:
 151              	.LBE33:
 152              	.LBB34:
 153              		.loc 1 175 0
 154              	@ 175 "../ChibiOS_2.6.2/os/kernel/src/chmempools.c" 1
 155 0034 83F31188 		msr     BASEPRI, r3
 156              	@ 0 "" 2
 157              	.LVL14:
 158              		.thumb
 159              	.LBE34:
 160              	.LBE45:
 161              		.loc 1 90 0
 162 0038 4368     		ldr	r3, [r0, #4]
 163              	.LVL15:
 164              		.loc 1 88 0
 165 003a 013A     		subs	r2, r2, #1
 166              	.LVL16:
 167              		.loc 1 90 0
 168 003c 1944     		add	r1, r1, r3
 169              	.LVL17:
 170              		.loc 1 88 0
ARM GAS  /tmp/cciba5Va.s 			page 4


 171 003e 18D0     		beq	.L2
 172              	.LVL18:
 173              	.L5:
 174              	.LBB46:
 175              	.LBB35:
 176              		.loc 1 173 0
 177 0040 2023     		movs	r3, #32
 178              	.LVL19:
 179              	@ 173 "../ChibiOS_2.6.2/os/kernel/src/chmempools.c" 1
 180 0042 83F31188 		msr     BASEPRI, r3
 181              	@ 0 "" 2
 182              	.LVL20:
 183              		.thumb
 184              	.LBE35:
 185              	.LBB36:
 186              	.LBB23:
 187              		.loc 1 155 0
 188 0046 0468     		ldr	r4, [r0, #0]
 189              	.LBE23:
 190              	.LBE36:
 191              	.LBB37:
 192              		.loc 1 175 0
 193 0048 0023     		movs	r3, #0
 194              	.LVL21:
 195              	.LBE37:
 196              	.LBB38:
 197              	.LBB24:
 198              		.loc 1 155 0
 199 004a 0C60     		str	r4, [r1, #0]
 200              		.loc 1 156 0
 201 004c 0160     		str	r1, [r0, #0]
 202              	.LBE24:
 203              	.LBE38:
 204              	.LBB39:
 205              		.loc 1 175 0
 206              	@ 175 "../ChibiOS_2.6.2/os/kernel/src/chmempools.c" 1
 207 004e 83F31188 		msr     BASEPRI, r3
 208              	@ 0 "" 2
 209              	.LVL22:
 210              		.thumb
 211              	.LBE39:
 212              	.LBE46:
 213              		.loc 1 90 0
 214 0052 4568     		ldr	r5, [r0, #4]
 215              		.loc 1 91 0
 216 0054 013A     		subs	r2, r2, #1
 217              		.loc 1 90 0
 218 0056 4C19     		adds	r4, r1, r5
 219              	.LBB47:
 220              	.LBB40:
 221              		.loc 1 173 0
 222 0058 2023     		movs	r3, #32
 223              	.LVL23:
 224              	@ 173 "../ChibiOS_2.6.2/os/kernel/src/chmempools.c" 1
 225 005a 83F31188 		msr     BASEPRI, r3
 226              	@ 0 "" 2
 227              	.LVL24:
ARM GAS  /tmp/cciba5Va.s 			page 5


 228              		.thumb
 229              	.LBE40:
 230              	.LBB41:
 231              	.LBB25:
 232              		.loc 1 155 0
 233 005e 0668     		ldr	r6, [r0, #0]
 234              	.LBE25:
 235              	.LBE41:
 236              	.LBB42:
 237              		.loc 1 175 0
 238 0060 0023     		movs	r3, #0
 239              	.LVL25:
 240              	.LBE42:
 241              	.LBB43:
 242              	.LBB26:
 243              		.loc 1 155 0
 244 0062 4E51     		str	r6, [r1, r5]
 245              		.loc 1 156 0
 246 0064 0460     		str	r4, [r0, #0]
 247              	.LBE26:
 248              	.LBE43:
 249              	.LBB44:
 250              		.loc 1 175 0
 251              	@ 175 "../ChibiOS_2.6.2/os/kernel/src/chmempools.c" 1
 252 0066 83F31188 		msr     BASEPRI, r3
 253              	@ 0 "" 2
 254              	.LVL26:
 255              		.thumb
 256              	.LBE44:
 257              	.LBE47:
 258              		.loc 1 90 0
 259 006a 4168     		ldr	r1, [r0, #4]
 260              		.loc 1 88 0
 261 006c 013A     		subs	r2, r2, #1
 262              		.loc 1 90 0
 263 006e 2144     		add	r1, r4, r1
 264              		.loc 1 88 0
 265 0070 E6D1     		bne	.L5
 266              	.LVL27:
 267              	.L2:
 268              		.loc 1 93 0
 269 0072 70BC     		pop	{r4, r5, r6}
 270 0074 7047     		bx	lr
 271              		.cfi_endproc
 272              	.LFE8:
 273              		.size	chPoolLoadArray, .-chPoolLoadArray
 274 0076 00BFAFF3 		.section	.text.chPoolAllocI,"ax",%progbits
 274      0080AFF3 
 274      0080
 275              		.align	2
 276              		.p2align 4,,15
 277              		.global	chPoolAllocI
 278              		.thumb
 279              		.thumb_func
 280              		.type	chPoolAllocI, %function
 281              	chPoolAllocI:
 282              	.LFB9:
ARM GAS  /tmp/cciba5Va.s 			page 6


 283              		.loc 1 105 0
 284              		.cfi_startproc
 285              		@ args = 0, pretend = 0, frame = 0
 286              		@ frame_needed = 0, uses_anonymous_args = 0
 287              	.LVL28:
 288 0000 0246     		mov	r2, r0
 289              		.loc 1 111 0
 290 0002 0068     		ldr	r0, [r0, #0]
 291              	.LVL29:
 292              		.loc 1 105 0
 293 0004 08B5     		push	{r3, lr}
 294              	.LCFI1:
 295              		.cfi_def_cfa_offset 8
 296              		.cfi_offset 14, -4
 297              		.cfi_offset 3, -8
 298              		.loc 1 111 0
 299 0006 10B1     		cbz	r0, .L14
 300              		.loc 1 112 0
 301 0008 0368     		ldr	r3, [r0, #0]
 302 000a 1360     		str	r3, [r2, #0]
 303 000c 08BD     		pop	{r3, pc}
 304              	.L14:
 305              		.loc 1 113 0
 306 000e 9368     		ldr	r3, [r2, #8]
 307 0010 0BB1     		cbz	r3, .L15
 308              		.loc 1 114 0
 309 0012 5068     		ldr	r0, [r2, #4]
 310 0014 9847     		blx	r3
 311              	.LVL30:
 312              	.L15:
 313              		.loc 1 116 0
 314 0016 08BD     		pop	{r3, pc}
 315              		.cfi_endproc
 316              	.LFE9:
 317              		.size	chPoolAllocI, .-chPoolAllocI
 318 0018 AFF30080 		.section	.text.chPoolAlloc,"ax",%progbits
 318      AFF30080 
 319              		.align	2
 320              		.p2align 4,,15
 321              		.global	chPoolAlloc
 322              		.thumb
 323              		.thumb_func
 324              		.type	chPoolAlloc, %function
 325              	chPoolAlloc:
 326              	.LFB10:
 327              		.loc 1 128 0
 328              		.cfi_startproc
 329              		@ args = 0, pretend = 0, frame = 0
 330              		@ frame_needed = 0, uses_anonymous_args = 0
 331              	.LVL31:
 332 0000 08B5     		push	{r3, lr}
 333              	.LCFI2:
 334              		.cfi_def_cfa_offset 8
 335              		.cfi_offset 14, -4
 336              		.cfi_offset 3, -8
 337              		.loc 1 128 0
 338 0002 0246     		mov	r2, r0
ARM GAS  /tmp/cciba5Va.s 			page 7


 339              	.LBB48:
 340              		.loc 1 131 0
 341 0004 2023     		movs	r3, #32
 342              	.LVL32:
 343              	@ 131 "../ChibiOS_2.6.2/os/kernel/src/chmempools.c" 1
 344 0006 83F31188 		msr     BASEPRI, r3
 345              	@ 0 "" 2
 346              	.LVL33:
 347              		.thumb
 348              	.LBE48:
 349              	.LBB49:
 350              	.LBB50:
 351              		.loc 1 111 0
 352 000a 0068     		ldr	r0, [r0, #0]
 353              	.LVL34:
 354 000c 28B1     		cbz	r0, .L17
 355              		.loc 1 112 0
 356 000e 0368     		ldr	r3, [r0, #0]
 357              	.LVL35:
 358 0010 1360     		str	r3, [r2, #0]
 359              	.L18:
 360              	.LBE50:
 361              	.LBE49:
 362              	.LBB52:
 363              		.loc 1 133 0
 364 0012 0023     		movs	r3, #0
 365              	.LVL36:
 366              	@ 133 "../ChibiOS_2.6.2/os/kernel/src/chmempools.c" 1
 367 0014 83F31188 		msr     BASEPRI, r3
 368              	@ 0 "" 2
 369              	.LVL37:
 370              		.thumb
 371              	.LBE52:
 372              		.loc 1 135 0
 373 0018 08BD     		pop	{r3, pc}
 374              	.LVL38:
 375              	.L17:
 376              	.LBB53:
 377              	.LBB51:
 378              		.loc 1 113 0
 379 001a 9368     		ldr	r3, [r2, #8]
 380              	.LVL39:
 381 001c 002B     		cmp	r3, #0
 382 001e F8D0     		beq	.L18
 383              		.loc 1 114 0
 384 0020 5068     		ldr	r0, [r2, #4]
 385 0022 9847     		blx	r3
 386              	.LVL40:
 387              	.LBE51:
 388              	.LBE53:
 389              	.LBB54:
 390              		.loc 1 133 0
 391 0024 0023     		movs	r3, #0
 392              	@ 133 "../ChibiOS_2.6.2/os/kernel/src/chmempools.c" 1
 393 0026 83F31188 		msr     BASEPRI, r3
 394              	@ 0 "" 2
 395              	.LVL41:
ARM GAS  /tmp/cciba5Va.s 			page 8


 396              		.thumb
 397              	.LBE54:
 398              		.loc 1 135 0
 399 002a 08BD     		pop	{r3, pc}
 400              		.cfi_endproc
 401              	.LFE10:
 402              		.size	chPoolAlloc, .-chPoolAlloc
 403 002c AFF30080 		.section	.text.chPoolFreeI,"ax",%progbits
 404              		.align	2
 405              		.p2align 4,,15
 406              		.global	chPoolFreeI
 407              		.thumb
 408              		.thumb_func
 409              		.type	chPoolFreeI, %function
 410              	chPoolFreeI:
 411              	.LFB11:
 412              		.loc 1 149 0
 413              		.cfi_startproc
 414              		@ args = 0, pretend = 0, frame = 0
 415              		@ frame_needed = 0, uses_anonymous_args = 0
 416              		@ link register save eliminated.
 417              	.LVL42:
 418              		.loc 1 155 0
 419 0000 0368     		ldr	r3, [r0, #0]
 420              	.LVL43:
 421 0002 0B60     		str	r3, [r1, #0]
 422              		.loc 1 156 0
 423 0004 0160     		str	r1, [r0, #0]
 424              		.loc 1 157 0
 425 0006 7047     		bx	lr
 426              		.cfi_endproc
 427              	.LFE11:
 428              		.size	chPoolFreeI, .-chPoolFreeI
 429 0008 AFF30080 		.section	.text.chPoolFree,"ax",%progbits
 429      AFF30080 
 430              		.align	2
 431              		.p2align 4,,15
 432              		.global	chPoolFree
 433              		.thumb
 434              		.thumb_func
 435              		.type	chPoolFree, %function
 436              	chPoolFree:
 437              	.LFB12:
 438              		.loc 1 171 0
 439              		.cfi_startproc
 440              		@ args = 0, pretend = 0, frame = 0
 441              		@ frame_needed = 0, uses_anonymous_args = 0
 442              		@ link register save eliminated.
 443              	.LVL44:
 444              	.LBB55:
 445              		.loc 1 173 0
 446 0000 2023     		movs	r3, #32
 447              	.LVL45:
 448              	@ 173 "../ChibiOS_2.6.2/os/kernel/src/chmempools.c" 1
 449 0002 83F31188 		msr     BASEPRI, r3
 450              	@ 0 "" 2
 451              	.LVL46:
ARM GAS  /tmp/cciba5Va.s 			page 9


 452              		.thumb
 453              	.LBE55:
 454              	.LBB56:
 455              	.LBB57:
 456              		.loc 1 155 0
 457 0006 0268     		ldr	r2, [r0, #0]
 458              	.LBE57:
 459              	.LBE56:
 460              	.LBB59:
 461              		.loc 1 175 0
 462 0008 0023     		movs	r3, #0
 463              	.LVL47:
 464              	.LBE59:
 465              	.LBB60:
 466              	.LBB58:
 467              		.loc 1 155 0
 468 000a 0A60     		str	r2, [r1, #0]
 469              		.loc 1 156 0
 470 000c 0160     		str	r1, [r0, #0]
 471              	.LBE58:
 472              	.LBE60:
 473              	.LBB61:
 474              		.loc 1 175 0
 475              	@ 175 "../ChibiOS_2.6.2/os/kernel/src/chmempools.c" 1
 476 000e 83F31188 		msr     BASEPRI, r3
 477              	@ 0 "" 2
 478              	.LVL48:
 479              		.thumb
 480              	.LBE61:
 481              		.loc 1 176 0
 482 0012 7047     		bx	lr
 483              		.cfi_endproc
 484              	.LFE12:
 485              		.size	chPoolFree, .-chPoolFree
 486 0014 AFF30080 		.text
 486      AFF30080 
 486      AFF30080 
 487              	.Letext0:
 488              		.file 2 "/opt/pros/toolchain/bin/../lib/gcc/arm-none-eabi/4.6.3/include/stddef.h"
 489              		.file 3 "/opt/pros/toolchain/bin/../lib/gcc/arm-none-eabi/4.6.3/../../../../arm-none-eabi/include/
 490              		.file 4 "../ChibiOS_2.6.2/os/kernel/include/chmemcore.h"
 491              		.file 5 "../ChibiOS_2.6.2/os/kernel/include/chmempools.h"