ARM GAS  /tmp/ccmVJo3R.s 			page 1


   1              		.syntax unified
   2              		.cpu cortex-m3
   3              		.fpu softvfp
   4              		.eabi_attribute 20, 1
   5              		.eabi_attribute 21, 1
   6              		.eabi_attribute 23, 3
   7              		.eabi_attribute 24, 1
   8              		.eabi_attribute 25, 1
   9              		.eabi_attribute 26, 1
  10              		.eabi_attribute 30, 2
  11              		.eabi_attribute 34, 1
  12              		.eabi_attribute 18, 4
  13              		.thumb
  14              		.file	"chmsg.c"
  15              		.text
  16              	.Ltext0:
  17              		.cfi_sections	.debug_frame
  18              		.section	.text.chMsgSend,"ax",%progbits
  19              		.align	2
  20              		.p2align 4,,15
  21              		.global	chMsgSend
  22              		.thumb
  23              		.thumb_func
  24              		.type	chMsgSend, %function
  25              	chMsgSend:
  26              	.LFB7:
  27              		.file 1 "../ChibiOS_2.6.2/os/kernel/src/chmsg.c"
  28              		.loc 1 75 0
  29              		.cfi_startproc
  30              		@ args = 0, pretend = 0, frame = 0
  31              		@ frame_needed = 0, uses_anonymous_args = 0
  32              	.LVL0:
  33 0000 70B5     		push	{r4, r5, r6, lr}
  34              	.LCFI0:
  35              		.cfi_def_cfa_offset 16
  36              		.cfi_offset 14, -4
  37              		.cfi_offset 6, -8
  38              		.cfi_offset 5, -12
  39              		.cfi_offset 4, -16
  40              		.loc 1 76 0
  41 0002 40F20002 		movw	r2, #:lower16:rlist
  42 0006 C0F20002 		movt	r2, #:upper16:rlist
  43 000a 9469     		ldr	r4, [r2, #24]
  44              	.LVL1:
  45              	.LBB10:
  46              		.loc 1 80 0
  47 000c 2023     		movs	r3, #32
  48              	.LVL2:
  49              	@ 80 "../ChibiOS_2.6.2/os/kernel/src/chmsg.c" 1
  50 000e 83F31188 		msr     BASEPRI, r3
  51              	@ 0 "" 2
  52              	.LVL3:
  53              		.thumb
  54              	.LBE10:
  55              		.loc 1 82 0
  56 0012 00F12C05 		add	r5, r0, #44
  57 0016 6562     		str	r5, [r4, #36]
ARM GAS  /tmp/ccmVJo3R.s 			page 2


  58              	.LVL4:
  59              		.loc 1 84 0
  60 0018 067F     		ldrb	r6, [r0, #28]	@ zero_extendqisi2
  61              	.LBB11:
  62              	.LBB12:
  63              		.file 2 "../ChibiOS_2.6.2/os/kernel/include/chinline.h"
  64              		.loc 2 55 0
  65 001a 036B     		ldr	r3, [r0, #48]
  66              	.LVL5:
  67              	.LBE12:
  68              	.LBE11:
  69              		.loc 1 84 0
  70 001c 0C2E     		cmp	r6, #12
  71              	.LBB15:
  72              	.LBB13:
  73              		.loc 2 54 0
  74 001e 2560     		str	r5, [r4, #0]
  75              	.LBE13:
  76              	.LBE15:
  77              		.loc 1 81 0
  78 0020 6163     		str	r1, [r4, #52]
  79              	.LBB16:
  80              	.LBB14:
  81              		.loc 2 55 0
  82 0022 6360     		str	r3, [r4, #4]
  83              		.loc 2 56 0
  84 0024 0463     		str	r4, [r0, #48]
  85 0026 1C60     		str	r4, [r3, #0]
  86              	.LBE14:
  87              	.LBE16:
  88              		.loc 1 84 0
  89 0028 07D0     		beq	.L4
  90              		.loc 1 86 0
  91 002a 0A20     		movs	r0, #10
  92              	.LVL6:
  93 002c FFF7FEFF 		bl	chSchGoSleepS
  94              	.LVL7:
  95              		.loc 1 87 0
  96 0030 606A     		ldr	r0, [r4, #36]
  97              	.LVL8:
  98              	.LBB17:
  99              		.loc 1 88 0
 100 0032 0023     		movs	r3, #0
 101              	.LVL9:
 102              	@ 88 "../ChibiOS_2.6.2/os/kernel/src/chmsg.c" 1
 103 0034 83F31188 		msr     BASEPRI, r3
 104              	@ 0 "" 2
 105              	.LVL10:
 106              		.thumb
 107              	.LBE17:
 108              		.loc 1 90 0
 109 0038 70BD     		pop	{r4, r5, r6, pc}
 110              	.LVL11:
 111              	.L4:
 112              		.loc 1 85 0
 113 003a FFF7FEFF 		bl	chSchReadyI
 114              	.LVL12:
ARM GAS  /tmp/ccmVJo3R.s 			page 3


 115              		.loc 1 86 0
 116 003e 0A20     		movs	r0, #10
 117 0040 FFF7FEFF 		bl	chSchGoSleepS
 118              		.loc 1 87 0
 119 0044 606A     		ldr	r0, [r4, #36]
 120              	.LVL13:
 121              	.LBB18:
 122              		.loc 1 88 0
 123 0046 0023     		movs	r3, #0
 124              	@ 88 "../ChibiOS_2.6.2/os/kernel/src/chmsg.c" 1
 125 0048 83F31188 		msr     BASEPRI, r3
 126              	@ 0 "" 2
 127              	.LVL14:
 128              		.thumb
 129              	.LBE18:
 130              		.loc 1 90 0
 131 004c 70BD     		pop	{r4, r5, r6, pc}
 132              		.cfi_endproc
 133              	.LFE7:
 134              		.size	chMsgSend, .-chMsgSend
 135 004e 00BF     		.section	.text.chMsgWait,"ax",%progbits
 136              		.align	2
 137              		.p2align 4,,15
 138              		.global	chMsgWait
 139              		.thumb
 140              		.thumb_func
 141              		.type	chMsgWait, %function
 142              	chMsgWait:
 143              	.LFB8:
 144              		.loc 1 106 0
 145              		.cfi_startproc
 146              		@ args = 0, pretend = 0, frame = 0
 147              		@ frame_needed = 0, uses_anonymous_args = 0
 148 0000 10B5     		push	{r4, lr}
 149              	.LCFI1:
 150              		.cfi_def_cfa_offset 8
 151              		.cfi_offset 14, -4
 152              		.cfi_offset 4, -8
 153              	.LBB19:
 154              		.loc 1 109 0
 155 0002 2023     		movs	r3, #32
 156              	.LVL15:
 157              	@ 109 "../ChibiOS_2.6.2/os/kernel/src/chmsg.c" 1
 158 0004 83F31188 		msr     BASEPRI, r3
 159              	@ 0 "" 2
 160              	.LVL16:
 161              		.thumb
 162              	.LBE19:
 163              		.loc 1 110 0
 164 0008 40F20004 		movw	r4, #:lower16:rlist
 165 000c C0F20004 		movt	r4, #:upper16:rlist
 166 0010 A369     		ldr	r3, [r4, #24]
 167              	.LVL17:
 168 0012 1A46     		mov	r2, r3
 169 0014 52F82C0F 		ldr	r0, [r2, #44]!
 170 0018 9042     		cmp	r0, r2
 171 001a 08D0     		beq	.L7
ARM GAS  /tmp/ccmVJo3R.s 			page 4


 172              	.L6:
 173              	.LVL18:
 174              	.LBB20:
 175              	.LBB21:
 176              		.loc 2 62 0
 177 001c 0168     		ldr	r1, [r0, #0]
 178 001e D962     		str	r1, [r3, #44]
 179 0020 4A60     		str	r2, [r1, #4]
 180              	.LBE21:
 181              	.LBE20:
 182              		.loc 1 113 0
 183 0022 0B22     		movs	r2, #11
 184 0024 0277     		strb	r2, [r0, #28]
 185              	.LBB22:
 186              		.loc 1 114 0
 187 0026 0023     		movs	r3, #0
 188              	.LVL19:
 189              	@ 114 "../ChibiOS_2.6.2/os/kernel/src/chmsg.c" 1
 190 0028 83F31188 		msr     BASEPRI, r3
 191              	@ 0 "" 2
 192              	.LVL20:
 193              		.thumb
 194              	.LBE22:
 195              		.loc 1 116 0
 196 002c 10BD     		pop	{r4, pc}
 197              	.LVL21:
 198              	.L7:
 199              		.loc 1 111 0
 200 002e 0C20     		movs	r0, #12
 201 0030 FFF7FEFF 		bl	chSchGoSleepS
 202 0034 A369     		ldr	r3, [r4, #24]
 203 0036 1A46     		mov	r2, r3
 204 0038 52F82C0F 		ldr	r0, [r2, #44]!
 205 003c EEE7     		b	.L6
 206              		.cfi_endproc
 207              	.LFE8:
 208              		.size	chMsgWait, .-chMsgWait
 209 003e 00BF     		.section	.text.chMsgRelease,"ax",%progbits
 210              		.align	2
 211              		.p2align 4,,15
 212              		.global	chMsgRelease
 213              		.thumb
 214              		.thumb_func
 215              		.type	chMsgRelease, %function
 216              	chMsgRelease:
 217              	.LFB9:
 218              		.loc 1 128 0
 219              		.cfi_startproc
 220              		@ args = 0, pretend = 0, frame = 0
 221              		@ frame_needed = 0, uses_anonymous_args = 0
 222              	.LVL22:
 223 0000 08B5     		push	{r3, lr}
 224              	.LCFI2:
 225              		.cfi_def_cfa_offset 8
 226              		.cfi_offset 14, -4
 227              		.cfi_offset 3, -8
 228              	.LBB23:
ARM GAS  /tmp/ccmVJo3R.s 			page 5


 229              		.loc 1 130 0
 230 0002 2023     		movs	r3, #32
 231              	.LVL23:
 232              	@ 130 "../ChibiOS_2.6.2/os/kernel/src/chmsg.c" 1
 233 0004 83F31188 		msr     BASEPRI, r3
 234              	@ 0 "" 2
 235              	.LVL24:
 236              		.thumb
 237              	.LBE23:
 238              		.loc 1 133 0
 239 0008 FFF7FEFF 		bl	chSchWakeupS
 240              	.LVL25:
 241              	.LBB24:
 242              		.loc 1 134 0
 243 000c 0023     		movs	r3, #0
 244              	.LVL26:
 245              	@ 134 "../ChibiOS_2.6.2/os/kernel/src/chmsg.c" 1
 246 000e 83F31188 		msr     BASEPRI, r3
 247              	@ 0 "" 2
 248              	.LVL27:
 249              		.thumb
 250              	.LBE24:
 251              		.loc 1 135 0
 252 0012 08BD     		pop	{r3, pc}
 253              		.cfi_endproc
 254              	.LFE9:
 255              		.size	chMsgRelease, .-chMsgRelease
 256 0014 AFF30080 		.text
 256      AFF30080 
 256      AFF30080 
 257              	.Letext0:
 258              		.file 3 "/opt/pros/toolchain/bin/../lib/gcc/arm-none-eabi/4.6.3/../../../../arm-none-eabi/include/
 259              		.file 4 "../ChibiOS_2.6.2/os/ports/GCC/ARMCMx/chtypes.h"
 260              		.file 5 "../ChibiOS_2.6.2/os/kernel/include/chlists.h"
 261              		.file 6 "../ChibiOS_2.6.2/os/kernel/include/chthreads.h"
 262              		.file 7 "../ChibiOS_2.6.2/os/ports/GCC/ARMCMx/chcore_v7m.h"
 263              		.file 8 "../ChibiOS_2.6.2/os/kernel/include/chschd.h"
 264              		.file 9 "../ChibiOS_2.6.2/os/kernel/include/chmtx.h"