ARM GAS  /tmp/ccuMGjLt.s 			page 1


   1              		.syntax unified
   2              		.cpu cortex-m3
   3              		.fpu softvfp
   4              		.eabi_attribute 20, 1
   5              		.eabi_attribute 21, 1
   6              		.eabi_attribute 23, 3
   7              		.eabi_attribute 24, 1
   8              		.eabi_attribute 25, 1
   9              		.eabi_attribute 26, 1
  10              		.eabi_attribute 30, 2
  11              		.eabi_attribute 34, 1
  12              		.eabi_attribute 18, 4
  13              		.thumb
  14              		.file	"chmtx.c"
  15              		.text
  16              	.Ltext0:
  17              		.cfi_sections	.debug_frame
  18              		.section	.text.chMtxInit,"ax",%progbits
  19              		.align	2
  20              		.p2align 4,,15
  21              		.global	chMtxInit
  22              		.thumb
  23              		.thumb_func
  24              		.type	chMtxInit, %function
  25              	chMtxInit:
  26              	.LFB7:
  27              		.file 1 "../ChibiOS_2.6.2/os/kernel/src/chmtx.c"
  28              		.loc 1 86 0
  29              		.cfi_startproc
  30              		@ args = 0, pretend = 0, frame = 0
  31              		@ frame_needed = 0, uses_anonymous_args = 0
  32              		@ link register save eliminated.
  33              	.LVL0:
  34              		.loc 1 91 0
  35 0000 0023     		movs	r3, #0
  36              		.loc 1 90 0
  37 0002 4060     		str	r0, [r0, #4]
  38 0004 0060     		str	r0, [r0, #0]
  39              		.loc 1 91 0
  40 0006 8360     		str	r3, [r0, #8]
  41              		.loc 1 92 0
  42 0008 7047     		bx	lr
  43              		.cfi_endproc
  44              	.LFE7:
  45              		.size	chMtxInit, .-chMtxInit
  46 000a 00BFAFF3 		.section	.text.chMtxLockS,"ax",%progbits
  46      0080
  47              		.align	2
  48              		.p2align 4,,15
  49              		.global	chMtxLockS
  50              		.thumb
  51              		.thumb_func
  52              		.type	chMtxLockS, %function
  53              	chMtxLockS:
  54              	.LFB9:
  55              		.loc 1 121 0
  56              		.cfi_startproc
ARM GAS  /tmp/ccuMGjLt.s 			page 2


  57              		@ args = 0, pretend = 0, frame = 0
  58              		@ frame_needed = 0, uses_anonymous_args = 0
  59              	.LVL1:
  60 0000 F8B5     		push	{r3, r4, r5, r6, r7, lr}
  61              	.LCFI0:
  62              		.cfi_def_cfa_offset 24
  63              		.cfi_offset 14, -4
  64              		.cfi_offset 7, -8
  65              		.cfi_offset 6, -12
  66              		.cfi_offset 5, -16
  67              		.cfi_offset 4, -20
  68              		.cfi_offset 3, -24
  69              		.loc 1 122 0
  70 0002 40F20002 		movw	r2, #:lower16:rlist
  71              		.loc 1 128 0
  72 0006 8368     		ldr	r3, [r0, #8]
  73              		.loc 1 122 0
  74 0008 C0F20002 		movt	r2, #:upper16:rlist
  75              		.loc 1 121 0
  76 000c 0546     		mov	r5, r0
  77              		.loc 1 122 0
  78 000e 9469     		ldr	r4, [r2, #24]
  79              	.LVL2:
  80              		.loc 1 128 0
  81 0010 002B     		cmp	r3, #0
  82 0012 51D0     		beq	.L3
  83              	.LVL3:
  84              	.LBB33:
  85              		.loc 1 135 0 discriminator 1
  86 0014 A168     		ldr	r1, [r4, #8]
  87 0016 9868     		ldr	r0, [r3, #8]
  88              	.LVL4:
  89 0018 8142     		cmp	r1, r0
  90 001a 06D9     		bls	.L4
  91              	.LVL5:
  92              	.L18:
  93              		.loc 1 139 0
  94 001c 1A7F     		ldrb	r2, [r3, #28]	@ zero_extendqisi2
  95              		.loc 1 137 0
  96 001e 9960     		str	r1, [r3, #8]
  97              		.loc 1 139 0
  98 0020 042A     		cmp	r2, #4
  99 0022 31D0     		beq	.L6
 100 0024 052A     		cmp	r2, #5
 101 0026 1CD0     		beq	.L7
 102 0028 92B1     		cbz	r2, .L5
 103              	.LVL6:
 104              	.L4:
 105              		.file 2 "../ChibiOS_2.6.2/os/kernel/include/chinline.h"
 106              		.loc 2 43 0
 107 002a 2B46     		mov	r3, r5
 108              	.LVL7:
 109              	.L14:
 110              	.LBB34:
 111              	.LBB35:
 112              		.loc 2 45 0
 113 002c 1B68     		ldr	r3, [r3, #0]
ARM GAS  /tmp/ccuMGjLt.s 			page 3


 114              	.LVL8:
 115              		.loc 2 46 0
 116 002e 9D42     		cmp	r5, r3
 117 0030 03D0     		beq	.L13
 118 0032 9868     		ldr	r0, [r3, #8]
 119 0034 A268     		ldr	r2, [r4, #8]
 120 0036 9042     		cmp	r0, r2
 121 0038 F8D2     		bcs	.L14
 122              	.L13:
 123              		.loc 2 48 0
 124 003a 5968     		ldr	r1, [r3, #4]
 125              	.LBE35:
 126              	.LBE34:
 127              		.loc 1 175 0
 128 003c 0420     		movs	r0, #4
 129              	.LBB37:
 130              	.LBB36:
 131              		.loc 2 47 0
 132 003e 2360     		str	r3, [r4, #0]
 133              		.loc 2 48 0
 134 0040 6160     		str	r1, [r4, #4]
 135              		.loc 2 49 0
 136 0042 0C60     		str	r4, [r1, #0]
 137 0044 5C60     		str	r4, [r3, #4]
 138              	.LBE36:
 139              	.LBE37:
 140              		.loc 1 174 0
 141 0046 6562     		str	r5, [r4, #36]
 142              	.LBE33:
 143              		.loc 1 187 0
 144 0048 BDE8F840 		pop	{r3, r4, r5, r6, r7, lr}
 145              	.LBB60:
 146              		.loc 1 175 0
 147 004c FFF7FEBF 		b	chSchGoSleepS
 148              	.LVL9:
 149              	.L5:
 150              	.LBB38:
 151              	.LBB39:
 152              		.loc 2 75 0
 153 0050 93E80600 		ldmia	r3, {r1, r2}
 154 0054 1160     		str	r1, [r2, #0]
 155              	.LBE39:
 156              	.LBE38:
 157              		.loc 1 167 0
 158 0056 1846     		mov	r0, r3
 159              	.LBB41:
 160              	.LBB40:
 161              		.loc 2 76 0
 162 0058 1B68     		ldr	r3, [r3, #0]
 163              	.LVL10:
 164 005a 5A60     		str	r2, [r3, #4]
 165              	.LBE40:
 166              	.LBE41:
 167              		.loc 1 167 0
 168 005c FFF7FEFF 		bl	chSchReadyI
 169              	.LVL11:
 170              		.loc 1 168 0
ARM GAS  /tmp/ccuMGjLt.s 			page 4


 171 0060 E3E7     		b	.L4
 172              	.LVL12:
 173              	.L7:
 174              	.LBB42:
 175              	.LBB43:
 176              		.loc 2 75 0
 177 0062 5868     		ldr	r0, [r3, #4]
 178 0064 1F68     		ldr	r7, [r3, #0]
 179              	.LBE43:
 180              	.LBE42:
 181              		.loc 1 158 0
 182 0066 5E6A     		ldr	r6, [r3, #36]
 183              	.LVL13:
 184              	.LBB46:
 185              	.LBB44:
 186              		.loc 2 75 0
 187 0068 0760     		str	r7, [r0, #0]
 188              		.loc 2 76 0
 189 006a 1F68     		ldr	r7, [r3, #0]
 190              	.LBE44:
 191              	.LBE46:
 192              		.loc 2 43 0
 193 006c 3246     		mov	r2, r6
 194              	.LBB47:
 195              	.LBB45:
 196              		.loc 2 76 0
 197 006e 7860     		str	r0, [r7, #4]
 198              	.LVL14:
 199              	.L12:
 200              	.LBE45:
 201              	.LBE47:
 202              	.LBB48:
 203              	.LBB49:
 204              		.loc 2 45 0
 205 0070 1268     		ldr	r2, [r2, #0]
 206              	.LVL15:
 207              		.loc 2 46 0
 208 0072 9642     		cmp	r6, r2
 209 0074 02D0     		beq	.L11
 210 0076 9068     		ldr	r0, [r2, #8]
 211 0078 8842     		cmp	r0, r1
 212 007a F9D2     		bcs	.L12
 213              	.L11:
 214              		.loc 2 48 0
 215 007c 5168     		ldr	r1, [r2, #4]
 216              		.loc 2 47 0
 217 007e 1A60     		str	r2, [r3, #0]
 218              		.loc 2 48 0
 219 0080 5960     		str	r1, [r3, #4]
 220              		.loc 2 49 0
 221 0082 0B60     		str	r3, [r1, #0]
 222 0084 5360     		str	r3, [r2, #4]
 223 0086 D0E7     		b	.L4
 224              	.LVL16:
 225              	.L6:
 226              	.LBE49:
 227              	.LBE48:
ARM GAS  /tmp/ccuMGjLt.s 			page 5


 228              	.LBB50:
 229              	.LBB51:
 230              		.loc 2 75 0
 231 0088 5868     		ldr	r0, [r3, #4]
 232 008a 1F68     		ldr	r7, [r3, #0]
 233              	.LBE51:
 234              	.LBE50:
 235              		.loc 1 142 0
 236 008c 5E6A     		ldr	r6, [r3, #36]
 237              	.LVL17:
 238              	.LBB54:
 239              	.LBB52:
 240              		.loc 2 75 0
 241 008e 0760     		str	r7, [r0, #0]
 242              		.loc 2 76 0
 243 0090 1F68     		ldr	r7, [r3, #0]
 244              	.LBE52:
 245              	.LBE54:
 246              		.loc 1 142 0
 247 0092 3246     		mov	r2, r6
 248              	.LBB55:
 249              	.LBB53:
 250              		.loc 2 76 0
 251 0094 7860     		str	r0, [r7, #4]
 252              	.LVL18:
 253              	.L9:
 254              	.LBE53:
 255              	.LBE55:
 256              	.LBB56:
 257              	.LBB57:
 258              		.loc 2 45 0
 259 0096 1268     		ldr	r2, [r2, #0]
 260              	.LVL19:
 261              		.loc 2 46 0
 262 0098 9642     		cmp	r6, r2
 263 009a 12D0     		beq	.L15
 264 009c 9068     		ldr	r0, [r2, #8]
 265 009e 8842     		cmp	r0, r1
 266 00a0 F9D2     		bcs	.L9
 267              	.LVL20:
 268              	.L8:
 269              		.loc 2 48 0
 270 00a2 5168     		ldr	r1, [r2, #4]
 271              		.loc 2 47 0
 272 00a4 1A60     		str	r2, [r3, #0]
 273              		.loc 2 48 0
 274 00a6 5960     		str	r1, [r3, #4]
 275              		.loc 2 49 0
 276 00a8 0B60     		str	r3, [r1, #0]
 277 00aa 5360     		str	r3, [r2, #4]
 278              	.LBE57:
 279              	.LBE56:
 280              		.loc 1 143 0
 281 00ac B368     		ldr	r3, [r6, #8]
 282              	.LVL21:
 283              		.loc 1 135 0
 284 00ae A168     		ldr	r1, [r4, #8]
ARM GAS  /tmp/ccuMGjLt.s 			page 6


 285 00b0 9A68     		ldr	r2, [r3, #8]
 286              	.LVL22:
 287 00b2 8A42     		cmp	r2, r1
 288 00b4 B2D3     		bcc	.L18
 289 00b6 B8E7     		b	.L4
 290              	.LVL23:
 291              	.L3:
 292              	.LBE60:
 293              		.loc 1 184 0
 294 00b8 E36B     		ldr	r3, [r4, #60]
 295              		.loc 1 183 0
 296 00ba 8460     		str	r4, [r0, #8]
 297              		.loc 1 184 0
 298 00bc C360     		str	r3, [r0, #12]
 299              		.loc 1 185 0
 300 00be E063     		str	r0, [r4, #60]
 301              		.loc 1 187 0
 302 00c0 F8BD     		pop	{r3, r4, r5, r6, r7, pc}
 303              	.LVL24:
 304              	.L15:
 305              	.LBB61:
 306              	.LBB59:
 307              	.LBB58:
 308              		.loc 2 45 0
 309 00c2 3246     		mov	r2, r6
 310              	.LVL25:
 311 00c4 EDE7     		b	.L8
 312              	.LBE58:
 313              	.LBE59:
 314              	.LBE61:
 315              		.cfi_endproc
 316              	.LFE9:
 317              		.size	chMtxLockS, .-chMtxLockS
 318 00c6 00BFAFF3 		.section	.text.chMtxLock,"ax",%progbits
 318      0080AFF3 
 318      0080
 319              		.align	2
 320              		.p2align 4,,15
 321              		.global	chMtxLock
 322              		.thumb
 323              		.thumb_func
 324              		.type	chMtxLock, %function
 325              	chMtxLock:
 326              	.LFB8:
 327              		.loc 1 103 0
 328              		.cfi_startproc
 329              		@ args = 0, pretend = 0, frame = 0
 330              		@ frame_needed = 0, uses_anonymous_args = 0
 331              	.LVL26:
 332 0000 08B5     		push	{r3, lr}
 333              	.LCFI1:
 334              		.cfi_def_cfa_offset 8
 335              		.cfi_offset 14, -4
 336              		.cfi_offset 3, -8
 337              	.LBB62:
 338              		.loc 1 105 0
 339 0002 2023     		movs	r3, #32
ARM GAS  /tmp/ccuMGjLt.s 			page 7


 340              	.LVL27:
 341              	@ 105 "../ChibiOS_2.6.2/os/kernel/src/chmtx.c" 1
 342 0004 83F31188 		msr     BASEPRI, r3
 343              	@ 0 "" 2
 344              	.LVL28:
 345              		.thumb
 346              	.LBE62:
 347              		.loc 1 107 0
 348 0008 FFF7FEFF 		bl	chMtxLockS
 349              	.LVL29:
 350              	.LBB63:
 351              		.loc 1 109 0
 352 000c 0023     		movs	r3, #0
 353              	.LVL30:
 354              	@ 109 "../ChibiOS_2.6.2/os/kernel/src/chmtx.c" 1
 355 000e 83F31188 		msr     BASEPRI, r3
 356              	@ 0 "" 2
 357              	.LVL31:
 358              		.thumb
 359              	.LBE63:
 360              		.loc 1 110 0
 361 0012 08BD     		pop	{r3, pc}
 362              		.cfi_endproc
 363              	.LFE8:
 364              		.size	chMtxLock, .-chMtxLock
 365 0014 AFF30080 		.section	.text.chMtxTryLock,"ax",%progbits
 365      AFF30080 
 365      AFF30080 
 366              		.align	2
 367              		.p2align 4,,15
 368              		.global	chMtxTryLock
 369              		.thumb
 370              		.thumb_func
 371              		.type	chMtxTryLock, %function
 372              	chMtxTryLock:
 373              	.LFB10:
 374              		.loc 1 206 0
 375              		.cfi_startproc
 376              		@ args = 0, pretend = 0, frame = 0
 377              		@ frame_needed = 0, uses_anonymous_args = 0
 378              		@ link register save eliminated.
 379              	.LVL32:
 380              		.loc 1 206 0
 381 0000 0246     		mov	r2, r0
 382              	.LBB64:
 383              		.loc 1 209 0
 384 0002 2023     		movs	r3, #32
 385              	.LVL33:
 386              	@ 209 "../ChibiOS_2.6.2/os/kernel/src/chmtx.c" 1
 387 0004 83F31188 		msr     BASEPRI, r3
 388              	@ 0 "" 2
 389              	.LVL34:
 390              		.thumb
 391              	.LBE64:
 392              	.LBB65:
 393              	.LBB66:
 394              		.loc 1 239 0
ARM GAS  /tmp/ccuMGjLt.s 			page 8


 395 0008 8368     		ldr	r3, [r0, #8]
 396              	.LVL35:
 397              		.loc 1 240 0
 398 000a 0020     		movs	r0, #0
 399              	.LVL36:
 400              		.loc 1 239 0
 401 000c 1BB1     		cbz	r3, .L28
 402              	.LBE66:
 403              	.LBE65:
 404              	.LBB68:
 405              		.loc 1 213 0
 406 000e 0023     		movs	r3, #0
 407              	.LVL37:
 408              	@ 213 "../ChibiOS_2.6.2/os/kernel/src/chmtx.c" 1
 409 0010 83F31188 		msr     BASEPRI, r3
 410              	@ 0 "" 2
 411              	.LVL38:
 412              		.thumb
 413              	.LBE68:
 414              		.loc 1 215 0
 415 0014 7047     		bx	lr
 416              	.LVL39:
 417              	.L28:
 418              	.LBB69:
 419              	.LBB67:
 420              		.loc 1 241 0
 421 0016 40F20000 		movw	r0, #:lower16:rlist
 422 001a C0F20000 		movt	r0, #:upper16:rlist
 423 001e 8369     		ldr	r3, [r0, #24]
 424              		.loc 1 244 0
 425 0020 0120     		movs	r0, #1
 426              		.loc 1 242 0
 427 0022 D96B     		ldr	r1, [r3, #60]
 428              	.LVL40:
 429              		.loc 1 241 0
 430 0024 9360     		str	r3, [r2, #8]
 431              		.loc 1 242 0
 432 0026 D160     		str	r1, [r2, #12]
 433              		.loc 1 243 0
 434 0028 DA63     		str	r2, [r3, #60]
 435              	.LBE67:
 436              	.LBE69:
 437              	.LBB70:
 438              		.loc 1 213 0
 439 002a 0023     		movs	r3, #0
 440              	@ 213 "../ChibiOS_2.6.2/os/kernel/src/chmtx.c" 1
 441 002c 83F31188 		msr     BASEPRI, r3
 442              	@ 0 "" 2
 443              	.LVL41:
 444              		.thumb
 445              	.LBE70:
 446              		.loc 1 215 0
 447 0030 7047     		bx	lr
 448              		.cfi_endproc
 449              	.LFE10:
 450              		.size	chMtxTryLock, .-chMtxTryLock
 451 0032 00BFAFF3 		.section	.text.chMtxTryLockS,"ax",%progbits
ARM GAS  /tmp/ccuMGjLt.s 			page 9


 451      0080AFF3 
 451      0080AFF3 
 451      0080
 452              		.align	2
 453              		.p2align 4,,15
 454              		.global	chMtxTryLockS
 455              		.thumb
 456              		.thumb_func
 457              		.type	chMtxTryLockS, %function
 458              	chMtxTryLockS:
 459              	.LFB11:
 460              		.loc 1 234 0
 461              		.cfi_startproc
 462              		@ args = 0, pretend = 0, frame = 0
 463              		@ frame_needed = 0, uses_anonymous_args = 0
 464              		@ link register save eliminated.
 465              	.LVL42:
 466              		.loc 1 239 0
 467 0000 8268     		ldr	r2, [r0, #8]
 468              		.loc 1 234 0
 469 0002 0346     		mov	r3, r0
 470              		.loc 1 239 0
 471 0004 0AB1     		cbz	r2, .L32
 472              		.loc 1 240 0
 473 0006 0020     		movs	r0, #0
 474              	.LVL43:
 475              		.loc 1 245 0
 476 0008 7047     		bx	lr
 477              	.L32:
 478              		.loc 1 241 0
 479 000a 40F20000 		movw	r0, #:lower16:rlist
 480 000e C0F20000 		movt	r0, #:upper16:rlist
 481 0012 8269     		ldr	r2, [r0, #24]
 482              		.loc 1 244 0
 483 0014 0120     		movs	r0, #1
 484              		.loc 1 242 0
 485 0016 D16B     		ldr	r1, [r2, #60]
 486              		.loc 1 241 0
 487 0018 9A60     		str	r2, [r3, #8]
 488              		.loc 1 242 0
 489 001a D960     		str	r1, [r3, #12]
 490              		.loc 1 243 0
 491 001c D363     		str	r3, [r2, #60]
 492              		.loc 1 244 0
 493 001e 7047     		bx	lr
 494              		.cfi_endproc
 495              	.LFE11:
 496              		.size	chMtxTryLockS, .-chMtxTryLockS
 497              		.section	.text.chMtxUnlock,"ax",%progbits
 498              		.align	2
 499              		.p2align 4,,15
 500              		.global	chMtxUnlock
 501              		.thumb
 502              		.thumb_func
 503              		.type	chMtxUnlock, %function
 504              	chMtxUnlock:
 505              	.LFB12:
ARM GAS  /tmp/ccuMGjLt.s 			page 10


 506              		.loc 1 257 0
 507              		.cfi_startproc
 508              		@ args = 0, pretend = 0, frame = 0
 509              		@ frame_needed = 0, uses_anonymous_args = 0
 510 0000 F8B5     		push	{r3, r4, r5, r6, r7, lr}
 511              	.LCFI2:
 512              		.cfi_def_cfa_offset 24
 513              		.cfi_offset 14, -4
 514              		.cfi_offset 7, -8
 515              		.cfi_offset 6, -12
 516              		.cfi_offset 5, -16
 517              		.cfi_offset 4, -20
 518              		.cfi_offset 3, -24
 519              		.loc 1 258 0
 520 0002 40F20003 		movw	r3, #:lower16:rlist
 521 0006 C0F20003 		movt	r3, #:upper16:rlist
 522 000a 9A69     		ldr	r2, [r3, #24]
 523              	.LVL44:
 524              	.LBB71:
 525              		.loc 1 261 0
 526 000c 2023     		movs	r3, #32
 527              	.LVL45:
 528              	@ 261 "../ChibiOS_2.6.2/os/kernel/src/chmtx.c" 1
 529 000e 83F31188 		msr     BASEPRI, r3
 530              	@ 0 "" 2
 531              	.LVL46:
 532              		.thumb
 533              	.LBE71:
 534              		.loc 1 270 0
 535 0012 D46B     		ldr	r4, [r2, #60]
 536              	.LVL47:
 537              		.loc 1 273 0
 538 0014 2368     		ldr	r3, [r4, #0]
 539              	.LVL48:
 540              		.loc 1 271 0
 541 0016 E168     		ldr	r1, [r4, #12]
 542              		.loc 1 273 0
 543 0018 A342     		cmp	r3, r4
 544              		.loc 1 271 0
 545 001a D163     		str	r1, [r2, #60]
 546              		.loc 1 273 0
 547 001c 1CD0     		beq	.L34
 548              	.LBB72:
 549              		.loc 1 278 0
 550 001e 176C     		ldr	r7, [r2, #64]
 551              	.LVL49:
 552              		.loc 1 280 0
 553 0020 49B1     		cbz	r1, .L35
 554              	.LVL50:
 555              	.L39:
 556              		.loc 1 284 0
 557 0022 0868     		ldr	r0, [r1, #0]
 558 0024 8842     		cmp	r0, r1
 559 0026 03D0     		beq	.L36
 560              		.loc 1 284 0 is_stmt 0 discriminator 1
 561 0028 8068     		ldr	r0, [r0, #8]
 562 002a 8742     		cmp	r7, r0
ARM GAS  /tmp/ccuMGjLt.s 			page 11


 563 002c 38BF     		it	cc
 564 002e 0746     		movcc	r7, r0
 565              	.LVL51:
 566              	.L36:
 567              		.loc 1 286 0 is_stmt 1
 568 0030 C968     		ldr	r1, [r1, #12]
 569              	.LVL52:
 570              		.loc 1 280 0
 571 0032 0029     		cmp	r1, #0
 572 0034 F5D1     		bne	.L39
 573              	.L35:
 574              	.LBB73:
 575              	.LBB74:
 576              		.loc 2 62 0
 577 0036 1D68     		ldr	r5, [r3, #0]
 578              	.LBE74:
 579              	.LBE73:
 580              		.loc 1 295 0
 581 0038 DE6B     		ldr	r6, [r3, #60]
 582              		.loc 1 290 0
 583 003a 9760     		str	r7, [r2, #8]
 584              	.LVL53:
 585              		.loc 1 297 0
 586 003c 1846     		mov	r0, r3
 587              	.LBB77:
 588              	.LBB75:
 589              		.loc 2 62 0
 590 003e 2560     		str	r5, [r4, #0]
 591              	.LBE75:
 592              	.LBE77:
 593              		.loc 1 297 0
 594 0040 0021     		movs	r1, #0
 595              	.LVL54:
 596              	.LBB78:
 597              	.LBB76:
 598              		.loc 2 62 0
 599 0042 6C60     		str	r4, [r5, #4]
 600              	.LBE76:
 601              	.LBE78:
 602              		.loc 1 294 0
 603 0044 A360     		str	r3, [r4, #8]
 604              		.loc 1 295 0
 605 0046 E660     		str	r6, [r4, #12]
 606              		.loc 1 296 0
 607 0048 DC63     		str	r4, [r3, #60]
 608              		.loc 1 297 0
 609 004a FFF7FEFF 		bl	chSchWakeupS
 610              	.LVL55:
 611              	.LBE72:
 612              	.LBB79:
 613              		.loc 1 301 0
 614 004e 0023     		movs	r3, #0
 615              	.LVL56:
 616              	@ 301 "../ChibiOS_2.6.2/os/kernel/src/chmtx.c" 1
 617 0050 83F31188 		msr     BASEPRI, r3
 618              	@ 0 "" 2
 619              	.LVL57:
ARM GAS  /tmp/ccuMGjLt.s 			page 12


 620              		.thumb
 621              	.LBE79:
 622              		.loc 1 303 0
 623 0054 2046     		mov	r0, r4
 624 0056 F8BD     		pop	{r3, r4, r5, r6, r7, pc}
 625              	.LVL58:
 626              	.L34:
 627              		.loc 1 300 0
 628 0058 0021     		movs	r1, #0
 629 005a A160     		str	r1, [r4, #8]
 630              	.LBB80:
 631              		.loc 1 301 0
 632 005c 0023     		movs	r3, #0
 633              	@ 301 "../ChibiOS_2.6.2/os/kernel/src/chmtx.c" 1
 634 005e 83F31188 		msr     BASEPRI, r3
 635              	@ 0 "" 2
 636              	.LVL59:
 637              		.thumb
 638              	.LBE80:
 639              		.loc 1 303 0
 640 0062 2046     		mov	r0, r4
 641 0064 F8BD     		pop	{r3, r4, r5, r6, r7, pc}
 642              		.cfi_endproc
 643              	.LFE12:
 644              		.size	chMtxUnlock, .-chMtxUnlock
 645 0066 00BFAFF3 		.section	.text.chMtxUnlockS,"ax",%progbits
 645      0080AFF3 
 645      0080
 646              		.align	2
 647              		.p2align 4,,15
 648              		.global	chMtxUnlockS
 649              		.thumb
 650              		.thumb_func
 651              		.type	chMtxUnlockS, %function
 652              	chMtxUnlockS:
 653              	.LFB13:
 654              		.loc 1 317 0
 655              		.cfi_startproc
 656              		@ args = 0, pretend = 0, frame = 0
 657              		@ frame_needed = 0, uses_anonymous_args = 0
 658              		.loc 1 318 0
 659 0000 40F20003 		movw	r3, #:lower16:rlist
 660 0004 C0F20003 		movt	r3, #:upper16:rlist
 661 0008 9969     		ldr	r1, [r3, #24]
 662              	.LVL60:
 663              		.loc 1 317 0
 664 000a 70B5     		push	{r4, r5, r6, lr}
 665              	.LCFI3:
 666              		.cfi_def_cfa_offset 16
 667              		.cfi_offset 14, -4
 668              		.cfi_offset 6, -8
 669              		.cfi_offset 5, -12
 670              		.cfi_offset 4, -16
 671              		.loc 1 331 0
 672 000c CC6B     		ldr	r4, [r1, #60]
 673              	.LVL61:
 674              		.loc 1 334 0
ARM GAS  /tmp/ccuMGjLt.s 			page 13


 675 000e 2368     		ldr	r3, [r4, #0]
 676              	.LVL62:
 677              		.loc 1 332 0
 678 0010 E268     		ldr	r2, [r4, #12]
 679              		.loc 1 334 0
 680 0012 A342     		cmp	r3, r4
 681              		.loc 1 332 0
 682 0014 CA63     		str	r2, [r1, #60]
 683              		.loc 1 334 0
 684 0016 18D0     		beq	.L42
 685              	.LBB81:
 686              		.loc 1 339 0
 687 0018 0E6C     		ldr	r6, [r1, #64]
 688              	.LVL63:
 689              		.loc 1 341 0
 690 001a 4AB1     		cbz	r2, .L43
 691              	.LVL64:
 692              	.L47:
 693              		.loc 1 345 0
 694 001c 1068     		ldr	r0, [r2, #0]
 695 001e 9042     		cmp	r0, r2
 696 0020 03D0     		beq	.L44
 697              		.loc 1 345 0 is_stmt 0 discriminator 1
 698 0022 8068     		ldr	r0, [r0, #8]
 699 0024 8642     		cmp	r6, r0
 700 0026 38BF     		it	cc
 701 0028 0646     		movcc	r6, r0
 702              	.LVL65:
 703              	.L44:
 704              		.loc 1 347 0 is_stmt 1
 705 002a D268     		ldr	r2, [r2, #12]
 706              	.LVL66:
 707              		.loc 1 341 0
 708 002c 002A     		cmp	r2, #0
 709 002e F5D1     		bne	.L47
 710              	.L43:
 711              	.LBB82:
 712              	.LBB83:
 713              		.loc 2 62 0
 714 0030 1A68     		ldr	r2, [r3, #0]
 715              	.LVL67:
 716              	.LBE83:
 717              	.LBE82:
 718              		.loc 1 354 0
 719 0032 DD6B     		ldr	r5, [r3, #60]
 720              		.loc 1 349 0
 721 0034 8E60     		str	r6, [r1, #8]
 722              	.LVL68:
 723              		.loc 1 356 0
 724 0036 1846     		mov	r0, r3
 725              	.LBB85:
 726              	.LBB84:
 727              		.loc 2 62 0
 728 0038 2260     		str	r2, [r4, #0]
 729 003a 5460     		str	r4, [r2, #4]
 730              	.LBE84:
 731              	.LBE85:
ARM GAS  /tmp/ccuMGjLt.s 			page 14


 732              		.loc 1 353 0
 733 003c A360     		str	r3, [r4, #8]
 734              		.loc 1 354 0
 735 003e E560     		str	r5, [r4, #12]
 736              		.loc 1 355 0
 737 0040 DC63     		str	r4, [r3, #60]
 738              		.loc 1 356 0
 739 0042 FFF7FEFF 		bl	chSchReadyI
 740              	.LVL69:
 741              	.LBE81:
 742              		.loc 1 361 0
 743 0046 2046     		mov	r0, r4
 744 0048 70BD     		pop	{r4, r5, r6, pc}
 745              	.LVL70:
 746              	.L42:
 747              		.loc 1 359 0
 748 004a 0021     		movs	r1, #0
 749              	.LVL71:
 750 004c A160     		str	r1, [r4, #8]
 751              		.loc 1 361 0
 752 004e 2046     		mov	r0, r4
 753 0050 70BD     		pop	{r4, r5, r6, pc}
 754              		.cfi_endproc
 755              	.LFE13:
 756              		.size	chMtxUnlockS, .-chMtxUnlockS
 757 0052 00BFAFF3 		.section	.text.chMtxUnlockAll,"ax",%progbits
 757      0080AFF3 
 757      0080AFF3 
 757      0080
 758              		.align	2
 759              		.p2align 4,,15
 760              		.global	chMtxUnlockAll
 761              		.thumb
 762              		.thumb_func
 763              		.type	chMtxUnlockAll, %function
 764              	chMtxUnlockAll:
 765              	.LFB14:
 766              		.loc 1 374 0
 767              		.cfi_startproc
 768              		@ args = 0, pretend = 0, frame = 0
 769              		@ frame_needed = 0, uses_anonymous_args = 0
 770              		.loc 1 375 0
 771 0000 40F20003 		movw	r3, #:lower16:rlist
 772 0004 C0F20003 		movt	r3, #:upper16:rlist
 773              		.loc 1 374 0
 774 0008 70B5     		push	{r4, r5, r6, lr}
 775              	.LCFI4:
 776              		.cfi_def_cfa_offset 16
 777              		.cfi_offset 14, -4
 778              		.cfi_offset 6, -8
 779              		.cfi_offset 5, -12
 780              		.cfi_offset 4, -16
 781              		.loc 1 375 0
 782 000a 9C69     		ldr	r4, [r3, #24]
 783              	.LVL72:
 784              	.LBB86:
 785              		.loc 1 377 0
ARM GAS  /tmp/ccuMGjLt.s 			page 15


 786 000c 2023     		movs	r3, #32
 787              	.LVL73:
 788              	@ 377 "../ChibiOS_2.6.2/os/kernel/src/chmtx.c" 1
 789 000e 83F31188 		msr     BASEPRI, r3
 790              	@ 0 "" 2
 791              	.LVL74:
 792              		.thumb
 793              	.LBE86:
 794              		.loc 1 378 0
 795 0012 E36B     		ldr	r3, [r4, #60]
 796              	.LVL75:
 797 0014 C3B1     		cbz	r3, .L50
 798              	.LBB87:
 799              		.loc 1 390 0
 800 0016 0025     		movs	r5, #0
 801              	.LVL76:
 802              	.L54:
 803              		.loc 1 382 0
 804 0018 1A68     		ldr	r2, [r3, #0]
 805              	.LVL77:
 806              		.loc 1 381 0
 807 001a D968     		ldr	r1, [r3, #12]
 808              		.loc 1 382 0
 809 001c 9A42     		cmp	r2, r3
 810              		.loc 1 381 0
 811 001e E163     		str	r1, [r4, #60]
 812              	.LBB88:
 813              		.loc 1 387 0
 814 0020 1046     		mov	r0, r2
 815              	.LBE88:
 816              		.loc 1 390 0
 817 0022 08BF     		it	eq
 818 0024 9D60     		streq	r5, [r3, #8]
 819              		.loc 1 382 0
 820 0026 08D0     		beq	.L52
 821              	.LBB93:
 822              	.LBB89:
 823              	.LBB90:
 824              		.loc 2 62 0
 825 0028 1168     		ldr	r1, [r2, #0]
 826              	.LBE90:
 827              	.LBE89:
 828              		.loc 1 385 0
 829 002a D66B     		ldr	r6, [r2, #60]
 830              	.LBB92:
 831              	.LBB91:
 832              		.loc 2 62 0
 833 002c 1960     		str	r1, [r3, #0]
 834 002e 4B60     		str	r3, [r1, #4]
 835              	.LBE91:
 836              	.LBE92:
 837              		.loc 1 384 0
 838 0030 9A60     		str	r2, [r3, #8]
 839              		.loc 1 385 0
 840 0032 DE60     		str	r6, [r3, #12]
 841              		.loc 1 386 0
 842 0034 D363     		str	r3, [r2, #60]
ARM GAS  /tmp/ccuMGjLt.s 			page 16


 843              		.loc 1 387 0
 844 0036 FFF7FEFF 		bl	chSchReadyI
 845              	.LVL78:
 846              	.L52:
 847              	.LBE93:
 848              	.LBE87:
 849              		.loc 1 391 0
 850 003a E36B     		ldr	r3, [r4, #60]
 851 003c 002B     		cmp	r3, #0
 852 003e EBD1     		bne	.L54
 853              		.loc 1 392 0
 854 0040 206C     		ldr	r0, [r4, #64]
 855 0042 A060     		str	r0, [r4, #8]
 856              		.loc 1 393 0
 857 0044 FFF7FEFF 		bl	chSchRescheduleS
 858              	.L50:
 859              	.LBB94:
 860              		.loc 1 395 0
 861 0048 0023     		movs	r3, #0
 862              	.LVL79:
 863              	@ 395 "../ChibiOS_2.6.2/os/kernel/src/chmtx.c" 1
 864 004a 83F31188 		msr     BASEPRI, r3
 865              	@ 0 "" 2
 866              	.LVL80:
 867              		.thumb
 868              	.LBE94:
 869              		.loc 1 396 0
 870 004e 70BD     		pop	{r4, r5, r6, pc}
 871              		.cfi_endproc
 872              	.LFE14:
 873              		.size	chMtxUnlockAll, .-chMtxUnlockAll
 874              		.text
 875              	.Letext0:
 876              		.file 3 "/opt/pros/toolchain/bin/../lib/gcc/arm-none-eabi/4.6.3/../../../../arm-none-eabi/include/
 877              		.file 4 "../ChibiOS_2.6.2/os/ports/GCC/ARMCMx/chtypes.h"
 878              		.file 5 "../ChibiOS_2.6.2/os/kernel/include/chlists.h"
 879              		.file 6 "../ChibiOS_2.6.2/os/kernel/include/chthreads.h"
 880              		.file 7 "../ChibiOS_2.6.2/os/ports/GCC/ARMCMx/chcore_v7m.h"
 881              		.file 8 "../ChibiOS_2.6.2/os/kernel/include/chschd.h"
 882              		.file 9 "../ChibiOS_2.6.2/os/kernel/include/chmtx.h"