ARM GAS  /tmp/ccPqDlDc.s 			page 1


   1              		.syntax unified
   2              		.cpu cortex-m3
   3              		.fpu softvfp
   4              		.eabi_attribute 20, 1
   5              		.eabi_attribute 21, 1
   6              		.eabi_attribute 23, 3
   7              		.eabi_attribute 24, 1
   8              		.eabi_attribute 25, 1
   9              		.eabi_attribute 26, 1
  10              		.eabi_attribute 30, 2
  11              		.eabi_attribute 34, 1
  12              		.eabi_attribute 18, 4
  13              		.thumb
  14              		.file	"chprintf.c"
  15              		.text
  16              	.Ltext0:
  17              		.cfi_sections	.debug_frame
  18              		.section	.text.chvprintf,"ax",%progbits
  19              		.align	2
  20              		.p2align 4,,15
  21              		.global	chvprintf
  22              		.thumb
  23              		.thumb_func
  24              		.type	chvprintf, %function
  25              	chvprintf:
  26              	.LFB10:
  27              		.file 1 "../ChibiOS_2.6.2/os/various/chprintf.c"
  28              		.loc 1 112 0
  29              		.cfi_startproc
  30              		@ args = 0, pretend = 0, frame = 48
  31              		@ frame_needed = 0, uses_anonymous_args = 0
  32              	.LVL0:
  33 0000 2DE9F04F 		push	{r4, r5, r6, r7, r8, r9, sl, fp, lr}
  34              	.LCFI0:
  35              		.cfi_def_cfa_offset 36
  36              		.cfi_offset 14, -4
  37              		.cfi_offset 11, -8
  38              		.cfi_offset 10, -12
  39              		.cfi_offset 9, -16
  40              		.cfi_offset 8, -20
  41              		.cfi_offset 7, -24
  42              		.cfi_offset 6, -28
  43              		.cfi_offset 5, -32
  44              		.cfi_offset 4, -36
  45 0004 8DB0     		sub	sp, sp, #52
  46              	.LCFI1:
  47              		.cfi_def_cfa_offset 88
  48              		.loc 1 132 0
  49 0006 09AC     		add	r4, sp, #36
  50 0008 0394     		str	r4, [sp, #12]
  51              		.loc 1 236 0
  52 000a DDF80CC0 		ldr	ip, [sp, #12]
  53 000e 0DF12503 		add	r3, sp, #37
  54 0012 CCEB0307 		rsb	r7, ip, r3
  55 0016 0293     		str	r3, [sp, #8]
  56 0018 0797     		str	r7, [sp, #28]
  57              	.LBB12:
ARM GAS  /tmp/ccPqDlDc.s 			page 2


  58              	.LBB13:
  59              	.LBB14:
  60              		.loc 1 54 0
  61 001a 4CF6CD43 		movw	r3, #52429
  62              	.LBE14:
  63              	.LBE13:
  64              	.LBE12:
  65              		.loc 1 187 0
  66 001e 40F20007 		movw	r7, #:lower16:.LC0
  67              	.LBB27:
  68              	.LBB21:
  69              	.LBB15:
  70              		.loc 1 54 0
  71 0022 CCF6CC43 		movt	r3, 52428
  72              	.LBE15:
  73              	.LBE21:
  74              	.LBE27:
  75              		.loc 1 187 0
  76 0026 C0F20007 		movt	r7, #:upper16:.LC0
  77              		.loc 1 112 0
  78 002a 0546     		mov	r5, r0
  79 002c 0C46     		mov	r4, r1
  80 002e 1646     		mov	r6, r2
  81              	.LVL1:
  82              	.LBB28:
  83              	.LBB22:
  84              	.LBB16:
  85              		.loc 1 54 0
  86 0030 0693     		str	r3, [sp, #24]
  87              	.LBE16:
  88              	.LBE22:
  89              	.LBE28:
  90              		.loc 1 187 0
  91 0032 0597     		str	r7, [sp, #20]
  92              	.LVL2:
  93              	.L98:
  94              		.loc 1 125 0
  95 0034 2178     		ldrb	r1, [r4, #0]	@ zero_extendqisi2
  96              	.LVL3:
  97              		.loc 1 126 0
  98 0036 51B1     		cbz	r1, .L1
  99              	.LVL4:
 100              	.L116:
 101              		.loc 1 125 0
 102 0038 671C     		adds	r7, r4, #1
 103              		.loc 1 128 0
 104 003a 2529     		cmp	r1, #37
 105 003c 0AD0     		beq	.L4
 106              		.loc 1 129 0
 107 003e 2B68     		ldr	r3, [r5, #0]
 108 0040 2846     		mov	r0, r5
 109 0042 9A68     		ldr	r2, [r3, #8]
 110              	.LVL5:
 111              		.loc 1 125 0
 112 0044 3C46     		mov	r4, r7
 113              		.loc 1 129 0
 114 0046 9047     		blx	r2
ARM GAS  /tmp/ccPqDlDc.s 			page 3


 115              	.LVL6:
 116              		.loc 1 125 0
 117 0048 2178     		ldrb	r1, [r4, #0]	@ zero_extendqisi2
 118              	.LVL7:
 119              		.loc 1 126 0
 120 004a 0029     		cmp	r1, #0
 121 004c F4D1     		bne	.L116
 122              	.LVL8:
 123              	.L1:
 124              		.loc 1 261 0
 125 004e 0DB0     		add	sp, sp, #52
 126 0050 BDE8F08F 		pop	{r4, r5, r6, r7, r8, r9, sl, fp, pc}
 127              	.L4:
 128              	.LVL9:
 129              		.loc 1 135 0
 130 0054 6378     		ldrb	r3, [r4, #1]	@ zero_extendqisi2
 131 0056 2D2B     		cmp	r3, #45
 132 0058 00F00582 		beq	.L117
 133              		.loc 1 134 0
 134 005c 0021     		movs	r1, #0
 135 005e 0491     		str	r1, [sp, #16]
 136              	.LVL10:
 137              	.L6:
 138              		.loc 1 140 0
 139 0060 A3F12E02 		sub	r2, r3, #46
 140              	.LVL11:
 141 0064 D2F10009 		rsbs	r9, r2, #0
 142 0068 49EB0204 		adc	r4, r9, r2
 143 006c 302B     		cmp	r3, #48
 144 006e 08BF     		it	eq
 145 0070 44F00104 		orreq	r4, r4, #1
 146              		.loc 1 139 0
 147 0074 4FF02009 		mov	r9, #32
 148              		.loc 1 140 0
 149 0078 1CB1     		cbz	r4, .L7
 150              	.LVL12:
 151              		.loc 1 141 0
 152 007a 7B78     		ldrb	r3, [r7, #1]	@ zero_extendqisi2
 153              		.loc 1 142 0
 154 007c 4FF03009 		mov	r9, #48
 155              		.loc 1 141 0
 156 0080 0137     		adds	r7, r7, #1
 157              	.LVL13:
 158              	.L7:
 159              		.loc 1 112 0
 160 0082 3C46     		mov	r4, r7
 161              		.loc 1 144 0
 162 0084 4FF0000B 		mov	fp, #0
 163 0088 07E0     		b	.L10
 164              	.LVL14:
 165              	.L118:
 166              		.loc 1 150 0
 167 008a 3278     		ldrb	r2, [r6, #0]	@ zero_extendqisi2
 168              	.LVL15:
 169 008c 0436     		adds	r6, r6, #4
 170              	.LVL16:
 171              	.L8:
ARM GAS  /tmp/ccPqDlDc.s 			page 4


 172              		.loc 1 153 0
 173 008e 0BEB8B03 		add	r3, fp, fp, lsl #2
 174 0092 02EB430B 		add	fp, r2, r3, lsl #1
 175              	.LVL17:
 176 0096 17F8013F 		ldrb	r3, [r7, #1]!	@ zero_extendqisi2
 177              	.LVL18:
 178              	.L10:
 179              		.loc 1 147 0
 180 009a A3F13000 		sub	r0, r3, #48
 181 009e C2B2     		uxtb	r2, r0
 182              		.loc 1 146 0
 183 00a0 0134     		adds	r4, r4, #1
 184              	.LVL19:
 185              		.loc 1 147 0
 186 00a2 092A     		cmp	r2, #9
 187 00a4 F3D9     		bls	.L8
 188              		.loc 1 149 0
 189 00a6 2A2B     		cmp	r3, #42
 190 00a8 EFD0     		beq	.L118
 191              	.LVL20:
 192              		.loc 1 155 0
 193 00aa 0021     		movs	r1, #0
 194              		.loc 1 156 0
 195 00ac 2E2B     		cmp	r3, #46
 196 00ae 00F0C681 		beq	.L119
 197              	.LVL21:
 198              	.L11:
 199              		.loc 1 170 0
 200 00b2 A3F16C02 		sub	r2, r3, #108
 201 00b6 D2F1000A 		rsbs	sl, r2, #0
 202 00ba 4AEB0207 		adc	r7, sl, r2
 203 00be 4C2B     		cmp	r3, #76
 204 00c0 08BF     		it	eq
 205 00c2 47F00107 		orreq	r7, r7, #1
 206 00c6 1FB1     		cbz	r7, .L15
 207              	.LVL22:
 208              		.loc 1 172 0
 209 00c8 2278     		ldrb	r2, [r4, #0]	@ zero_extendqisi2
 210 00ca 0AB1     		cbz	r2, .L15
 211              	.LVL23:
 212              		.loc 1 173 0
 213 00cc 0134     		adds	r4, r4, #1
 214              	.LVL24:
 215 00ce 1346     		mov	r3, r2
 216              	.LVL25:
 217              	.L15:
 218              		.loc 1 179 0
 219 00d0 A3F1440C 		sub	ip, r3, #68
 220 00d4 BCF1340F 		cmp	ip, #52
 221 00d8 00F26781 		bhi	.L16
 222 00dc DFE81CF0 		tbh	[pc, ip, lsl #1]
 223              	.L23:
 224 00e0 1701     		.2byte	(.L17-.L23)/2
 225 00e2 6501     		.2byte	(.L16-.L23)/2
 226 00e4 6501     		.2byte	(.L16-.L23)/2
 227 00e6 6501     		.2byte	(.L16-.L23)/2
 228 00e8 6501     		.2byte	(.L16-.L23)/2
ARM GAS  /tmp/ccPqDlDc.s 			page 5


 229 00ea 1701     		.2byte	(.L17-.L23)/2
 230 00ec 6501     		.2byte	(.L16-.L23)/2
 231 00ee 6501     		.2byte	(.L16-.L23)/2
 232 00f0 6501     		.2byte	(.L16-.L23)/2
 233 00f2 6501     		.2byte	(.L16-.L23)/2
 234 00f4 6501     		.2byte	(.L16-.L23)/2
 235 00f6 AB01     		.2byte	(.L18-.L23)/2
 236 00f8 6501     		.2byte	(.L16-.L23)/2
 237 00fa 6501     		.2byte	(.L16-.L23)/2
 238 00fc 6501     		.2byte	(.L16-.L23)/2
 239 00fe 6501     		.2byte	(.L16-.L23)/2
 240 0100 6501     		.2byte	(.L16-.L23)/2
 241 0102 6C01     		.2byte	(.L51-.L23)/2
 242 0104 6501     		.2byte	(.L16-.L23)/2
 243 0106 6501     		.2byte	(.L16-.L23)/2
 244 0108 AD01     		.2byte	(.L20-.L23)/2
 245 010a 6501     		.2byte	(.L16-.L23)/2
 246 010c 6501     		.2byte	(.L16-.L23)/2
 247 010e 6501     		.2byte	(.L16-.L23)/2
 248 0110 6501     		.2byte	(.L16-.L23)/2
 249 0112 6501     		.2byte	(.L16-.L23)/2
 250 0114 6501     		.2byte	(.L16-.L23)/2
 251 0116 6501     		.2byte	(.L16-.L23)/2
 252 0118 6501     		.2byte	(.L16-.L23)/2
 253 011a 6501     		.2byte	(.L16-.L23)/2
 254 011c 6501     		.2byte	(.L16-.L23)/2
 255 011e CA00     		.2byte	(.L21-.L23)/2
 256 0120 1701     		.2byte	(.L17-.L23)/2
 257 0122 6501     		.2byte	(.L16-.L23)/2
 258 0124 6501     		.2byte	(.L16-.L23)/2
 259 0126 6501     		.2byte	(.L16-.L23)/2
 260 0128 6501     		.2byte	(.L16-.L23)/2
 261 012a 1701     		.2byte	(.L17-.L23)/2
 262 012c 6501     		.2byte	(.L16-.L23)/2
 263 012e 6501     		.2byte	(.L16-.L23)/2
 264 0130 6501     		.2byte	(.L16-.L23)/2
 265 0132 6501     		.2byte	(.L16-.L23)/2
 266 0134 6501     		.2byte	(.L16-.L23)/2
 267 0136 AB01     		.2byte	(.L18-.L23)/2
 268 0138 6501     		.2byte	(.L16-.L23)/2
 269 013a 6501     		.2byte	(.L16-.L23)/2
 270 013c 6501     		.2byte	(.L16-.L23)/2
 271 013e 3500     		.2byte	(.L22-.L23)/2
 272 0140 6501     		.2byte	(.L16-.L23)/2
 273 0142 6C01     		.2byte	(.L51-.L23)/2
 274 0144 6501     		.2byte	(.L16-.L23)/2
 275 0146 6501     		.2byte	(.L16-.L23)/2
 276 0148 AD01     		.2byte	(.L20-.L23)/2
 277              	.L22:
 278              	.LVL26:
 279              		.loc 1 186 0
 280 014a 3768     		ldr	r7, [r6, #0]
 281              		.loc 1 187 0
 282 014c DDF81480 		ldr	r8, [sp, #20]
 283              		.loc 1 189 0
 284 0150 47F6FF73 		movw	r3, #32767
 285              	.LVL27:
ARM GAS  /tmp/ccPqDlDc.s 			page 6


 286              		.loc 1 187 0
 287 0154 002F     		cmp	r7, #0
 288 0156 18BF     		it	ne
 289 0158 B846     		movne	r8, r7
 290              		.loc 1 190 0
 291 015a 98F80000 		ldrb	r0, [r8, #0]	@ zero_extendqisi2
 292              		.loc 1 186 0
 293 015e 0436     		adds	r6, r6, #4
 294              	.LVL28:
 295              		.loc 1 189 0
 296 0160 0029     		cmp	r1, #0
 297 0162 08BF     		it	eq
 298 0164 1946     		moveq	r1, r3
 299              	.LVL29:
 300              		.loc 1 190 0
 301 0166 8246     		mov	sl, r0
 302              		.loc 1 185 0
 303 0168 4FF02009 		mov	r9, #32
 304              		.loc 1 190 0
 305 016c 0028     		cmp	r0, #0
 306 016e 00F08B80 		beq	.L24
 307 0172 6FEA080A 		mvn	sl, r8
 308              		.loc 1 112 0
 309 0176 4144     		add	r1, r8, r1
 310              		.loc 1 190 0
 311 0178 98F80120 		ldrb	r2, [r8, #1]	@ zero_extendqisi2
 312 017c 01EB0A09 		add	r9, r1, sl
 313 0180 08F1010A 		add	sl, r8, #1
 314 0184 09F00100 		and	r0, r9, #1
 315 0188 5346     		mov	r3, sl
 316 018a A2B1     		cbz	r2, .L102
 317 018c 8A45     		cmp	sl, r1
 318 018e 12D0     		beq	.L102
 319 0190 28B1     		cbz	r0, .L28
 320 0192 13F8017F 		ldrb	r7, [r3, #1]!	@ zero_extendqisi2
 321 0196 0AF1010A 		add	sl, sl, #1
 322              	.LVL30:
 323 019a 57B9     		cbnz	r7, .L90
 324 019c 0BE0     		b	.L102
 325              	.L28:
 326              		.loc 1 190 0 is_stmt 0 discriminator 1
 327 019e 5878     		ldrb	r0, [r3, #1]	@ zero_extendqisi2
 328 01a0 0AF1010A 		add	sl, sl, #1
 329 01a4 0133     		adds	r3, r3, #1
 330 01a6 30B1     		cbz	r0, .L102
 331              		.loc 1 190 0 discriminator 2
 332 01a8 5F78     		ldrb	r7, [r3, #1]	@ zero_extendqisi2
 333 01aa 0AF1010A 		add	sl, sl, #1
 334 01ae 0133     		adds	r3, r3, #1
 335 01b0 0FB1     		cbz	r7, .L102
 336              	.L90:
 337              		.loc 1 190 0
 338 01b2 8A45     		cmp	sl, r1
 339 01b4 F3D1     		bne	.L28
 340              	.L102:
 341 01b6 C8EB0A0A 		rsb	sl, r8, sl
 342              		.loc 1 242 0 is_stmt 1
ARM GAS  /tmp/ccPqDlDc.s 			page 7


 343 01ba 0498     		ldr	r0, [sp, #16]
 344              		.loc 1 240 0
 345 01bc CAEB0B02 		rsb	r2, sl, fp
 346              		.loc 1 185 0
 347 01c0 4FF02009 		mov	r9, #32
 348              	.LVL31:
 349              		.loc 1 240 0
 350 01c4 22EAE27B 		bic	fp, r2, r2, asr #31
 351              	.LVL32:
 352              		.loc 1 242 0
 353 01c8 0028     		cmp	r0, #0
 354 01ca 64D0     		beq	.L120
 355              	.LVL33:
 356              	.L41:
 357              		.loc 1 253 0 discriminator 1
 358 01cc BAF1000F 		cmp	sl, #0
 359 01d0 26DD     		ble	.L44
 360              		.loc 1 254 0
 361 01d2 4746     		mov	r7, r8
 362 01d4 2B68     		ldr	r3, [r5, #0]
 363              		.loc 1 112 0
 364 01d6 C244     		add	sl, r8, sl
 365              	.LVL34:
 366 01d8 6FEA0800 		mvn	r0, r8
 367              		.loc 1 254 0
 368 01dc 17F8011B 		ldrb	r1, [r7], #1	@ zero_extendqisi2
 369 01e0 0AEB0008 		add	r8, sl, r0
 370              	.LVL35:
 371 01e4 9A68     		ldr	r2, [r3, #8]
 372 01e6 2846     		mov	r0, r5
 373 01e8 9047     		blx	r2
 374              		.loc 1 253 0
 375 01ea 5745     		cmp	r7, sl
 376 01ec 08F00108 		and	r8, r8, #1
 377              	.LVL36:
 378 01f0 16D0     		beq	.L44
 379 01f2 B8F1000F 		cmp	r8, #0
 380 01f6 03D0     		beq	.L45
 381              	.LVL37:
 382              		.loc 1 254 0
 383 01f8 2B68     		ldr	r3, [r5, #0]
 384 01fa 17F8011B 		ldrb	r1, [r7], #1	@ zero_extendqisi2
 385 01fe 0AE0     		b	.L113
 386              	.L45:
 387 0200 2B68     		ldr	r3, [r5, #0]
 388 0202 B846     		mov	r8, r7
 389 0204 18F8011B 		ldrb	r1, [r8], #1	@ zero_extendqisi2
 390 0208 9A68     		ldr	r2, [r3, #8]
 391 020a 2846     		mov	r0, r5
 392 020c 9047     		blx	r2
 393 020e 2B68     		ldr	r3, [r5, #0]
 394 0210 7978     		ldrb	r1, [r7, #1]	@ zero_extendqisi2
 395 0212 08F10107 		add	r7, r8, #1
 396              	.L113:
 397 0216 9A68     		ldr	r2, [r3, #8]
 398 0218 2846     		mov	r0, r5
 399 021a 9047     		blx	r2
ARM GAS  /tmp/ccPqDlDc.s 			page 8


 400              		.loc 1 253 0
 401 021c 5745     		cmp	r7, sl
 402 021e EFD1     		bne	.L45
 403              	.L44:
 404              	.LVL38:
 405              		.loc 1 256 0 discriminator 1
 406 0220 BBF1000F 		cmp	fp, #0
 407 0224 3FF406AF 		beq	.L98
 408              		.loc 1 257 0
 409 0228 2F68     		ldr	r7, [r5, #0]
 410 022a 0BF1FF3E 		add	lr, fp, #-1
 411 022e BA68     		ldr	r2, [r7, #8]
 412 0230 2846     		mov	r0, r5
 413              		.loc 1 256 0
 414 0232 7746     		mov	r7, lr
 415              		.loc 1 257 0
 416 0234 4946     		mov	r1, r9
 417 0236 0EF0010B 		and	fp, lr, #1
 418              	.LVL39:
 419 023a 9047     		blx	r2
 420              	.LVL40:
 421              		.loc 1 256 0
 422 023c 002F     		cmp	r7, #0
 423 023e 3FF4F9AE 		beq	.L98
 424 0242 BBF1000F 		cmp	fp, #0
 425 0246 07D0     		beq	.L57
 426              		.loc 1 257 0
 427 0248 2968     		ldr	r1, [r5, #0]
 428 024a 2846     		mov	r0, r5
 429 024c 8B68     		ldr	r3, [r1, #8]
 430 024e 4946     		mov	r1, r9
 431 0250 9847     		blx	r3
 432              	.LVL41:
 433              		.loc 1 256 0
 434 0252 013F     		subs	r7, r7, #1
 435 0254 3FF4EEAE 		beq	.L98
 436              	.L57:
 437              		.loc 1 257 0
 438 0258 2868     		ldr	r0, [r5, #0]
 439 025a 4946     		mov	r1, r9
 440 025c 8268     		ldr	r2, [r0, #8]
 441 025e 2846     		mov	r0, r5
 442 0260 9047     		blx	r2
 443 0262 2968     		ldr	r1, [r5, #0]
 444              		.loc 1 258 0
 445 0264 013F     		subs	r7, r7, #1
 446              		.loc 1 257 0
 447 0266 8B68     		ldr	r3, [r1, #8]
 448 0268 2846     		mov	r0, r5
 449 026a 4946     		mov	r1, r9
 450 026c 9847     		blx	r3
 451              		.loc 1 256 0
 452 026e 013F     		subs	r7, r7, #1
 453 0270 F2D1     		bne	.L57
 454 0272 DFE6     		b	.L98
 455              	.LVL42:
 456              	.L21:
ARM GAS  /tmp/ccPqDlDc.s 			page 9


 457              		.loc 1 182 0
 458 0274 3168     		ldr	r1, [r6, #0]
 459              	.LVL43:
 460 0276 DDF81CA0 		ldr	sl, [sp, #28]
 461 027a 8DF82410 		strb	r1, [sp, #36]
 462              	.LVL44:
 463 027e 0436     		adds	r6, r6, #4
 464              	.LVL45:
 465              		.loc 1 181 0
 466 0280 4FF02009 		mov	r9, #32
 467              		.loc 1 133 0
 468 0284 0DF12408 		add	r8, sp, #36
 469              	.LVL46:
 470              	.L24:
 471              		.loc 1 242 0
 472 0288 0498     		ldr	r0, [sp, #16]
 473              		.loc 1 240 0
 474 028a CAEB0B02 		rsb	r2, sl, fp
 475              	.LVL47:
 476 028e 22EAE27B 		bic	fp, r2, r2, asr #31
 477              	.LVL48:
 478              		.loc 1 242 0
 479 0292 0028     		cmp	r0, #0
 480 0294 9AD1     		bne	.L41
 481              	.LVL49:
 482              	.L120:
 483              		.loc 1 243 0
 484 0296 CBF1000B 		rsb	fp, fp, #0
 485              	.LVL50:
 486              		.loc 1 244 0
 487 029a BBF1000F 		cmp	fp, #0
 488 029e 95D0     		beq	.L41
 489              		.loc 1 245 0
 490 02a0 A9F13003 		sub	r3, r9, #48
 491 02a4 D3F1000E 		rsbs	lr, r3, #0
 492 02a8 98F80070 		ldrb	r7, [r8, #0]	@ zero_extendqisi2
 493 02ac 4EEB0301 		adc	r1, lr, r3
 494 02b0 2D2F     		cmp	r7, #45
 495 02b2 14BF     		ite	ne
 496 02b4 0021     		movne	r1, #0
 497 02b6 01F00101 		andeq	r1, r1, #1
 498 02ba 0029     		cmp	r1, #0
 499 02bc 40F0D880 		bne	.L121
 500              	.L92:
 501              		.loc 1 250 0
 502 02c0 2868     		ldr	r0, [r5, #0]
 503 02c2 6FEA0B0C 		mvn	ip, fp
 504 02c6 8368     		ldr	r3, [r0, #8]
 505 02c8 4946     		mov	r1, r9
 506 02ca 2846     		mov	r0, r5
 507 02cc 0CF00107 		and	r7, ip, #1
 508              	.LVL51:
 509 02d0 9847     		blx	r3
 510              	.LVL52:
 511              		.loc 1 251 0
 512 02d2 1BF1010B 		adds	fp, fp, #1
 513              	.LVL53:
ARM GAS  /tmp/ccPqDlDc.s 			page 10


 514 02d6 3FF479AF 		beq	.L41
 515 02da 47B1     		cbz	r7, .L58
 516              		.loc 1 250 0
 517 02dc 2968     		ldr	r1, [r5, #0]
 518 02de 2846     		mov	r0, r5
 519 02e0 8B68     		ldr	r3, [r1, #8]
 520 02e2 4946     		mov	r1, r9
 521 02e4 9847     		blx	r3
 522              	.LVL54:
 523              		.loc 1 251 0
 524 02e6 1BF1010B 		adds	fp, fp, #1
 525              	.LVL55:
 526 02ea 3FF46FAF 		beq	.L41
 527              	.L58:
 528              		.loc 1 250 0 discriminator 1
 529 02ee 2868     		ldr	r0, [r5, #0]
 530 02f0 4946     		mov	r1, r9
 531 02f2 8368     		ldr	r3, [r0, #8]
 532 02f4 2846     		mov	r0, r5
 533 02f6 9847     		blx	r3
 534 02f8 2968     		ldr	r1, [r5, #0]
 535              		.loc 1 251 0 discriminator 1
 536 02fa 0BF1010B 		add	fp, fp, #1
 537              	.LVL56:
 538              		.loc 1 250 0 discriminator 1
 539 02fe 8A68     		ldr	r2, [r1, #8]
 540 0300 2846     		mov	r0, r5
 541 0302 4946     		mov	r1, r9
 542 0304 9047     		blx	r2
 543              	.LVL57:
 544              		.loc 1 251 0 discriminator 1
 545 0306 1BF1010B 		adds	fp, fp, #1
 546              	.LVL58:
 547 030a F0D1     		bne	.L58
 548 030c 5EE7     		b	.L41
 549              	.LVL59:
 550              	.L17:
 551              		.loc 1 200 0
 552 030e 3268     		ldr	r2, [r6, #0]
 553              	.LVL60:
 554 0310 0436     		adds	r6, r6, #4
 555              	.LVL61:
 556              		.loc 1 201 0
 557 0312 002A     		cmp	r2, #0
 558              		.loc 1 132 0
 559 0314 A8BF     		it	ge
 560 0316 0DF12408 		addge	r8, sp, #36
 561              		.loc 1 201 0
 562 031a C0F2B380 		blt	.L122
 563              	.LVL62:
 564              	.L31:
 565              	.LBB29:
 566              	.LBB23:
 567              	.LBB17:
 568              		.loc 1 52 0
 569 031e 08F10B0C 		add	ip, r8, #11
 570              	.LVL63:
ARM GAS  /tmp/ccPqDlDc.s 			page 11


 571              	.LBE17:
 572              	.LBE23:
 573              	.LBE29:
 574              		.loc 1 112 0
 575 0322 C246     		mov	sl, r8
 576 0324 DDF81880 		ldr	r8, [sp, #24]
 577              	.LVL64:
 578              	.LBB30:
 579              	.LBB24:
 580              	.LBB18:
 581 0328 6146     		mov	r1, ip
 582              	.LBE18:
 583              	.LBE24:
 584              	.LBE30:
 585 032a 1746     		mov	r7, r2
 586 032c CDF804C0 		str	ip, [sp, #4]
 587              	.LVL65:
 588              	.L32:
 589              	.LBB31:
 590              	.LBB25:
 591              	.LBB19:
 592              		.loc 1 54 0
 593 0330 A8FB02C3 		umull	ip, r3, r8, r2
 594              		.loc 1 60 0
 595 0334 A8FB07C7 		umull	ip, r7, r8, r7
 596              	.LVL66:
 597              		.loc 1 54 0
 598 0338 DB08     		lsrs	r3, r3, #3
 599 033a 03EB8300 		add	r0, r3, r3, lsl #2
 600 033e A2EB4000 		sub	r0, r2, r0, lsl #1
 601              	.LVL67:
 602              		.loc 1 112 0
 603 0342 0139     		subs	r1, r1, #1
 604              	.LVL68:
 605              		.loc 1 55 0
 606 0344 3030     		adds	r0, r0, #48
 607              		.loc 1 60 0
 608 0346 FF08     		lsrs	r7, r7, #3
 609              		.loc 1 58 0
 610 0348 0870     		strb	r0, [r1, #0]
 611              		.loc 1 59 0
 612 034a 1A46     		mov	r2, r3
 613              	.LVL69:
 614              		.loc 1 60 0
 615 034c F0D1     		bne	.L32
 616 034e D046     		mov	r8, sl
 617 0350 DDF804A0 		ldr	sl, [sp, #4]
 618              	.LVL70:
 619 0354 6FEA0802 		mvn	r2, r8
 620              		.loc 1 62 0
 621 0358 C1EB0A0A 		rsb	sl, r1, sl
 622              	.LVL71:
 623              		.loc 1 112 0
 624 035c 08EB0A07 		add	r7, r8, sl
 625 0360 07EB020C 		add	ip, r7, r2
 626 0364 5FEACC73 		lsls	r3, ip, #31
 627              	.LVL72:
ARM GAS  /tmp/ccPqDlDc.s 			page 12


 628              	.LBE19:
 629              	.LBE25:
 630              	.LBE31:
 631 0368 4246     		mov	r2, r8
 632 036a 11D5     		bpl	.L34
 633              	.LVL73:
 634              	.LBB32:
 635              	.LBB26:
 636              	.LBB20:
 637              		.loc 1 64 0
 638 036c 4246     		mov	r2, r8
 639              	.LVL74:
 640 036e 02F8010B 		strb	r0, [r2], #1
 641              	.LVL75:
 642              		.loc 1 65 0
 643 0372 11F8010F 		ldrb	r0, [r1, #1]!	@ zero_extendqisi2
 644              		.loc 1 64 0
 645 0376 1346     		mov	r3, r2
 646 0378 03F8010B 		strb	r0, [r3], #1
 647              		.loc 1 65 0
 648 037c BB42     		cmp	r3, r7
 649 037e 0CD0     		beq	.L33
 650              	.LVL76:
 651              	.L123:
 652 0380 91F801C0 		ldrb	ip, [r1, #1]	@ zero_extendqisi2
 653 0384 481C     		adds	r0, r1, #1
 654              		.loc 1 64 0
 655 0386 82F801C0 		strb	ip, [r2, #1]
 656              		.loc 1 65 0
 657 038a 4078     		ldrb	r0, [r0, #1]	@ zero_extendqisi2
 658 038c 0231     		adds	r1, r1, #2
 659              		.loc 1 64 0
 660 038e 5A1C     		adds	r2, r3, #1
 661              	.LVL77:
 662              	.L34:
 663 0390 1346     		mov	r3, r2
 664 0392 03F8010B 		strb	r0, [r3], #1
 665              		.loc 1 65 0
 666 0396 BB42     		cmp	r3, r7
 667 0398 F2D1     		bne	.L123
 668              	.LVL78:
 669              	.L33:
 670 039a 039B     		ldr	r3, [sp, #12]
 671              		.loc 1 205 0
 672 039c 08EB0A01 		add	r1, r8, sl
 673              		.loc 1 65 0
 674 03a0 C3EB010A 		rsb	sl, r3, r1
 675              	.LBE20:
 676              	.LBE26:
 677              	.LBE32:
 678              		.loc 1 133 0
 679 03a4 0DF12408 		add	r8, sp, #36
 680              	.LVL79:
 681              		.loc 1 206 0
 682 03a8 6EE7     		b	.L24
 683              	.LVL80:
 684              	.L16:
ARM GAS  /tmp/ccPqDlDc.s 			page 13


 685              		.loc 1 236 0
 686 03aa 8DF82430 		strb	r3, [sp, #36]
 687              	.LVL81:
 688 03ae DDF81CA0 		ldr	sl, [sp, #28]
 689              		.loc 1 133 0
 690 03b2 0DF12408 		add	r8, sp, #36
 691              		.loc 1 237 0
 692 03b6 67E7     		b	.L24
 693              	.LVL82:
 694              	.L51:
 695              		.loc 1 179 0
 696 03b8 0A27     		movs	r7, #10
 697              	.LVL83:
 698              	.L19:
 699              		.loc 1 232 0
 700 03ba 3268     		ldr	r2, [r6, #0]
 701              	.LVL84:
 702 03bc 0DF12E00 		add	r0, sp, #46
 703 03c0 0436     		adds	r6, r6, #4
 704              	.LVL85:
 705 03c2 1146     		mov	r1, r2
 706              	.LVL86:
 707              	.L38:
 708              	.LBB33:
 709              	.LBB34:
 710              	.LBB35:
 711              		.loc 1 54 0
 712 03c4 B2FBF7FA 		udiv	sl, r2, r7
 713 03c8 07FB1A28 		mls	r8, r7, sl, r2
 714              	.LVL87:
 715              		.loc 1 55 0
 716 03cc 08F13003 		add	r3, r8, #48
 717              	.LVL88:
 718              		.loc 1 56 0
 719 03d0 392B     		cmp	r3, #57
 720              		.loc 1 57 0
 721 03d2 C8BF     		it	gt
 722 03d4 08F13703 		addgt	r3, r8, #55
 723              	.LVL89:
 724              		.loc 1 60 0
 725 03d8 B1FBF7F1 		udiv	r1, r1, r7
 726              	.LVL90:
 727              		.loc 1 58 0
 728 03dc 8046     		mov	r8, r0
 729              	.LVL91:
 730              		.loc 1 59 0
 731 03de 5246     		mov	r2, sl
 732              	.LVL92:
 733              		.loc 1 58 0
 734 03e0 00F80139 		strb	r3, [r0], #-1
 735              	.LVL93:
 736              		.loc 1 60 0
 737 03e4 0029     		cmp	r1, #0
 738 03e6 EDD1     		bne	.L38
 739              		.loc 1 62 0
 740 03e8 0DF12F07 		add	r7, sp, #47
 741              	.LVL94:
ARM GAS  /tmp/ccPqDlDc.s 			page 14


 742 03ec DDF80CC0 		ldr	ip, [sp, #12]
 743 03f0 C8EB070A 		rsb	sl, r8, r7
 744              	.LVL95:
 745              		.loc 1 112 0
 746 03f4 09AF     		add	r7, sp, #36
 747 03f6 6FEA0C01 		mvn	r1, ip
 748              	.LVL96:
 749 03fa 07EB0A00 		add	r0, r7, sl
 750 03fe 4218     		adds	r2, r0, r1
 751              	.LVL97:
 752 0400 D207     		lsls	r2, r2, #31
 753              	.LBE35:
 754              	.LBE34:
 755              	.LBE33:
 756              		.loc 1 132 0
 757 0402 3946     		mov	r1, r7
 758 0404 0FD5     		bpl	.L40
 759              	.LVL98:
 760              	.LBB38:
 761              	.LBB37:
 762              	.LBB36:
 763              		.loc 1 64 0
 764 0406 8DF82430 		strb	r3, [sp, #36]
 765 040a 0DF12501 		add	r1, sp, #37
 766              	.LVL99:
 767              		.loc 1 65 0
 768 040e 18F8013F 		ldrb	r3, [r8, #1]!	@ zero_extendqisi2
 769 0412 08E0     		b	.L40
 770              	.LVL100:
 771              	.L124:
 772 0414 98F80170 		ldrb	r7, [r8, #1]	@ zero_extendqisi2
 773              	.LVL101:
 774 0418 08F10103 		add	r3, r8, #1
 775              		.loc 1 64 0
 776 041c 4F70     		strb	r7, [r1, #1]
 777              		.loc 1 65 0
 778 041e 5B78     		ldrb	r3, [r3, #1]	@ zero_extendqisi2
 779 0420 08F10208 		add	r8, r8, #2
 780              		.loc 1 64 0
 781 0424 511C     		adds	r1, r2, #1
 782              	.LVL102:
 783              	.L40:
 784 0426 0A46     		mov	r2, r1
 785 0428 02F8013B 		strb	r3, [r2], #1
 786              		.loc 1 65 0
 787 042c 8242     		cmp	r2, r0
 788 042e F1D1     		bne	.L124
 789              	.LBE36:
 790              	.LBE37:
 791              	.LBE38:
 792              		.loc 1 133 0
 793 0430 0DF12408 		add	r8, sp, #36
 794 0434 28E7     		b	.L24
 795              	.LVL103:
 796              	.L18:
 797 0436 0827     		movs	r7, #8
 798 0438 BFE7     		b	.L19
ARM GAS  /tmp/ccPqDlDc.s 			page 15


 799              	.LVL104:
 800              	.L20:
 801              		.loc 1 179 0
 802 043a 1027     		movs	r7, #16
 803 043c BDE7     		b	.L19
 804              	.LVL105:
 805              	.L119:
 806              		.loc 1 156 0
 807 043e 2046     		mov	r0, r4
 808 0440 0021     		movs	r1, #0
 809              	.LVL106:
 810              	.L13:
 811              		.loc 1 158 0
 812 0442 10F8013B 		ldrb	r3, [r0], #1	@ zero_extendqisi2
 813              	.LVL107:
 814              		.loc 1 165 0
 815 0446 01EB8107 		add	r7, r1, r1, lsl #2
 816              		.loc 1 159 0
 817 044a A3F13004 		sub	r4, r3, #48
 818 044e E2B2     		uxtb	r2, r4
 819 0450 092A     		cmp	r2, #9
 820              		.loc 1 158 0
 821 0452 0446     		mov	r4, r0
 822              	.LVL108:
 823              		.loc 1 159 0
 824 0454 04D9     		bls	.L12
 825              		.loc 1 161 0
 826 0456 2A2B     		cmp	r3, #42
 827 0458 7FF42BAE 		bne	.L11
 828              		.loc 1 162 0
 829 045c 3278     		ldrb	r2, [r6, #0]	@ zero_extendqisi2
 830              	.LVL109:
 831 045e 0436     		adds	r6, r6, #4
 832              	.LVL110:
 833              	.L12:
 834              		.loc 1 166 0
 835 0460 02EB4701 		add	r1, r2, r7, lsl #1
 836              	.LVL111:
 837              		.loc 1 167 0
 838 0464 EDE7     		b	.L13
 839              	.LVL112:
 840              	.L117:
 841              		.loc 1 137 0
 842 0466 0120     		movs	r0, #1
 843              		.loc 1 136 0
 844 0468 A71C     		adds	r7, r4, #2
 845              	.LVL113:
 846 046a A378     		ldrb	r3, [r4, #2]	@ zero_extendqisi2
 847              		.loc 1 137 0
 848 046c 0490     		str	r0, [sp, #16]
 849 046e F7E5     		b	.L6
 850              	.LVL114:
 851              	.L121:
 852              		.loc 1 246 0
 853 0470 2968     		ldr	r1, [r5, #0]
 854 0472 2846     		mov	r0, r5
 855 0474 8A68     		ldr	r2, [r1, #8]
ARM GAS  /tmp/ccPqDlDc.s 			page 16


 856 0476 2D21     		movs	r1, #45
 857 0478 9047     		blx	r2
 858 047a 08F10108 		add	r8, r8, #1
 859              	.LVL115:
 860              		.loc 1 247 0
 861 047e 0AF1FF3A 		add	sl, sl, #-1
 862              	.LVL116:
 863 0482 1DE7     		b	.L92
 864              	.LVL117:
 865              	.L122:
 866              		.loc 1 202 0
 867 0484 2D21     		movs	r1, #45
 868              	.LVL118:
 869 0486 8DF82410 		strb	r1, [sp, #36]
 870              	.LVL119:
 871              		.loc 1 203 0
 872 048a 5242     		negs	r2, r2
 873              	.LVL120:
 874              		.loc 1 202 0
 875 048c 0DF12508 		add	r8, sp, #37
 876 0490 45E7     		b	.L31
 877              		.cfi_endproc
 878              	.LFE10:
 879              		.size	chvprintf, .-chvprintf
 880 0492 00BFAFF3 		.section	.text.chsnprintf,"ax",%progbits
 880      0080AFF3 
 880      0080AFF3 
 880      0080
 881              		.align	2
 882              		.p2align 4,,15
 883              		.global	chsnprintf
 884              		.thumb
 885              		.thumb_func
 886              		.type	chsnprintf, %function
 887              	chsnprintf:
 888              	.LFB11:
 889              		.loc 1 288 0
 890              		.cfi_startproc
 891              		@ args = 4, pretend = 8, frame = 24
 892              		@ frame_needed = 0, uses_anonymous_args = 1
 893              	.LVL121:
 894 0000 0CB4     		push	{r2, r3}
 895              	.LCFI2:
 896              		.cfi_def_cfa_offset 8
 897              		.cfi_offset 3, -4
 898              		.cfi_offset 2, -8
 899 0002 70B5     		push	{r4, r5, r6, lr}
 900              	.LCFI3:
 901              		.cfi_def_cfa_offset 24
 902              		.cfi_offset 14, -12
 903              		.cfi_offset 6, -16
 904              		.cfi_offset 5, -20
 905              		.cfi_offset 4, -24
 906 0004 86B0     		sub	sp, sp, #24
 907              	.LCFI4:
 908              		.cfi_def_cfa_offset 48
 909              		.loc 1 288 0
ARM GAS  /tmp/ccPqDlDc.s 			page 17


 910 0006 0AAC     		add	r4, sp, #40
 911 0008 54F8045B 		ldr	r5, [r4], #4
 912 000c 0646     		mov	r6, r0
 913              		.loc 1 294 0
 914 000e 0023     		movs	r3, #0
 915              		.loc 1 288 0
 916 0010 0A46     		mov	r2, r1
 917              		.loc 1 294 0
 918 0012 6846     		mov	r0, sp
 919              	.LVL122:
 920 0014 3146     		mov	r1, r6
 921              	.LVL123:
 922 0016 FFF7FEFF 		bl	msObjectInit
 923              	.LVL124:
 924              		.loc 1 299 0
 925 001a 6846     		mov	r0, sp
 926 001c 2946     		mov	r1, r5
 927 001e 2246     		mov	r2, r4
 928              		.loc 1 298 0
 929 0020 0594     		str	r4, [sp, #20]
 930              		.loc 1 299 0
 931 0022 FFF7FEFF 		bl	chvprintf
 932              		.loc 1 303 0
 933 0026 0099     		ldr	r1, [sp, #0]
 934 0028 6846     		mov	r0, sp
 935 002a 8B68     		ldr	r3, [r1, #8]
 936 002c 0021     		movs	r1, #0
 937 002e 9847     		blx	r3
 938              		.loc 1 304 0
 939 0030 0398     		ldr	r0, [sp, #12]
 940              		.loc 1 305 0
 941 0032 0138     		subs	r0, r0, #1
 942 0034 06B0     		add	sp, sp, #24
 943 0036 BDE87040 		pop	{r4, r5, r6, lr}
 944 003a 02B0     		add	sp, sp, #8
 945 003c 7047     		bx	lr
 946              		.cfi_endproc
 947              	.LFE11:
 948              		.size	chsnprintf, .-chsnprintf
 949              		.section	.rodata.str1.4,"aMS",%progbits,1
 950              		.align	2
 951              	.LC0:
 952 0000 286E756C 		.ascii	"(null)\000"
 952      6C2900
 953 0007 00       		.text
 954              	.Letext0:
 955              		.file 2 "/opt/pros/toolchain/bin/../lib/gcc/arm-none-eabi/4.6.3/include/stddef.h"
 956              		.file 3 "/opt/pros/toolchain/bin/../lib/gcc/arm-none-eabi/4.6.3/../../../../arm-none-eabi/include/
 957              		.file 4 "../ChibiOS_2.6.2/os/ports/GCC/ARMCMx/chtypes.h"
 958              		.file 5 "../ChibiOS_2.6.2/os/kernel/include/chstreams.h"
 959              		.file 6 "/opt/pros/toolchain/bin/../lib/gcc/arm-none-eabi/4.6.3/include/stdarg.h"
 960              		.file 7 "<built-in>"
 961              		.file 8 "../ChibiOS_2.6.2/os/various/memstreams.h"