ARM GAS  /tmp/ccKDZTbn.s 			page 1


   1              		.syntax unified
   2              		.cpu cortex-m3
   3              		.fpu softvfp
   4              		.eabi_attribute 20, 1
   5              		.eabi_attribute 21, 1
   6              		.eabi_attribute 23, 3
   7              		.eabi_attribute 24, 1
   8              		.eabi_attribute 25, 1
   9              		.eabi_attribute 26, 1
  10              		.eabi_attribute 30, 2
  11              		.eabi_attribute 34, 1
  12              		.eabi_attribute 18, 4
  13              		.thumb
  14              		.file	"chthreads.c"
  15              		.text
  16              	.Ltext0:
  17              		.cfi_sections	.debug_frame
  18              		.section	.text._thread_init,"ax",%progbits
  19              		.align	2
  20              		.p2align 4,,15
  21              		.global	_thread_init
  22              		.thumb
  23              		.thumb_func
  24              		.type	_thread_init, %function
  25              	_thread_init:
  26              	.LFB7:
  27              		.file 1 "../ChibiOS_2.6.2/os/kernel/src/chthreads.c"
  28              		.loc 1 76 0
  29              		.cfi_startproc
  30              		@ args = 0, pretend = 0, frame = 0
  31              		@ frame_needed = 0, uses_anonymous_args = 0
  32              		@ link register save eliminated.
  33              	.LVL0:
  34 0000 F0B4     		push	{r4, r5, r6, r7}
  35              	.LCFI0:
  36              		.cfi_def_cfa_offset 16
  37              		.cfi_offset 7, -4
  38              		.cfi_offset 6, -8
  39              		.cfi_offset 5, -12
  40              		.cfi_offset 4, -16
  41              		.loc 1 99 0
  42 0002 40F20004 		movw	r4, #:lower16:rlist
  43 0006 C0F20004 		movt	r4, #:upper16:rlist
  44 000a 6569     		ldr	r5, [r4, #20]
  45              		.loc 1 80 0
  46 000c 0022     		movs	r2, #0
  47              		.loc 1 99 0
  48 000e 0461     		str	r4, [r0, #16]
  49              		.loc 1 105 0
  50 0010 00F12C06 		add	r6, r0, #44
  51              		.loc 1 78 0
  52 0014 8160     		str	r1, [r0, #8]
  53              		.loc 1 102 0
  54 0016 00F12807 		add	r7, r0, #40
  55              		.loc 1 99 0
  56 001a 4561     		str	r5, [r0, #20]
  57              		.loc 1 79 0
ARM GAS  /tmp/ccKDZTbn.s 			page 2


  58 001c 0223     		movs	r3, #2
  59              		.loc 1 99 0
  60 001e 6061     		str	r0, [r4, #20]
  61              		.loc 1 85 0
  62 0020 0164     		str	r1, [r0, #64]
  63              		.loc 1 82 0
  64 0022 1424     		movs	r4, #20
  65              		.loc 1 95 0
  66 0024 0121     		movs	r1, #1
  67              	.LVL1:
  68              		.loc 1 79 0
  69 0026 0377     		strb	r3, [r0, #28]
  70              		.loc 1 80 0
  71 0028 4277     		strb	r2, [r0, #29]
  72              		.loc 1 82 0
  73 002a C477     		strb	r4, [r0, #31]
  74              		.loc 1 86 0
  75 002c C263     		str	r2, [r0, #60]
  76              		.loc 1 89 0
  77 002e 8263     		str	r2, [r0, #56]
  78              		.loc 1 92 0
  79 0030 0262     		str	r2, [r0, #32]
  80              		.loc 1 95 0
  81 0032 8177     		strb	r1, [r0, #30]
  82              		.loc 1 98 0
  83 0034 8261     		str	r2, [r0, #24]
  84              		.loc 1 99 0
  85 0036 2861     		str	r0, [r5, #16]
  86              		.loc 1 102 0
  87 0038 8762     		str	r7, [r0, #40]
  88              		.loc 1 105 0
  89 003a 0663     		str	r6, [r0, #48]
  90 003c C662     		str	r6, [r0, #44]
  91              		.loc 1 114 0
  92 003e F0BC     		pop	{r4, r5, r6, r7}
  93 0040 7047     		bx	lr
  94              		.cfi_endproc
  95              	.LFE7:
  96              		.size	_thread_init, .-_thread_init
  97 0042 00BFAFF3 		.section	.text.chThdCreateI,"ax",%progbits
  97      0080AFF3 
  97      0080AFF3 
  97      0080
  98              		.align	2
  99              		.p2align 4,,15
 100              		.global	chThdCreateI
 101              		.thumb
 102              		.thumb_func
 103              		.type	chThdCreateI, %function
 104              	chThdCreateI:
 105              	.LFB8:
 106              		.loc 1 158 0
 107              		.cfi_startproc
 108              		@ args = 4, pretend = 0, frame = 0
 109              		@ frame_needed = 0, uses_anonymous_args = 0
 110              		@ link register save eliminated.
 111              	.LVL2:
ARM GAS  /tmp/ccKDZTbn.s 			page 3


 112 0000 2DE9F007 		push	{r4, r5, r6, r7, r8, r9, sl}
 113              	.LCFI1:
 114              		.cfi_def_cfa_offset 28
 115              		.cfi_offset 10, -4
 116              		.cfi_offset 9, -8
 117              		.cfi_offset 8, -12
 118              		.cfi_offset 7, -16
 119              		.cfi_offset 6, -20
 120              		.cfi_offset 5, -24
 121              		.cfi_offset 4, -28
 122              		.loc 1 167 0
 123 0004 A1F1240C 		sub	ip, r1, #36
 124              	.LBB10:
 125              	.LBB11:
 126              		.loc 1 99 0
 127 0008 40F20005 		movw	r5, #:lower16:rlist
 128 000c C0F20005 		movt	r5, #:upper16:rlist
 129              	.LVL3:
 130              	.LBE11:
 131              	.LBE10:
 132              		.loc 1 167 0
 133 0010 00EB0C07 		add	r7, r0, ip
 134              	.LBB16:
 135              	.LBB12:
 136              		.loc 1 99 0
 137 0014 D5F81490 		ldr	r9, [r5, #20]
 138              	.LBE12:
 139              	.LBE16:
 140              		.loc 1 167 0
 141 0018 C760     		str	r7, [r0, #12]
 142 001a 40F80C30 		str	r3, [r0, ip]
 143 001e 079B     		ldr	r3, [sp, #28]
 144              	.LVL4:
 145 0020 40F20001 		movw	r1, #:lower16:_port_thread_start
 146              	.LVL5:
 147 0024 7B60     		str	r3, [r7, #4]
 148 0026 C0F20001 		movt	r1, #:upper16:_port_thread_start
 149              	.LBB17:
 150              	.LBB13:
 151              		.loc 1 79 0
 152 002a 0223     		movs	r3, #2
 153              	.LBE13:
 154              	.LBE17:
 155              		.loc 1 167 0
 156 002c 3962     		str	r1, [r7, #32]
 157              	.LVL6:
 158              	.LBB18:
 159              	.LBB14:
 160              		.loc 1 80 0
 161 002e 0026     		movs	r6, #0
 162              	.LBE14:
 163              	.LBE18:
 164              		.loc 1 158 0
 165 0030 9046     		mov	r8, r2
 166              	.LVL7:
 167              	.LBB19:
 168              	.LBB15:
ARM GAS  /tmp/ccKDZTbn.s 			page 4


 169              		.loc 1 102 0
 170 0032 00F1280A 		add	sl, r0, #40
 171              		.loc 1 105 0
 172 0036 00F12C02 		add	r2, r0, #44
 173              	.LVL8:
 174              		.loc 1 79 0
 175 003a 0377     		strb	r3, [r0, #28]
 176              		.loc 1 82 0
 177 003c 1421     		movs	r1, #20
 178              		.loc 1 95 0
 179 003e 0123     		movs	r3, #1
 180              		.loc 1 99 0
 181 0040 0561     		str	r5, [r0, #16]
 182              		.loc 1 78 0
 183 0042 C0F80880 		str	r8, [r0, #8]
 184              		.loc 1 99 0
 185 0046 C0F81490 		str	r9, [r0, #20]
 186              		.loc 1 80 0
 187 004a 4677     		strb	r6, [r0, #29]
 188              		.loc 1 99 0
 189 004c 6861     		str	r0, [r5, #20]
 190              		.loc 1 82 0
 191 004e C177     		strb	r1, [r0, #31]
 192              		.loc 1 85 0
 193 0050 C0F84080 		str	r8, [r0, #64]
 194              		.loc 1 86 0
 195 0054 C663     		str	r6, [r0, #60]
 196              		.loc 1 89 0
 197 0056 8663     		str	r6, [r0, #56]
 198              		.loc 1 92 0
 199 0058 0662     		str	r6, [r0, #32]
 200              		.loc 1 95 0
 201 005a 8377     		strb	r3, [r0, #30]
 202              		.loc 1 98 0
 203 005c 8661     		str	r6, [r0, #24]
 204              		.loc 1 99 0
 205 005e C9F81000 		str	r0, [r9, #16]
 206              		.loc 1 102 0
 207 0062 C0F828A0 		str	sl, [r0, #40]
 208              		.loc 1 105 0
 209 0066 0263     		str	r2, [r0, #48]
 210 0068 C262     		str	r2, [r0, #44]
 211              	.LBE15:
 212              	.LBE19:
 213              		.loc 1 169 0
 214 006a BDE8F007 		pop	{r4, r5, r6, r7, r8, r9, sl}
 215 006e 7047     		bx	lr
 216              		.cfi_endproc
 217              	.LFE8:
 218              		.size	chThdCreateI, .-chThdCreateI
 219              		.section	.text.chThdCreateStatic,"ax",%progbits
 220              		.align	2
 221              		.p2align 4,,15
 222              		.global	chThdCreateStatic
 223              		.thumb
 224              		.thumb_func
 225              		.type	chThdCreateStatic, %function
ARM GAS  /tmp/ccKDZTbn.s 			page 5


 226              	chThdCreateStatic:
 227              	.LFB9:
 228              		.loc 1 188 0
 229              		.cfi_startproc
 230              		@ args = 4, pretend = 0, frame = 0
 231              		@ frame_needed = 0, uses_anonymous_args = 0
 232              	.LVL9:
 233 0000 10B5     		push	{r4, lr}
 234              	.LCFI2:
 235              		.cfi_def_cfa_offset 8
 236              		.cfi_offset 14, -4
 237              		.cfi_offset 4, -8
 238 0002 9C46     		mov	ip, r3
 239 0004 82B0     		sub	sp, sp, #8
 240              	.LCFI3:
 241              		.cfi_def_cfa_offset 16
 242              	.LBB20:
 243              		.loc 1 199 0
 244 0006 2023     		movs	r3, #32
 245              	.LVL10:
 246              	@ 199 "../ChibiOS_2.6.2/os/kernel/src/chthreads.c" 1
 247 0008 83F31188 		msr     BASEPRI, r3
 248              	@ 0 "" 2
 249              	.LVL11:
 250              		.thumb
 251              	.LBE20:
 252              		.loc 1 200 0
 253 000c 049C     		ldr	r4, [sp, #16]
 254 000e 6346     		mov	r3, ip
 255              	.LVL12:
 256 0010 0094     		str	r4, [sp, #0]
 257 0012 FFF7FEFF 		bl	chThdCreateI
 258              	.LVL13:
 259 0016 0021     		movs	r1, #0
 260 0018 0446     		mov	r4, r0
 261              	.LVL14:
 262 001a FFF7FEFF 		bl	chSchWakeupS
 263              	.LVL15:
 264              	.LBB21:
 265              		.loc 1 201 0
 266 001e 0023     		movs	r3, #0
 267              	.LVL16:
 268              	@ 201 "../ChibiOS_2.6.2/os/kernel/src/chthreads.c" 1
 269 0020 83F31188 		msr     BASEPRI, r3
 270              	@ 0 "" 2
 271              	.LVL17:
 272              		.thumb
 273              	.LBE21:
 274              		.loc 1 203 0
 275 0024 2046     		mov	r0, r4
 276 0026 02B0     		add	sp, sp, #8
 277 0028 10BD     		pop	{r4, pc}
 278              		.cfi_endproc
 279              	.LFE9:
 280              		.size	chThdCreateStatic, .-chThdCreateStatic
 281 002a 00BFAFF3 		.section	.text.chThdSetPriority,"ax",%progbits
 281      0080
ARM GAS  /tmp/ccKDZTbn.s 			page 6


 282              		.align	2
 283              		.p2align 4,,15
 284              		.global	chThdSetPriority
 285              		.thumb
 286              		.thumb_func
 287              		.type	chThdSetPriority, %function
 288              	chThdSetPriority:
 289              	.LFB10:
 290              		.loc 1 217 0
 291              		.cfi_startproc
 292              		@ args = 0, pretend = 0, frame = 0
 293              		@ frame_needed = 0, uses_anonymous_args = 0
 294              	.LVL18:
 295 0000 10B5     		push	{r4, lr}
 296              	.LCFI4:
 297              		.cfi_def_cfa_offset 8
 298              		.cfi_offset 14, -4
 299              		.cfi_offset 4, -8
 300              	.LBB22:
 301              		.loc 1 222 0
 302 0002 2023     		movs	r3, #32
 303              	.LVL19:
 304              	@ 222 "../ChibiOS_2.6.2/os/kernel/src/chthreads.c" 1
 305 0004 83F31188 		msr     BASEPRI, r3
 306              	@ 0 "" 2
 307              	.LVL20:
 308              		.thumb
 309              	.LBE22:
 310              		.loc 1 224 0
 311 0008 40F20003 		movw	r3, #:lower16:rlist
 312              	.LVL21:
 313 000c C0F20003 		movt	r3, #:upper16:rlist
 314 0010 9B69     		ldr	r3, [r3, #24]
 315 0012 1C6C     		ldr	r4, [r3, #64]
 316              	.LVL22:
 317              		.loc 1 225 0
 318 0014 9A68     		ldr	r2, [r3, #8]
 319 0016 9442     		cmp	r4, r2
 320 0018 01D0     		beq	.L5
 321              		.loc 1 225 0 is_stmt 0 discriminator 1
 322 001a 8242     		cmp	r2, r0
 323 001c 00D2     		bcs	.L6
 324              	.L5:
 325              		.loc 1 226 0 is_stmt 1
 326 001e 9860     		str	r0, [r3, #8]
 327              	.L6:
 328              		.loc 1 227 0
 329 0020 1864     		str	r0, [r3, #64]
 330              		.loc 1 232 0
 331 0022 FFF7FEFF 		bl	chSchRescheduleS
 332              	.LVL23:
 333              	.LBB23:
 334              		.loc 1 233 0
 335 0026 0023     		movs	r3, #0
 336              	.LVL24:
 337              	@ 233 "../ChibiOS_2.6.2/os/kernel/src/chthreads.c" 1
 338 0028 83F31188 		msr     BASEPRI, r3
ARM GAS  /tmp/ccKDZTbn.s 			page 7


 339              	@ 0 "" 2
 340              	.LVL25:
 341              		.thumb
 342              	.LBE23:
 343              		.loc 1 235 0
 344 002c 2046     		mov	r0, r4
 345 002e 10BD     		pop	{r4, pc}
 346              		.cfi_endproc
 347              	.LFE10:
 348              		.size	chThdSetPriority, .-chThdSetPriority
 349              		.section	.text.chThdResume,"ax",%progbits
 350              		.align	2
 351              		.p2align 4,,15
 352              		.global	chThdResume
 353              		.thumb
 354              		.thumb_func
 355              		.type	chThdResume, %function
 356              	chThdResume:
 357              	.LFB11:
 358              		.loc 1 250 0
 359              		.cfi_startproc
 360              		@ args = 0, pretend = 0, frame = 0
 361              		@ frame_needed = 0, uses_anonymous_args = 0
 362              	.LVL26:
 363 0000 10B5     		push	{r4, lr}
 364              	.LCFI5:
 365              		.cfi_def_cfa_offset 8
 366              		.cfi_offset 14, -4
 367              		.cfi_offset 4, -8
 368              	.LBB24:
 369              		.loc 1 252 0
 370 0002 2023     		movs	r3, #32
 371              	.LVL27:
 372              	.LBE24:
 373              		.loc 1 250 0
 374 0004 0446     		mov	r4, r0
 375              	.LBB25:
 376              		.loc 1 252 0
 377              	@ 252 "../ChibiOS_2.6.2/os/kernel/src/chthreads.c" 1
 378 0006 83F31188 		msr     BASEPRI, r3
 379              	@ 0 "" 2
 380              	.LVL28:
 381              		.thumb
 382              	.LBE25:
 383              		.loc 1 256 0
 384 000a 0021     		movs	r1, #0
 385 000c FFF7FEFF 		bl	chSchWakeupS
 386              	.LVL29:
 387              	.LBB26:
 388              		.loc 1 257 0
 389 0010 0023     		movs	r3, #0
 390              	.LVL30:
 391              	@ 257 "../ChibiOS_2.6.2/os/kernel/src/chthreads.c" 1
 392 0012 83F31188 		msr     BASEPRI, r3
 393              	@ 0 "" 2
 394              	.LVL31:
 395              		.thumb
ARM GAS  /tmp/ccKDZTbn.s 			page 8


 396              	.LBE26:
 397              		.loc 1 259 0
 398 0016 2046     		mov	r0, r4
 399 0018 10BD     		pop	{r4, pc}
 400              		.cfi_endproc
 401              	.LFE11:
 402              		.size	chThdResume, .-chThdResume
 403 001a 00BFAFF3 		.section	.text.chThdTerminate,"ax",%progbits
 403      0080
 404              		.align	2
 405              		.p2align 4,,15
 406              		.global	chThdTerminate
 407              		.thumb
 408              		.thumb_func
 409              		.type	chThdTerminate, %function
 410              	chThdTerminate:
 411              	.LFB12:
 412              		.loc 1 273 0
 413              		.cfi_startproc
 414              		@ args = 0, pretend = 0, frame = 0
 415              		@ frame_needed = 0, uses_anonymous_args = 0
 416              		@ link register save eliminated.
 417              	.LVL32:
 418              	.LBB27:
 419              		.loc 1 275 0
 420 0000 2023     		movs	r3, #32
 421              	.LVL33:
 422              	@ 275 "../ChibiOS_2.6.2/os/kernel/src/chthreads.c" 1
 423 0002 83F31188 		msr     BASEPRI, r3
 424              	@ 0 "" 2
 425              	.LVL34:
 426              		.thumb
 427              	.LBE27:
 428              		.loc 1 276 0
 429 0006 417F     		ldrb	r1, [r0, #29]	@ zero_extendqisi2
 430              	.LBB28:
 431              		.loc 1 277 0
 432 0008 0023     		movs	r3, #0
 433              	.LVL35:
 434              	.LBE28:
 435              		.loc 1 276 0
 436 000a 41F00402 		orr	r2, r1, #4
 437 000e 4277     		strb	r2, [r0, #29]
 438              	.LBB29:
 439              		.loc 1 277 0
 440              	@ 277 "../ChibiOS_2.6.2/os/kernel/src/chthreads.c" 1
 441 0010 83F31188 		msr     BASEPRI, r3
 442              	@ 0 "" 2
 443              	.LVL36:
 444              		.thumb
 445              	.LBE29:
 446              		.loc 1 278 0
 447 0014 7047     		bx	lr
 448              		.cfi_endproc
 449              	.LFE12:
 450              		.size	chThdTerminate, .-chThdTerminate
 451 0016 00BFAFF3 		.section	.text.chThdSleep,"ax",%progbits
ARM GAS  /tmp/ccKDZTbn.s 			page 9


 451      0080AFF3 
 451      0080
 452              		.align	2
 453              		.p2align 4,,15
 454              		.global	chThdSleep
 455              		.thumb
 456              		.thumb_func
 457              		.type	chThdSleep, %function
 458              	chThdSleep:
 459              	.LFB13:
 460              		.loc 1 292 0
 461              		.cfi_startproc
 462              		@ args = 0, pretend = 0, frame = 0
 463              		@ frame_needed = 0, uses_anonymous_args = 0
 464              	.LVL37:
 465 0000 08B5     		push	{r3, lr}
 466              	.LCFI6:
 467              		.cfi_def_cfa_offset 8
 468              		.cfi_offset 14, -4
 469              		.cfi_offset 3, -8
 470              		.loc 1 292 0
 471 0002 0146     		mov	r1, r0
 472              	.LBB30:
 473              		.loc 1 296 0
 474 0004 2023     		movs	r3, #32
 475              	.LVL38:
 476              	@ 296 "../ChibiOS_2.6.2/os/kernel/src/chthreads.c" 1
 477 0006 83F31188 		msr     BASEPRI, r3
 478              	@ 0 "" 2
 479              	.LVL39:
 480              		.thumb
 481              	.LBE30:
 482              		.loc 1 297 0
 483 000a 0620     		movs	r0, #6
 484              	.LVL40:
 485 000c FFF7FEFF 		bl	chSchGoSleepTimeoutS
 486              	.LVL41:
 487              	.LBB31:
 488              		.loc 1 298 0
 489 0010 0023     		movs	r3, #0
 490              	.LVL42:
 491              	@ 298 "../ChibiOS_2.6.2/os/kernel/src/chthreads.c" 1
 492 0012 83F31188 		msr     BASEPRI, r3
 493              	@ 0 "" 2
 494              	.LVL43:
 495              		.thumb
 496              	.LBE31:
 497              		.loc 1 299 0
 498 0016 08BD     		pop	{r3, pc}
 499              		.cfi_endproc
 500              	.LFE13:
 501              		.size	chThdSleep, .-chThdSleep
 502 0018 AFF30080 		.section	.text.chThdSleepUntil,"ax",%progbits
 502      AFF30080 
 503              		.align	2
 504              		.p2align 4,,15
 505              		.global	chThdSleepUntil
ARM GAS  /tmp/ccKDZTbn.s 			page 10


 506              		.thumb
 507              		.thumb_func
 508              		.type	chThdSleepUntil, %function
 509              	chThdSleepUntil:
 510              	.LFB14:
 511              		.loc 1 309 0
 512              		.cfi_startproc
 513              		@ args = 0, pretend = 0, frame = 0
 514              		@ frame_needed = 0, uses_anonymous_args = 0
 515              	.LVL44:
 516 0000 08B5     		push	{r3, lr}
 517              	.LCFI7:
 518              		.cfi_def_cfa_offset 8
 519              		.cfi_offset 14, -4
 520              		.cfi_offset 3, -8
 521              	.LBB32:
 522              		.loc 1 311 0
 523 0002 2023     		movs	r3, #32
 524              	.LVL45:
 525              	@ 311 "../ChibiOS_2.6.2/os/kernel/src/chthreads.c" 1
 526 0004 83F31188 		msr     BASEPRI, r3
 527              	@ 0 "" 2
 528              	.LVL46:
 529              		.thumb
 530              	.LBE32:
 531              		.loc 1 312 0
 532 0008 40F20003 		movw	r3, #:lower16:vtlist
 533              	.LVL47:
 534 000c C0F20003 		movt	r3, #:upper16:vtlist
 535 0010 D968     		ldr	r1, [r3, #12]
 536              	.LVL48:
 537 0012 411A     		subs	r1, r0, r1
 538              	.LVL49:
 539 0014 02D0     		beq	.L12
 540              		.loc 1 313 0
 541 0016 0620     		movs	r0, #6
 542 0018 FFF7FEFF 		bl	chSchGoSleepTimeoutS
 543              	.LVL50:
 544              	.L12:
 545              	.LBB33:
 546              		.loc 1 314 0
 547 001c 0023     		movs	r3, #0
 548              	.LVL51:
 549              	@ 314 "../ChibiOS_2.6.2/os/kernel/src/chthreads.c" 1
 550 001e 83F31188 		msr     BASEPRI, r3
 551              	@ 0 "" 2
 552              	.LVL52:
 553              		.thumb
 554              	.LBE33:
 555              		.loc 1 315 0
 556 0022 08BD     		pop	{r3, pc}
 557              		.cfi_endproc
 558              	.LFE14:
 559              		.size	chThdSleepUntil, .-chThdSleepUntil
 560 0024 AFF30080 		.section	.text.chThdYield,"ax",%progbits
 560      AFF30080 
 560      AFF30080 
ARM GAS  /tmp/ccKDZTbn.s 			page 11


 561              		.align	2
 562              		.p2align 4,,15
 563              		.global	chThdYield
 564              		.thumb
 565              		.thumb_func
 566              		.type	chThdYield, %function
 567              	chThdYield:
 568              	.LFB15:
 569              		.loc 1 324 0
 570              		.cfi_startproc
 571              		@ args = 0, pretend = 0, frame = 0
 572              		@ frame_needed = 0, uses_anonymous_args = 0
 573 0000 08B5     		push	{r3, lr}
 574              	.LCFI8:
 575              		.cfi_def_cfa_offset 8
 576              		.cfi_offset 14, -4
 577              		.cfi_offset 3, -8
 578              	.LBB34:
 579              		.loc 1 326 0
 580 0002 2023     		movs	r3, #32
 581              	.LVL53:
 582              	@ 326 "../ChibiOS_2.6.2/os/kernel/src/chthreads.c" 1
 583 0004 83F31188 		msr     BASEPRI, r3
 584              	@ 0 "" 2
 585              	.LVL54:
 586              		.thumb
 587              	.LBE34:
 588              		.loc 1 327 0
 589 0008 40F2000C 		movw	ip, #:lower16:rlist
 590 000c C0F2000C 		movt	ip, #:upper16:rlist
 591 0010 DCF80010 		ldr	r1, [ip, #0]
 592 0014 DCF81800 		ldr	r0, [ip, #24]
 593 0018 8A68     		ldr	r2, [r1, #8]
 594 001a 8368     		ldr	r3, [r0, #8]
 595              	.LVL55:
 596 001c 9A42     		cmp	r2, r3
 597 001e 01D3     		bcc	.L14
 598              		.loc 1 327 0 is_stmt 0 discriminator 1
 599 0020 FFF7FEFF 		bl	chSchDoRescheduleBehind
 600              	.L14:
 601              	.LBB35:
 602              		.loc 1 328 0 is_stmt 1
 603 0024 0023     		movs	r3, #0
 604              	.LVL56:
 605              	@ 328 "../ChibiOS_2.6.2/os/kernel/src/chthreads.c" 1
 606 0026 83F31188 		msr     BASEPRI, r3
 607              	@ 0 "" 2
 608              	.LVL57:
 609              		.thumb
 610              	.LBE35:
 611              		.loc 1 329 0
 612 002a 08BD     		pop	{r3, pc}
 613              		.cfi_endproc
 614              	.LFE15:
 615              		.size	chThdYield, .-chThdYield
 616 002c AFF30080 		.section	.text.chThdExitS,"ax",%progbits
 617              		.align	2
ARM GAS  /tmp/ccKDZTbn.s 			page 12


 618              		.p2align 4,,15
 619              		.global	chThdExitS
 620              		.thumb
 621              		.thumb_func
 622              		.type	chThdExitS, %function
 623              	chThdExitS:
 624              	.LFB17:
 625              		.loc 1 366 0
 626              		.cfi_startproc
 627              		@ args = 0, pretend = 0, frame = 0
 628              		@ frame_needed = 0, uses_anonymous_args = 0
 629              	.LVL58:
 630 0000 38B5     		push	{r3, r4, r5, lr}
 631              	.LCFI9:
 632              		.cfi_def_cfa_offset 16
 633              		.cfi_offset 14, -4
 634              		.cfi_offset 5, -8
 635              		.cfi_offset 4, -12
 636              		.cfi_offset 3, -16
 637              		.loc 1 367 0
 638 0002 40F20003 		movw	r3, #:lower16:rlist
 639 0006 C0F20003 		movt	r3, #:upper16:rlist
 640 000a 9C69     		ldr	r4, [r3, #24]
 641              	.LVL59:
 642              		.loc 1 374 0
 643 000c 2546     		mov	r5, r4
 644 000e 55F8283F 		ldr	r3, [r5, #40]!
 645              	.LVL60:
 646              		.loc 1 369 0
 647 0012 6062     		str	r0, [r4, #36]
 648              		.loc 1 374 0
 649 0014 AB42     		cmp	r3, r5
 650 0016 07D0     		beq	.L16
 651              	.LVL61:
 652              	.L19:
 653              	.LBB36:
 654              	.LBB37:
 655              		.file 2 "../ChibiOS_2.6.2/os/kernel/include/chinline.h"
 656              		.loc 2 89 0
 657 0018 1A68     		ldr	r2, [r3, #0]
 658              	.LBE37:
 659              	.LBE36:
 660              		.loc 1 375 0
 661 001a 1846     		mov	r0, r3
 662              	.LBB39:
 663              	.LBB38:
 664              		.loc 2 89 0
 665 001c A262     		str	r2, [r4, #40]
 666              	.LBE38:
 667              	.LBE39:
 668              		.loc 1 375 0
 669 001e FFF7FEFF 		bl	chSchReadyI
 670              	.LVL62:
 671              		.loc 1 374 0
 672 0022 A36A     		ldr	r3, [r4, #40]
 673 0024 AB42     		cmp	r3, r5
 674 0026 F7D1     		bne	.L19
ARM GAS  /tmp/ccKDZTbn.s 			page 13


 675              	.LVL63:
 676              	.L16:
 677              		.loc 1 380 0
 678 0028 617F     		ldrb	r1, [r4, #29]	@ zero_extendqisi2
 679 002a 8807     		lsls	r0, r1, #30
 680              		.loc 1 381 0
 681 002c 01BF     		itttt	eq
 682 002e 2269     		ldreq	r2, [r4, #16]
 683 0030 6069     		ldreq	r0, [r4, #20]
 684 0032 0261     		streq	r2, [r0, #16]
 685 0034 2269     		ldreq	r2, [r4, #16]
 686 0036 08BF     		it	eq
 687 0038 5061     		streq	r0, [r2, #20]
 688              		.loc 1 383 0
 689 003a 0E20     		movs	r0, #14
 690              		.loc 1 386 0
 691 003c BDE83840 		pop	{r3, r4, r5, lr}
 692              		.loc 1 383 0
 693 0040 FFF7FEBF 		b	chSchGoSleepS
 694              		.cfi_endproc
 695              	.LFE17:
 696              		.size	chThdExitS, .-chThdExitS
 697 0044 AFF30080 		.section	.text.chThdExit,"ax",%progbits
 697      AFF30080 
 697      AFF30080 
 698              		.align	2
 699              		.p2align 4,,15
 700              		.global	chThdExit
 701              		.thumb
 702              		.thumb_func
 703              		.type	chThdExit, %function
 704              	chThdExit:
 705              	.LFB16:
 706              		.loc 1 345 0
 707              		.cfi_startproc
 708              		@ args = 0, pretend = 0, frame = 0
 709              		@ frame_needed = 0, uses_anonymous_args = 0
 710              		@ link register save eliminated.
 711              	.LVL64:
 712              	.LBB40:
 713              		.loc 1 347 0
 714 0000 2023     		movs	r3, #32
 715              	.LVL65:
 716              	@ 347 "../ChibiOS_2.6.2/os/kernel/src/chthreads.c" 1
 717 0002 83F31188 		msr     BASEPRI, r3
 718              	@ 0 "" 2
 719              	.LVL66:
 720              		.thumb
 721              	.LBE40:
 722              		.loc 1 350 0
 723              		.loc 1 348 0
 724 0006 FFF7FEBF 		b	chThdExitS
 725              	.LVL67:
 726              	.LVL68:
 727              		.cfi_endproc
 728              	.LFE16:
 729              		.size	chThdExit, .-chThdExit
ARM GAS  /tmp/ccKDZTbn.s 			page 14


 730 000a 00BFAFF3 		.section	.text.chThdWait,"ax",%progbits
 730      0080
 731              		.align	2
 732              		.p2align 4,,15
 733              		.global	chThdWait
 734              		.thumb
 735              		.thumb_func
 736              		.type	chThdWait, %function
 737              	chThdWait:
 738              	.LFB18:
 739              		.loc 1 420 0
 740              		.cfi_startproc
 741              		@ args = 0, pretend = 0, frame = 0
 742              		@ frame_needed = 0, uses_anonymous_args = 0
 743              	.LVL69:
 744 0000 38B5     		push	{r3, r4, r5, lr}
 745              	.LCFI10:
 746              		.cfi_def_cfa_offset 16
 747              		.cfi_offset 14, -4
 748              		.cfi_offset 5, -8
 749              		.cfi_offset 4, -12
 750              		.cfi_offset 3, -16
 751              		.loc 1 420 0
 752 0002 0446     		mov	r4, r0
 753              	.LBB41:
 754              		.loc 1 425 0
 755 0004 2023     		movs	r3, #32
 756              	.LVL70:
 757              	@ 425 "../ChibiOS_2.6.2/os/kernel/src/chthreads.c" 1
 758 0006 83F31188 		msr     BASEPRI, r3
 759              	@ 0 "" 2
 760              	.LVL71:
 761              		.thumb
 762              	.LBE41:
 763              		.loc 1 430 0
 764 000a 037F     		ldrb	r3, [r0, #28]	@ zero_extendqisi2
 765              	.LVL72:
 766 000c 0E2B     		cmp	r3, #14
 767 000e 0AD0     		beq	.L23
 768              		.loc 1 431 0
 769 0010 40F20005 		movw	r5, #:lower16:rlist
 770 0014 C0F20005 		movt	r5, #:upper16:rlist
 771              	.LBB42:
 772              	.LBB43:
 773              		.loc 2 82 0
 774 0018 826A     		ldr	r2, [r0, #40]
 775              	.LBE43:
 776              	.LBE42:
 777              		.loc 1 431 0
 778 001a A969     		ldr	r1, [r5, #24]
 779              	.LVL73:
 780              		.loc 1 432 0
 781 001c 0720     		movs	r0, #7
 782              	.LVL74:
 783              	.LBB45:
 784              	.LBB44:
 785              		.loc 2 82 0
ARM GAS  /tmp/ccKDZTbn.s 			page 15


 786 001e 0A60     		str	r2, [r1, #0]
 787              		.loc 2 83 0
 788 0020 A162     		str	r1, [r4, #40]
 789              	.LBE44:
 790              	.LBE45:
 791              		.loc 1 432 0
 792 0022 FFF7FEFF 		bl	chSchGoSleepS
 793              	.LVL75:
 794              	.L23:
 795              		.loc 1 434 0
 796 0026 656A     		ldr	r5, [r4, #36]
 797              	.LVL76:
 798              	.LBB46:
 799              		.loc 1 435 0
 800 0028 0023     		movs	r3, #0
 801              	.LVL77:
 802              	@ 435 "../ChibiOS_2.6.2/os/kernel/src/chthreads.c" 1
 803 002a 83F31188 		msr     BASEPRI, r3
 804              	@ 0 "" 2
 805              	.LVL78:
 806              		.thumb
 807              	.LBE46:
 808              		.loc 1 437 0
 809 002e 2046     		mov	r0, r4
 810 0030 FFF7FEFF 		bl	chThdRelease
 811              	.LVL79:
 812              		.loc 1 440 0
 813 0034 2846     		mov	r0, r5
 814 0036 38BD     		pop	{r3, r4, r5, pc}
 815              		.cfi_endproc
 816              	.LFE18:
 817              		.size	chThdWait, .-chThdWait
 818 0038 AFF30080 		.text
 818      AFF30080 
 819              	.Letext0:
 820              		.file 3 "/opt/pros/toolchain/bin/../lib/gcc/arm-none-eabi/4.6.3/include/stddef.h"
 821              		.file 4 "/opt/pros/toolchain/bin/../lib/gcc/arm-none-eabi/4.6.3/../../../../arm-none-eabi/include/
 822              		.file 5 "../ChibiOS_2.6.2/os/ports/GCC/ARMCMx/chtypes.h"
 823              		.file 6 "../ChibiOS_2.6.2/os/kernel/include/chlists.h"
 824              		.file 7 "../ChibiOS_2.6.2/os/kernel/include/chthreads.h"
 825              		.file 8 "../ChibiOS_2.6.2/os/ports/GCC/ARMCMx/chcore_v7m.h"
 826              		.file 9 "../ChibiOS_2.6.2/os/kernel/include/chvt.h"
 827              		.file 10 "../ChibiOS_2.6.2/os/kernel/include/chschd.h"
 828              		.file 11 "../ChibiOS_2.6.2/os/kernel/include/chmtx.h"