ARM GAS  /tmp/ccEGqD2f.s 			page 1


   1              		.syntax unified
   2              		.cpu cortex-m3
   3              		.fpu softvfp
   4              		.eabi_attribute 20, 1
   5              		.eabi_attribute 21, 1
   6              		.eabi_attribute 23, 3
   7              		.eabi_attribute 24, 1
   8              		.eabi_attribute 25, 1
   9              		.eabi_attribute 26, 1
  10              		.eabi_attribute 30, 2
  11              		.eabi_attribute 34, 1
  12              		.eabi_attribute 18, 4
  13              		.thumb
  14              		.file	"chvt.c"
  15              		.text
  16              	.Ltext0:
  17              		.cfi_sections	.debug_frame
  18              		.section	.text._vt_init,"ax",%progbits
  19              		.align	2
  20              		.p2align 4,,15
  21              		.global	_vt_init
  22              		.thumb
  23              		.thumb_func
  24              		.type	_vt_init, %function
  25              	_vt_init:
  26              	.LFB7:
  27              		.file 1 "../ChibiOS_2.6.2/os/kernel/src/chvt.c"
  28              		.loc 1 50 0
  29              		.cfi_startproc
  30              		@ args = 0, pretend = 0, frame = 0
  31              		@ frame_needed = 0, uses_anonymous_args = 0
  32              		@ link register save eliminated.
  33              		.loc 1 52 0
  34 0000 40F20003 		movw	r3, #:lower16:.LANCHOR0
  35 0004 C0F20003 		movt	r3, #:upper16:.LANCHOR0
  36              		.loc 1 53 0
  37 0008 4FF0FF30 		mov	r0, #-1
  38              		.loc 1 54 0
  39 000c 0022     		movs	r2, #0
  40              		.loc 1 52 0
  41 000e 5B60     		str	r3, [r3, #4]
  42 0010 1B60     		str	r3, [r3, #0]
  43              		.loc 1 53 0
  44 0012 9860     		str	r0, [r3, #8]
  45              		.loc 1 54 0
  46 0014 DA60     		str	r2, [r3, #12]
  47              		.loc 1 55 0
  48 0016 7047     		bx	lr
  49              		.cfi_endproc
  50              	.LFE7:
  51              		.size	_vt_init, .-_vt_init
  52 0018 AFF30080 		.section	.text.chVTSetI,"ax",%progbits
  52      AFF30080 
  53              		.align	2
  54              		.p2align 4,,15
  55              		.global	chVTSetI
  56              		.thumb
ARM GAS  /tmp/ccEGqD2f.s 			page 2


  57              		.thumb_func
  58              		.type	chVTSetI, %function
  59              	chVTSetI:
  60              	.LFB8:
  61              		.loc 1 76 0
  62              		.cfi_startproc
  63              		@ args = 0, pretend = 0, frame = 0
  64              		@ frame_needed = 0, uses_anonymous_args = 0
  65              		@ link register save eliminated.
  66              	.LVL0:
  67 0000 70B4     		push	{r4, r5, r6}
  68              	.LCFI0:
  69              		.cfi_def_cfa_offset 12
  70              		.cfi_offset 6, -4
  71              		.cfi_offset 5, -8
  72              		.cfi_offset 4, -12
  73              		.loc 1 85 0
  74 0002 40F20005 		movw	r5, #:lower16:.LANCHOR0
  75 0006 C0F20005 		movt	r5, #:upper16:.LANCHOR0
  76 000a 2C68     		ldr	r4, [r5, #0]
  77              	.LVL1:
  78              		.loc 1 83 0
  79 000c 0361     		str	r3, [r0, #16]
  80              		.loc 1 86 0
  81 000e A668     		ldr	r6, [r4, #8]
  82              		.loc 1 84 0
  83 0010 C260     		str	r2, [r0, #12]
  84              		.loc 1 86 0
  85 0012 B142     		cmp	r1, r6
  86 0014 04D9     		bls	.L3
  87              	.LVL2:
  88              	.L6:
  89              		.loc 1 88 0
  90 0016 2468     		ldr	r4, [r4, #0]
  91              	.LVL3:
  92              		.loc 1 87 0
  93 0018 891B     		subs	r1, r1, r6
  94              	.LVL4:
  95              		.loc 1 86 0
  96 001a A668     		ldr	r6, [r4, #8]
  97 001c 8E42     		cmp	r6, r1
  98 001e FAD3     		bcc	.L6
  99              	.L3:
 100              		.loc 1 91 0
 101 0020 6368     		ldr	r3, [r4, #4]
 102              	.LVL5:
 103              		.loc 1 93 0
 104 0022 8160     		str	r1, [r0, #8]
 105              		.loc 1 94 0
 106 0024 AC42     		cmp	r4, r5
 107              		.loc 1 91 0
 108 0026 4360     		str	r3, [r0, #4]
 109 0028 0460     		str	r4, [r0, #0]
 110              		.loc 1 92 0
 111 002a 1860     		str	r0, [r3, #0]
 112              		.loc 1 95 0
 113 002c 18BF     		it	ne
ARM GAS  /tmp/ccEGqD2f.s 			page 3


 114 002e A368     		ldrne	r3, [r4, #8]
 115              		.loc 1 92 0
 116 0030 6060     		str	r0, [r4, #4]
 117              		.loc 1 95 0
 118 0032 1CBF     		itt	ne
 119 0034 C1EB0301 		rsbne	r1, r1, r3
 120              	.LVL6:
 121 0038 A160     		strne	r1, [r4, #8]
 122              		.loc 1 96 0
 123 003a 70BC     		pop	{r4, r5, r6}
 124 003c 7047     		bx	lr
 125              		.cfi_endproc
 126              	.LFE8:
 127              		.size	chVTSetI, .-chVTSetI
 128 003e 00BF     		.section	.text.chVTResetI,"ax",%progbits
 129              		.align	2
 130              		.p2align 4,,15
 131              		.global	chVTResetI
 132              		.thumb
 133              		.thumb_func
 134              		.type	chVTResetI, %function
 135              	chVTResetI:
 136              	.LFB9:
 137              		.loc 1 106 0
 138              		.cfi_startproc
 139              		@ args = 0, pretend = 0, frame = 0
 140              		@ frame_needed = 0, uses_anonymous_args = 0
 141              		@ link register save eliminated.
 142              	.LVL7:
 143              		.loc 1 114 0
 144 0000 0368     		ldr	r3, [r0, #0]
 145 0002 40F20002 		movw	r2, #:lower16:.LANCHOR0
 146 0006 C0F20002 		movt	r2, #:upper16:.LANCHOR0
 147 000a 9342     		cmp	r3, r2
 148              		.loc 1 115 0
 149 000c 1FBF     		itttt	ne
 150 000e 9968     		ldrne	r1, [r3, #8]
 151 0010 8268     		ldrne	r2, [r0, #8]
 152 0012 8A18     		addne	r2, r1, r2
 153 0014 9A60     		strne	r2, [r3, #8]
 154              		.loc 1 116 0
 155 0016 4268     		ldr	r2, [r0, #4]
 156              		.loc 1 118 0
 157 0018 0021     		movs	r1, #0
 158              		.loc 1 116 0
 159 001a 1360     		str	r3, [r2, #0]
 160              		.loc 1 117 0
 161 001c 0368     		ldr	r3, [r0, #0]
 162              		.loc 1 118 0
 163 001e C160     		str	r1, [r0, #12]
 164              		.loc 1 117 0
 165 0020 5A60     		str	r2, [r3, #4]
 166              		.loc 1 119 0
 167 0022 7047     		bx	lr
 168              		.cfi_endproc
 169              	.LFE9:
 170              		.size	chVTResetI, .-chVTResetI
ARM GAS  /tmp/ccEGqD2f.s 			page 4


 171              		.global	vtlist
 172 0024 AFF30080 		.section	.bss.vtlist,"aw",%nobits
 172      AFF30080 
 172      AFF30080 
 173              		.align	2
 174              		.set	.LANCHOR0,. + 0
 175              		.type	vtlist, %object
 176              		.size	vtlist, 16
 177              	vtlist:
 178 0000 00000000 		.space	16
 178      00000000 
 178      00000000 
 178      00000000 
 179              		.text
 180              	.Letext0:
 181              		.file 2 "/opt/pros/toolchain/bin/../lib/gcc/arm-none-eabi/4.6.3/../../../../arm-none-eabi/include/
 182              		.file 3 "../ChibiOS_2.6.2/os/ports/GCC/ARMCMx/chtypes.h"
 183              		.file 4 "../ChibiOS_2.6.2/os/kernel/include/chvt.h"