ARM GAS  /tmp/ccTH3G18.s 			page 1


   1              		.syntax unified
   2              		.cpu cortex-m3
   3              		.fpu softvfp
   4              		.eabi_attribute 20, 1
   5              		.eabi_attribute 21, 1
   6              		.eabi_attribute 23, 3
   7              		.eabi_attribute 24, 1
   8              		.eabi_attribute 25, 1
   9              		.eabi_attribute 26, 1
  10              		.eabi_attribute 30, 2
  11              		.eabi_attribute 34, 1
  12              		.eabi_attribute 18, 4
  13              		.thumb
  14              		.file	"crt0.c"
  15              		.text
  16              	.Ltext0:
  17              		.cfi_sections	.debug_frame
  18              		.section	.text.__early_init,"ax",%progbits
  19              		.align	2
  20              		.p2align 4,,15
  21              		.weak	__early_init
  22              		.thumb
  23              		.thumb_func
  24              		.type	__early_init, %function
  25              	__early_init:
  26              	.LFB0:
  27              		.file 1 "../ChibiOS_2.6.2/os/ports/GCC/ARMCMx/crt0.c"
  28              		.loc 1 234 0
  29              		.cfi_startproc
  30              		@ args = 0, pretend = 0, frame = 0
  31              		@ frame_needed = 0, uses_anonymous_args = 0
  32              		@ link register save eliminated.
  33              		.loc 1 234 0
  34 0000 7047     		bx	lr
  35              		.cfi_endproc
  36              	.LFE0:
  37              		.size	__early_init, .-__early_init
  38 0002 00BFAFF3 		.section	.text.__late_init,"ax",%progbits
  38      0080AFF3 
  38      0080AFF3 
  38      0080
  39              		.align	2
  40              		.p2align 4,,15
  41              		.weak	__late_init
  42              		.thumb
  43              		.thumb_func
  44              		.type	__late_init, %function
  45              	__late_init:
  46              	.LFB1:
  47              		.loc 1 246 0
  48              		.cfi_startproc
  49              		@ args = 0, pretend = 0, frame = 0
  50              		@ frame_needed = 0, uses_anonymous_args = 0
  51              		@ link register save eliminated.
  52              		.loc 1 246 0
  53 0000 7047     		bx	lr
  54              		.cfi_endproc
ARM GAS  /tmp/ccTH3G18.s 			page 2


  55              	.LFE1:
  56              		.size	__late_init, .-__late_init
  57 0002 00BFAFF3 		.section	.text._default_exit,"ax",%progbits
  57      0080AFF3 
  57      0080AFF3 
  57      0080
  58              		.align	2
  59              		.p2align 4,,15
  60              		.weak	_default_exit
  61              		.thumb
  62              		.thumb_func
  63              		.type	_default_exit, %function
  64              	_default_exit:
  65              	.LFB2:
  66              		.loc 1 257 0
  67              		.cfi_startproc
  68              		@ Naked Function: prologue and epilogue provided by programmer.
  69              		@ args = 0, pretend = 0, frame = 0
  70              		@ frame_needed = 0, uses_anonymous_args = 0
  71              	.L4:
  72 0000 FEE7     		b	.L4
  73              		.cfi_endproc
  74              	.LFE2:
  75              		.size	_default_exit, .-_default_exit
  76 0002 00BFAFF3 		.section	.text.ResetHandler,"ax",%progbits
  76      0080AFF3 
  76      0080AFF3 
  76      0080
  77              		.align	2
  78              		.p2align 4,,15
  79              		.global	ResetHandler
  80              		.thumb
  81              		.thumb_func
  82              		.type	ResetHandler, %function
  83              	ResetHandler:
  84              	.LFB3:
  85              		.loc 1 268 0
  86              		.cfi_startproc
  87              		@ Naked Function: prologue and epilogue provided by programmer.
  88              		@ args = 0, pretend = 0, frame = 0
  89              		@ frame_needed = 0, uses_anonymous_args = 0
  90              		.loc 1 274 0
  91              	@ 274 "../ChibiOS_2.6.2/os/ports/GCC/ARMCMx/crt0.c" 1
  92 0000 72B6     		cpsid   i
  93              	@ 0 "" 2
  94              	.LVL0:
  95              		.loc 1 276 0
  96              		.thumb
  97 0002 40F20001 		movw	r1, #:lower16:__process_stack_end__
  98 0006 C0F20001 		movt	r1, #:upper16:__process_stack_end__
  99              	@ 276 "../ChibiOS_2.6.2/os/ports/GCC/ARMCMx/crt0.c" 1
 100 000a 81F30988 		msr     PSP, r1
 101              	@ 0 "" 2
 102              	.LVL1:
 103              		.loc 1 296 0
 104              		.thumb
 105 000e 0223     		movs	r3, #2
ARM GAS  /tmp/ccTH3G18.s 			page 3


 106              	@ 296 "../ChibiOS_2.6.2/os/ports/GCC/ARMCMx/crt0.c" 1
 107 0010 83F31488 		msr     CONTROL, r3
 108              	@ 0 "" 2
 109              		.loc 1 297 0
 110              	@ 297 "../ChibiOS_2.6.2/os/ports/GCC/ARMCMx/crt0.c" 1
 111 0014 BFF36F8F 		isb
 112              	@ 0 "" 2
 113              	.LVL2:
 114              		.thumb
 115              	.LBB2:
 116              		.loc 1 301 0
 117 0018 40F20002 		movw	r2, #:lower16:__main_stack_base__
 118 001c 40F20004 		movw	r4, #:lower16:__main_stack_end__
 119 0020 C0F20002 		movt	r2, #:upper16:__main_stack_base__
 120 0024 C0F20004 		movt	r4, #:upper16:__main_stack_end__
 121 0028 A242     		cmp	r2, r4
 122 002a 17D2     		bcs	.L6
 123 002c 1346     		mov	r3, r2
 124 002e 4FF05530 		mov	r0, #1431655765
 125 0032 D643     		mvns	r6, r2
 126 0034 43F8040B 		str	r0, [r3], #4
 127              	.LVL3:
 128 0038 A519     		adds	r5, r4, r6
 129 003a A342     		cmp	r3, r4
 130 003c C5F38005 		ubfx	r5, r5, #2, #1
 131 0040 0CD2     		bcs	.L6
 132 0042 25B1     		cbz	r5, .L7
 133 0044 1860     		str	r0, [r3, #0]
 134 0046 02F10803 		add	r3, r2, #8
 135 004a A342     		cmp	r3, r4
 136 004c 06D2     		bcs	.L6
 137              	.LVL4:
 138              	.L7:
 139              		.loc 1 301 0 is_stmt 0 discriminator 2
 140 004e 1A46     		mov	r2, r3
 141 0050 42F8040B 		str	r0, [r2], #4
 142              	.LVL5:
 143 0054 5860     		str	r0, [r3, #4]
 144 0056 131D     		adds	r3, r2, #4
 145 0058 A342     		cmp	r3, r4
 146 005a F8D3     		bcc	.L7
 147              	.LVL6:
 148              	.L6:
 149              	.LBE2:
 150              	.LBB3:
 151              		.loc 1 304 0 is_stmt 1 discriminator 1
 152 005c 40F20002 		movw	r2, #:lower16:__process_stack_base__
 153 0060 C0F20002 		movt	r2, #:upper16:__process_stack_base__
 154 0064 8A42     		cmp	r2, r1
 155 0066 17D2     		bcs	.L8
 156              		.loc 1 304 0 is_stmt 0
 157 0068 1346     		mov	r3, r2
 158 006a 4FF05530 		mov	r0, #1431655765
 159 006e D543     		mvns	r5, r2
 160 0070 43F8040B 		str	r0, [r3], #4
 161              	.LVL7:
 162 0074 4C19     		adds	r4, r1, r5
ARM GAS  /tmp/ccTH3G18.s 			page 4


 163 0076 8B42     		cmp	r3, r1
 164 0078 C4F38004 		ubfx	r4, r4, #2, #1
 165 007c 0CD2     		bcs	.L8
 166 007e 24B1     		cbz	r4, .L9
 167 0080 1860     		str	r0, [r3, #0]
 168 0082 02F10803 		add	r3, r2, #8
 169 0086 8B42     		cmp	r3, r1
 170 0088 06D2     		bcs	.L8
 171              	.LVL8:
 172              	.L9:
 173              		.loc 1 304 0 discriminator 2
 174 008a 1E46     		mov	r6, r3
 175 008c 46F8040B 		str	r0, [r6], #4
 176              	.LVL9:
 177 0090 5860     		str	r0, [r3, #4]
 178 0092 331D     		adds	r3, r6, #4
 179 0094 8B42     		cmp	r3, r1
 180 0096 F8D3     		bcc	.L9
 181              	.LVL10:
 182              	.L8:
 183              	.LBE3:
 184              		.loc 1 310 0 is_stmt 1
 185 0098 FFF7FEFF 		bl	__early_init
 186              	.LVL11:
 187              	.LBB4:
 188              		.loc 1 319 0
 189 009c 40F20004 		movw	r4, #:lower16:_edata
 190 00a0 40F20001 		movw	r1, #:lower16:_data
 191 00a4 C0F20001 		movt	r1, #:upper16:_data
 192 00a8 C0F20004 		movt	r4, #:upper16:_edata
 193 00ac A142     		cmp	r1, r4
 194 00ae 25D2     		bcs	.L10
 195 00b0 40F20000 		movw	r0, #:lower16:_textdata
 196 00b4 C0F20000 		movt	r0, #:upper16:_textdata
 197              		.loc 1 320 0
 198 00b8 0246     		mov	r2, r0
 199 00ba 52F8046B 		ldr	r6, [r2], #4
 200 00be 0B46     		mov	r3, r1
 201 00c0 CD43     		mvns	r5, r1
 202 00c2 43F8046B 		str	r6, [r3], #4
 203              	.LVL12:
 204 00c6 04EB050C 		add	ip, r4, r5
 205              		.loc 1 319 0
 206 00ca A342     		cmp	r3, r4
 207 00cc CCF38005 		ubfx	r5, ip, #2, #1
 208 00d0 14D2     		bcs	.L10
 209 00d2 3DB1     		cbz	r5, .L11
 210              		.loc 1 320 0
 211 00d4 1668     		ldr	r6, [r2, #0]
 212 00d6 00F10802 		add	r2, r0, #8
 213 00da 1E60     		str	r6, [r3, #0]
 214 00dc 01F10803 		add	r3, r1, #8
 215              		.loc 1 319 0
 216 00e0 A342     		cmp	r3, r4
 217 00e2 0BD2     		bcs	.L10
 218              	.LVL13:
 219              	.L11:
ARM GAS  /tmp/ccTH3G18.s 			page 5


 220              		.loc 1 320 0
 221 00e4 1146     		mov	r1, r2
 222 00e6 51F8046B 		ldr	r6, [r1], #4
 223 00ea 1846     		mov	r0, r3
 224 00ec 5268     		ldr	r2, [r2, #4]
 225 00ee 40F8046B 		str	r6, [r0], #4
 226              	.LVL14:
 227 00f2 5A60     		str	r2, [r3, #4]
 228 00f4 031D     		adds	r3, r0, #4
 229 00f6 0A1D     		adds	r2, r1, #4
 230              		.loc 1 319 0
 231 00f8 A342     		cmp	r3, r4
 232 00fa F3D3     		bcc	.L11
 233              	.LVL15:
 234              	.L10:
 235              	.LBE4:
 236              	.LBB5:
 237              		.loc 1 326 0 discriminator 1
 238 00fc 40F20002 		movw	r2, #:lower16:_bss_start
 239 0100 40F20000 		movw	r0, #:lower16:_bss_end
 240 0104 C0F20002 		movt	r2, #:upper16:_bss_start
 241 0108 C0F20000 		movt	r0, #:upper16:_bss_end
 242 010c 8242     		cmp	r2, r0
 243 010e 17D2     		bcs	.L12
 244              		.loc 1 326 0 is_stmt 0
 245 0110 0021     		movs	r1, #0
 246 0112 1346     		mov	r3, r2
 247 0114 D443     		mvns	r4, r2
 248 0116 43F8041B 		str	r1, [r3], #4
 249              	.LVL16:
 250 011a 00EB040E 		add	lr, r0, r4
 251 011e 8342     		cmp	r3, r0
 252 0120 CEF38004 		ubfx	r4, lr, #2, #1
 253 0124 0CD2     		bcs	.L12
 254 0126 24B1     		cbz	r4, .L13
 255 0128 1960     		str	r1, [r3, #0]
 256 012a 02F10803 		add	r3, r2, #8
 257 012e 8342     		cmp	r3, r0
 258 0130 06D2     		bcs	.L12
 259              	.LVL17:
 260              	.L13:
 261              		.loc 1 326 0 discriminator 2
 262 0132 1D46     		mov	r5, r3
 263 0134 45F8041B 		str	r1, [r5], #4
 264              	.LVL18:
 265 0138 5960     		str	r1, [r3, #4]
 266 013a 2B1D     		adds	r3, r5, #4
 267 013c 8342     		cmp	r3, r0
 268 013e F8D3     		bcc	.L13
 269              	.LVL19:
 270              	.L12:
 271              	.LBE5:
 272              	.LBB6:
 273              		.loc 1 336 0 is_stmt 1
 274 0140 40F20005 		movw	r5, #:lower16:__init_array_start
 275 0144 40F20006 		movw	r6, #:lower16:__init_array_end
 276 0148 C0F20005 		movt	r5, #:upper16:__init_array_start
ARM GAS  /tmp/ccTH3G18.s 			page 6


 277 014c C0F20006 		movt	r6, #:upper16:__init_array_end
 278              	.LBE6:
 279              		.loc 1 330 0
 280 0150 FFF7FEFF 		bl	__late_init
 281              	.LVL20:
 282              	.LBB7:
 283              		.loc 1 336 0
 284 0154 B542     		cmp	r5, r6
 285 0156 19D2     		bcs	.L14
 286              		.loc 1 337 0
 287 0158 2C46     		mov	r4, r5
 288 015a 54F8043B 		ldr	r3, [r4], #4
 289 015e E943     		mvns	r1, r5
 290 0160 7718     		adds	r7, r6, r1
 291 0162 9847     		blx	r3
 292              	.LVL21:
 293              		.loc 1 336 0
 294 0164 B442     		cmp	r4, r6
 295 0166 C7F38007 		ubfx	r7, r7, #2, #1
 296 016a 0FD2     		bcs	.L14
 297 016c 2FB1     		cbz	r7, .L15
 298              		.loc 1 337 0
 299 016e 2368     		ldr	r3, [r4, #0]
 300              		.loc 1 338 0
 301 0170 05F10804 		add	r4, r5, #8
 302              		.loc 1 337 0
 303 0174 9847     		blx	r3
 304              		.loc 1 336 0
 305 0176 B442     		cmp	r4, r6
 306 0178 08D2     		bcs	.L14
 307              	.LVL22:
 308              	.L15:
 309              		.loc 1 337 0
 310 017a 2546     		mov	r5, r4
 311 017c 55F8042B 		ldr	r2, [r5], #4
 312 0180 9047     		blx	r2
 313              	.LVL23:
 314 0182 6068     		ldr	r0, [r4, #4]
 315              		.loc 1 338 0
 316 0184 2C1D     		adds	r4, r5, #4
 317              		.loc 1 337 0
 318 0186 8047     		blx	r0
 319              		.loc 1 336 0
 320 0188 B442     		cmp	r4, r6
 321 018a F6D3     		bcc	.L15
 322              	.LVL24:
 323              	.L14:
 324              	.LBE7:
 325              	.LBB8:
 326              		.loc 1 350 0
 327 018c 40F20005 		movw	r5, #:lower16:__fini_array_start
 328 0190 40F20006 		movw	r6, #:lower16:__fini_array_end
 329 0194 C0F20005 		movt	r5, #:upper16:__fini_array_start
 330 0198 C0F20006 		movt	r6, #:upper16:__fini_array_end
 331              	.LBE8:
 332              		.loc 1 344 0
 333 019c FFF7FEFF 		bl	main
ARM GAS  /tmp/ccTH3G18.s 			page 7


 334              	.LVL25:
 335              	.LBB9:
 336              		.loc 1 350 0
 337 01a0 B542     		cmp	r5, r6
 338 01a2 1AD2     		bcs	.L16
 339              		.loc 1 351 0
 340 01a4 2C46     		mov	r4, r5
 341 01a6 EF43     		mvns	r7, r5
 342 01a8 54F8043B 		ldr	r3, [r4], #4
 343 01ac 06EB070C 		add	ip, r6, r7
 344 01b0 CCF38007 		ubfx	r7, ip, #2, #1
 345 01b4 9847     		blx	r3
 346              	.LVL26:
 347              		.loc 1 350 0
 348 01b6 B442     		cmp	r4, r6
 349 01b8 0FD2     		bcs	.L16
 350 01ba 2FB1     		cbz	r7, .L17
 351              		.loc 1 351 0
 352 01bc 2268     		ldr	r2, [r4, #0]
 353              		.loc 1 352 0
 354 01be 05F10804 		add	r4, r5, #8
 355              		.loc 1 351 0
 356 01c2 9047     		blx	r2
 357              		.loc 1 350 0
 358 01c4 B442     		cmp	r4, r6
 359 01c6 08D2     		bcs	.L16
 360              	.LVL27:
 361              	.L17:
 362              		.loc 1 351 0
 363 01c8 2546     		mov	r5, r4
 364 01ca 55F8040B 		ldr	r0, [r5], #4
 365 01ce 8047     		blx	r0
 366              	.LVL28:
 367 01d0 6168     		ldr	r1, [r4, #4]
 368              		.loc 1 352 0
 369 01d2 2C1D     		adds	r4, r5, #4
 370              		.loc 1 351 0
 371 01d4 8847     		blx	r1
 372              		.loc 1 350 0
 373 01d6 B442     		cmp	r4, r6
 374 01d8 F6D3     		bcc	.L17
 375              	.LVL29:
 376              	.L16:
 377              	.LBE9:
 378              		.loc 1 358 0
 379 01da FFF7FEFF 		bl	_default_exit
 380              		.loc 1 359 0
 381              		.cfi_endproc
 382              	.LFE3:
 383              		.size	ResetHandler, .-ResetHandler
 384 01de 00BF     		.text
 385              	.Letext0:
 386              		.file 2 "/opt/pros/toolchain/bin/../lib/gcc/arm-none-eabi/4.6.3/../../../../arm-none-eabi/include/