ARM GAS  /tmp/cczuUKVg.s 			page 1


   1              		.syntax unified
   2              		.cpu cortex-m3
   3              		.fpu softvfp
   4              		.eabi_attribute 20, 1
   5              		.eabi_attribute 21, 1
   6              		.eabi_attribute 23, 3
   7              		.eabi_attribute 24, 1
   8              		.eabi_attribute 25, 1
   9              		.eabi_attribute 26, 1
  10              		.eabi_attribute 30, 2
  11              		.eabi_attribute 34, 1
  12              		.eabi_attribute 18, 4
  13              		.thumb
  14              		.file	"ext.c"
  15              		.text
  16              	.Ltext0:
  17              		.cfi_sections	.debug_frame
  18              		.section	.text.extInit,"ax",%progbits
  19              		.align	2
  20              		.p2align 4,,15
  21              		.global	extInit
  22              		.thumb
  23              		.thumb_func
  24              		.type	extInit, %function
  25              	extInit:
  26              	.LFB63:
  27              		.file 1 "../ChibiOS_2.6.2/os/hal/src/ext.c"
  28              		.loc 1 68 0
  29              		.cfi_startproc
  30              		@ args = 0, pretend = 0, frame = 0
  31              		@ frame_needed = 0, uses_anonymous_args = 0
  32              		@ link register save eliminated.
  33              		.loc 1 71 0
  34              		.loc 1 70 0
  35 0000 FFF7FEBF 		b	ext_lld_init
  36              		.cfi_endproc
  37              	.LFE63:
  38              		.size	extInit, .-extInit
  39 0004 AFF30080 		.section	.text.extObjectInit,"ax",%progbits
  39      AFF30080 
  39      AFF30080 
  40              		.align	2
  41              		.p2align 4,,15
  42              		.global	extObjectInit
  43              		.thumb
  44              		.thumb_func
  45              		.type	extObjectInit, %function
  46              	extObjectInit:
  47              	.LFB64:
  48              		.loc 1 80 0
  49              		.cfi_startproc
  50              		@ args = 0, pretend = 0, frame = 0
  51              		@ frame_needed = 0, uses_anonymous_args = 0
  52              		@ link register save eliminated.
  53              	.LVL0:
  54              		.loc 1 82 0
  55 0000 0121     		movs	r1, #1
ARM GAS  /tmp/cczuUKVg.s 			page 2


  56              		.loc 1 83 0
  57 0002 0023     		movs	r3, #0
  58              		.loc 1 82 0
  59 0004 0170     		strb	r1, [r0, #0]
  60              		.loc 1 83 0
  61 0006 4360     		str	r3, [r0, #4]
  62              		.loc 1 84 0
  63 0008 7047     		bx	lr
  64              		.cfi_endproc
  65              	.LFE64:
  66              		.size	extObjectInit, .-extObjectInit
  67 000a 00BFAFF3 		.section	.text.extStart,"ax",%progbits
  67      0080
  68              		.align	2
  69              		.p2align 4,,15
  70              		.global	extStart
  71              		.thumb
  72              		.thumb_func
  73              		.type	extStart, %function
  74              	extStart:
  75              	.LFB65:
  76              		.loc 1 96 0
  77              		.cfi_startproc
  78              		@ args = 0, pretend = 0, frame = 0
  79              		@ frame_needed = 0, uses_anonymous_args = 0
  80              	.LVL1:
  81 0000 10B5     		push	{r4, lr}
  82              	.LCFI0:
  83              		.cfi_def_cfa_offset 8
  84              		.cfi_offset 14, -4
  85              		.cfi_offset 4, -8
  86              	.LBB2:
  87              		.loc 1 100 0
  88 0002 2023     		movs	r3, #32
  89              	.LVL2:
  90              	.LBE2:
  91              		.loc 1 96 0
  92 0004 0446     		mov	r4, r0
  93              	.LBB3:
  94              		.loc 1 100 0
  95              	@ 100 "../ChibiOS_2.6.2/os/hal/src/ext.c" 1
  96 0006 83F31188 		msr     BASEPRI, r3
  97              	@ 0 "" 2
  98              	.LVL3:
  99              		.thumb
 100              	.LBE3:
 101              		.loc 1 103 0
 102 000a 4160     		str	r1, [r0, #4]
 103              		.loc 1 104 0
 104 000c FFF7FEFF 		bl	ext_lld_start
 105              	.LVL4:
 106              		.loc 1 105 0
 107 0010 0223     		movs	r3, #2
 108 0012 2370     		strb	r3, [r4, #0]
 109              	.LBB4:
 110              		.loc 1 106 0
 111 0014 0023     		movs	r3, #0
ARM GAS  /tmp/cczuUKVg.s 			page 3


 112              	.LVL5:
 113              	@ 106 "../ChibiOS_2.6.2/os/hal/src/ext.c" 1
 114 0016 83F31188 		msr     BASEPRI, r3
 115              	@ 0 "" 2
 116              	.LVL6:
 117              		.thumb
 118              	.LBE4:
 119              		.loc 1 107 0
 120 001a 10BD     		pop	{r4, pc}
 121              		.cfi_endproc
 122              	.LFE65:
 123              		.size	extStart, .-extStart
 124 001c AFF30080 		.section	.text.extStop,"ax",%progbits
 125              		.align	2
 126              		.p2align 4,,15
 127              		.global	extStop
 128              		.thumb
 129              		.thumb_func
 130              		.type	extStop, %function
 131              	extStop:
 132              	.LFB66:
 133              		.loc 1 116 0
 134              		.cfi_startproc
 135              		@ args = 0, pretend = 0, frame = 0
 136              		@ frame_needed = 0, uses_anonymous_args = 0
 137              	.LVL7:
 138 0000 10B5     		push	{r4, lr}
 139              	.LCFI1:
 140              		.cfi_def_cfa_offset 8
 141              		.cfi_offset 14, -4
 142              		.cfi_offset 4, -8
 143              	.LBB5:
 144              		.loc 1 120 0
 145 0002 2023     		movs	r3, #32
 146              	.LVL8:
 147              	.LBE5:
 148              		.loc 1 116 0
 149 0004 0446     		mov	r4, r0
 150              	.LBB6:
 151              		.loc 1 120 0
 152              	@ 120 "../ChibiOS_2.6.2/os/hal/src/ext.c" 1
 153 0006 83F31188 		msr     BASEPRI, r3
 154              	@ 0 "" 2
 155              	.LVL9:
 156              		.thumb
 157              	.LBE6:
 158              		.loc 1 123 0
 159 000a FFF7FEFF 		bl	ext_lld_stop
 160              	.LVL10:
 161              		.loc 1 124 0
 162 000e 0123     		movs	r3, #1
 163 0010 2370     		strb	r3, [r4, #0]
 164              	.LBB7:
 165              		.loc 1 125 0
 166 0012 0023     		movs	r3, #0
 167              	.LVL11:
 168              	@ 125 "../ChibiOS_2.6.2/os/hal/src/ext.c" 1
ARM GAS  /tmp/cczuUKVg.s 			page 4


 169 0014 83F31188 		msr     BASEPRI, r3
 170              	@ 0 "" 2
 171              	.LVL12:
 172              		.thumb
 173              	.LBE7:
 174              		.loc 1 126 0
 175 0018 10BD     		pop	{r4, pc}
 176              		.cfi_endproc
 177              	.LFE66:
 178              		.size	extStop, .-extStop
 179 001a 00BFAFF3 		.section	.text.extChannelEnable,"ax",%progbits
 179      0080
 180              		.align	2
 181              		.p2align 4,,15
 182              		.global	extChannelEnable
 183              		.thumb
 184              		.thumb_func
 185              		.type	extChannelEnable, %function
 186              	extChannelEnable:
 187              	.LFB67:
 188              		.loc 1 137 0
 189              		.cfi_startproc
 190              		@ args = 0, pretend = 0, frame = 0
 191              		@ frame_needed = 0, uses_anonymous_args = 0
 192              	.LVL13:
 193 0000 08B5     		push	{r3, lr}
 194              	.LCFI2:
 195              		.cfi_def_cfa_offset 8
 196              		.cfi_offset 14, -4
 197              		.cfi_offset 3, -8
 198              	.LBB8:
 199              		.loc 1 142 0
 200 0002 2023     		movs	r3, #32
 201              	.LVL14:
 202              	@ 142 "../ChibiOS_2.6.2/os/hal/src/ext.c" 1
 203 0004 83F31188 		msr     BASEPRI, r3
 204              	@ 0 "" 2
 205              	.LVL15:
 206              		.thumb
 207              	.LBE8:
 208              		.loc 1 147 0
 209 0008 FFF7FEFF 		bl	ext_lld_channel_enable
 210              	.LVL16:
 211              	.LBB9:
 212              		.loc 1 148 0
 213 000c 0023     		movs	r3, #0
 214              	.LVL17:
 215              	@ 148 "../ChibiOS_2.6.2/os/hal/src/ext.c" 1
 216 000e 83F31188 		msr     BASEPRI, r3
 217              	@ 0 "" 2
 218              	.LVL18:
 219              		.thumb
 220              	.LBE9:
 221              		.loc 1 149 0
 222 0012 08BD     		pop	{r3, pc}
 223              		.cfi_endproc
 224              	.LFE67:
ARM GAS  /tmp/cczuUKVg.s 			page 5


 225              		.size	extChannelEnable, .-extChannelEnable
 226 0014 AFF30080 		.section	.text.extChannelDisable,"ax",%progbits
 226      AFF30080 
 226      AFF30080 
 227              		.align	2
 228              		.p2align 4,,15
 229              		.global	extChannelDisable
 230              		.thumb
 231              		.thumb_func
 232              		.type	extChannelDisable, %function
 233              	extChannelDisable:
 234              	.LFB68:
 235              		.loc 1 160 0
 236              		.cfi_startproc
 237              		@ args = 0, pretend = 0, frame = 0
 238              		@ frame_needed = 0, uses_anonymous_args = 0
 239              	.LVL19:
 240 0000 08B5     		push	{r3, lr}
 241              	.LCFI3:
 242              		.cfi_def_cfa_offset 8
 243              		.cfi_offset 14, -4
 244              		.cfi_offset 3, -8
 245              	.LBB10:
 246              		.loc 1 165 0
 247 0002 2023     		movs	r3, #32
 248              	.LVL20:
 249              	@ 165 "../ChibiOS_2.6.2/os/hal/src/ext.c" 1
 250 0004 83F31188 		msr     BASEPRI, r3
 251              	@ 0 "" 2
 252              	.LVL21:
 253              		.thumb
 254              	.LBE10:
 255              		.loc 1 170 0
 256 0008 FFF7FEFF 		bl	ext_lld_channel_disable
 257              	.LVL22:
 258              	.LBB11:
 259              		.loc 1 171 0
 260 000c 0023     		movs	r3, #0
 261              	.LVL23:
 262              	@ 171 "../ChibiOS_2.6.2/os/hal/src/ext.c" 1
 263 000e 83F31188 		msr     BASEPRI, r3
 264              	@ 0 "" 2
 265              	.LVL24:
 266              		.thumb
 267              	.LBE11:
 268              		.loc 1 172 0
 269 0012 08BD     		pop	{r3, pc}
 270              		.cfi_endproc
 271              	.LFE68:
 272              		.size	extChannelDisable, .-extChannelDisable
 273 0014 AFF30080 		.section	.text.extSetChannelModeI,"ax",%progbits
 273      AFF30080 
 273      AFF30080 
 274              		.align	2
 275              		.p2align 4,,15
 276              		.global	extSetChannelModeI
 277              		.thumb
ARM GAS  /tmp/cczuUKVg.s 			page 6


 278              		.thumb_func
 279              		.type	extSetChannelModeI, %function
 280              	extSetChannelModeI:
 281              	.LFB69:
 282              		.loc 1 193 0
 283              		.cfi_startproc
 284              		@ args = 0, pretend = 0, frame = 0
 285              		@ frame_needed = 0, uses_anonymous_args = 0
 286              		@ link register save eliminated.
 287              	.LVL25:
 288 0000 30B4     		push	{r4, r5}
 289              	.LCFI4:
 290              		.cfi_def_cfa_offset 8
 291              		.cfi_offset 5, -4
 292              		.cfi_offset 4, -8
 293              		.loc 1 208 0
 294 0002 4568     		ldr	r5, [r0, #4]
 295              		.loc 1 193 0
 296 0004 0446     		mov	r4, r0
 297 0006 0B46     		mov	r3, r1
 298              	.LVL26:
 299              		.loc 1 208 0
 300 0008 05EBC105 		add	r5, r5, r1, lsl #3
 301 000c 92E80300 		ldmia	r2, {r0, r1}
 302              	.LVL27:
 303 0010 85E80300 		stmia	r5, {r0, r1}
 304              		.loc 1 209 0
 305 0014 2046     		mov	r0, r4
 306 0016 1946     		mov	r1, r3
 307              		.loc 1 210 0
 308 0018 30BC     		pop	{r4, r5}
 309              		.loc 1 209 0
 310 001a FFF7FEBF 		b	ext_lld_channel_enable
 311              	.LVL28:
 312              	.LVL29:
 313              		.cfi_endproc
 314              	.LFE69:
 315              		.size	extSetChannelModeI, .-extSetChannelModeI
 316 001e 00BF     		.text
 317              	.Letext0:
 318              		.file 2 "/opt/pros/toolchain/bin/../lib/gcc/arm-none-eabi/4.6.3/../../../../arm-none-eabi/include/
 319              		.file 3 "../ChibiOS_2.6.2/os/hal/include/ext.h"
 320              		.file 4 "../ChibiOS_2.6.2/os/hal/platforms/STM32/ext_lld.h"
 321              		.file 5 "../ChibiOS_2.6.2/os/ports/common/ARMCMx/CMSIS/include/core_cm3.h"