ARM GAS  /tmp/ccHAxsob.s 			page 1


   1              		.syntax unified
   2              		.cpu cortex-m3
   3              		.fpu softvfp
   4              		.eabi_attribute 20, 1
   5              		.eabi_attribute 21, 1
   6              		.eabi_attribute 23, 3
   7              		.eabi_attribute 24, 1
   8              		.eabi_attribute 25, 1
   9              		.eabi_attribute 26, 1
  10              		.eabi_attribute 30, 2
  11              		.eabi_attribute 34, 1
  12              		.eabi_attribute 18, 4
  13              		.thumb
  14              		.file	"ext_lld_isr.c"
  15              		.text
  16              	.Ltext0:
  17              		.cfi_sections	.debug_frame
  18              		.section	.text.Vector58,"ax",%progbits
  19              		.align	2
  20              		.p2align 4,,15
  21              		.global	Vector58
  22              		.thumb
  23              		.thumb_func
  24              		.type	Vector58, %function
  25              	Vector58:
  26              	.LFB63:
  27              		.file 1 "../ChibiOS_2.6.2/os/hal/platforms/STM32F1xx/ext_lld_isr.c"
  28              		.loc 1 57 0
  29              		.cfi_startproc
  30              		@ args = 0, pretend = 0, frame = 0
  31              		@ frame_needed = 0, uses_anonymous_args = 0
  32              		.loc 1 62 0
  33 0000 40F20000 		movw	r0, #:lower16:EXTD1
  34 0004 C0F20000 		movt	r0, #:upper16:EXTD1
  35 0008 4268     		ldr	r2, [r0, #4]
  36              		.loc 1 61 0
  37 000a 4FF4806C 		mov	ip, #1024
  38 000e C4F2010C 		movt	ip, 16385
  39 0012 0121     		movs	r1, #1
  40              		.loc 1 57 0
  41 0014 08B5     		push	{r3, lr}
  42              	.LCFI0:
  43              		.cfi_def_cfa_offset 8
  44              		.cfi_offset 14, -4
  45              		.cfi_offset 3, -8
  46              		.loc 1 61 0
  47 0016 CCF81410 		str	r1, [ip, #20]
  48              		.loc 1 62 0
  49 001a 5368     		ldr	r3, [r2, #4]
  50 001c 0021     		movs	r1, #0
  51 001e 9847     		blx	r3
  52              		.loc 1 65 0
  53 0020 BDE80840 		pop	{r3, lr}
  54              		.loc 1 64 0
  55 0024 FFF7FEBF 		b	_port_irq_epilogue
  56              		.cfi_endproc
  57              	.LFE63:
ARM GAS  /tmp/ccHAxsob.s 			page 2


  58              		.size	Vector58, .-Vector58
  59 0028 AFF30080 		.section	.text.Vector5C,"ax",%progbits
  59      AFF30080 
  60              		.align	2
  61              		.p2align 4,,15
  62              		.global	Vector5C
  63              		.thumb
  64              		.thumb_func
  65              		.type	Vector5C, %function
  66              	Vector5C:
  67              	.LFB64:
  68              		.loc 1 72 0
  69              		.cfi_startproc
  70              		@ args = 0, pretend = 0, frame = 0
  71              		@ frame_needed = 0, uses_anonymous_args = 0
  72              		.loc 1 77 0
  73 0000 40F20000 		movw	r0, #:lower16:EXTD1
  74 0004 C0F20000 		movt	r0, #:upper16:EXTD1
  75 0008 4268     		ldr	r2, [r0, #4]
  76              		.loc 1 76 0
  77 000a 4FF4806C 		mov	ip, #1024
  78 000e C4F2010C 		movt	ip, 16385
  79 0012 0221     		movs	r1, #2
  80              		.loc 1 72 0
  81 0014 08B5     		push	{r3, lr}
  82              	.LCFI1:
  83              		.cfi_def_cfa_offset 8
  84              		.cfi_offset 14, -4
  85              		.cfi_offset 3, -8
  86              		.loc 1 76 0
  87 0016 CCF81410 		str	r1, [ip, #20]
  88              		.loc 1 77 0
  89 001a D368     		ldr	r3, [r2, #12]
  90 001c 0121     		movs	r1, #1
  91 001e 9847     		blx	r3
  92              		.loc 1 80 0
  93 0020 BDE80840 		pop	{r3, lr}
  94              		.loc 1 79 0
  95 0024 FFF7FEBF 		b	_port_irq_epilogue
  96              		.cfi_endproc
  97              	.LFE64:
  98              		.size	Vector5C, .-Vector5C
  99 0028 AFF30080 		.section	.text.Vector60,"ax",%progbits
  99      AFF30080 
 100              		.align	2
 101              		.p2align 4,,15
 102              		.global	Vector60
 103              		.thumb
 104              		.thumb_func
 105              		.type	Vector60, %function
 106              	Vector60:
 107              	.LFB65:
 108              		.loc 1 87 0
 109              		.cfi_startproc
 110              		@ args = 0, pretend = 0, frame = 0
 111              		@ frame_needed = 0, uses_anonymous_args = 0
 112              		.loc 1 92 0
ARM GAS  /tmp/ccHAxsob.s 			page 3


 113 0000 40F20000 		movw	r0, #:lower16:EXTD1
 114 0004 C0F20000 		movt	r0, #:upper16:EXTD1
 115 0008 4268     		ldr	r2, [r0, #4]
 116              		.loc 1 91 0
 117 000a 4FF4806C 		mov	ip, #1024
 118 000e C4F2010C 		movt	ip, 16385
 119 0012 0421     		movs	r1, #4
 120              		.loc 1 87 0
 121 0014 08B5     		push	{r3, lr}
 122              	.LCFI2:
 123              		.cfi_def_cfa_offset 8
 124              		.cfi_offset 14, -4
 125              		.cfi_offset 3, -8
 126              		.loc 1 91 0
 127 0016 CCF81410 		str	r1, [ip, #20]
 128              		.loc 1 92 0
 129 001a 5369     		ldr	r3, [r2, #20]
 130 001c 0221     		movs	r1, #2
 131 001e 9847     		blx	r3
 132              		.loc 1 95 0
 133 0020 BDE80840 		pop	{r3, lr}
 134              		.loc 1 94 0
 135 0024 FFF7FEBF 		b	_port_irq_epilogue
 136              		.cfi_endproc
 137              	.LFE65:
 138              		.size	Vector60, .-Vector60
 139 0028 AFF30080 		.section	.text.Vector64,"ax",%progbits
 139      AFF30080 
 140              		.align	2
 141              		.p2align 4,,15
 142              		.global	Vector64
 143              		.thumb
 144              		.thumb_func
 145              		.type	Vector64, %function
 146              	Vector64:
 147              	.LFB66:
 148              		.loc 1 102 0
 149              		.cfi_startproc
 150              		@ args = 0, pretend = 0, frame = 0
 151              		@ frame_needed = 0, uses_anonymous_args = 0
 152              		.loc 1 107 0
 153 0000 40F20000 		movw	r0, #:lower16:EXTD1
 154 0004 C0F20000 		movt	r0, #:upper16:EXTD1
 155 0008 4268     		ldr	r2, [r0, #4]
 156              		.loc 1 106 0
 157 000a 4FF4806C 		mov	ip, #1024
 158 000e C4F2010C 		movt	ip, 16385
 159 0012 0821     		movs	r1, #8
 160              		.loc 1 102 0
 161 0014 08B5     		push	{r3, lr}
 162              	.LCFI3:
 163              		.cfi_def_cfa_offset 8
 164              		.cfi_offset 14, -4
 165              		.cfi_offset 3, -8
 166              		.loc 1 106 0
 167 0016 CCF81410 		str	r1, [ip, #20]
 168              		.loc 1 107 0
ARM GAS  /tmp/ccHAxsob.s 			page 4


 169 001a D369     		ldr	r3, [r2, #28]
 170 001c 0321     		movs	r1, #3
 171 001e 9847     		blx	r3
 172              		.loc 1 110 0
 173 0020 BDE80840 		pop	{r3, lr}
 174              		.loc 1 109 0
 175 0024 FFF7FEBF 		b	_port_irq_epilogue
 176              		.cfi_endproc
 177              	.LFE66:
 178              		.size	Vector64, .-Vector64
 179 0028 AFF30080 		.section	.text.Vector68,"ax",%progbits
 179      AFF30080 
 180              		.align	2
 181              		.p2align 4,,15
 182              		.global	Vector68
 183              		.thumb
 184              		.thumb_func
 185              		.type	Vector68, %function
 186              	Vector68:
 187              	.LFB67:
 188              		.loc 1 117 0
 189              		.cfi_startproc
 190              		@ args = 0, pretend = 0, frame = 0
 191              		@ frame_needed = 0, uses_anonymous_args = 0
 192              		.loc 1 122 0
 193 0000 40F20000 		movw	r0, #:lower16:EXTD1
 194 0004 C0F20000 		movt	r0, #:upper16:EXTD1
 195 0008 4268     		ldr	r2, [r0, #4]
 196              		.loc 1 121 0
 197 000a 4FF4806C 		mov	ip, #1024
 198 000e C4F2010C 		movt	ip, 16385
 199 0012 1021     		movs	r1, #16
 200              		.loc 1 117 0
 201 0014 08B5     		push	{r3, lr}
 202              	.LCFI4:
 203              		.cfi_def_cfa_offset 8
 204              		.cfi_offset 14, -4
 205              		.cfi_offset 3, -8
 206              		.loc 1 121 0
 207 0016 CCF81410 		str	r1, [ip, #20]
 208              		.loc 1 122 0
 209 001a 536A     		ldr	r3, [r2, #36]
 210 001c 0421     		movs	r1, #4
 211 001e 9847     		blx	r3
 212              		.loc 1 125 0
 213 0020 BDE80840 		pop	{r3, lr}
 214              		.loc 1 124 0
 215 0024 FFF7FEBF 		b	_port_irq_epilogue
 216              		.cfi_endproc
 217              	.LFE67:
 218              		.size	Vector68, .-Vector68
 219 0028 AFF30080 		.section	.text.Vector9C,"ax",%progbits
 219      AFF30080 
 220              		.align	2
 221              		.p2align 4,,15
 222              		.global	Vector9C
 223              		.thumb
ARM GAS  /tmp/ccHAxsob.s 			page 5


 224              		.thumb_func
 225              		.type	Vector9C, %function
 226              	Vector9C:
 227              	.LFB68:
 228              		.loc 1 132 0
 229              		.cfi_startproc
 230              		@ args = 0, pretend = 0, frame = 0
 231              		@ frame_needed = 0, uses_anonymous_args = 0
 232              		.loc 1 137 0
 233 0000 4FF48063 		mov	r3, #1024
 234 0004 C4F20103 		movt	r3, 16385
 235 0008 5A69     		ldr	r2, [r3, #20]
 236              		.loc 1 132 0
 237 000a 10B5     		push	{r4, lr}
 238              	.LCFI5:
 239              		.cfi_def_cfa_offset 8
 240              		.cfi_offset 14, -4
 241              		.cfi_offset 4, -8
 242              		.loc 1 137 0
 243 000c 02F47874 		and	r4, r2, #992
 244              	.LVL0:
 245              		.loc 1 138 0
 246 0010 5C61     		str	r4, [r3, #20]
 247              		.loc 1 139 0
 248 0012 9306     		lsls	r3, r2, #26
 249 0014 2ED4     		bmi	.L13
 250              	.L7:
 251              		.loc 1 141 0
 252 0016 6006     		lsls	r0, r4, #25
 253 0018 23D4     		bmi	.L14
 254              	.L8:
 255              		.loc 1 143 0
 256 001a 2106     		lsls	r1, r4, #24
 257 001c 18D4     		bmi	.L15
 258              	.L9:
 259              		.loc 1 145 0
 260 001e E205     		lsls	r2, r4, #23
 261 0020 0DD4     		bmi	.L16
 262              	.L10:
 263              		.loc 1 147 0
 264 0022 A305     		lsls	r3, r4, #22
 265 0024 07D5     		bpl	.L11
 266              		.loc 1 148 0
 267 0026 40F20000 		movw	r0, #:lower16:EXTD1
 268 002a C0F20000 		movt	r0, #:upper16:EXTD1
 269 002e 4168     		ldr	r1, [r0, #4]
 270 0030 CA6C     		ldr	r2, [r1, #76]
 271 0032 0921     		movs	r1, #9
 272 0034 9047     		blx	r2
 273              	.L11:
 274              		.loc 1 151 0
 275 0036 BDE81040 		pop	{r4, lr}
 276              		.loc 1 150 0
 277 003a FFF7FEBF 		b	_port_irq_epilogue
 278              	.L16:
 279              		.loc 1 146 0
 280 003e 40F20000 		movw	r0, #:lower16:EXTD1
ARM GAS  /tmp/ccHAxsob.s 			page 6


 281 0042 C0F20000 		movt	r0, #:upper16:EXTD1
 282 0046 4368     		ldr	r3, [r0, #4]
 283 0048 0821     		movs	r1, #8
 284 004a 5A6C     		ldr	r2, [r3, #68]
 285 004c 9047     		blx	r2
 286 004e E8E7     		b	.L10
 287              	.L15:
 288              		.loc 1 144 0
 289 0050 40F20000 		movw	r0, #:lower16:EXTD1
 290 0054 C0F20000 		movt	r0, #:upper16:EXTD1
 291 0058 4168     		ldr	r1, [r0, #4]
 292 005a CB6B     		ldr	r3, [r1, #60]
 293 005c 0721     		movs	r1, #7
 294 005e 9847     		blx	r3
 295 0060 DDE7     		b	.L9
 296              	.L14:
 297              		.loc 1 142 0
 298 0062 40F20000 		movw	r0, #:lower16:EXTD1
 299 0066 C0F20000 		movt	r0, #:upper16:EXTD1
 300 006a 4268     		ldr	r2, [r0, #4]
 301 006c 0621     		movs	r1, #6
 302 006e 536B     		ldr	r3, [r2, #52]
 303 0070 9847     		blx	r3
 304 0072 D2E7     		b	.L8
 305              	.L13:
 306              		.loc 1 140 0
 307 0074 40F20000 		movw	r0, #:lower16:EXTD1
 308 0078 C0F20000 		movt	r0, #:upper16:EXTD1
 309 007c 4168     		ldr	r1, [r0, #4]
 310 007e CA6A     		ldr	r2, [r1, #44]
 311 0080 0521     		movs	r1, #5
 312 0082 9047     		blx	r2
 313 0084 C7E7     		b	.L7
 314              		.cfi_endproc
 315              	.LFE68:
 316              		.size	Vector9C, .-Vector9C
 317 0086 00BFAFF3 		.section	.text.VectorE0,"ax",%progbits
 317      0080AFF3 
 317      0080
 318              		.align	2
 319              		.p2align 4,,15
 320              		.global	VectorE0
 321              		.thumb
 322              		.thumb_func
 323              		.type	VectorE0, %function
 324              	VectorE0:
 325              	.LFB69:
 326              		.loc 1 158 0
 327              		.cfi_startproc
 328              		@ args = 0, pretend = 0, frame = 0
 329              		@ frame_needed = 0, uses_anonymous_args = 0
 330              		.loc 1 163 0
 331 0000 4FF48063 		mov	r3, #1024
 332 0004 C4F20103 		movt	r3, 16385
 333 0008 5A69     		ldr	r2, [r3, #20]
 334              		.loc 1 158 0
 335 000a 10B5     		push	{r4, lr}
ARM GAS  /tmp/ccHAxsob.s 			page 7


 336              	.LCFI6:
 337              		.cfi_def_cfa_offset 8
 338              		.cfi_offset 14, -4
 339              		.cfi_offset 4, -8
 340              		.loc 1 166 0
 341 000c 5105     		lsls	r1, r2, #21
 342              		.loc 1 163 0
 343 000e 02F47C44 		and	r4, r2, #64512
 344              	.LVL1:
 345              		.loc 1 165 0
 346 0012 5C61     		str	r4, [r3, #20]
 347              		.loc 1 166 0
 348 0014 39D4     		bmi	.L24
 349              	.L18:
 350              		.loc 1 168 0
 351 0016 2205     		lsls	r2, r4, #20
 352 0018 2ED4     		bmi	.L25
 353              	.L19:
 354              		.loc 1 170 0
 355 001a E304     		lsls	r3, r4, #19
 356 001c 23D4     		bmi	.L26
 357              	.L20:
 358              		.loc 1 172 0
 359 001e A004     		lsls	r0, r4, #18
 360 0020 18D4     		bmi	.L27
 361              	.L21:
 362              		.loc 1 174 0
 363 0022 6104     		lsls	r1, r4, #17
 364 0024 0DD4     		bmi	.L28
 365              	.L22:
 366              		.loc 1 176 0
 367 0026 2204     		lsls	r2, r4, #16
 368 0028 07D5     		bpl	.L23
 369              		.loc 1 177 0
 370 002a 40F20000 		movw	r0, #:lower16:EXTD1
 371 002e C0F20000 		movt	r0, #:upper16:EXTD1
 372 0032 4268     		ldr	r2, [r0, #4]
 373 0034 0F21     		movs	r1, #15
 374 0036 D36F     		ldr	r3, [r2, #124]
 375 0038 9847     		blx	r3
 376              	.L23:
 377              		.loc 1 180 0
 378 003a BDE81040 		pop	{r4, lr}
 379              		.loc 1 179 0
 380 003e FFF7FEBF 		b	_port_irq_epilogue
 381              	.L28:
 382              		.loc 1 175 0
 383 0042 40F20000 		movw	r0, #:lower16:EXTD1
 384 0046 C0F20000 		movt	r0, #:upper16:EXTD1
 385 004a 4168     		ldr	r1, [r0, #4]
 386 004c 4A6F     		ldr	r2, [r1, #116]
 387 004e 0E21     		movs	r1, #14
 388 0050 9047     		blx	r2
 389 0052 E8E7     		b	.L22
 390              	.L27:
 391              		.loc 1 173 0
 392 0054 40F20000 		movw	r0, #:lower16:EXTD1
ARM GAS  /tmp/ccHAxsob.s 			page 8


 393 0058 C0F20000 		movt	r0, #:upper16:EXTD1
 394 005c 4368     		ldr	r3, [r0, #4]
 395 005e 0D21     		movs	r1, #13
 396 0060 DA6E     		ldr	r2, [r3, #108]
 397 0062 9047     		blx	r2
 398 0064 DDE7     		b	.L21
 399              	.L26:
 400              		.loc 1 171 0
 401 0066 40F20000 		movw	r0, #:lower16:EXTD1
 402 006a C0F20000 		movt	r0, #:upper16:EXTD1
 403 006e 4168     		ldr	r1, [r0, #4]
 404 0070 4B6E     		ldr	r3, [r1, #100]
 405 0072 0C21     		movs	r1, #12
 406 0074 9847     		blx	r3
 407 0076 D2E7     		b	.L20
 408              	.L25:
 409              		.loc 1 169 0
 410 0078 40F20000 		movw	r0, #:lower16:EXTD1
 411 007c C0F20000 		movt	r0, #:upper16:EXTD1
 412 0080 4268     		ldr	r2, [r0, #4]
 413 0082 0B21     		movs	r1, #11
 414 0084 D36D     		ldr	r3, [r2, #92]
 415 0086 9847     		blx	r3
 416 0088 C7E7     		b	.L19
 417              	.L24:
 418              		.loc 1 167 0
 419 008a 40F20000 		movw	r0, #:lower16:EXTD1
 420 008e C0F20000 		movt	r0, #:upper16:EXTD1
 421 0092 4168     		ldr	r1, [r0, #4]
 422 0094 4A6D     		ldr	r2, [r1, #84]
 423 0096 0A21     		movs	r1, #10
 424 0098 9047     		blx	r2
 425 009a BCE7     		b	.L18
 426              		.cfi_endproc
 427              	.LFE69:
 428              		.size	VectorE0, .-VectorE0
 429 009c AFF30080 		.section	.text.Vector44,"ax",%progbits
 430              		.align	2
 431              		.p2align 4,,15
 432              		.global	Vector44
 433              		.thumb
 434              		.thumb_func
 435              		.type	Vector44, %function
 436              	Vector44:
 437              	.LFB70:
 438              		.loc 1 187 0
 439              		.cfi_startproc
 440              		@ args = 0, pretend = 0, frame = 0
 441              		@ frame_needed = 0, uses_anonymous_args = 0
 442              		.loc 1 192 0
 443 0000 40F20000 		movw	r0, #:lower16:EXTD1
 444 0004 C0F20000 		movt	r0, #:upper16:EXTD1
 445 0008 4268     		ldr	r2, [r0, #4]
 446              		.loc 1 191 0
 447 000a 4FF4806C 		mov	ip, #1024
 448 000e C4F2010C 		movt	ip, 16385
 449 0012 4FF48031 		mov	r1, #65536
ARM GAS  /tmp/ccHAxsob.s 			page 9


 450              		.loc 1 187 0
 451 0016 08B5     		push	{r3, lr}
 452              	.LCFI7:
 453              		.cfi_def_cfa_offset 8
 454              		.cfi_offset 14, -4
 455              		.cfi_offset 3, -8
 456              		.loc 1 191 0
 457 0018 CCF81410 		str	r1, [ip, #20]
 458              		.loc 1 192 0
 459 001c D2F88430 		ldr	r3, [r2, #132]
 460 0020 1021     		movs	r1, #16
 461 0022 9847     		blx	r3
 462              		.loc 1 195 0
 463 0024 BDE80840 		pop	{r3, lr}
 464              		.loc 1 194 0
 465 0028 FFF7FEBF 		b	_port_irq_epilogue
 466              		.cfi_endproc
 467              	.LFE70:
 468              		.size	Vector44, .-Vector44
 469 002c AFF30080 		.section	.text.VectorE4,"ax",%progbits
 470              		.align	2
 471              		.p2align 4,,15
 472              		.global	VectorE4
 473              		.thumb
 474              		.thumb_func
 475              		.type	VectorE4, %function
 476              	VectorE4:
 477              	.LFB71:
 478              		.loc 1 202 0
 479              		.cfi_startproc
 480              		@ args = 0, pretend = 0, frame = 0
 481              		@ frame_needed = 0, uses_anonymous_args = 0
 482              		.loc 1 207 0
 483 0000 40F20000 		movw	r0, #:lower16:EXTD1
 484 0004 C0F20000 		movt	r0, #:upper16:EXTD1
 485 0008 4268     		ldr	r2, [r0, #4]
 486              		.loc 1 206 0
 487 000a 4FF4806C 		mov	ip, #1024
 488 000e C4F2010C 		movt	ip, 16385
 489 0012 4FF40031 		mov	r1, #131072
 490              		.loc 1 202 0
 491 0016 08B5     		push	{r3, lr}
 492              	.LCFI8:
 493              		.cfi_def_cfa_offset 8
 494              		.cfi_offset 14, -4
 495              		.cfi_offset 3, -8
 496              		.loc 1 206 0
 497 0018 CCF81410 		str	r1, [ip, #20]
 498              		.loc 1 207 0
 499 001c D2F88C30 		ldr	r3, [r2, #140]
 500 0020 1121     		movs	r1, #17
 501 0022 9847     		blx	r3
 502              		.loc 1 210 0
 503 0024 BDE80840 		pop	{r3, lr}
 504              		.loc 1 209 0
 505 0028 FFF7FEBF 		b	_port_irq_epilogue
 506              		.cfi_endproc
ARM GAS  /tmp/ccHAxsob.s 			page 10


 507              	.LFE71:
 508              		.size	VectorE4, .-VectorE4
 509 002c AFF30080 		.section	.text.VectorE8,"ax",%progbits
 510              		.align	2
 511              		.p2align 4,,15
 512              		.global	VectorE8
 513              		.thumb
 514              		.thumb_func
 515              		.type	VectorE8, %function
 516              	VectorE8:
 517              	.LFB72:
 518              		.loc 1 251 0
 519              		.cfi_startproc
 520              		@ args = 0, pretend = 0, frame = 0
 521              		@ frame_needed = 0, uses_anonymous_args = 0
 522              		.loc 1 256 0
 523 0000 40F20000 		movw	r0, #:lower16:EXTD1
 524 0004 C0F20000 		movt	r0, #:upper16:EXTD1
 525 0008 4268     		ldr	r2, [r0, #4]
 526              		.loc 1 255 0
 527 000a 4FF4806C 		mov	ip, #1024
 528 000e C4F2010C 		movt	ip, 16385
 529 0012 4FF48021 		mov	r1, #262144
 530              		.loc 1 251 0
 531 0016 08B5     		push	{r3, lr}
 532              	.LCFI9:
 533              		.cfi_def_cfa_offset 8
 534              		.cfi_offset 14, -4
 535              		.cfi_offset 3, -8
 536              		.loc 1 255 0
 537 0018 CCF81410 		str	r1, [ip, #20]
 538              		.loc 1 256 0
 539 001c D2F89430 		ldr	r3, [r2, #148]
 540 0020 1221     		movs	r1, #18
 541 0022 9847     		blx	r3
 542              		.loc 1 259 0
 543 0024 BDE80840 		pop	{r3, lr}
 544              		.loc 1 258 0
 545 0028 FFF7FEBF 		b	_port_irq_epilogue
 546              		.cfi_endproc
 547              	.LFE72:
 548              		.size	VectorE8, .-VectorE8
 549 002c AFF30080 		.section	.text.ext_lld_exti_irq_enable,"ax",%progbits
 550              		.align	2
 551              		.p2align 4,,15
 552              		.global	ext_lld_exti_irq_enable
 553              		.thumb
 554              		.thumb_func
 555              		.type	ext_lld_exti_irq_enable, %function
 556              	ext_lld_exti_irq_enable:
 557              	.LFB73:
 558              		.loc 1 271 0
 559              		.cfi_startproc
 560              		@ args = 0, pretend = 0, frame = 0
 561              		@ frame_needed = 0, uses_anonymous_args = 0
 562 0000 08B5     		push	{r3, lr}
 563              	.LCFI10:
ARM GAS  /tmp/ccHAxsob.s 			page 11


 564              		.cfi_def_cfa_offset 8
 565              		.cfi_offset 14, -4
 566              		.cfi_offset 3, -8
 567              		.loc 1 273 0
 568 0002 0620     		movs	r0, #6
 569 0004 6021     		movs	r1, #96
 570 0006 FFF7FEFF 		bl	nvicEnableVector
 571              		.loc 1 275 0
 572 000a 0720     		movs	r0, #7
 573 000c 6021     		movs	r1, #96
 574 000e FFF7FEFF 		bl	nvicEnableVector
 575              		.loc 1 277 0
 576 0012 0820     		movs	r0, #8
 577 0014 6021     		movs	r1, #96
 578 0016 FFF7FEFF 		bl	nvicEnableVector
 579              		.loc 1 279 0
 580 001a 0920     		movs	r0, #9
 581 001c 6021     		movs	r1, #96
 582 001e FFF7FEFF 		bl	nvicEnableVector
 583              		.loc 1 281 0
 584 0022 0A20     		movs	r0, #10
 585 0024 6021     		movs	r1, #96
 586 0026 FFF7FEFF 		bl	nvicEnableVector
 587              		.loc 1 283 0
 588 002a 1720     		movs	r0, #23
 589 002c 6021     		movs	r1, #96
 590 002e FFF7FEFF 		bl	nvicEnableVector
 591              		.loc 1 285 0
 592 0032 2820     		movs	r0, #40
 593 0034 6021     		movs	r1, #96
 594 0036 FFF7FEFF 		bl	nvicEnableVector
 595              		.loc 1 287 0
 596 003a 0120     		movs	r0, #1
 597 003c 6021     		movs	r1, #96
 598 003e FFF7FEFF 		bl	nvicEnableVector
 599              		.loc 1 289 0
 600 0042 2920     		movs	r0, #41
 601 0044 6021     		movs	r1, #96
 602 0046 FFF7FEFF 		bl	nvicEnableVector
 603              		.loc 1 302 0
 604 004a 2A20     		movs	r0, #42
 605 004c 6021     		movs	r1, #96
 606              		.loc 1 305 0
 607 004e BDE80840 		pop	{r3, lr}
 608              		.loc 1 302 0
 609 0052 FFF7FEBF 		b	nvicEnableVector
 610              		.cfi_endproc
 611              	.LFE73:
 612              		.size	ext_lld_exti_irq_enable, .-ext_lld_exti_irq_enable
 613 0056 00BFAFF3 		.section	.text.ext_lld_exti_irq_disable,"ax",%progbits
 613      0080AFF3 
 613      0080
 614              		.align	2
 615              		.p2align 4,,15
 616              		.global	ext_lld_exti_irq_disable
 617              		.thumb
 618              		.thumb_func
ARM GAS  /tmp/ccHAxsob.s 			page 12


 619              		.type	ext_lld_exti_irq_disable, %function
 620              	ext_lld_exti_irq_disable:
 621              	.LFB74:
 622              		.loc 1 312 0
 623              		.cfi_startproc
 624              		@ args = 0, pretend = 0, frame = 0
 625              		@ frame_needed = 0, uses_anonymous_args = 0
 626 0000 08B5     		push	{r3, lr}
 627              	.LCFI11:
 628              		.cfi_def_cfa_offset 8
 629              		.cfi_offset 14, -4
 630              		.cfi_offset 3, -8
 631              		.loc 1 314 0
 632 0002 0620     		movs	r0, #6
 633 0004 FFF7FEFF 		bl	nvicDisableVector
 634              		.loc 1 315 0
 635 0008 0720     		movs	r0, #7
 636 000a FFF7FEFF 		bl	nvicDisableVector
 637              		.loc 1 316 0
 638 000e 0820     		movs	r0, #8
 639 0010 FFF7FEFF 		bl	nvicDisableVector
 640              		.loc 1 317 0
 641 0014 0920     		movs	r0, #9
 642 0016 FFF7FEFF 		bl	nvicDisableVector
 643              		.loc 1 318 0
 644 001a 0A20     		movs	r0, #10
 645 001c FFF7FEFF 		bl	nvicDisableVector
 646              		.loc 1 319 0
 647 0020 1720     		movs	r0, #23
 648 0022 FFF7FEFF 		bl	nvicDisableVector
 649              		.loc 1 320 0
 650 0026 2820     		movs	r0, #40
 651 0028 FFF7FEFF 		bl	nvicDisableVector
 652              		.loc 1 321 0
 653 002c 0120     		movs	r0, #1
 654 002e FFF7FEFF 		bl	nvicDisableVector
 655              		.loc 1 322 0
 656 0032 2920     		movs	r0, #41
 657 0034 FFF7FEFF 		bl	nvicDisableVector
 658              		.loc 1 332 0
 659 0038 2A20     		movs	r0, #42
 660              		.loc 1 334 0
 661 003a BDE80840 		pop	{r3, lr}
 662              		.loc 1 332 0
 663 003e FFF7FEBF 		b	nvicDisableVector
 664              		.cfi_endproc
 665              	.LFE74:
 666              		.size	ext_lld_exti_irq_disable, .-ext_lld_exti_irq_disable
 667 0042 00BFAFF3 		.text
 667      0080AFF3 
 667      0080AFF3 
 667      0080
 668              	.Letext0:
 669              		.file 2 "/opt/pros/toolchain/bin/../lib/gcc/arm-none-eabi/4.6.3/../../../../arm-none-eabi/include/
 670              		.file 3 "../ChibiOS_2.6.2/os/hal/platforms/STM32F1xx/stm32f10x.h"
 671              		.file 4 "../ChibiOS_2.6.2/os/hal/include/ext.h"
 672              		.file 5 "../ChibiOS_2.6.2/os/hal/platforms/STM32/ext_lld.h"
ARM GAS  /tmp/ccHAxsob.s 			page 13


 673              		.file 6 "../ChibiOS_2.6.2/os/ports/common/ARMCMx/CMSIS/include/core_cm3.h"