ARM GAS  /tmp/ccD4ShWh.s 			page 1


   1              		.syntax unified
   2              		.cpu cortex-m3
   3              		.fpu softvfp
   4              		.eabi_attribute 20, 1
   5              		.eabi_attribute 21, 1
   6              		.eabi_attribute 23, 3
   7              		.eabi_attribute 24, 1
   8              		.eabi_attribute 25, 1
   9              		.eabi_attribute 26, 1
  10              		.eabi_attribute 30, 2
  11              		.eabi_attribute 34, 1
  12              		.eabi_attribute 18, 4
  13              		.thumb
  14              		.file	"gpt.c"
  15              		.text
  16              	.Ltext0:
  17              		.cfi_sections	.debug_frame
  18              		.section	.text.gptInit,"ax",%progbits
  19              		.align	2
  20              		.p2align 4,,15
  21              		.global	gptInit
  22              		.thumb
  23              		.thumb_func
  24              		.type	gptInit, %function
  25              	gptInit:
  26              	.LFB63:
  27              		.file 1 "../ChibiOS_2.6.2/os/hal/src/gpt.c"
  28              		.loc 1 68 0
  29              		.cfi_startproc
  30              		@ args = 0, pretend = 0, frame = 0
  31              		@ frame_needed = 0, uses_anonymous_args = 0
  32              		@ link register save eliminated.
  33              		.loc 1 71 0
  34              		.loc 1 70 0
  35 0000 FFF7FEBF 		b	gpt_lld_init
  36              		.cfi_endproc
  37              	.LFE63:
  38              		.size	gptInit, .-gptInit
  39 0004 AFF30080 		.section	.text.gptObjectInit,"ax",%progbits
  39      AFF30080 
  39      AFF30080 
  40              		.align	2
  41              		.p2align 4,,15
  42              		.global	gptObjectInit
  43              		.thumb
  44              		.thumb_func
  45              		.type	gptObjectInit, %function
  46              	gptObjectInit:
  47              	.LFB64:
  48              		.loc 1 80 0
  49              		.cfi_startproc
  50              		@ args = 0, pretend = 0, frame = 0
  51              		@ frame_needed = 0, uses_anonymous_args = 0
  52              		@ link register save eliminated.
  53              	.LVL0:
  54              		.loc 1 82 0
  55 0000 0121     		movs	r1, #1
ARM GAS  /tmp/ccD4ShWh.s 			page 2


  56              		.loc 1 83 0
  57 0002 0023     		movs	r3, #0
  58              		.loc 1 82 0
  59 0004 0170     		strb	r1, [r0, #0]
  60              		.loc 1 83 0
  61 0006 4360     		str	r3, [r0, #4]
  62              		.loc 1 84 0
  63 0008 7047     		bx	lr
  64              		.cfi_endproc
  65              	.LFE64:
  66              		.size	gptObjectInit, .-gptObjectInit
  67 000a 00BFAFF3 		.section	.text.gptStart,"ax",%progbits
  67      0080
  68              		.align	2
  69              		.p2align 4,,15
  70              		.global	gptStart
  71              		.thumb
  72              		.thumb_func
  73              		.type	gptStart, %function
  74              	gptStart:
  75              	.LFB65:
  76              		.loc 1 94 0
  77              		.cfi_startproc
  78              		@ args = 0, pretend = 0, frame = 0
  79              		@ frame_needed = 0, uses_anonymous_args = 0
  80              	.LVL1:
  81 0000 10B5     		push	{r4, lr}
  82              	.LCFI0:
  83              		.cfi_def_cfa_offset 8
  84              		.cfi_offset 14, -4
  85              		.cfi_offset 4, -8
  86              	.LBB14:
  87              		.loc 1 98 0
  88 0002 2023     		movs	r3, #32
  89              	.LVL2:
  90              	.LBE14:
  91              		.loc 1 94 0
  92 0004 0446     		mov	r4, r0
  93              	.LBB15:
  94              		.loc 1 98 0
  95              	@ 98 "../ChibiOS_2.6.2/os/hal/src/gpt.c" 1
  96 0006 83F31188 		msr     BASEPRI, r3
  97              	@ 0 "" 2
  98              	.LVL3:
  99              		.thumb
 100              	.LBE15:
 101              		.loc 1 101 0
 102 000a 4160     		str	r1, [r0, #4]
 103              		.loc 1 102 0
 104 000c FFF7FEFF 		bl	gpt_lld_start
 105              	.LVL4:
 106              		.loc 1 103 0
 107 0010 0223     		movs	r3, #2
 108 0012 2370     		strb	r3, [r4, #0]
 109              	.LBB16:
 110              		.loc 1 104 0
 111 0014 0023     		movs	r3, #0
ARM GAS  /tmp/ccD4ShWh.s 			page 3


 112              	.LVL5:
 113              	@ 104 "../ChibiOS_2.6.2/os/hal/src/gpt.c" 1
 114 0016 83F31188 		msr     BASEPRI, r3
 115              	@ 0 "" 2
 116              	.LVL6:
 117              		.thumb
 118              	.LBE16:
 119              		.loc 1 105 0
 120 001a 10BD     		pop	{r4, pc}
 121              		.cfi_endproc
 122              	.LFE65:
 123              		.size	gptStart, .-gptStart
 124 001c AFF30080 		.section	.text.gptStop,"ax",%progbits
 125              		.align	2
 126              		.p2align 4,,15
 127              		.global	gptStop
 128              		.thumb
 129              		.thumb_func
 130              		.type	gptStop, %function
 131              	gptStop:
 132              	.LFB66:
 133              		.loc 1 114 0
 134              		.cfi_startproc
 135              		@ args = 0, pretend = 0, frame = 0
 136              		@ frame_needed = 0, uses_anonymous_args = 0
 137              	.LVL7:
 138 0000 10B5     		push	{r4, lr}
 139              	.LCFI1:
 140              		.cfi_def_cfa_offset 8
 141              		.cfi_offset 14, -4
 142              		.cfi_offset 4, -8
 143              	.LBB17:
 144              		.loc 1 118 0
 145 0002 2023     		movs	r3, #32
 146              	.LVL8:
 147              	.LBE17:
 148              		.loc 1 114 0
 149 0004 0446     		mov	r4, r0
 150              	.LBB18:
 151              		.loc 1 118 0
 152              	@ 118 "../ChibiOS_2.6.2/os/hal/src/gpt.c" 1
 153 0006 83F31188 		msr     BASEPRI, r3
 154              	@ 0 "" 2
 155              	.LVL9:
 156              		.thumb
 157              	.LBE18:
 158              		.loc 1 121 0
 159 000a FFF7FEFF 		bl	gpt_lld_stop
 160              	.LVL10:
 161              		.loc 1 122 0
 162 000e 0123     		movs	r3, #1
 163 0010 2370     		strb	r3, [r4, #0]
 164              	.LBB19:
 165              		.loc 1 123 0
 166 0012 0023     		movs	r3, #0
 167              	.LVL11:
 168              	@ 123 "../ChibiOS_2.6.2/os/hal/src/gpt.c" 1
ARM GAS  /tmp/ccD4ShWh.s 			page 4


 169 0014 83F31188 		msr     BASEPRI, r3
 170              	@ 0 "" 2
 171              	.LVL12:
 172              		.thumb
 173              	.LBE19:
 174              		.loc 1 124 0
 175 0018 10BD     		pop	{r4, pc}
 176              		.cfi_endproc
 177              	.LFE66:
 178              		.size	gptStop, .-gptStop
 179 001a 00BFAFF3 		.section	.text.gptChangeInterval,"ax",%progbits
 179      0080
 180              		.align	2
 181              		.p2align 4,,15
 182              		.global	gptChangeInterval
 183              		.thumb
 184              		.thumb_func
 185              		.type	gptChangeInterval, %function
 186              	gptChangeInterval:
 187              	.LFB67:
 188              		.loc 1 139 0
 189              		.cfi_startproc
 190              		@ args = 0, pretend = 0, frame = 0
 191              		@ frame_needed = 0, uses_anonymous_args = 0
 192              		@ link register save eliminated.
 193              	.LVL13:
 194              	.LBB20:
 195              		.loc 1 143 0
 196 0000 2023     		movs	r3, #32
 197              	.LVL14:
 198              	@ 143 "../ChibiOS_2.6.2/os/hal/src/gpt.c" 1
 199 0002 83F31188 		msr     BASEPRI, r3
 200              	@ 0 "" 2
 201              	.LVL15:
 202              		.thumb
 203              	.LBE20:
 204              		.loc 1 146 0
 205 0006 C368     		ldr	r3, [r0, #12]
 206              	.LVL16:
 207 0008 0139     		subs	r1, r1, #1
 208              	.LVL17:
 209 000a D962     		str	r1, [r3, #44]
 210              	.LBB21:
 211              		.loc 1 147 0
 212 000c 0023     		movs	r3, #0
 213              	.LVL18:
 214              	@ 147 "../ChibiOS_2.6.2/os/hal/src/gpt.c" 1
 215 000e 83F31188 		msr     BASEPRI, r3
 216              	@ 0 "" 2
 217              	.LVL19:
 218              		.thumb
 219              	.LBE21:
 220              		.loc 1 148 0
 221 0012 7047     		bx	lr
 222              		.cfi_endproc
 223              	.LFE67:
 224              		.size	gptChangeInterval, .-gptChangeInterval
ARM GAS  /tmp/ccD4ShWh.s 			page 5


 225 0014 AFF30080 		.section	.text.gptStartContinuous,"ax",%progbits
 225      AFF30080 
 225      AFF30080 
 226              		.align	2
 227              		.p2align 4,,15
 228              		.global	gptStartContinuous
 229              		.thumb
 230              		.thumb_func
 231              		.type	gptStartContinuous, %function
 232              	gptStartContinuous:
 233              	.LFB68:
 234              		.loc 1 158 0
 235              		.cfi_startproc
 236              		@ args = 0, pretend = 0, frame = 0
 237              		@ frame_needed = 0, uses_anonymous_args = 0
 238              	.LVL20:
 239 0000 08B5     		push	{r3, lr}
 240              	.LCFI2:
 241              		.cfi_def_cfa_offset 8
 242              		.cfi_offset 14, -4
 243              		.cfi_offset 3, -8
 244              	.LBB22:
 245              		.loc 1 160 0
 246 0002 2023     		movs	r3, #32
 247              	.LVL21:
 248              	@ 160 "../ChibiOS_2.6.2/os/hal/src/gpt.c" 1
 249 0004 83F31188 		msr     BASEPRI, r3
 250              	@ 0 "" 2
 251              	.LVL22:
 252              		.thumb
 253              	.LBE22:
 254              	.LBB23:
 255              	.LBB24:
 256              		.loc 1 180 0
 257 0008 0323     		movs	r3, #3
 258              	.LVL23:
 259 000a 0370     		strb	r3, [r0, #0]
 260              		.loc 1 181 0
 261 000c FFF7FEFF 		bl	gpt_lld_start_timer
 262              	.LVL24:
 263              	.LBE24:
 264              	.LBE23:
 265              	.LBB25:
 266              		.loc 1 162 0
 267 0010 0023     		movs	r3, #0
 268              	.LVL25:
 269              	@ 162 "../ChibiOS_2.6.2/os/hal/src/gpt.c" 1
 270 0012 83F31188 		msr     BASEPRI, r3
 271              	@ 0 "" 2
 272              	.LVL26:
 273              		.thumb
 274              	.LBE25:
 275              		.loc 1 163 0
 276 0016 08BD     		pop	{r3, pc}
 277              		.cfi_endproc
 278              	.LFE68:
 279              		.size	gptStartContinuous, .-gptStartContinuous
ARM GAS  /tmp/ccD4ShWh.s 			page 6


 280 0018 AFF30080 		.section	.text.gptStartContinuousI,"ax",%progbits
 280      AFF30080 
 281              		.align	2
 282              		.p2align 4,,15
 283              		.global	gptStartContinuousI
 284              		.thumb
 285              		.thumb_func
 286              		.type	gptStartContinuousI, %function
 287              	gptStartContinuousI:
 288              	.LFB69:
 289              		.loc 1 173 0
 290              		.cfi_startproc
 291              		@ args = 0, pretend = 0, frame = 0
 292              		@ frame_needed = 0, uses_anonymous_args = 0
 293              		@ link register save eliminated.
 294              	.LVL27:
 295              		.loc 1 180 0
 296 0000 0323     		movs	r3, #3
 297 0002 0370     		strb	r3, [r0, #0]
 298              		.loc 1 182 0
 299              		.loc 1 181 0
 300 0004 FFF7FEBF 		b	gpt_lld_start_timer
 301              	.LVL28:
 302              	.LVL29:
 303              		.cfi_endproc
 304              	.LFE69:
 305              		.size	gptStartContinuousI, .-gptStartContinuousI
 306 0008 AFF30080 		.section	.text.gptStartOneShot,"ax",%progbits
 306      AFF30080 
 307              		.align	2
 308              		.p2align 4,,15
 309              		.global	gptStartOneShot
 310              		.thumb
 311              		.thumb_func
 312              		.type	gptStartOneShot, %function
 313              	gptStartOneShot:
 314              	.LFB70:
 315              		.loc 1 192 0
 316              		.cfi_startproc
 317              		@ args = 0, pretend = 0, frame = 0
 318              		@ frame_needed = 0, uses_anonymous_args = 0
 319              	.LVL30:
 320 0000 08B5     		push	{r3, lr}
 321              	.LCFI3:
 322              		.cfi_def_cfa_offset 8
 323              		.cfi_offset 14, -4
 324              		.cfi_offset 3, -8
 325              	.LBB26:
 326              		.loc 1 194 0
 327 0002 2023     		movs	r3, #32
 328              	.LVL31:
 329              	@ 194 "../ChibiOS_2.6.2/os/hal/src/gpt.c" 1
 330 0004 83F31188 		msr     BASEPRI, r3
 331              	@ 0 "" 2
 332              	.LVL32:
 333              		.thumb
 334              	.LBE26:
ARM GAS  /tmp/ccD4ShWh.s 			page 7


 335              	.LBB27:
 336              	.LBB28:
 337              		.loc 1 214 0
 338 0008 0423     		movs	r3, #4
 339              	.LVL33:
 340 000a 0370     		strb	r3, [r0, #0]
 341              		.loc 1 215 0
 342 000c FFF7FEFF 		bl	gpt_lld_start_timer
 343              	.LVL34:
 344              	.LBE28:
 345              	.LBE27:
 346              	.LBB29:
 347              		.loc 1 196 0
 348 0010 0023     		movs	r3, #0
 349              	.LVL35:
 350              	@ 196 "../ChibiOS_2.6.2/os/hal/src/gpt.c" 1
 351 0012 83F31188 		msr     BASEPRI, r3
 352              	@ 0 "" 2
 353              	.LVL36:
 354              		.thumb
 355              	.LBE29:
 356              		.loc 1 197 0
 357 0016 08BD     		pop	{r3, pc}
 358              		.cfi_endproc
 359              	.LFE70:
 360              		.size	gptStartOneShot, .-gptStartOneShot
 361 0018 AFF30080 		.section	.text.gptStartOneShotI,"ax",%progbits
 361      AFF30080 
 362              		.align	2
 363              		.p2align 4,,15
 364              		.global	gptStartOneShotI
 365              		.thumb
 366              		.thumb_func
 367              		.type	gptStartOneShotI, %function
 368              	gptStartOneShotI:
 369              	.LFB71:
 370              		.loc 1 207 0
 371              		.cfi_startproc
 372              		@ args = 0, pretend = 0, frame = 0
 373              		@ frame_needed = 0, uses_anonymous_args = 0
 374              		@ link register save eliminated.
 375              	.LVL37:
 376              		.loc 1 214 0
 377 0000 0423     		movs	r3, #4
 378 0002 0370     		strb	r3, [r0, #0]
 379              		.loc 1 216 0
 380              		.loc 1 215 0
 381 0004 FFF7FEBF 		b	gpt_lld_start_timer
 382              	.LVL38:
 383              	.LVL39:
 384              		.cfi_endproc
 385              	.LFE71:
 386              		.size	gptStartOneShotI, .-gptStartOneShotI
 387 0008 AFF30080 		.section	.text.gptStopTimer,"ax",%progbits
 387      AFF30080 
 388              		.align	2
 389              		.p2align 4,,15
ARM GAS  /tmp/ccD4ShWh.s 			page 8


 390              		.global	gptStopTimer
 391              		.thumb
 392              		.thumb_func
 393              		.type	gptStopTimer, %function
 394              	gptStopTimer:
 395              	.LFB72:
 396              		.loc 1 225 0
 397              		.cfi_startproc
 398              		@ args = 0, pretend = 0, frame = 0
 399              		@ frame_needed = 0, uses_anonymous_args = 0
 400              	.LVL40:
 401 0000 08B5     		push	{r3, lr}
 402              	.LCFI4:
 403              		.cfi_def_cfa_offset 8
 404              		.cfi_offset 14, -4
 405              		.cfi_offset 3, -8
 406              	.LBB30:
 407              		.loc 1 227 0
 408 0002 2023     		movs	r3, #32
 409              	.LVL41:
 410              	@ 227 "../ChibiOS_2.6.2/os/hal/src/gpt.c" 1
 411 0004 83F31188 		msr     BASEPRI, r3
 412              	@ 0 "" 2
 413              	.LVL42:
 414              		.thumb
 415              	.LBE30:
 416              	.LBB31:
 417              	.LBB32:
 418              		.loc 1 247 0
 419 0008 0223     		movs	r3, #2
 420              	.LVL43:
 421 000a 0370     		strb	r3, [r0, #0]
 422              		.loc 1 248 0
 423 000c FFF7FEFF 		bl	gpt_lld_stop_timer
 424              	.LVL44:
 425              	.LBE32:
 426              	.LBE31:
 427              	.LBB33:
 428              		.loc 1 229 0
 429 0010 0023     		movs	r3, #0
 430              	.LVL45:
 431              	@ 229 "../ChibiOS_2.6.2/os/hal/src/gpt.c" 1
 432 0012 83F31188 		msr     BASEPRI, r3
 433              	@ 0 "" 2
 434              	.LVL46:
 435              		.thumb
 436              	.LBE33:
 437              		.loc 1 230 0
 438 0016 08BD     		pop	{r3, pc}
 439              		.cfi_endproc
 440              	.LFE72:
 441              		.size	gptStopTimer, .-gptStopTimer
 442 0018 AFF30080 		.section	.text.gptStopTimerI,"ax",%progbits
 442      AFF30080 
 443              		.align	2
 444              		.p2align 4,,15
 445              		.global	gptStopTimerI
ARM GAS  /tmp/ccD4ShWh.s 			page 9


 446              		.thumb
 447              		.thumb_func
 448              		.type	gptStopTimerI, %function
 449              	gptStopTimerI:
 450              	.LFB73:
 451              		.loc 1 239 0
 452              		.cfi_startproc
 453              		@ args = 0, pretend = 0, frame = 0
 454              		@ frame_needed = 0, uses_anonymous_args = 0
 455              		@ link register save eliminated.
 456              	.LVL47:
 457              		.loc 1 247 0
 458 0000 0223     		movs	r3, #2
 459 0002 0370     		strb	r3, [r0, #0]
 460              		.loc 1 249 0
 461              		.loc 1 248 0
 462 0004 FFF7FEBF 		b	gpt_lld_stop_timer
 463              	.LVL48:
 464              		.cfi_endproc
 465              	.LFE73:
 466              		.size	gptStopTimerI, .-gptStopTimerI
 467 0008 AFF30080 		.section	.text.gptPolledDelay,"ax",%progbits
 467      AFF30080 
 468              		.align	2
 469              		.p2align 4,,15
 470              		.global	gptPolledDelay
 471              		.thumb
 472              		.thumb_func
 473              		.type	gptPolledDelay, %function
 474              	gptPolledDelay:
 475              	.LFB74:
 476              		.loc 1 263 0
 477              		.cfi_startproc
 478              		@ args = 0, pretend = 0, frame = 0
 479              		@ frame_needed = 0, uses_anonymous_args = 0
 480              	.LVL49:
 481              		.loc 1 268 0
 482 0000 0422     		movs	r2, #4
 483              		.loc 1 263 0
 484 0002 10B5     		push	{r4, lr}
 485              	.LCFI5:
 486              		.cfi_def_cfa_offset 8
 487              		.cfi_offset 14, -4
 488              		.cfi_offset 4, -8
 489              		.loc 1 268 0
 490 0004 0270     		strb	r2, [r0, #0]
 491              		.loc 1 263 0
 492 0006 0446     		mov	r4, r0
 493              		.loc 1 269 0
 494 0008 FFF7FEFF 		bl	gpt_lld_polled_delay
 495              	.LVL50:
 496              		.loc 1 270 0
 497 000c 0223     		movs	r3, #2
 498 000e 2370     		strb	r3, [r4, #0]
 499              		.loc 1 271 0
 500 0010 10BD     		pop	{r4, pc}
 501              		.cfi_endproc
ARM GAS  /tmp/ccD4ShWh.s 			page 10


 502              	.LFE74:
 503              		.size	gptPolledDelay, .-gptPolledDelay
 504 0012 00BFAFF3 		.text
 504      0080AFF3 
 504      0080AFF3 
 504      0080
 505              	.Letext0:
 506              		.file 2 "/opt/pros/toolchain/bin/../lib/gcc/arm-none-eabi/4.6.3/../../../../arm-none-eabi/include/
 507              		.file 3 "../ChibiOS_2.6.2/os/hal/include/gpt.h"
 508              		.file 4 "../ChibiOS_2.6.2/os/hal/platforms/STM32/TIMv1/gpt_lld.h"
 509              		.file 5 "../ChibiOS_2.6.2/os/hal/platforms/STM32/TIMv1/stm32_tim.h"
 510              		.file 6 "../ChibiOS_2.6.2/os/ports/common/ARMCMx/CMSIS/include/core_cm3.h"