ARM GAS  /tmp/ccW6GnW5.s 			page 1


   1              		.syntax unified
   2              		.cpu cortex-m3
   3              		.fpu softvfp
   4              		.eabi_attribute 20, 1
   5              		.eabi_attribute 21, 1
   6              		.eabi_attribute 23, 3
   7              		.eabi_attribute 24, 1
   8              		.eabi_attribute 25, 1
   9              		.eabi_attribute 26, 1
  10              		.eabi_attribute 30, 2
  11              		.eabi_attribute 34, 1
  12              		.eabi_attribute 18, 4
  13              		.thumb
  14              		.file	"gpt_lld.c"
  15              		.text
  16              	.Ltext0:
  17              		.cfi_sections	.debug_frame
  18              		.section	.text.gpt_lld_serve_interrupt,"ax",%progbits
  19              		.align	2
  20              		.p2align 4,,15
  21              		.thumb
  22              		.thumb_func
  23              		.type	gpt_lld_serve_interrupt, %function
  24              	gpt_lld_serve_interrupt:
  25              	.LFB63:
  26              		.file 1 "../ChibiOS_2.6.2/os/hal/platforms/STM32/TIMv1/gpt_lld.c"
  27              		.loc 1 147 0
  28              		.cfi_startproc
  29              		@ args = 0, pretend = 0, frame = 0
  30              		@ frame_needed = 0, uses_anonymous_args = 0
  31              	.LVL0:
  32              		.loc 1 150 0
  33 0000 0178     		ldrb	r1, [r0, #0]	@ zero_extendqisi2
  34              		.loc 1 147 0
  35 0002 08B5     		push	{r3, lr}
  36              	.LCFI0:
  37              		.cfi_def_cfa_offset 8
  38              		.cfi_offset 14, -4
  39              		.cfi_offset 3, -8
  40              		.loc 1 149 0
  41 0004 C368     		ldr	r3, [r0, #12]
  42 0006 0022     		movs	r2, #0
  43              		.loc 1 150 0
  44 0008 0429     		cmp	r1, #4
  45              		.loc 1 149 0
  46 000a 1A61     		str	r2, [r3, #16]
  47              		.loc 1 150 0
  48 000c 07D1     		bne	.L2
  49              		.loc 1 151 0
  50 000e 0221     		movs	r1, #2
  51 0010 0170     		strb	r1, [r0, #0]
  52              	.LVL1:
  53              	.LBB4:
  54              	.LBB5:
  55              		.loc 1 745 0
  56 0012 1A60     		str	r2, [r3, #0]
  57              		.loc 1 746 0
ARM GAS  /tmp/ccW6GnW5.s 			page 2


  58 0014 1A61     		str	r2, [r3, #16]
  59              		.loc 1 749 0
  60 0016 D968     		ldr	r1, [r3, #12]
  61 0018 21F0FF02 		bic	r2, r1, #255
  62 001c DA60     		str	r2, [r3, #12]
  63              	.LVL2:
  64              	.L2:
  65              	.LBE5:
  66              	.LBE4:
  67              		.loc 1 154 0
  68 001e 4268     		ldr	r2, [r0, #4]
  69 0020 5368     		ldr	r3, [r2, #4]
  70 0022 9847     		blx	r3
  71              	.LVL3:
  72              		.loc 1 155 0
  73 0024 08BD     		pop	{r3, pc}
  74              		.cfi_endproc
  75              	.LFE63:
  76              		.size	gpt_lld_serve_interrupt, .-gpt_lld_serve_interrupt
  77 0026 00BFAFF3 		.section	.text.VectorA4,"ax",%progbits
  77      0080AFF3 
  77      0080
  78              		.align	2
  79              		.p2align 4,,15
  80              		.global	VectorA4
  81              		.thumb
  82              		.thumb_func
  83              		.type	VectorA4, %function
  84              	VectorA4:
  85              	.LFB64:
  86              		.loc 1 170 0
  87              		.cfi_startproc
  88              		@ args = 0, pretend = 0, frame = 0
  89              		@ frame_needed = 0, uses_anonymous_args = 0
  90              		.loc 1 174 0
  91 0000 40F20000 		movw	r0, #:lower16:.LANCHOR0
  92              		.loc 1 170 0
  93 0004 08B5     		push	{r3, lr}
  94              	.LCFI1:
  95              		.cfi_def_cfa_offset 8
  96              		.cfi_offset 14, -4
  97              		.cfi_offset 3, -8
  98              		.loc 1 174 0
  99 0006 C0F20000 		movt	r0, #:upper16:.LANCHOR0
 100 000a FFF7FEFF 		bl	gpt_lld_serve_interrupt
 101              		.loc 1 177 0
 102 000e BDE80840 		pop	{r3, lr}
 103              		.loc 1 176 0
 104 0012 FFF7FEBF 		b	_port_irq_epilogue
 105              		.cfi_endproc
 106              	.LFE64:
 107              		.size	VectorA4, .-VectorA4
 108 0016 00BFAFF3 		.section	.text.VectorB0,"ax",%progbits
 108      0080AFF3 
 108      0080
 109              		.align	2
 110              		.p2align 4,,15
ARM GAS  /tmp/ccW6GnW5.s 			page 3


 111              		.global	VectorB0
 112              		.thumb
 113              		.thumb_func
 114              		.type	VectorB0, %function
 115              	VectorB0:
 116              	.LFB65:
 117              		.loc 1 189 0
 118              		.cfi_startproc
 119              		@ args = 0, pretend = 0, frame = 0
 120              		@ frame_needed = 0, uses_anonymous_args = 0
 121              		.loc 1 193 0
 122 0000 40F20000 		movw	r0, #:lower16:.LANCHOR1
 123              		.loc 1 189 0
 124 0004 08B5     		push	{r3, lr}
 125              	.LCFI2:
 126              		.cfi_def_cfa_offset 8
 127              		.cfi_offset 14, -4
 128              		.cfi_offset 3, -8
 129              		.loc 1 193 0
 130 0006 C0F20000 		movt	r0, #:upper16:.LANCHOR1
 131 000a FFF7FEFF 		bl	gpt_lld_serve_interrupt
 132              		.loc 1 196 0
 133 000e BDE80840 		pop	{r3, lr}
 134              		.loc 1 195 0
 135 0012 FFF7FEBF 		b	_port_irq_epilogue
 136              		.cfi_endproc
 137              	.LFE65:
 138              		.size	VectorB0, .-VectorB0
 139 0016 00BFAFF3 		.section	.text.Vector108,"ax",%progbits
 139      0080AFF3 
 139      0080
 140              		.align	2
 141              		.p2align 4,,15
 142              		.global	Vector108
 143              		.thumb
 144              		.thumb_func
 145              		.type	Vector108, %function
 146              	Vector108:
 147              	.LFB66:
 148              		.loc 1 246 0
 149              		.cfi_startproc
 150              		@ args = 0, pretend = 0, frame = 0
 151              		@ frame_needed = 0, uses_anonymous_args = 0
 152              		.loc 1 250 0
 153 0000 40F20000 		movw	r0, #:lower16:.LANCHOR2
 154              		.loc 1 246 0
 155 0004 08B5     		push	{r3, lr}
 156              	.LCFI3:
 157              		.cfi_def_cfa_offset 8
 158              		.cfi_offset 14, -4
 159              		.cfi_offset 3, -8
 160              		.loc 1 250 0
 161 0006 C0F20000 		movt	r0, #:upper16:.LANCHOR2
 162 000a FFF7FEFF 		bl	gpt_lld_serve_interrupt
 163              		.loc 1 253 0
 164 000e BDE80840 		pop	{r3, lr}
 165              		.loc 1 252 0
ARM GAS  /tmp/ccW6GnW5.s 			page 4


 166 0012 FFF7FEBF 		b	_port_irq_epilogue
 167              		.cfi_endproc
 168              	.LFE66:
 169              		.size	Vector108, .-Vector108
 170 0016 00BFAFF3 		.section	.text.gpt_lld_init,"ax",%progbits
 170      0080AFF3 
 170      0080
 171              		.align	2
 172              		.p2align 4,,15
 173              		.global	gpt_lld_init
 174              		.thumb
 175              		.thumb_func
 176              		.type	gpt_lld_init, %function
 177              	gpt_lld_init:
 178              	.LFB67:
 179              		.loc 1 398 0
 180              		.cfi_startproc
 181              		@ args = 0, pretend = 0, frame = 0
 182              		@ frame_needed = 0, uses_anonymous_args = 0
 183 0000 08B5     		push	{r3, lr}
 184              	.LCFI4:
 185              		.cfi_def_cfa_offset 8
 186              		.cfi_offset 14, -4
 187              		.cfi_offset 3, -8
 188              		.loc 1 402 0
 189 0002 4FF43052 		mov	r2, #11264
 190 0006 40F2000E 		movw	lr, #:lower16:.LANCHOR0
 191 000a C0F2000E 		movt	lr, #:upper16:.LANCHOR0
 192 000e C4F20102 		movt	r2, 16385
 193              		.loc 1 403 0
 194 0012 7046     		mov	r0, lr
 195              		.loc 1 402 0
 196 0014 CEF80C20 		str	r2, [lr, #12]
 197              		.loc 1 403 0
 198 0018 FFF7FEFF 		bl	gptObjectInit
 199              		.loc 1 408 0
 200 001c 40F2000C 		movw	ip, #:lower16:.LANCHOR1
 201 0020 C0F2000C 		movt	ip, #:upper16:.LANCHOR1
 202              		.loc 1 409 0
 203 0024 6046     		mov	r0, ip
 204              		.loc 1 408 0
 205 0026 4FF08041 		mov	r1, #1073741824
 206 002a CCF80C10 		str	r1, [ip, #12]
 207              		.loc 1 409 0
 208 002e FFF7FEFF 		bl	gptObjectInit
 209              		.loc 1 426 0
 210 0032 40F20003 		movw	r3, #:lower16:.LANCHOR2
 211 0036 C0F20003 		movt	r3, #:upper16:.LANCHOR2
 212 003a 4FF44062 		mov	r2, #3072
 213 003e C4F20002 		movt	r2, 16384
 214              		.loc 1 427 0
 215 0042 1846     		mov	r0, r3
 216              		.loc 1 426 0
 217 0044 DA60     		str	r2, [r3, #12]
 218              		.loc 1 471 0
 219 0046 BDE80840 		pop	{r3, lr}
 220              		.loc 1 427 0
ARM GAS  /tmp/ccW6GnW5.s 			page 5


 221 004a FFF7FEBF 		b	gptObjectInit
 222              		.cfi_endproc
 223              	.LFE67:
 224              		.size	gpt_lld_init, .-gpt_lld_init
 225 004e 00BF     		.section	.text.gpt_lld_start,"ax",%progbits
 226              		.align	2
 227              		.p2align 4,,15
 228              		.global	gpt_lld_start
 229              		.thumb
 230              		.thumb_func
 231              		.type	gpt_lld_start, %function
 232              	gpt_lld_start:
 233              	.LFB68:
 234              		.loc 1 480 0
 235              		.cfi_startproc
 236              		@ args = 0, pretend = 0, frame = 0
 237              		@ frame_needed = 0, uses_anonymous_args = 0
 238              	.LVL4:
 239              		.loc 1 483 0
 240 0000 0378     		ldrb	r3, [r0, #0]	@ zero_extendqisi2
 241              		.loc 1 480 0
 242 0002 10B5     		push	{r4, lr}
 243              	.LCFI5:
 244              		.cfi_def_cfa_offset 8
 245              		.cfi_offset 14, -4
 246              		.cfi_offset 4, -8
 247              		.loc 1 483 0
 248 0004 012B     		cmp	r3, #1
 249              		.loc 1 480 0
 250 0006 0446     		mov	r4, r0
 251              		.loc 1 483 0
 252 0008 10D0     		beq	.L13
 253              	.LVL5:
 254              	.L9:
 255              		.loc 1 612 0
 256 000a 6268     		ldr	r2, [r4, #4]
 257 000c A068     		ldr	r0, [r4, #8]
 258 000e 1168     		ldr	r1, [r2, #0]
 259              		.loc 1 617 0
 260 0010 E368     		ldr	r3, [r4, #12]
 261              		.loc 1 612 0
 262 0012 B0FBF1F0 		udiv	r0, r0, r1
 263 0016 441E     		subs	r4, r0, #1
 264              	.LVL6:
 265              		.loc 1 620 0
 266 0018 117A     		ldrb	r1, [r2, #8]	@ zero_extendqisi2
 267              		.loc 1 612 0
 268 001a A0B2     		uxth	r0, r4
 269              	.LVL7:
 270              		.loc 1 617 0
 271 001c 0022     		movs	r2, #0
 272              		.loc 1 618 0
 273 001e 0824     		movs	r4, #8
 274              		.loc 1 617 0
 275 0020 1A60     		str	r2, [r3, #0]
 276              		.loc 1 618 0
 277 0022 5C60     		str	r4, [r3, #4]
ARM GAS  /tmp/ccW6GnW5.s 			page 6


 278              		.loc 1 619 0
 279 0024 9862     		str	r0, [r3, #40]
 280              		.loc 1 620 0
 281 0026 D960     		str	r1, [r3, #12]
 282              		.loc 1 622 0
 283 0028 1A61     		str	r2, [r3, #16]
 284              		.loc 1 623 0
 285 002a 10BD     		pop	{r4, pc}
 286              	.LVL8:
 287              	.L13:
 288              		.loc 1 486 0
 289 002c 40F20001 		movw	r1, #:lower16:.LANCHOR0
 290 0030 C0F20001 		movt	r1, #:upper16:.LANCHOR0
 291 0034 8842     		cmp	r0, r1
 292 0036 23D0     		beq	.L14
 293              		.loc 1 499 0
 294 0038 40F2000C 		movw	ip, #:lower16:.LANCHOR1
 295 003c C0F2000C 		movt	ip, #:upper16:.LANCHOR1
 296 0040 6045     		cmp	r0, ip
 297 0042 3AD0     		beq	.L15
 298              		.loc 1 527 0
 299 0044 40F20003 		movw	r3, #:lower16:.LANCHOR2
 300 0048 C0F20003 		movt	r3, #:upper16:.LANCHOR2
 301 004c 9842     		cmp	r0, r3
 302 004e DCD1     		bne	.L9
 303              		.loc 1 528 0
 304 0050 4FF48053 		mov	r3, #4096
 305 0054 C4F20203 		movt	r3, 16386
 306 0058 DA69     		ldr	r2, [r3, #28]
 307 005a 42F00800 		orr	r0, r2, #8
 308              	.LVL9:
 309 005e D861     		str	r0, [r3, #28]
 310              		.loc 1 529 0
 311 0060 1969     		ldr	r1, [r3, #16]
 312              		.loc 1 530 0
 313 0062 3220     		movs	r0, #50
 314              		.loc 1 529 0
 315 0064 41F00802 		orr	r2, r1, #8
 316              	.L12:
 317 0068 1A61     		str	r2, [r3, #16]
 318 006a 0022     		movs	r2, #0
 319 006c 1A61     		str	r2, [r3, #16]
 320              		.loc 1 530 0
 321 006e 7021     		movs	r1, #112
 322 0070 FFF7FEFF 		bl	nvicEnableVector
 323              		.loc 1 532 0
 324 0074 4FF42243 		mov	r3, #41472
 325 0078 C0F24A43 		movt	r3, 1098
 326 007c A360     		str	r3, [r4, #8]
 327 007e C4E7     		b	.L9
 328              	.L14:
 329              		.loc 1 487 0
 330 0080 4FF4805C 		mov	ip, #4096
 331 0084 C4F2020C 		movt	ip, 16386
 332 0088 DCF81820 		ldr	r2, [ip, #24]
 333 008c 42F40060 		orr	r0, r2, #2048
 334 0090 CCF81800 		str	r0, [ip, #24]
ARM GAS  /tmp/ccW6GnW5.s 			page 7


 335              		.loc 1 488 0
 336 0094 DCF80C10 		ldr	r1, [ip, #12]
 337 0098 0022     		movs	r2, #0
 338 009a 41F40063 		orr	r3, r1, #2048
 339              		.loc 1 489 0
 340 009e 1920     		movs	r0, #25
 341              		.loc 1 488 0
 342 00a0 CCF80C30 		str	r3, [ip, #12]
 343              		.loc 1 489 0
 344 00a4 7021     		movs	r1, #112
 345              		.loc 1 488 0
 346 00a6 CCF80C20 		str	r2, [ip, #12]
 347              		.loc 1 489 0
 348 00aa FFF7FEFF 		bl	nvicEnableVector
 349              		.loc 1 494 0
 350 00ae 4FF42240 		mov	r0, #41472
 351 00b2 C0F24A40 		movt	r0, 1098
 352 00b6 A060     		str	r0, [r4, #8]
 353 00b8 A7E7     		b	.L9
 354              	.L15:
 355              		.loc 1 500 0
 356 00ba 4FF48053 		mov	r3, #4096
 357 00be C4F20203 		movt	r3, 16386
 358 00c2 DA69     		ldr	r2, [r3, #28]
 359 00c4 42F00100 		orr	r0, r2, #1
 360 00c8 D861     		str	r0, [r3, #28]
 361              		.loc 1 501 0
 362 00ca 1969     		ldr	r1, [r3, #16]
 363              		.loc 1 502 0
 364 00cc 1C20     		movs	r0, #28
 365              		.loc 1 501 0
 366 00ce 41F00102 		orr	r2, r1, #1
 367 00d2 C9E7     		b	.L12
 368              		.cfi_endproc
 369              	.LFE68:
 370              		.size	gpt_lld_start, .-gpt_lld_start
 371 00d4 AFF30080 		.section	.text.gpt_lld_stop,"ax",%progbits
 371      AFF30080 
 371      AFF30080 
 372              		.align	2
 373              		.p2align 4,,15
 374              		.global	gpt_lld_stop
 375              		.thumb
 376              		.thumb_func
 377              		.type	gpt_lld_stop, %function
 378              	gpt_lld_stop:
 379              	.LFB69:
 380              		.loc 1 632 0
 381              		.cfi_startproc
 382              		@ args = 0, pretend = 0, frame = 0
 383              		@ frame_needed = 0, uses_anonymous_args = 0
 384              	.LVL10:
 385 0000 08B5     		push	{r3, lr}
 386              	.LCFI6:
 387              		.cfi_def_cfa_offset 8
 388              		.cfi_offset 14, -4
 389              		.cfi_offset 3, -8
ARM GAS  /tmp/ccW6GnW5.s 			page 8


 390              		.loc 1 634 0
 391 0002 0378     		ldrb	r3, [r0, #0]	@ zero_extendqisi2
 392 0004 022B     		cmp	r3, #2
 393 0006 00D0     		beq	.L20
 394              	.LVL11:
 395              	.L16:
 396 0008 08BD     		pop	{r3, pc}
 397              	.LVL12:
 398              	.L20:
 399              		.loc 1 640 0
 400 000a 40F2000C 		movw	ip, #:lower16:.LANCHOR0
 401              		.loc 1 635 0
 402 000e C268     		ldr	r2, [r0, #12]
 403              		.loc 1 640 0
 404 0010 C0F2000C 		movt	ip, #:upper16:.LANCHOR0
 405              		.loc 1 635 0
 406 0014 0021     		movs	r1, #0
 407              		.loc 1 640 0
 408 0016 6045     		cmp	r0, ip
 409              		.loc 1 635 0
 410 0018 1160     		str	r1, [r2, #0]
 411              		.loc 1 636 0
 412 001a D160     		str	r1, [r2, #12]
 413              		.loc 1 637 0
 414 001c 1161     		str	r1, [r2, #16]
 415              		.loc 1 640 0
 416 001e 17D0     		beq	.L21
 417              		.loc 1 646 0
 418 0020 40F20002 		movw	r2, #:lower16:.LANCHOR1
 419 0024 C0F20002 		movt	r2, #:upper16:.LANCHOR1
 420 0028 9042     		cmp	r0, r2
 421 002a 1DD0     		beq	.L22
 422              		.loc 1 664 0
 423 002c 40F20001 		movw	r1, #:lower16:.LANCHOR2
 424 0030 C0F20001 		movt	r1, #:upper16:.LANCHOR2
 425 0034 8842     		cmp	r0, r1
 426 0036 E7D1     		bne	.L16
 427              		.loc 1 665 0
 428 0038 3220     		movs	r0, #50
 429              	.LVL13:
 430 003a FFF7FEFF 		bl	nvicDisableVector
 431              		.loc 1 666 0
 432 003e 4FF48050 		mov	r0, #4096
 433 0042 C4F20200 		movt	r0, 16386
 434 0046 C369     		ldr	r3, [r0, #28]
 435 0048 23F00802 		bic	r2, r3, #8
 436 004c C261     		str	r2, [r0, #28]
 437 004e DBE7     		b	.L16
 438              	.LVL14:
 439              	.L21:
 440              		.loc 1 641 0
 441 0050 1920     		movs	r0, #25
 442              	.LVL15:
 443 0052 FFF7FEFF 		bl	nvicDisableVector
 444              		.loc 1 642 0
 445 0056 4FF48053 		mov	r3, #4096
 446 005a C4F20203 		movt	r3, 16386
ARM GAS  /tmp/ccW6GnW5.s 			page 9


 447 005e 9969     		ldr	r1, [r3, #24]
 448 0060 21F40060 		bic	r0, r1, #2048
 449 0064 9861     		str	r0, [r3, #24]
 450 0066 08BD     		pop	{r3, pc}
 451              	.LVL16:
 452              	.L22:
 453              		.loc 1 647 0
 454 0068 1C20     		movs	r0, #28
 455              	.LVL17:
 456 006a FFF7FEFF 		bl	nvicDisableVector
 457              		.loc 1 648 0
 458 006e 4FF4805C 		mov	ip, #4096
 459 0072 C4F2020C 		movt	ip, 16386
 460 0076 DCF81C30 		ldr	r3, [ip, #28]
 461 007a 23F00100 		bic	r0, r3, #1
 462 007e CCF81C00 		str	r0, [ip, #28]
 463 0082 08BD     		pop	{r3, pc}
 464              		.cfi_endproc
 465              	.LFE69:
 466              		.size	gpt_lld_stop, .-gpt_lld_stop
 467 0084 AFF30080 		.section	.text.gpt_lld_start_timer,"ax",%progbits
 467      AFF30080 
 467      AFF30080 
 468              		.align	2
 469              		.p2align 4,,15
 470              		.global	gpt_lld_start_timer
 471              		.thumb
 472              		.thumb_func
 473              		.type	gpt_lld_start_timer, %function
 474              	gpt_lld_start_timer:
 475              	.LFB70:
 476              		.loc 1 722 0
 477              		.cfi_startproc
 478              		@ args = 0, pretend = 0, frame = 0
 479              		@ frame_needed = 0, uses_anonymous_args = 0
 480              		@ link register save eliminated.
 481              	.LVL18:
 482              		.loc 1 724 0
 483 0000 C368     		ldr	r3, [r0, #12]
 484 0002 4A1E     		subs	r2, r1, #1
 485              		.loc 1 726 0
 486 0004 0020     		movs	r0, #0
 487              	.LVL19:
 488              		.loc 1 725 0
 489 0006 0121     		movs	r1, #1
 490              	.LVL20:
 491              		.loc 1 724 0
 492 0008 DA62     		str	r2, [r3, #44]
 493              		.loc 1 725 0
 494 000a 5961     		str	r1, [r3, #20]
 495              		.loc 1 726 0
 496 000c 5862     		str	r0, [r3, #36]
 497              		.loc 1 731 0
 498 000e 1861     		str	r0, [r3, #16]
 499              		.loc 1 732 0
 500 0010 DA68     		ldr	r2, [r3, #12]
 501              	.LVL21:
ARM GAS  /tmp/ccW6GnW5.s 			page 10


 502 0012 42EA0100 		orr	r0, r2, r1
 503              		.loc 1 733 0
 504 0016 0522     		movs	r2, #5
 505              		.loc 1 732 0
 506 0018 D860     		str	r0, [r3, #12]
 507              		.loc 1 733 0
 508 001a 1A60     		str	r2, [r3, #0]
 509              		.loc 1 734 0
 510 001c 7047     		bx	lr
 511              		.cfi_endproc
 512              	.LFE70:
 513              		.size	gpt_lld_start_timer, .-gpt_lld_start_timer
 514 001e 00BF     		.section	.text.gpt_lld_stop_timer,"ax",%progbits
 515              		.align	2
 516              		.p2align 4,,15
 517              		.global	gpt_lld_stop_timer
 518              		.thumb
 519              		.thumb_func
 520              		.type	gpt_lld_stop_timer, %function
 521              	gpt_lld_stop_timer:
 522              	.LFB71:
 523              		.loc 1 743 0
 524              		.cfi_startproc
 525              		@ args = 0, pretend = 0, frame = 0
 526              		@ frame_needed = 0, uses_anonymous_args = 0
 527              		@ link register save eliminated.
 528              	.LVL22:
 529              		.loc 1 745 0
 530 0000 C368     		ldr	r3, [r0, #12]
 531 0002 0021     		movs	r1, #0
 532 0004 1960     		str	r1, [r3, #0]
 533              		.loc 1 746 0
 534 0006 1961     		str	r1, [r3, #16]
 535              		.loc 1 749 0
 536 0008 D868     		ldr	r0, [r3, #12]
 537              	.LVL23:
 538 000a 20F0FF02 		bic	r2, r0, #255
 539 000e DA60     		str	r2, [r3, #12]
 540              		.loc 1 750 0
 541 0010 7047     		bx	lr
 542              		.cfi_endproc
 543              	.LFE71:
 544              		.size	gpt_lld_stop_timer, .-gpt_lld_stop_timer
 545 0012 00BFAFF3 		.section	.text.gpt_lld_polled_delay,"ax",%progbits
 545      0080AFF3 
 545      0080AFF3 
 545      0080
 546              		.align	2
 547              		.p2align 4,,15
 548              		.global	gpt_lld_polled_delay
 549              		.thumb
 550              		.thumb_func
 551              		.type	gpt_lld_polled_delay, %function
 552              	gpt_lld_polled_delay:
 553              	.LFB72:
 554              		.loc 1 763 0
 555              		.cfi_startproc
ARM GAS  /tmp/ccW6GnW5.s 			page 11


 556              		@ args = 0, pretend = 0, frame = 0
 557              		@ frame_needed = 0, uses_anonymous_args = 0
 558              		@ link register save eliminated.
 559              	.LVL24:
 560              		.loc 1 765 0
 561 0000 C368     		ldr	r3, [r0, #12]
 562 0002 4A1E     		subs	r2, r1, #1
 563 0004 DA62     		str	r2, [r3, #44]
 564              		.loc 1 766 0
 565 0006 0121     		movs	r1, #1
 566              	.LVL25:
 567              		.loc 1 767 0
 568 0008 0020     		movs	r0, #0
 569              	.LVL26:
 570              		.loc 1 768 0
 571 000a 0D22     		movs	r2, #13
 572              	.LVL27:
 573              		.loc 1 766 0
 574 000c 5961     		str	r1, [r3, #20]
 575              		.loc 1 767 0
 576 000e 1861     		str	r0, [r3, #16]
 577              		.loc 1 768 0
 578 0010 1A60     		str	r2, [r3, #0]
 579              	.L26:
 580              		.loc 1 769 0 discriminator 1
 581 0012 1869     		ldr	r0, [r3, #16]
 582 0014 C207     		lsls	r2, r0, #31
 583 0016 FCD5     		bpl	.L26
 584              		.loc 1 771 0
 585 0018 7047     		bx	lr
 586              		.cfi_endproc
 587              	.LFE72:
 588              		.size	gpt_lld_polled_delay, .-gpt_lld_polled_delay
 589              		.global	GPTD5
 590              		.global	GPTD2
 591              		.global	GPTD1
 592 001a 00BFAFF3 		.section	.bss.GPTD1,"aw",%nobits
 592      0080
 593              		.align	2
 594              		.set	.LANCHOR0,. + 0
 595              		.type	GPTD1, %object
 596              		.size	GPTD1, 16
 597              	GPTD1:
 598 0000 00000000 		.space	16
 598      00000000 
 598      00000000 
 598      00000000 
 599              		.section	.bss.GPTD2,"aw",%nobits
 600              		.align	2
 601              		.set	.LANCHOR1,. + 0
 602              		.type	GPTD2, %object
 603              		.size	GPTD2, 16
 604              	GPTD2:
 605 0000 00000000 		.space	16
 605      00000000 
 605      00000000 
 605      00000000 
ARM GAS  /tmp/ccW6GnW5.s 			page 12


 606              		.section	.bss.GPTD5,"aw",%nobits
 607              		.align	2
 608              		.set	.LANCHOR2,. + 0
 609              		.type	GPTD5, %object
 610              		.size	GPTD5, 16
 611              	GPTD5:
 612 0000 00000000 		.space	16
 612      00000000 
 612      00000000 
 612      00000000 
 613              		.text
 614              	.Letext0:
 615              		.file 2 "/opt/pros/toolchain/bin/../lib/gcc/arm-none-eabi/4.6.3/../../../../arm-none-eabi/include/
 616              		.file 3 "../ChibiOS_2.6.2/os/hal/platforms/STM32F1xx/stm32f10x.h"
 617              		.file 4 "../ChibiOS_2.6.2/os/hal/include/gpt.h"
 618              		.file 5 "../ChibiOS_2.6.2/os/hal/platforms/STM32/TIMv1/gpt_lld.h"
 619              		.file 6 "../ChibiOS_2.6.2/os/hal/platforms/STM32/TIMv1/stm32_tim.h"
 620              		.file 7 "../ChibiOS_2.6.2/os/ports/common/ARMCMx/CMSIS/include/core_cm3.h"