ARM GAS  /tmp/cc89MjMv.s 			page 1


   1              		.syntax unified
   2              		.cpu cortex-m3
   3              		.fpu softvfp
   4              		.eabi_attribute 20, 1
   5              		.eabi_attribute 21, 1
   6              		.eabi_attribute 23, 3
   7              		.eabi_attribute 24, 1
   8              		.eabi_attribute 25, 1
   9              		.eabi_attribute 26, 1
  10              		.eabi_attribute 30, 2
  11              		.eabi_attribute 34, 1
  12              		.eabi_attribute 18, 4
  13              		.thumb
  14              		.file	"hal.c"
  15              		.text
  16              	.Ltext0:
  17              		.cfi_sections	.debug_frame
  18              		.section	.text.halInit,"ax",%progbits
  19              		.align	2
  20              		.p2align 4,,15
  21              		.global	halInit
  22              		.thumb
  23              		.thumb_func
  24              		.type	halInit, %function
  25              	halInit:
  26              	.LFB63:
  27              		.file 1 "../ChibiOS_2.6.2/os/hal/src/hal.c"
  28              		.loc 1 68 0
  29              		.cfi_startproc
  30              		@ args = 0, pretend = 0, frame = 0
  31              		@ frame_needed = 0, uses_anonymous_args = 0
  32 0000 08B5     		push	{r3, lr}
  33              	.LCFI0:
  34              		.cfi_def_cfa_offset 8
  35              		.cfi_offset 14, -4
  36              		.cfi_offset 3, -8
  37              		.loc 1 70 0
  38 0002 FFF7FEFF 		bl	hal_lld_init
  39              		.loc 1 73 0
  40 0006 FFF7FEFF 		bl	tmInit
  41              		.loc 1 76 0
  42 000a 40F20000 		movw	r0, #:lower16:pal_default_config
  43 000e C0F20000 		movt	r0, #:upper16:pal_default_config
  44 0012 FFF7FEFF 		bl	_pal_lld_init
  45              		.loc 1 79 0
  46 0016 FFF7FEFF 		bl	adcInit
  47              		.loc 1 85 0
  48 001a FFF7FEFF 		bl	extInit
  49              		.loc 1 88 0
  50 001e FFF7FEFF 		bl	gptInit
  51              		.loc 1 91 0
  52 0022 FFF7FEFF 		bl	i2cInit
  53              		.loc 1 103 0
  54 0026 FFF7FEFF 		bl	sdInit
  55              		.loc 1 109 0
  56 002a FFF7FEFF 		bl	spiInit
  57              		.loc 1 128 0
ARM GAS  /tmp/cc89MjMv.s 			page 2


  58 002e BDE80840 		pop	{r3, lr}
  59              		.loc 1 127 0
  60 0032 FFF7FEBF 		b	boardInit
  61              		.cfi_endproc
  62              	.LFE63:
  63              		.size	halInit, .-halInit
  64 0036 00BFAFF3 		.section	.text.halIsCounterWithin,"ax",%progbits
  64      0080AFF3 
  64      0080
  65              		.align	2
  66              		.p2align 4,,15
  67              		.global	halIsCounterWithin
  68              		.thumb
  69              		.thumb_func
  70              		.type	halIsCounterWithin, %function
  71              	halIsCounterWithin:
  72              	.LFB64:
  73              		.loc 1 174 0
  74              		.cfi_startproc
  75              		@ args = 0, pretend = 0, frame = 0
  76              		@ frame_needed = 0, uses_anonymous_args = 0
  77              		@ link register save eliminated.
  78              	.LVL0:
  79              		.loc 1 175 0
  80 0000 4FF48053 		mov	r3, #4096
  81 0004 CEF20003 		movt	r3, 57344
  82              		.loc 1 177 0
  83 0008 8142     		cmp	r1, r0
  84              		.loc 1 175 0
  85 000a 5B68     		ldr	r3, [r3, #4]
  86              	.LVL1:
  87              		.loc 1 177 0
  88 000c 08D8     		bhi	.L6
  89              		.loc 1 178 0 discriminator 2
  90 000e 8342     		cmp	r3, r0
  91 0010 34BF     		ite	cc
  92 0012 0020     		movcc	r0, #0
  93              	.LVL2:
  94 0014 0120     		movcs	r0, #1
  95              		.loc 1 177 0 discriminator 2
  96 0016 8B42     		cmp	r3, r1
  97 0018 38BF     		it	cc
  98 001a 40F00100 		orrcc	r0, r0, #1
  99              		.loc 1 179 0 discriminator 2
 100 001e 7047     		bx	lr
 101              	.LVL3:
 102              	.L6:
 103              		.loc 1 177 0 discriminator 1
 104 0020 8342     		cmp	r3, r0
 105 0022 34BF     		ite	cc
 106 0024 0020     		movcc	r0, #0
 107              	.LVL4:
 108 0026 0120     		movcs	r0, #1
 109 0028 8B42     		cmp	r3, r1
 110 002a 2CBF     		ite	cs
 111 002c 0020     		movcs	r0, #0
 112 002e 00F00100 		andcc	r0, r0, #1
ARM GAS  /tmp/cc89MjMv.s 			page 3


 113 0032 7047     		bx	lr
 114              		.cfi_endproc
 115              	.LFE64:
 116              		.size	halIsCounterWithin, .-halIsCounterWithin
 117 0034 AFF30080 		.section	.text.halPolledDelay,"ax",%progbits
 117      AFF30080 
 117      AFF30080 
 118              		.align	2
 119              		.p2align 4,,15
 120              		.global	halPolledDelay
 121              		.thumb
 122              		.thumb_func
 123              		.type	halPolledDelay, %function
 124              	halPolledDelay:
 125              	.LFB65:
 126              		.loc 1 193 0
 127              		.cfi_startproc
 128              		@ args = 0, pretend = 0, frame = 0
 129              		@ frame_needed = 0, uses_anonymous_args = 0
 130              		@ link register save eliminated.
 131              	.LVL5:
 132              		.loc 1 194 0
 133 0000 4FF48052 		mov	r2, #4096
 134              		.loc 1 193 0
 135 0004 10B4     		push	{r4}
 136              	.LCFI1:
 137              		.cfi_def_cfa_offset 4
 138              		.cfi_offset 4, -4
 139              		.loc 1 194 0
 140 0006 CEF20002 		movt	r2, 57344
 141 000a 5368     		ldr	r3, [r2, #4]
 142              	.LVL6:
 143              		.loc 1 195 0
 144 000c C018     		adds	r0, r0, r3
 145              	.LVL7:
 146              	.L10:
 147              	.LBB4:
 148              	.LBB5:
 149              		.loc 1 175 0 discriminator 1
 150 000e 5168     		ldr	r1, [r2, #4]
 151              	.LVL8:
 152              		.loc 1 177 0 discriminator 1
 153 0010 8B42     		cmp	r3, r1
 154 0012 8CBF     		ite	hi
 155 0014 0024     		movhi	r4, #0
 156 0016 0124     		movls	r4, #1
 157 0018 8342     		cmp	r3, r0
 158 001a 08D2     		bcs	.L8
 159              		.loc 1 177 0 is_stmt 0
 160 001c 8842     		cmp	r0, r1
 161 001e 94BF     		ite	ls
 162 0020 0021     		movls	r1, #0
 163 0022 04F00101 		andhi	r1, r4, #1
 164              	.LVL9:
 165              	.LBE5:
 166              	.LBE4:
 167              		.loc 1 196 0 is_stmt 1
ARM GAS  /tmp/cc89MjMv.s 			page 4


 168 0026 0029     		cmp	r1, #0
 169 0028 F1D1     		bne	.L10
 170              	.L12:
 171              		.loc 1 198 0
 172 002a 10BC     		pop	{r4}
 173 002c 7047     		bx	lr
 174              	.LVL10:
 175              	.L8:
 176              	.LBB7:
 177              	.LBB6:
 178              		.loc 1 177 0
 179 002e 8842     		cmp	r0, r1
 180 0030 94BF     		ite	ls
 181 0032 2146     		movls	r1, r4
 182 0034 44F00101 		orrhi	r1, r4, #1
 183              	.LVL11:
 184              	.LBE6:
 185              	.LBE7:
 186              		.loc 1 196 0
 187 0038 0029     		cmp	r1, #0
 188 003a E8D1     		bne	.L10
 189 003c F5E7     		b	.L12
 190              		.cfi_endproc
 191              	.LFE65:
 192              		.size	halPolledDelay, .-halPolledDelay
 193 003e 00BF     		.text
 194              	.Letext0:
 195              		.file 2 "/opt/pros/toolchain/bin/../lib/gcc/arm-none-eabi/4.6.3/../../../../arm-none-eabi/include/
 196              		.file 3 "../ChibiOS_2.6.2/os/ports/GCC/ARMCMx/chtypes.h"
 197              		.file 4 "../ChibiOS_2.6.2/os/ports/common/ARMCMx/nvic.h"
 198              		.file 5 "../ChibiOS_2.6.2/os/hal/platforms/STM32F1xx/hal_lld.h"
 199              		.file 6 "../ChibiOS_2.6.2/os/hal/platforms/STM32/GPIOv1/pal_lld.h"
 200              		.file 7 "../ChibiOS_2.6.2/os/ports/common/ARMCMx/CMSIS/include/core_cm3.h"