ARM GAS  /tmp/ccXryBni.s 			page 1


   1              		.syntax unified
   2              		.cpu cortex-m3
   3              		.fpu softvfp
   4              		.eabi_attribute 20, 1
   5              		.eabi_attribute 21, 1
   6              		.eabi_attribute 23, 3
   7              		.eabi_attribute 24, 1
   8              		.eabi_attribute 25, 1
   9              		.eabi_attribute 26, 1
  10              		.eabi_attribute 30, 2
  11              		.eabi_attribute 34, 1
  12              		.eabi_attribute 18, 4
  13              		.thumb
  14              		.file	"nvic.c"
  15              		.text
  16              	.Ltext0:
  17              		.cfi_sections	.debug_frame
  18              		.section	.text.nvicEnableVector,"ax",%progbits
  19              		.align	2
  20              		.p2align 4,,15
  21              		.global	nvicEnableVector
  22              		.thumb
  23              		.thumb_func
  24              		.type	nvicEnableVector, %function
  25              	nvicEnableVector:
  26              	.LFB7:
  27              		.file 1 "../ChibiOS_2.6.2/os/ports/common/ARMCMx/nvic.c"
  28              		.loc 1 46 0
  29              		.cfi_startproc
  30              		@ args = 0, pretend = 0, frame = 0
  31              		@ frame_needed = 0, uses_anonymous_args = 0
  32              		@ link register save eliminated.
  33              	.LVL0:
  34              		.loc 1 47 0
  35 0000 00F00302 		and	r2, r0, #3
  36              		.loc 1 46 0
  37 0004 F0B4     		push	{r4, r5, r6, r7}
  38              	.LCFI0:
  39              		.cfi_def_cfa_offset 16
  40              		.cfi_offset 7, -4
  41              		.cfi_offset 6, -8
  42              		.cfi_offset 5, -12
  43              		.cfi_offset 4, -16
  44              		.loc 1 49 0
  45 0006 FF23     		movs	r3, #255
  46              		.loc 1 47 0
  47 0008 D600     		lsls	r6, r2, #3
  48              		.loc 1 49 0
  49 000a 03FA06FC 		lsl	ip, r3, r6
  50              		.loc 1 50 0
  51 000e 00F01F04 		and	r4, r0, #31
  52              		.loc 1 49 0
  53 0012 01FA06F1 		lsl	r1, r1, r6
  54              	.LVL1:
  55              		.loc 1 50 0
  56 0016 0125     		movs	r5, #1
  57 0018 05FA04F5 		lsl	r5, r5, r4
ARM GAS  /tmp/ccXryBni.s 			page 2


  58              		.loc 1 49 0
  59 001c 8608     		lsrs	r6, r0, #2
  60 001e 4FF46144 		mov	r4, #57600
  61 0022 CEF20004 		movt	r4, 57344
  62 0026 C036     		adds	r6, r6, #192
  63 0028 54F82670 		ldr	r7, [r4, r6, lsl #2]
  64              		.loc 1 50 0
  65 002c 4009     		lsrs	r0, r0, #5
  66              	.LVL2:
  67              		.loc 1 49 0
  68 002e 27EA0C02 		bic	r2, r7, ip
  69 0032 42EA0103 		orr	r3, r2, r1
  70              		.loc 1 50 0
  71 0036 00F16007 		add	r7, r0, #96
  72              		.loc 1 49 0
  73 003a 44F82630 		str	r3, [r4, r6, lsl #2]
  74              		.loc 1 50 0
  75 003e 44F82750 		str	r5, [r4, r7, lsl #2]
  76              		.loc 1 51 0
  77 0042 44F82050 		str	r5, [r4, r0, lsl #2]
  78              		.loc 1 52 0
  79 0046 F0BC     		pop	{r4, r5, r6, r7}
  80 0048 7047     		bx	lr
  81              		.cfi_endproc
  82              	.LFE7:
  83              		.size	nvicEnableVector, .-nvicEnableVector
  84 004a 00BFAFF3 		.section	.text.nvicDisableVector,"ax",%progbits
  84      0080
  85              		.align	2
  86              		.p2align 4,,15
  87              		.global	nvicDisableVector
  88              		.thumb
  89              		.thumb_func
  90              		.type	nvicDisableVector, %function
  91              	nvicDisableVector:
  92              	.LFB8:
  93              		.loc 1 60 0
  94              		.cfi_startproc
  95              		@ args = 0, pretend = 0, frame = 0
  96              		@ frame_needed = 0, uses_anonymous_args = 0
  97              		@ link register save eliminated.
  98              	.LVL3:
  99 0000 10B4     		push	{r4}
 100              	.LCFI1:
 101              		.cfi_def_cfa_offset 4
 102              		.cfi_offset 4, -4
 103              		.loc 1 63 0
 104 0002 00F01F01 		and	r1, r0, #31
 105 0006 0124     		movs	r4, #1
 106 0008 04FA01F4 		lsl	r4, r4, r1
 107              		.loc 1 61 0
 108 000c 00F00302 		and	r2, r0, #3
 109 0010 D100     		lsls	r1, r2, #3
 110              		.loc 1 64 0
 111 0012 FF23     		movs	r3, #255
 112 0014 03FA01FC 		lsl	ip, r3, r1
 113              		.loc 1 63 0
ARM GAS  /tmp/ccXryBni.s 			page 3


 114 0018 4209     		lsrs	r2, r0, #5
 115 001a 4FF46143 		mov	r3, #57600
 116 001e CEF20003 		movt	r3, 57344
 117 0022 2032     		adds	r2, r2, #32
 118              		.loc 1 64 0
 119 0024 8008     		lsrs	r0, r0, #2
 120              	.LVL4:
 121              		.loc 1 63 0
 122 0026 43F82240 		str	r4, [r3, r2, lsl #2]
 123              		.loc 1 64 0
 124 002a C030     		adds	r0, r0, #192
 125 002c 53F82010 		ldr	r1, [r3, r0, lsl #2]
 126              	.LVL5:
 127 0030 21EA0C02 		bic	r2, r1, ip
 128 0034 43F82020 		str	r2, [r3, r0, lsl #2]
 129              		.loc 1 65 0
 130 0038 10BC     		pop	{r4}
 131 003a 7047     		bx	lr
 132              		.cfi_endproc
 133              	.LFE8:
 134              		.size	nvicDisableVector, .-nvicDisableVector
 135 003c AFF30080 		.section	.text.nvicSetSystemHandlerPriority,"ax",%progbits
 136              		.align	2
 137              		.p2align 4,,15
 138              		.global	nvicSetSystemHandlerPriority
 139              		.thumb
 140              		.thumb_func
 141              		.type	nvicSetSystemHandlerPriority, %function
 142              	nvicSetSystemHandlerPriority:
 143              	.LFB9:
 144              		.loc 1 74 0
 145              		.cfi_startproc
 146              		@ args = 0, pretend = 0, frame = 0
 147              		@ frame_needed = 0, uses_anonymous_args = 0
 148              		@ link register save eliminated.
 149              	.LVL6:
 150              		.loc 1 75 0
 151 0000 00F00303 		and	r3, r0, #3
 152              		.loc 1 74 0
 153 0004 10B4     		push	{r4}
 154              	.LCFI2:
 155              		.cfi_def_cfa_offset 4
 156              		.cfi_offset 4, -4
 157              		.loc 1 78 0
 158 0006 FF22     		movs	r2, #255
 159              		.loc 1 75 0
 160 0008 DC00     		lsls	r4, r3, #3
 161              		.loc 1 78 0
 162 000a 02FA04FC 		lsl	ip, r2, r4
 163 000e 01FA04F1 		lsl	r1, r1, r4
 164              	.LVL7:
 165              		.loc 1 77 0
 166 0012 8008     		lsrs	r0, r0, #2
 167              	.LVL8:
 168 0014 4FF46D44 		mov	r4, #60672
 169 0018 CEF20004 		movt	r4, 57344
 170 001c 0630     		adds	r0, r0, #6
ARM GAS  /tmp/ccXryBni.s 			page 4


 171 001e 54F82030 		ldr	r3, [r4, r0, lsl #2]
 172 0022 23EA0C02 		bic	r2, r3, ip
 173              		.loc 1 78 0
 174 0026 42EA0103 		orr	r3, r2, r1
 175              		.loc 1 77 0
 176 002a 44F82030 		str	r3, [r4, r0, lsl #2]
 177              		.loc 1 79 0
 178 002e 10BC     		pop	{r4}
 179 0030 7047     		bx	lr
 180              		.cfi_endproc
 181              	.LFE9:
 182              		.size	nvicSetSystemHandlerPriority, .-nvicSetSystemHandlerPriority
 183 0032 00BFAFF3 		.text
 183      0080AFF3 
 183      0080AFF3 
 183      0080
 184              	.Letext0:
 185              		.file 2 "../ChibiOS_2.6.2/os/ports/common/ARMCMx/nvic.h"
 186              		.file 3 "/opt/pros/toolchain/bin/../lib/gcc/arm-none-eabi/4.6.3/../../../../arm-none-eabi/include/