ARM GAS  /tmp/ccbIknaD.s 			page 1


   1              		.syntax unified
   2              		.cpu cortex-m3
   3              		.fpu softvfp
   4              		.eabi_attribute 20, 1
   5              		.eabi_attribute 21, 1
   6              		.eabi_attribute 23, 3
   7              		.eabi_attribute 24, 1
   8              		.eabi_attribute 25, 1
   9              		.eabi_attribute 26, 1
  10              		.eabi_attribute 30, 2
  11              		.eabi_attribute 34, 1
  12              		.eabi_attribute 18, 4
  13              		.thumb
  14              		.file	"pal.c"
  15              		.text
  16              	.Ltext0:
  17              		.cfi_sections	.debug_frame
  18              		.section	.text.palReadBus,"ax",%progbits
  19              		.align	2
  20              		.p2align 4,,15
  21              		.global	palReadBus
  22              		.thumb
  23              		.thumb_func
  24              		.type	palReadBus, %function
  25              	palReadBus:
  26              	.LFB63:
  27              		.file 1 "../ChibiOS_2.6.2/os/hal/src/pal.c"
  28              		.loc 1 77 0
  29              		.cfi_startproc
  30              		@ args = 0, pretend = 0, frame = 0
  31              		@ frame_needed = 0, uses_anonymous_args = 0
  32              		@ link register save eliminated.
  33              	.LVL0:
  34              		.loc 1 82 0
  35 0000 0368     		ldr	r3, [r0, #0]
  36 0002 8268     		ldr	r2, [r0, #8]
  37 0004 9968     		ldr	r1, [r3, #8]
  38 0006 4368     		ldr	r3, [r0, #4]
  39 0008 21FA02F0 		lsr	r0, r1, r2
  40              	.LVL1:
  41              		.loc 1 83 0
  42 000c 1840     		ands	r0, r0, r3
  43 000e 7047     		bx	lr
  44              		.cfi_endproc
  45              	.LFE63:
  46              		.size	palReadBus, .-palReadBus
  47              		.section	.text.palWriteBus,"ax",%progbits
  48              		.align	2
  49              		.p2align 4,,15
  50              		.global	palWriteBus
  51              		.thumb
  52              		.thumb_func
  53              		.type	palWriteBus, %function
  54              	palWriteBus:
  55              	.LFB64:
  56              		.loc 1 103 0
  57              		.cfi_startproc
ARM GAS  /tmp/ccbIknaD.s 			page 2


  58              		@ args = 0, pretend = 0, frame = 0
  59              		@ frame_needed = 0, uses_anonymous_args = 0
  60              		@ link register save eliminated.
  61              	.LVL2:
  62              		.loc 1 108 0
  63 0000 8368     		ldr	r3, [r0, #8]
  64 0002 4268     		ldr	r2, [r0, #4]
  65              		.loc 1 103 0
  66 0004 30B4     		push	{r4, r5}
  67              	.LCFI0:
  68              		.cfi_def_cfa_offset 8
  69              		.cfi_offset 5, -4
  70              		.cfi_offset 4, -8
  71              		.loc 1 108 0
  72 0006 22EA0105 		bic	r5, r2, r1
  73 000a 03F11004 		add	r4, r3, #16
  74 000e 0A40     		ands	r2, r2, r1
  75 0010 05FA04F4 		lsl	r4, r5, r4
  76 0014 02FA03F1 		lsl	r1, r2, r3
  77              	.LVL3:
  78 0018 0068     		ldr	r0, [r0, #0]
  79              	.LVL4:
  80 001a 44EA0103 		orr	r3, r4, r1
  81 001e 0361     		str	r3, [r0, #16]
  82              		.loc 1 109 0
  83 0020 30BC     		pop	{r4, r5}
  84 0022 7047     		bx	lr
  85              		.cfi_endproc
  86              	.LFE64:
  87              		.size	palWriteBus, .-palWriteBus
  88 0024 AFF30080 		.section	.text.palSetBusMode,"ax",%progbits
  88      AFF30080 
  88      AFF30080 
  89              		.align	2
  90              		.p2align 4,,15
  91              		.global	palSetBusMode
  92              		.thumb
  93              		.thumb_func
  94              		.type	palSetBusMode, %function
  95              	palSetBusMode:
  96              	.LFB65:
  97              		.loc 1 127 0
  98              		.cfi_startproc
  99              		@ args = 0, pretend = 0, frame = 0
 100              		@ frame_needed = 0, uses_anonymous_args = 0
 101              		@ link register save eliminated.
 102              	.LVL5:
 103              		.loc 1 132 0
 104 0000 8368     		ldr	r3, [r0, #8]
 105              		.loc 1 127 0
 106 0002 10B4     		push	{r4}
 107              	.LCFI1:
 108              		.cfi_def_cfa_offset 4
 109              		.cfi_offset 4, -4
 110              		.loc 1 132 0
 111 0004 4468     		ldr	r4, [r0, #4]
 112              		.loc 1 127 0
ARM GAS  /tmp/ccbIknaD.s 			page 3


 113 0006 0A46     		mov	r2, r1
 114              		.loc 1 132 0
 115 0008 04FA03F1 		lsl	r1, r4, r3
 116              	.LVL6:
 117 000c 0068     		ldr	r0, [r0, #0]
 118              	.LVL7:
 119              		.loc 1 133 0
 120 000e 10BC     		pop	{r4}
 121              		.loc 1 132 0
 122 0010 FFF7FEBF 		b	_pal_lld_setgroupmode
 123              	.LVL8:
 124              		.cfi_endproc
 125              	.LFE65:
 126              		.size	palSetBusMode, .-palSetBusMode
 127 0014 AFF30080 		.text
 127      AFF30080 
 127      AFF30080 
 128              	.Letext0:
 129              		.file 2 "/opt/pros/toolchain/bin/../lib/gcc/arm-none-eabi/4.6.3/../../../../arm-none-eabi/include/
 130              		.file 3 "../ChibiOS_2.6.2/os/hal/platforms/STM32F1xx/stm32f10x.h"
 131              		.file 4 "../ChibiOS_2.6.2/os/hal/platforms/STM32/GPIOv1/pal_lld.h"
 132              		.file 5 "../ChibiOS_2.6.2/os/hal/include/pal.h"
 133              		.file 6 "../ChibiOS_2.6.2/os/ports/common/ARMCMx/CMSIS/include/core_cm3.h"