ARM GAS  /tmp/ccwtXjQc.s 			page 1


   1              		.syntax unified
   2              		.cpu cortex-m3
   3              		.fpu softvfp
   4              		.eabi_attribute 20, 1
   5              		.eabi_attribute 21, 1
   6              		.eabi_attribute 23, 3
   7              		.eabi_attribute 24, 1
   8              		.eabi_attribute 25, 1
   9              		.eabi_attribute 26, 1
  10              		.eabi_attribute 30, 2
  11              		.eabi_attribute 34, 1
  12              		.eabi_attribute 18, 4
  13              		.thumb
  14              		.file	"pal_lld.c"
  15              		.text
  16              	.Ltext0:
  17              		.cfi_sections	.debug_frame
  18              		.section	.text._pal_lld_init,"ax",%progbits
  19              		.align	2
  20              		.p2align 4,,15
  21              		.global	_pal_lld_init
  22              		.thumb
  23              		.thumb_func
  24              		.type	_pal_lld_init, %function
  25              	_pal_lld_init:
  26              	.LFB63:
  27              		.file 1 "../ChibiOS_2.6.2/os/hal/platforms/STM32/GPIOv1/pal_lld.c"
  28              		.loc 1 77 0
  29              		.cfi_startproc
  30              		@ args = 0, pretend = 0, frame = 0
  31              		@ frame_needed = 0, uses_anonymous_args = 0
  32              		@ link register save eliminated.
  33              	.LVL0:
  34 0000 30B4     		push	{r4, r5}
  35              	.LCFI0:
  36              		.cfi_def_cfa_offset 8
  37              		.cfi_offset 5, -4
  38              		.cfi_offset 4, -8
  39              		.loc 1 82 0
  40 0002 4FF48055 		mov	r5, #4096
  41 0006 C4F20205 		movt	r5, 16386
  42 000a AB69     		ldr	r3, [r5, #24]
  43              		.loc 1 87 0
  44 000c 4FF4006C 		mov	ip, #2048
  45              		.loc 1 82 0
  46 0010 43F4FE71 		orr	r1, r3, #508
  47 0014 41F00104 		orr	r4, r1, #1
  48 0018 AC61     		str	r4, [r5, #24]
  49              		.loc 1 87 0
  50 001a 0268     		ldr	r2, [r0, #0]
  51 001c C4F2010C 		movt	ip, 16385
  52 0020 CCF80C20 		str	r2, [ip, #12]
  53              		.loc 1 88 0
  54 0024 8368     		ldr	r3, [r0, #8]
  55              		.loc 1 90 0
  56 0026 4FF44062 		mov	r2, #3072
  57              		.loc 1 88 0
ARM GAS  /tmp/ccwtXjQc.s 			page 2


  58 002a CCF80430 		str	r3, [ip, #4]
  59              		.loc 1 89 0
  60 002e 4168     		ldr	r1, [r0, #4]
  61              		.loc 1 90 0
  62 0030 C4F20102 		movt	r2, 16385
  63              		.loc 1 89 0
  64 0034 CCF80010 		str	r1, [ip, #0]
  65              		.loc 1 90 0
  66 0038 C568     		ldr	r5, [r0, #12]
  67              		.loc 1 93 0
  68 003a 4FF4805C 		mov	ip, #4096
  69              		.loc 1 90 0
  70 003e D560     		str	r5, [r2, #12]
  71              		.loc 1 91 0
  72 0040 4469     		ldr	r4, [r0, #20]
  73              		.loc 1 93 0
  74 0042 C4F2010C 		movt	ip, 16385
  75              		.loc 1 91 0
  76 0046 5460     		str	r4, [r2, #4]
  77              		.loc 1 92 0
  78 0048 0369     		ldr	r3, [r0, #16]
  79              		.loc 1 96 0
  80 004a 4FF4A054 		mov	r4, #5120
  81              		.loc 1 92 0
  82 004e 1360     		str	r3, [r2, #0]
  83              		.loc 1 93 0
  84 0050 8169     		ldr	r1, [r0, #24]
  85              		.loc 1 96 0
  86 0052 C4F20104 		movt	r4, 16385
  87              		.loc 1 93 0
  88 0056 CCF80C10 		str	r1, [ip, #12]
  89              		.loc 1 94 0
  90 005a 056A     		ldr	r5, [r0, #32]
  91              		.loc 1 100 0
  92 005c 4FF4C051 		mov	r1, #6144
  93              		.loc 1 94 0
  94 0060 CCF80450 		str	r5, [ip, #4]
  95              		.loc 1 95 0
  96 0064 C269     		ldr	r2, [r0, #28]
  97              		.loc 1 100 0
  98 0066 C4F20101 		movt	r1, 16385
  99              		.loc 1 95 0
 100 006a CCF80020 		str	r2, [ip, #0]
 101              		.loc 1 96 0
 102 006e 436A     		ldr	r3, [r0, #36]
 103              		.loc 1 104 0
 104 0070 4FF4E05C 		mov	ip, #7168
 105              		.loc 1 96 0
 106 0074 E360     		str	r3, [r4, #12]
 107              		.loc 1 97 0
 108 0076 C56A     		ldr	r5, [r0, #44]
 109              		.loc 1 104 0
 110 0078 C4F2010C 		movt	ip, 16385
 111              		.loc 1 97 0
 112 007c 6560     		str	r5, [r4, #4]
 113              		.loc 1 98 0
 114 007e 856A     		ldr	r5, [r0, #40]
ARM GAS  /tmp/ccwtXjQc.s 			page 3


 115              		.loc 1 108 0
 116 0080 4FF40053 		mov	r3, #8192
 117              		.loc 1 98 0
 118 0084 2560     		str	r5, [r4, #0]
 119              		.loc 1 100 0
 120 0086 026B     		ldr	r2, [r0, #48]
 121              		.loc 1 108 0
 122 0088 C4F20103 		movt	r3, 16385
 123              		.loc 1 100 0
 124 008c CA60     		str	r2, [r1, #12]
 125              		.loc 1 101 0
 126 008e 846B     		ldr	r4, [r0, #56]
 127 0090 4C60     		str	r4, [r1, #4]
 128              		.loc 1 102 0
 129 0092 446B     		ldr	r4, [r0, #52]
 130 0094 0C60     		str	r4, [r1, #0]
 131              		.loc 1 104 0
 132 0096 C16B     		ldr	r1, [r0, #60]
 133 0098 CCF80C10 		str	r1, [ip, #12]
 134              		.loc 1 105 0
 135 009c 426C     		ldr	r2, [r0, #68]
 136 009e CCF80420 		str	r2, [ip, #4]
 137              		.loc 1 106 0
 138 00a2 016C     		ldr	r1, [r0, #64]
 139 00a4 CCF80010 		str	r1, [ip, #0]
 140              		.loc 1 108 0
 141 00a8 826C     		ldr	r2, [r0, #72]
 142 00aa DA60     		str	r2, [r3, #12]
 143              		.loc 1 109 0
 144 00ac 016D     		ldr	r1, [r0, #80]
 145 00ae 5960     		str	r1, [r3, #4]
 146              		.loc 1 110 0
 147 00b0 C26C     		ldr	r2, [r0, #76]
 148 00b2 1A60     		str	r2, [r3, #0]
 149              		.loc 1 114 0
 150 00b4 30BC     		pop	{r4, r5}
 151 00b6 7047     		bx	lr
 152              		.cfi_endproc
 153              	.LFE63:
 154              		.size	_pal_lld_init, .-_pal_lld_init
 155 00b8 AFF30080 		.section	.text._pal_lld_setgroupmode,"ax",%progbits
 155      AFF30080 
 156              		.align	2
 157              		.p2align 4,,15
 158              		.global	_pal_lld_setgroupmode
 159              		.thumb
 160              		.thumb_func
 161              		.type	_pal_lld_setgroupmode, %function
 162              	_pal_lld_setgroupmode:
 163              	.LFB64:
 164              		.loc 1 133 0
 165              		.cfi_startproc
 166              		@ args = 0, pretend = 0, frame = 0
 167              		@ frame_needed = 0, uses_anonymous_args = 0
 168              		@ link register save eliminated.
 169              	.LVL1:
 170              		.loc 1 157 0
ARM GAS  /tmp/ccwtXjQc.s 			page 4


 171 0000 032A     		cmp	r2, #3
 172              		.loc 1 133 0
 173 0002 F0B4     		push	{r4, r5, r6, r7}
 174              	.LCFI1:
 175              		.cfi_def_cfa_offset 16
 176              		.cfi_offset 7, -4
 177              		.cfi_offset 6, -8
 178              		.cfi_offset 5, -12
 179              		.cfi_offset 4, -16
 180              		.loc 1 158 0
 181 0004 08BF     		it	eq
 182 0006 0161     		streq	r1, [r0, #16]
 183              		.loc 1 157 0
 184 0008 02D0     		beq	.L4
 185              		.loc 1 159 0
 186 000a 042A     		cmp	r2, #4
 187              		.loc 1 160 0
 188 000c 08BF     		it	eq
 189 000e 4161     		streq	r1, [r0, #20]
 190              	.L4:
 191              		.loc 1 161 0
 192 0010 40F20007 		movw	r7, #:lower16:.LANCHOR0
 193 0014 C0F20007 		movt	r7, #:upper16:.LANCHOR0
 194 0018 17F802C0 		ldrb	ip, [r7, r2]	@ zero_extendqisi2
 195              	.LVL2:
 196              		.loc 1 169 0
 197 001c 0F26     		movs	r6, #15
 198              		.loc 1 168 0
 199 001e 11F08007 		ands	r7, r1, #128
 200              		.loc 1 171 0
 201 0022 1CBF     		itt	ne
 202 0024 6746     		movne	r7, ip
 203              	.LVL3:
 204              		.loc 1 164 0
 205 0026 0026     		movne	r6, #0
 206              	.LVL4:
 207              		.loc 1 173 0
 208 0028 0F25     		movs	r5, #15
 209              		.loc 1 172 0
 210 002a 11F40042 		ands	r2, r1, #32768
 211              	.LVL5:
 212              		.loc 1 175 0
 213 002e 1CBF     		itt	ne
 214 0030 6246     		movne	r2, ip
 215              	.LVL6:
 216              		.loc 1 165 0
 217 0032 0025     		movne	r5, #0
 218              	.LVL7:
 219              		.loc 1 176 0
 220 0034 4B00     		lsls	r3, r1, #1
 221              	.LVL8:
 222              		.loc 1 164 0
 223 0036 3401     		lsls	r4, r6, #4
 224              	.LVL9:
 225              		.loc 1 166 0
 226 0038 3901     		lsls	r1, r7, #4
 227              		.loc 1 165 0
ARM GAS  /tmp/ccwtXjQc.s 			page 5


 228 003a 2E01     		lsls	r6, r5, #4
 229              	.LVL10:
 230              		.loc 1 167 0
 231 003c 1501     		lsls	r5, r2, #4
 232              	.LVL11:
 233              		.loc 1 168 0
 234 003e 13F0800F 		tst	r3, #128
 235              		.loc 1 169 0
 236 0042 0CBF     		ite	eq
 237 0044 44F00F04 		orreq	r4, r4, #15
 238              	.LVL12:
 239              		.loc 1 171 0
 240 0048 41EA0C01 		orrne	r1, r1, ip
 241              	.LVL13:
 242              		.loc 1 172 0
 243 004c 13F4004F 		tst	r3, #32768
 244              		.loc 1 175 0
 245 0050 14BF     		ite	ne
 246 0052 45EA0C05 		orrne	r5, r5, ip
 247              	.LVL14:
 248              		.loc 1 173 0
 249 0056 46F00F06 		orreq	r6, r6, #15
 250              	.LVL15:
 251              		.loc 1 176 0
 252 005a 5A00     		lsls	r2, r3, #1
 253              	.LVL16:
 254              		.loc 1 165 0
 255 005c 3601     		lsls	r6, r6, #4
 256              	.LVL17:
 257              		.loc 1 164 0
 258 005e 2301     		lsls	r3, r4, #4
 259              	.LVL18:
 260              		.loc 1 166 0
 261 0060 0901     		lsls	r1, r1, #4
 262              	.LVL19:
 263              		.loc 1 167 0
 264 0062 2D01     		lsls	r5, r5, #4
 265              	.LVL20:
 266              		.loc 1 168 0
 267 0064 12F0800F 		tst	r2, #128
 268              		.loc 1 169 0
 269 0068 0CBF     		ite	eq
 270 006a 43F00F03 		orreq	r3, r3, #15
 271              	.LVL21:
 272              		.loc 1 171 0
 273 006e 41EA0C01 		orrne	r1, r1, ip
 274              	.LVL22:
 275              		.loc 1 172 0
 276 0072 12F4004F 		tst	r2, #32768
 277              		.loc 1 173 0
 278 0076 0CBF     		ite	eq
 279 0078 46F00F06 		orreq	r6, r6, #15
 280              	.LVL23:
 281              		.loc 1 175 0
 282 007c 45EA0C05 		orrne	r5, r5, ip
 283              	.LVL24:
 284              		.loc 1 176 0
ARM GAS  /tmp/ccwtXjQc.s 			page 6


 285 0080 5200     		lsls	r2, r2, #1
 286              	.LVL25:
 287              		.loc 1 164 0
 288 0082 1C01     		lsls	r4, r3, #4
 289              	.LVL26:
 290              		.loc 1 166 0
 291 0084 0901     		lsls	r1, r1, #4
 292              	.LVL27:
 293              		.loc 1 165 0
 294 0086 3301     		lsls	r3, r6, #4
 295              	.LVL28:
 296              		.loc 1 167 0
 297 0088 2D01     		lsls	r5, r5, #4
 298              	.LVL29:
 299              		.loc 1 168 0
 300 008a 12F0800F 		tst	r2, #128
 301              		.loc 1 171 0
 302 008e 14BF     		ite	ne
 303 0090 41EA0C01 		orrne	r1, r1, ip
 304              	.LVL30:
 305              		.loc 1 169 0
 306 0094 44F00F04 		orreq	r4, r4, #15
 307              	.LVL31:
 308              		.loc 1 172 0
 309 0098 12F4004F 		tst	r2, #32768
 310              		.loc 1 175 0
 311 009c 14BF     		ite	ne
 312 009e 45EA0C05 		orrne	r5, r5, ip
 313              	.LVL32:
 314              		.loc 1 173 0
 315 00a2 43F00F03 		orreq	r3, r3, #15
 316              	.LVL33:
 317              		.loc 1 176 0
 318 00a6 5200     		lsls	r2, r2, #1
 319              	.LVL34:
 320              		.loc 1 165 0
 321 00a8 1E01     		lsls	r6, r3, #4
 322              		.loc 1 167 0
 323 00aa 2D01     		lsls	r5, r5, #4
 324              	.LVL35:
 325              		.loc 1 166 0
 326 00ac 0B01     		lsls	r3, r1, #4
 327              	.LVL36:
 328              		.loc 1 164 0
 329 00ae 2401     		lsls	r4, r4, #4
 330              	.LVL37:
 331              		.loc 1 168 0
 332 00b0 12F0800F 		tst	r2, #128
 333              		.loc 1 171 0
 334 00b4 14BF     		ite	ne
 335 00b6 43EA0C03 		orrne	r3, r3, ip
 336              	.LVL38:
 337              		.loc 1 169 0
 338 00ba 44F00F04 		orreq	r4, r4, #15
 339              	.LVL39:
 340              		.loc 1 172 0
 341 00be 12F4004F 		tst	r2, #32768
ARM GAS  /tmp/ccwtXjQc.s 			page 7


 342              		.loc 1 175 0
 343 00c2 14BF     		ite	ne
 344 00c4 45EA0C05 		orrne	r5, r5, ip
 345              	.LVL40:
 346              		.loc 1 173 0
 347 00c8 46F00F06 		orreq	r6, r6, #15
 348              	.LVL41:
 349              		.loc 1 176 0
 350 00cc 5200     		lsls	r2, r2, #1
 351              	.LVL42:
 352              		.loc 1 166 0
 353 00ce 1901     		lsls	r1, r3, #4
 354              		.loc 1 164 0
 355 00d0 2401     		lsls	r4, r4, #4
 356              	.LVL43:
 357              		.loc 1 167 0
 358 00d2 2B01     		lsls	r3, r5, #4
 359              	.LVL44:
 360              		.loc 1 165 0
 361 00d4 3601     		lsls	r6, r6, #4
 362              	.LVL45:
 363              		.loc 1 168 0
 364 00d6 12F0800F 		tst	r2, #128
 365              		.loc 1 171 0
 366 00da 14BF     		ite	ne
 367 00dc 41EA0C01 		orrne	r1, r1, ip
 368              	.LVL46:
 369              		.loc 1 169 0
 370 00e0 44F00F04 		orreq	r4, r4, #15
 371              	.LVL47:
 372              		.loc 1 172 0
 373 00e4 12F4004F 		tst	r2, #32768
 374              		.loc 1 175 0
 375 00e8 14BF     		ite	ne
 376 00ea 43EA0C03 		orrne	r3, r3, ip
 377              	.LVL48:
 378              		.loc 1 173 0
 379 00ee 46F00F06 		orreq	r6, r6, #15
 380              	.LVL49:
 381              		.loc 1 176 0
 382 00f2 5200     		lsls	r2, r2, #1
 383              	.LVL50:
 384              		.loc 1 167 0
 385 00f4 1D01     		lsls	r5, r3, #4
 386              		.loc 1 164 0
 387 00f6 2401     		lsls	r4, r4, #4
 388              	.LVL51:
 389              		.loc 1 165 0
 390 00f8 3601     		lsls	r6, r6, #4
 391              	.LVL52:
 392              		.loc 1 166 0
 393 00fa 0901     		lsls	r1, r1, #4
 394              	.LVL53:
 395              		.loc 1 168 0
 396 00fc 12F0800F 		tst	r2, #128
 397              		.loc 1 171 0
 398 0100 14BF     		ite	ne
ARM GAS  /tmp/ccwtXjQc.s 			page 8


 399 0102 41EA0C01 		orrne	r1, r1, ip
 400              	.LVL54:
 401              		.loc 1 169 0
 402 0106 44F00F04 		orreq	r4, r4, #15
 403              	.LVL55:
 404              		.loc 1 172 0
 405 010a 12F4004F 		tst	r2, #32768
 406              		.loc 1 175 0
 407 010e 14BF     		ite	ne
 408 0110 45EA0C05 		orrne	r5, r5, ip
 409              	.LVL56:
 410              		.loc 1 173 0
 411 0114 46F00F06 		orreq	r6, r6, #15
 412              	.LVL57:
 413              		.loc 1 176 0
 414 0118 5300     		lsls	r3, r2, #1
 415              	.LVL58:
 416              		.loc 1 164 0
 417 011a 2401     		lsls	r4, r4, #4
 418              	.LVL59:
 419              		.loc 1 165 0
 420 011c 3601     		lsls	r6, r6, #4
 421              	.LVL60:
 422              		.loc 1 166 0
 423 011e 0901     		lsls	r1, r1, #4
 424              	.LVL61:
 425              		.loc 1 167 0
 426 0120 2D01     		lsls	r5, r5, #4
 427              	.LVL62:
 428              		.loc 1 168 0
 429 0122 13F0800F 		tst	r3, #128
 430              		.loc 1 169 0
 431 0126 0CBF     		ite	eq
 432 0128 44F00F04 		orreq	r4, r4, #15
 433              	.LVL63:
 434              		.loc 1 171 0
 435 012c 41EA0C01 		orrne	r1, r1, ip
 436              	.LVL64:
 437              		.loc 1 172 0
 438 0130 1A04     		lsls	r2, r3, #16
 439              		.loc 1 178 0
 440 0132 4268     		ldr	r2, [r0, #4]
 441              		.loc 1 173 0
 442 0134 54BF     		ite	pl
 443 0136 46F00F06 		orrpl	r6, r6, #15
 444              	.LVL65:
 445              		.loc 1 175 0
 446 013a 45EA0C05 		orrmi	r5, r5, ip
 447              	.LVL66:
 448              		.loc 1 178 0
 449 013e 1640     		ands	r6, r6, r2
 450              	.LVL67:
 451 0140 3543     		orrs	r5, r5, r6
 452              	.LVL68:
 453 0142 4560     		str	r5, [r0, #4]
 454              		.loc 1 179 0
 455 0144 0368     		ldr	r3, [r0, #0]
ARM GAS  /tmp/ccwtXjQc.s 			page 9


 456 0146 1C40     		ands	r4, r4, r3
 457              	.LVL69:
 458 0148 2143     		orrs	r1, r1, r4
 459              	.LVL70:
 460 014a 0160     		str	r1, [r0, #0]
 461              		.loc 1 180 0
 462 014c F0BC     		pop	{r4, r5, r6, r7}
 463 014e 7047     		bx	lr
 464              		.cfi_endproc
 465              	.LFE64:
 466              		.size	_pal_lld_setgroupmode, .-_pal_lld_setgroupmode
 467              		.section	.rodata.cfgtab.6358,"a",%progbits
 468              		.align	2
 469              		.set	.LANCHOR0,. + 0
 470              		.type	cfgtab.6358, %object
 471              		.size	cfgtab.6358, 18
 472              	cfgtab.6358:
 473 0000 04       		.byte	4
 474 0001 02       		.byte	2
 475 0002 04       		.byte	4
 476 0003 08       		.byte	8
 477 0004 08       		.byte	8
 478 0005 00       		.byte	0
 479 0006 03       		.byte	3
 480 0007 07       		.byte	7
 481 0008 08       		.byte	8
 482 0009 08       		.byte	8
 483 000a 08       		.byte	8
 484 000b 08       		.byte	8
 485 000c 08       		.byte	8
 486 000d 08       		.byte	8
 487 000e 08       		.byte	8
 488 000f 08       		.byte	8
 489 0010 0B       		.byte	11
 490 0011 0F       		.byte	15
 491 0012 0000     		.text
 492              	.Letext0:
 493              		.file 2 "/opt/pros/toolchain/bin/../lib/gcc/arm-none-eabi/4.6.3/../../../../arm-none-eabi/include/
 494              		.file 3 "../ChibiOS_2.6.2/os/hal/platforms/STM32F1xx/stm32f10x.h"
 495              		.file 4 "../ChibiOS_2.6.2/os/hal/platforms/STM32/GPIOv1/pal_lld.h"
 496              		.file 5 "../ChibiOS_2.6.2/os/ports/common/ARMCMx/CMSIS/include/core_cm3.h"