ARM GAS  /tmp/ccgBRCvD.s 			page 1


   1              		.syntax unified
   2              		.cpu cortex-m3
   3              		.fpu softvfp
   4              		.eabi_attribute 20, 1
   5              		.eabi_attribute 21, 1
   6              		.eabi_attribute 23, 3
   7              		.eabi_attribute 24, 1
   8              		.eabi_attribute 25, 1
   9              		.eabi_attribute 26, 1
  10              		.eabi_attribute 30, 2
  11              		.eabi_attribute 34, 1
  12              		.eabi_attribute 18, 4
  13              		.thumb
  14              		.file	"pidlib.c"
  15              		.text
  16              	.Ltext0:
  17              		.cfi_sections	.debug_frame
  18              		.global	__aeabi_i2f
  19              		.global	__aeabi_fcmplt
  20              		.global	__aeabi_fcmpeq
  21              		.global	__aeabi_fadd
  22              		.global	__aeabi_fcmpgt
  23              		.global	__aeabi_fmul
  24              		.global	__aeabi_fsub
  25              		.global	__aeabi_f2d
  26              		.global	__aeabi_dmul
  27              		.global	__aeabi_d2iz
  28              		.global	__aeabi_f2iz
  29              		.section	.text.PidControllerUpdate,"ax",%progbits
  30              		.align	2
  31              		.p2align 4,,15
  32              		.global	PidControllerUpdate
  33              		.thumb
  34              		.thumb_func
  35              		.type	PidControllerUpdate, %function
  36              	PidControllerUpdate:
  37              	.LFB71:
  38              		.file 1 "../convex/cortex/opt/pidlib.c"
  39              		.loc 1 160 0
  40              		.cfi_startproc
  41              		@ args = 0, pretend = 0, frame = 0
  42              		@ frame_needed = 0, uses_anonymous_args = 0
  43              	.LVL0:
  44 0000 2DE9F047 		push	{r4, r5, r6, r7, r8, r9, sl, lr}
  45              	.LCFI0:
  46              		.cfi_def_cfa_offset 32
  47              		.cfi_offset 14, -4
  48              		.cfi_offset 10, -8
  49              		.cfi_offset 9, -12
  50              		.cfi_offset 8, -16
  51              		.cfi_offset 7, -20
  52              		.cfi_offset 6, -24
  53              		.cfi_offset 5, -28
  54              		.cfi_offset 4, -32
  55              		.loc 1 161 0
  56 0004 0446     		mov	r4, r0
  57 0006 0028     		cmp	r0, #0
ARM GAS  /tmp/ccgBRCvD.s 			page 2


  58 0008 00F09980 		beq	.L2
  59              		.loc 1 164 0
  60 000c B0F90030 		ldrsh	r3, [r0, #0]
  61 0010 002B     		cmp	r3, #0
  62 0012 00F09780 		beq	.L3
  63              		.loc 1 168 0
  64 0016 90F93400 		ldrsb	r0, [r0, #52]
  65              	.LVL1:
  66 001a 0028     		cmp	r0, #0
  67 001c B8BF     		it	lt
  68 001e 6569     		ldrlt	r5, [r4, #20]	@ float
  69 0020 0DDB     		blt	.L5
  70              		.loc 1 171 0
  71 0022 FFF7FEFF 		bl	vexSensorValueGet
  72              		.loc 1 174 0
  73 0026 B4F93630 		ldrsh	r3, [r4, #54]
  74              		.loc 1 171 0
  75 002a A063     		str	r0, [r4, #56]
  76              		.loc 1 174 0
  77 002c 002B     		cmp	r3, #0
  78 002e 40F0D680 		bne	.L42
  79              	.L6:
  80              		.loc 1 184 0
  81 0032 E26B     		ldr	r2, [r4, #60]
  82 0034 101A     		subs	r0, r2, r0
  83 0036 FFF7FEFF 		bl	__aeabi_i2f
  84 003a 0546     		mov	r5, r0
  85 003c 6061     		str	r0, [r4, #20]	@ float
  86              	.L5:
  87              		.loc 1 188 0
  88 003e 25F00040 		bic	r0, r5, #-2147483648
  89 0042 A16A     		ldr	r1, [r4, #40]	@ float
  90 0044 FFF7FEFF 		bl	__aeabi_fcmplt
  91 0048 08B1     		cbz	r0, .L8
  92              		.loc 1 189 0
  93 004a 0025     		movs	r5, #0
  94 004c 6561     		str	r5, [r4, #20]	@ float
  95              	.L8:
  96              		.loc 1 192 0
  97 004e A768     		ldr	r7, [r4, #8]	@ float
  98 0050 0026     		movs	r6, #0
  99 0052 3846     		mov	r0, r7
 100 0054 3146     		mov	r1, r6
 101 0056 FFF7FEFF 		bl	__aeabi_fcmpeq
 102 005a 0028     		cmp	r0, #0
 103 005c 40F08C80 		bne	.L36
 104              		.loc 1 194 0
 105 0060 E169     		ldr	r1, [r4, #28]	@ float
 106 0062 2846     		mov	r0, r5
 107 0064 FFF7FEFF 		bl	__aeabi_fadd
 108              		.loc 1 197 0
 109 0068 D4F820A0 		ldr	sl, [r4, #32]	@ float
 110              		.loc 1 194 0
 111 006c 8146     		mov	r9, r0
 112 006e C4F81C90 		str	r9, [r4, #28]	@ float
 113              		.loc 1 197 0
 114 0072 20F00040 		bic	r0, r0, #-2147483648
ARM GAS  /tmp/ccgBRCvD.s 			page 3


 115 0076 5146     		mov	r1, sl
 116              		.loc 1 194 0
 117 0078 C846     		mov	r8, r9
 118              		.loc 1 197 0
 119 007a FFF7FEFF 		bl	__aeabi_fcmpgt
 120 007e 0028     		cmp	r0, #0
 121 0080 40F09780 		bne	.L43
 122              	.L12:
 123              		.loc 1 204 0
 124 0084 A169     		ldr	r1, [r4, #24]	@ float
 125 0086 2846     		mov	r0, r5
 126 0088 FFF7FEFF 		bl	__aeabi_fsub
 127              		.loc 1 205 0
 128 008c A561     		str	r5, [r4, #24]	@ float
 129              		.loc 1 204 0
 130 008e 0646     		mov	r6, r0
 131 0090 6062     		str	r0, [r4, #36]	@ float
 132              		.loc 1 208 0
 133 0092 6168     		ldr	r1, [r4, #4]	@ float
 134 0094 2846     		mov	r0, r5
 135 0096 FFF7FEFF 		bl	__aeabi_fmul
 136 009a 4146     		mov	r1, r8
 137 009c 0546     		mov	r5, r0
 138 009e 3846     		mov	r0, r7
 139 00a0 FFF7FEFF 		bl	__aeabi_fmul
 140 00a4 0146     		mov	r1, r0
 141 00a6 2846     		mov	r0, r5
 142 00a8 FFF7FEFF 		bl	__aeabi_fadd
 143 00ac E168     		ldr	r1, [r4, #12]	@ float
 144 00ae 0546     		mov	r5, r0
 145 00b0 3046     		mov	r0, r6
 146 00b2 FFF7FEFF 		bl	__aeabi_fmul
 147 00b6 0146     		mov	r1, r0
 148 00b8 2846     		mov	r0, r5
 149 00ba FFF7FEFF 		bl	__aeabi_fadd
 150 00be 2169     		ldr	r1, [r4, #16]	@ float
 151 00c0 FFF7FEFF 		bl	__aeabi_fadd
 152 00c4 0546     		mov	r5, r0
 153 00c6 E562     		str	r5, [r4, #44]	@ float
 154              		.loc 1 211 0
 155 00c8 20F00040 		bic	r0, r0, #-2147483648
 156 00cc 4FF07E51 		mov	r1, #1065353216
 157 00d0 FFF7FEFF 		bl	__aeabi_fcmpgt
 158 00d4 0028     		cmp	r0, #0
 159 00d6 52D1     		bne	.L16
 160 00d8 2846     		mov	r0, r5
 161 00da FFF7FEFF 		bl	__aeabi_f2d
 162 00de 4EA3     		adr	r3, .L45
 163 00e0 D3E90023 		ldrd	r2, [r3]
 164 00e4 FFF7FEFF 		bl	__aeabi_dmul
 165 00e8 FFF7FEFF 		bl	__aeabi_d2iz
 166 00ec 05B2     		sxth	r5, r0
 167 00ee 0746     		mov	r7, r0	@ movhi
 168 00f0 2846     		mov	r0, r5
 169 00f2 FFF7FEFF 		bl	__aeabi_i2f
 170 00f6 002D     		cmp	r5, #0
 171 00f8 B8BF     		it	lt
ARM GAS  /tmp/ccgBRCvD.s 			page 4


 172 00fa 6D42     		rsblt	r5, r5, #0
 173 00fc 0646     		mov	r6, r0
 174              	.L17:
 175              		.loc 1 230 0
 176 00fe 40F2000C 		movw	ip, #:lower16:.LANCHOR0
 177 0102 C0F2000C 		movt	ip, #:upper16:.LANCHOR0
 178 0106 3CF91500 		ldrsh	r0, [ip, r5, lsl #1]
 179              		.loc 1 215 0
 180 010a 2786     		strh	r7, [r4, #48]	@ movhi
 181              		.loc 1 230 0
 182 010c FFF7FEFF 		bl	__aeabi_i2f
 183              	.LBB18:
 184              	.LBB19:
 185              		.loc 1 74 0
 186 0110 0021     		movs	r1, #0
 187              	.LBE19:
 188              	.LBE18:
 189              		.loc 1 230 0
 190 0112 0546     		mov	r5, r0
 191              	.LVL2:
 192              	.LBB22:
 193              	.LBB20:
 194              		.loc 1 74 0
 195 0114 3046     		mov	r0, r6
 196 0116 FFF7FEFF 		bl	__aeabi_fcmpeq
 197 011a 0028     		cmp	r0, #0
 198 011c 79D1     		bne	.L44
 199              		.loc 1 75 0
 200 011e 0021     		movs	r1, #0
 201 0120 3046     		mov	r0, r6
 202 0122 FFF7FEFF 		bl	__aeabi_fcmpgt
 203 0126 4FF07E51 		mov	r1, #1065353216
 204 012a E0B9     		cbnz	r0, .L20
 205 012c 0021     		movs	r1, #0
 206 012e CBF68071 		movt	r1, 49024
 207              	.LBE20:
 208              	.LBE22:
 209              		.loc 1 230 0
 210 0132 2846     		mov	r0, r5
 211 0134 FFF7FEFF 		bl	__aeabi_fmul
 212 0138 FFF7FEFF 		bl	__aeabi_f2iz
 213 013c 6086     		strh	r0, [r4, #50]	@ movhi
 214              	.LVL3:
 215              	.L2:
 216              		.loc 1 234 0
 217 013e 00B2     		sxth	r0, r0
 218 0140 BDE8F087 		pop	{r4, r5, r6, r7, r8, r9, sl, pc}
 219              	.L3:
 220              		.loc 1 230 0
 221 0144 40F2000E 		movw	lr, #:lower16:.LANCHOR0
 222              		.loc 1 221 0
 223 0148 0026     		movs	r6, #0
 224              		.loc 1 230 0
 225 014a C0F2000E 		movt	lr, #:upper16:.LANCHOR0
 226              		.loc 1 221 0
 227 014e 4661     		str	r6, [r0, #20]	@ float
 228              		.loc 1 222 0
ARM GAS  /tmp/ccgBRCvD.s 			page 5


 229 0150 8661     		str	r6, [r0, #24]	@ float
 230              		.loc 1 223 0
 231 0152 C661     		str	r6, [r0, #28]	@ float
 232              		.loc 1 224 0
 233 0154 4662     		str	r6, [r0, #36]	@ float
 234              		.loc 1 225 0
 235 0156 C662     		str	r6, [r0, #44]	@ float
 236              		.loc 1 226 0
 237 0158 0386     		strh	r3, [r0, #48]	@ movhi
 238              		.loc 1 230 0
 239 015a BEF90000 		ldrsh	r0, [lr, #0]
 240 015e FFF7FEFF 		bl	__aeabi_i2f
 241              		.loc 1 74 0
 242 0162 3146     		mov	r1, r6
 243              		.loc 1 230 0
 244 0164 0546     		mov	r5, r0
 245              	.LVL4:
 246              	.L20:
 247 0166 2846     		mov	r0, r5
 248 0168 FFF7FEFF 		bl	__aeabi_fmul
 249 016c FFF7FEFF 		bl	__aeabi_f2iz
 250 0170 6086     		strh	r0, [r4, #50]	@ movhi
 251              		.loc 1 234 0
 252 0172 00B2     		sxth	r0, r0
 253 0174 BDE8F087 		pop	{r4, r5, r6, r7, r8, r9, sl, pc}
 254              	.L36:
 255              		.loc 1 201 0
 256 0178 E661     		str	r6, [r4, #28]	@ float
 257 017a B046     		mov	r8, r6
 258 017c 82E7     		b	.L12
 259              	.L16:
 260              	.LVL5:
 261              	.LBB23:
 262              	.LBB24:
 263              		.loc 1 74 0
 264 017e 2846     		mov	r0, r5
 265 0180 0021     		movs	r1, #0
 266 0182 FFF7FEFF 		bl	__aeabi_fcmpeq
 267 0186 70B9     		cbnz	r0, .L26
 268              		.loc 1 75 0
 269 0188 2846     		mov	r0, r5
 270 018a 0021     		movs	r1, #0
 271 018c FFF7FEFF 		bl	__aeabi_fcmpgt
 272 0190 0028     		cmp	r0, #0
 273 0192 2FD0     		beq	.L38
 274 0194 7F25     		movs	r5, #127
 275              	.LVL6:
 276 0196 0026     		movs	r6, #0
 277 0198 4FF07E53 		mov	r3, #1065353216
 278 019c C4F2FE26 		movt	r6, 17150
 279 01a0 2F46     		mov	r7, r5
 280              	.LBE24:
 281              	.LBE23:
 282              		.loc 1 212 0
 283 01a2 E362     		str	r3, [r4, #44]	@ float
 284 01a4 ABE7     		b	.L17
 285              	.LVL7:
ARM GAS  /tmp/ccgBRCvD.s 			page 6


 286              	.L26:
 287              	.LBB27:
 288              	.LBB25:
 289              		.loc 1 74 0
 290 01a6 0026     		movs	r6, #0
 291 01a8 0025     		movs	r5, #0
 292              	.LVL8:
 293 01aa 3346     		mov	r3, r6
 294 01ac 2F46     		mov	r7, r5
 295              	.LBE25:
 296              	.LBE27:
 297              		.loc 1 212 0
 298 01ae E362     		str	r3, [r4, #44]	@ float
 299 01b0 A5E7     		b	.L17
 300              	.L43:
 301              	.LVL9:
 302              	.LBB28:
 303              	.LBB29:
 304              		.loc 1 74 0
 305 01b2 3146     		mov	r1, r6
 306 01b4 4846     		mov	r0, r9
 307 01b6 FFF7FEFF 		bl	__aeabi_fcmpeq
 308 01ba 3146     		mov	r1, r6
 309 01bc 48B9     		cbnz	r0, .L14
 310              		.loc 1 75 0
 311 01be 3146     		mov	r1, r6
 312 01c0 4846     		mov	r0, r9
 313 01c2 FFF7FEFF 		bl	__aeabi_fcmpgt
 314 01c6 4FF07E51 		mov	r1, #1065353216
 315 01ca 10B9     		cbnz	r0, .L14
 316 01cc 0021     		movs	r1, #0
 317 01ce CBF68071 		movt	r1, 49024
 318              	.L14:
 319              	.LBE29:
 320              	.LBE28:
 321              		.loc 1 198 0
 322 01d2 5046     		mov	r0, sl
 323 01d4 FFF7FEFF 		bl	__aeabi_fmul
 324 01d8 8046     		mov	r8, r0
 325              	.LVL10:
 326 01da E061     		str	r0, [r4, #28]	@ float
 327 01dc 52E7     		b	.L12
 328              	.LVL11:
 329              	.L42:
 330              		.loc 1 176 0
 331 01de 94F93400 		ldrsb	r0, [r4, #52]
 332 01e2 FFF7FEFF 		bl	vexSensorIsAnalog
 333 01e6 80B1     		cbz	r0, .L7
 334              		.loc 1 178 0
 335 01e8 A06B     		ldr	r0, [r4, #56]
 336 01ea C0F57E60 		rsb	r0, r0, #4064
 337 01ee 1F30     		adds	r0, r0, #31
 338 01f0 A063     		str	r0, [r4, #56]
 339 01f2 1EE7     		b	.L6
 340              	.LVL12:
 341              	.L38:
 342              	.LBB30:
ARM GAS  /tmp/ccgBRCvD.s 			page 7


 343              	.LBB26:
 344              		.loc 1 75 0
 345 01f4 0023     		movs	r3, #0
 346 01f6 0026     		movs	r6, #0
 347 01f8 CBF68073 		movt	r3, 49024
 348 01fc CCF2FE26 		movt	r6, 49918
 349 0200 7F25     		movs	r5, #127
 350              	.LVL13:
 351 0202 4FF68177 		movw	r7, #65409
 352              	.LBE26:
 353              	.LBE30:
 354              		.loc 1 212 0
 355 0206 E362     		str	r3, [r4, #44]	@ float
 356 0208 79E7     		b	.L17
 357              	.L7:
 358              		.loc 1 181 0
 359 020a A16B     		ldr	r1, [r4, #56]
 360 020c 4842     		negs	r0, r1
 361 020e A063     		str	r0, [r4, #56]
 362 0210 0FE7     		b	.L6
 363              	.LVL14:
 364              	.L44:
 365              	.LBB31:
 366              	.LBB21:
 367              		.loc 1 74 0
 368 0212 0021     		movs	r1, #0
 369 0214 A7E7     		b	.L20
 370              	.L46:
 371 0216 00BF     		.align	3
 372              	.L45:
 373 0218 00000000 		.word	0
 374 021c 00C05F40 		.word	1080016896
 375              	.LBE21:
 376              	.LBE31:
 377              		.cfi_endproc
 378              	.LFE71:
 379              		.size	PidControllerUpdate, .-PidControllerUpdate
 380              		.global	__aeabi_fdiv
 381              		.global	__aeabi_f2uiz
 382              		.global	__aeabi_dsub
 383              		.global	__aeabi_ddiv
 384              		.global	__aeabi_dadd
 385              		.section	.text.PidControllerMakeLut,"ax",%progbits
 386              		.align	2
 387              		.p2align 4,,15
 388              		.global	PidControllerMakeLut
 389              		.thumb
 390              		.thumb_func
 391              		.type	PidControllerMakeLut, %function
 392              	PidControllerMakeLut:
 393              	.LFB72:
 394              		.loc 1 243 0
 395              		.cfi_startproc
 396              		@ args = 0, pretend = 0, frame = 0
 397              		@ frame_needed = 0, uses_anonymous_args = 0
 398              	.LVL15:
 399 0000 2DE9F84F 		push	{r3, r4, r5, r6, r7, r8, r9, sl, fp, lr}
ARM GAS  /tmp/ccgBRCvD.s 			page 8


 400              	.LCFI1:
 401              		.cfi_def_cfa_offset 40
 402              		.cfi_offset 14, -4
 403              		.cfi_offset 11, -8
 404              		.cfi_offset 10, -12
 405              		.cfi_offset 9, -16
 406              		.cfi_offset 8, -20
 407              		.cfi_offset 7, -24
 408              		.cfi_offset 6, -28
 409              		.cfi_offset 5, -32
 410              		.cfi_offset 4, -36
 411              		.cfi_offset 3, -40
 412              		.loc 1 243 0
 413 0004 0024     		movs	r4, #0
 414 0006 40F20006 		movw	r6, #:lower16:.LANCHOR0
 415              		.loc 1 247 0
 416 000a 2546     		mov	r5, r4
 417 000c C0F20006 		movt	r6, #:upper16:.LANCHOR0
 418              	.LVL16:
 419              	.L53:
 420              		.loc 1 252 0
 421 0010 0FFA85F8 		sxth	r8, r5
 422 0014 4046     		mov	r0, r8
 423 0016 FFF7FEFF 		bl	__aeabi_i2f
 424 001a 0021     		movs	r1, #0
 425 001c C4F2FE21 		movt	r1, 17150
 426 0020 FFF7FEFF 		bl	__aeabi_fdiv
 427              	.LBB32:
 428              	.LBB33:
 429              		.file 2 "../convex/cortex/opt/fastmath.c"
 430              		.loc 2 93 0
 431 0024 44F6B741 		movw	r1, #19639
 432 0028 C4F28A01 		movt	r1, 16522
 433 002c FFF7FEFF 		bl	__aeabi_fmul
 434              	.LBB34:
 435              	.LBB35:
 436              		.loc 2 61 0
 437 0030 0021     		movs	r1, #0
 438              	.LBE35:
 439              	.LBE34:
 440              		.loc 2 93 0
 441 0032 0746     		mov	r7, r0
 442              	.LVL17:
 443              	.LBB39:
 444              	.LBB36:
 445              		.loc 2 61 0
 446 0034 FFF7FEFF 		bl	__aeabi_fcmplt
 447              	.LVL18:
 448 0038 4FF00009 		mov	r9, #0
 449 003c 08B1     		cbz	r0, .L48
 450 003e 4FF07E59 		mov	r9, #1065353216
 451              	.L48:
 452              	.LVL19:
 453              		.loc 2 62 0
 454 0042 0021     		movs	r1, #0
 455 0044 CCF2FC21 		movt	r1, 49916
 456 0048 3846     		mov	r0, r7
ARM GAS  /tmp/ccgBRCvD.s 			page 9


 457 004a FFF7FEFF 		bl	__aeabi_fcmplt
 458 004e 43F6F02B 		movw	fp, #15088
 459 0052 CCF2970B 		movt	fp, 49303
 460 0056 4FF0000A 		mov	sl, #0
 461 005a 88B9     		cbnz	r0, .L50
 462 005c 3846     		mov	r0, r7
 463 005e FFF7FEFF 		bl	__aeabi_f2iz
 464 0062 FFF7FEFF 		bl	__aeabi_i2f
 465 0066 0146     		mov	r1, r0
 466 0068 3846     		mov	r0, r7
 467 006a FFF7FEFF 		bl	__aeabi_fsub
 468 006e 48F65141 		movw	r1, #35921
 469 0072 8246     		mov	sl, r0
 470 0074 C4F2F221 		movt	r1, 17138
 471 0078 3846     		mov	r0, r7
 472 007a FFF7FEFF 		bl	__aeabi_fadd
 473 007e 8346     		mov	fp, r0
 474              	.L50:
 475              	.LVL20:
 476              	.LBE36:
 477              	.LBE39:
 478              	.LBE33:
 479              	.LBE32:
 480              		.loc 1 254 0
 481 0080 B8F1040F 		cmp	r8, #4
 482              	.LBB44:
 483              	.LBB42:
 484              	.LBB40:
 485              	.LBB37:
 486              		.loc 2 64 0
 487 0084 5146     		mov	r1, sl
 488 0086 4846     		mov	r0, r9
 489              	.LBE37:
 490              	.LBE40:
 491              	.LBE42:
 492              	.LBE44:
 493              		.loc 1 257 0
 494 0088 D8BF     		it	le
 495 008a 3453     		strhle	r4, [r6, r4]	@ movhi
 496              		.loc 1 254 0
 497 008c 41DD     		ble	.L52
 498              	.LBB45:
 499              	.LBB43:
 500              	.LBB41:
 501              	.LBB38:
 502              		.loc 2 64 0
 503 008e FFF7FEFF 		bl	__aeabi_fadd
 504              		.loc 2 65 0
 505 0092 0146     		mov	r1, r0
 506              		.loc 2 64 0
 507 0094 0746     		mov	r7, r0
 508              	.LVL21:
 509              		.loc 2 65 0
 510 0096 4FF2F850 		movw	r0, #62968
 511 009a C4F29A00 		movt	r0, 16538
 512 009e FFF7FEFF 		bl	__aeabi_fsub
 513 00a2 0146     		mov	r1, r0
ARM GAS  /tmp/ccgBRCvD.s 			page 10


 514 00a4 4DF2FE20 		movw	r0, #54014
 515 00a8 C4F2DD10 		movt	r0, 16861
 516 00ac FFF7FEFF 		bl	__aeabi_fdiv
 517 00b0 5946     		mov	r1, fp
 518 00b2 FFF7FEFF 		bl	__aeabi_fadd
 519 00b6 4BF68D41 		movw	r1, #48269
 520 00ba 8046     		mov	r8, r0
 521 00bc C3F6BE71 		movt	r1, 16318
 522 00c0 3846     		mov	r0, r7
 523 00c2 FFF7FEFF 		bl	__aeabi_fmul
 524 00c6 0146     		mov	r1, r0
 525 00c8 4046     		mov	r0, r8
 526 00ca FFF7FEFF 		bl	__aeabi_fsub
 527 00ce 4FF09641 		mov	r1, #1258291200
 528 00d2 FFF7FEFF 		bl	__aeabi_fmul
 529 00d6 FFF7FEFF 		bl	__aeabi_f2uiz
 530              	.LBE38:
 531              	.LBE41:
 532              	.LBE43:
 533              	.LBE45:
 534              		.loc 1 255 0
 535 00da FFF7FEFF 		bl	__aeabi_f2d
 536 00de 0023     		movs	r3, #0
 537 00e0 0022     		movs	r2, #0
 538 00e2 C3F6F073 		movt	r3, 16368
 539 00e6 FFF7FEFF 		bl	__aeabi_dsub
 540 00ea 0023     		movs	r3, #0
 541 00ec 0022     		movs	r2, #0
 542 00ee C4F23303 		movt	r3, 16435
 543 00f2 FFF7FEFF 		bl	__aeabi_ddiv
 544 00f6 0CA3     		adr	r3, .L59
 545 00f8 D3E90023 		ldrd	r2, [r3]
 546 00fc FFF7FEFF 		bl	__aeabi_dmul
 547 0100 0023     		movs	r3, #0
 548 0102 0022     		movs	r2, #0
 549 0104 C4F22403 		movt	r3, 16420
 550 0108 FFF7FEFF 		bl	__aeabi_dadd
 551 010c FFF7FEFF 		bl	__aeabi_d2iz
 552 0110 3053     		strh	r0, [r6, r4]	@ movhi
 553              	.L52:
 554              		.loc 1 247 0
 555 0112 0234     		adds	r4, r4, #2
 556 0114 0135     		adds	r5, r5, #1
 557              	.LVL22:
 558 0116 B4F5807F 		cmp	r4, #256
 559 011a ADB2     		uxth	r5, r5
 560              	.LVL23:
 561 011c 7FF478AF 		bne	.L53
 562              		.loc 1 265 0
 563 0120 BDE8F88F 		pop	{r3, r4, r5, r6, r7, r8, r9, sl, fp, pc}
 564              	.L60:
 565 0124 AFF30080 		.align	3
 566              	.L59:
 567 0128 00000000 		.word	0
 568 012c 00405D40 		.word	1079853056
 569              		.cfi_endproc
 570              	.LFE72:
ARM GAS  /tmp/ccgBRCvD.s 			page 11


 571              		.size	PidControllerMakeLut, .-PidControllerMakeLut
 572              		.section	.text.PidControllerInit,"ax",%progbits
 573              		.align	2
 574              		.p2align 4,,15
 575              		.global	PidControllerInit
 576              		.thumb
 577              		.thumb_func
 578              		.type	PidControllerInit, %function
 579              	PidControllerInit:
 580              	.LFB69:
 581              		.loc 1 88 0
 582              		.cfi_startproc
 583              		@ args = 4, pretend = 0, frame = 0
 584              		@ frame_needed = 0, uses_anonymous_args = 0
 585              	.LVL24:
 586 0000 2DE9F843 		push	{r3, r4, r5, r6, r7, r8, r9, lr}
 587              	.LCFI2:
 588              		.cfi_def_cfa_offset 32
 589              		.cfi_offset 14, -4
 590              		.cfi_offset 9, -8
 591              		.cfi_offset 8, -12
 592              		.cfi_offset 7, -16
 593              		.cfi_offset 6, -20
 594              		.cfi_offset 5, -24
 595              		.cfi_offset 4, -28
 596              		.cfi_offset 3, -32
 597              		.loc 1 88 0
 598 0004 0D46     		mov	r5, r1
 599 0006 0646     		mov	r6, r0
 600              		.loc 1 97 0
 601 0008 4021     		movs	r1, #64
 602              	.LVL25:
 603 000a 0020     		movs	r0, #0
 604              	.LVL26:
 605              		.loc 1 88 0
 606 000c 1746     		mov	r7, r2
 607 000e 9946     		mov	r9, r3
 608              		.loc 1 97 0
 609 0010 FFF7FEFF 		bl	chHeapAlloc
 610              	.LVL27:
 611              		.loc 1 104 0
 612 0014 0024     		movs	r4, #0
 613              		.loc 1 112 0
 614 0016 0022     		movs	r2, #0
 615              		.loc 1 97 0
 616 0018 8046     		mov	r8, r0
 617              	.LVL28:
 618              		.loc 1 101 0
 619 001a 4660     		str	r6, [r0, #4]	@ float
 620              		.loc 1 102 0
 621 001c 8560     		str	r5, [r0, #8]	@ float
 622              		.loc 1 103 0
 623 001e C760     		str	r7, [r0, #12]	@ float
 624              		.loc 1 104 0
 625 0020 0461     		str	r4, [r0, #16]	@ float
 626              		.loc 1 107 0
 627 0022 4461     		str	r4, [r0, #20]	@ float
ARM GAS  /tmp/ccgBRCvD.s 			page 12


 628              		.loc 1 108 0
 629 0024 8461     		str	r4, [r0, #24]	@ float
 630              		.loc 1 109 0
 631 0026 C461     		str	r4, [r0, #28]	@ float
 632              		.loc 1 110 0
 633 0028 4462     		str	r4, [r0, #36]	@ float
 634              		.loc 1 111 0
 635 002a C462     		str	r4, [r0, #44]	@ float
 636              		.loc 1 112 0
 637 002c 4286     		strh	r2, [r0, #50]	@ movhi
 638              		.loc 1 113 0
 639 002e 2146     		mov	r1, r4
 640 0030 2846     		mov	r0, r5
 641              	.LVL29:
 642 0032 FFF7FEFF 		bl	__aeabi_fcmpeq
 643 0036 F0B9     		cbnz	r0, .L66
 644              		.loc 1 114 0
 645 0038 4FF07A50 		mov	r0, #1048576000
 646 003c 2946     		mov	r1, r5
 647 003e FFF7FEFF 		bl	__aeabi_fdiv
 648 0042 C8F82000 		str	r0, [r8, #32]	@ float
 649              	.L64:
 650              		.loc 1 122 0
 651 0046 BDF82010 		ldrh	r1, [sp, #32]
 652              		.loc 1 118 0
 653 004a 0022     		movs	r2, #0
 654              		.loc 1 123 0
 655 004c 0020     		movs	r0, #0
 656              		.loc 1 118 0
 657 004e C4F22012 		movt	r2, 16672
 658              		.loc 1 130 0
 659 0052 0123     		movs	r3, #1
 660              		.loc 1 123 0
 661 0054 C8F83800 		str	r0, [r8, #56]
 662              		.loc 1 125 0
 663 0058 C8F83C00 		str	r0, [r8, #60]
 664              		.loc 1 118 0
 665 005c C8F82820 		str	r2, [r8, #40]	@ float
 666              		.loc 1 121 0
 667 0060 88F83490 		strb	r9, [r8, #52]
 668              		.loc 1 122 0
 669 0064 A8F83610 		strh	r1, [r8, #54]	@ movhi
 670              		.loc 1 130 0
 671 0068 A8F80030 		strh	r3, [r8, #0]	@ movhi
 672              		.loc 1 134 0
 673 006c FFF7FEFF 		bl	PidControllerMakeLut
 674              		.loc 1 137 0
 675 0070 4046     		mov	r0, r8
 676 0072 BDE8F883 		pop	{r3, r4, r5, r6, r7, r8, r9, pc}
 677              	.L66:
 678              		.loc 1 116 0
 679 0076 C8F82040 		str	r4, [r8, #32]	@ float
 680 007a E4E7     		b	.L64
 681              		.cfi_endproc
 682              	.LFE69:
 683              		.size	PidControllerInit, .-PidControllerInit
 684 007c AFF30080 		.section	.text.PidControllerInitWithBias,"ax",%progbits
ARM GAS  /tmp/ccgBRCvD.s 			page 13


 685              		.align	2
 686              		.p2align 4,,15
 687              		.global	PidControllerInitWithBias
 688              		.thumb
 689              		.thumb_func
 690              		.type	PidControllerInitWithBias, %function
 691              	PidControllerInitWithBias:
 692              	.LFB70:
 693              		.loc 1 145 0
 694              		.cfi_startproc
 695              		@ args = 8, pretend = 0, frame = 0
 696              		@ frame_needed = 0, uses_anonymous_args = 0
 697              	.LVL30:
 698 0000 30B5     		push	{r4, r5, lr}
 699              	.LCFI3:
 700              		.cfi_def_cfa_offset 12
 701              		.cfi_offset 14, -4
 702              		.cfi_offset 5, -8
 703              		.cfi_offset 4, -12
 704 0002 83B0     		sub	sp, sp, #12
 705              	.LCFI4:
 706              		.cfi_def_cfa_offset 24
 707              		.loc 1 147 0
 708 0004 BDF91C50 		ldrsh	r5, [sp, #28]
 709              		.loc 1 145 0
 710 0008 1C46     		mov	r4, r3
 711              		.loc 1 147 0
 712 000a 9DF91830 		ldrsb	r3, [sp, #24]
 713              	.LVL31:
 714 000e 0095     		str	r5, [sp, #0]
 715 0010 FFF7FEFF 		bl	PidControllerInit
 716              	.LVL32:
 717              		.loc 1 148 0
 718 0014 00B1     		cbz	r0, .L68
 719              		.loc 1 149 0
 720 0016 0461     		str	r4, [r0, #16]	@ float
 721              	.L68:
 722              		.loc 1 152 0
 723 0018 03B0     		add	sp, sp, #12
 724 001a 30BD     		pop	{r4, r5, pc}
 725              		.cfi_endproc
 726              	.LFE70:
 727              		.size	PidControllerInitWithBias, .-PidControllerInitWithBias
 728 001c AFF30080 		.section	.bss.PidDriveLut,"aw",%nobits
 729              		.align	2
 730              		.set	.LANCHOR0,. + 0
 731              		.type	PidDriveLut, %object
 732              		.size	PidDriveLut, 256
 733              	PidDriveLut:
 734 0000 00000000 		.space	256
 734      00000000 
 734      00000000 
 734      00000000 
 734      00000000 
 735              		.text
 736              	.Letext0:
 737              		.file 3 "/opt/pros/toolchain/bin/../lib/gcc/arm-none-eabi/4.6.3/../../../../arm-none-eabi/include/
ARM GAS  /tmp/ccgBRCvD.s 			page 14


 738              		.file 4 "../convex/cortex/fw/vexsensor.h"
 739              		.file 5 "../convex/cortex/opt/pidlib.h"
 740              		.file 6 "../ChibiOS_2.6.2/os/ports/common/ARMCMx/CMSIS/include/core_cm3.h"