ARM GAS  /tmp/ccdUEzgz.s 			page 1


   1              		.syntax unified
   2              		.cpu cortex-m3
   3              		.fpu softvfp
   4              		.eabi_attribute 20, 1
   5              		.eabi_attribute 21, 1
   6              		.eabi_attribute 23, 3
   7              		.eabi_attribute 24, 1
   8              		.eabi_attribute 25, 1
   9              		.eabi_attribute 26, 1
  10              		.eabi_attribute 30, 2
  11              		.eabi_attribute 34, 1
  12              		.eabi_attribute 18, 4
  13              		.thumb
  14              		.file	"smartmotor.c"
  15              		.text
  16              	.Ltext0:
  17              		.cfi_sections	.debug_frame
  18              		.global	__aeabi_i2f
  19              		.global	__aeabi_fcmpeq
  20              		.global	__aeabi_fcmpgt
  21              		.section	.text.SmartMotorSlewRateTask,"ax",%progbits
  22              		.align	2
  23              		.p2align 4,,15
  24              		.global	SmartMotorSlewRateTask
  25              		.thumb
  26              		.thumb_func
  27              		.type	SmartMotorSlewRateTask, %function
  28              	SmartMotorSlewRateTask:
  29              	.LFB108:
  30              		.file 1 "../convex/cortex/opt/smartmotor.c"
  31              		.loc 1 1592 0
  32              		.cfi_startproc
  33              		@ args = 0, pretend = 0, frame = 24
  34              		@ frame_needed = 0, uses_anonymous_args = 0
  35              	.LVL0:
  36 0000 2DE9F04F 		push	{r4, r5, r6, r7, r8, r9, sl, fp, lr}
  37              	.LCFI0:
  38              		.cfi_def_cfa_offset 36
  39              		.cfi_offset 14, -4
  40              		.cfi_offset 11, -8
  41              		.cfi_offset 10, -12
  42              		.cfi_offset 9, -16
  43              		.cfi_offset 8, -20
  44              		.cfi_offset 7, -24
  45              		.cfi_offset 6, -28
  46              		.cfi_offset 5, -32
  47              		.cfi_offset 4, -36
  48              		.loc 1 1601 0
  49 0004 40F20000 		movw	r0, #:lower16:.LC0
  50              	.LVL1:
  51              		.loc 1 1613 0
  52 0008 40F20002 		movw	r2, #:lower16:rlist
  53              		.loc 1 1592 0
  54 000c 87B0     		sub	sp, sp, #28
  55              	.LCFI1:
  56              		.cfi_def_cfa_offset 64
  57              		.loc 1 1601 0
ARM GAS  /tmp/ccdUEzgz.s 			page 2


  58 000e 0121     		movs	r1, #1
  59              		.loc 1 1613 0
  60 0010 C0F20002 		movt	r2, #:upper16:rlist
  61              		.loc 1 1601 0
  62 0014 C0F20000 		movt	r0, #:upper16:.LC0
  63              		.loc 1 1606 0
  64 0018 40F20005 		movw	r5, #:lower16:.LANCHOR0
  65 001c C0F20005 		movt	r5, #:upper16:.LANCHOR0
  66              		.loc 1 1613 0
  67 0020 0592     		str	r2, [sp, #20]
  68              		.loc 1 1601 0
  69 0022 FFF7FEFF 		bl	vexTaskRegisterPersistant
  70              	.LVL2:
  71              		.loc 1 1607 0
  72 0026 0022     		movs	r2, #0
  73 0028 0020     		movs	r0, #0
  74              		.loc 1 1609 0
  75 002a 0A21     		movs	r1, #10
  76              		.loc 1 1607 0
  77 002c A5F88A20 		strh	r2, [r5, #138]	@ movhi
  78              		.loc 1 1608 0
  79 0030 A5F88820 		strh	r2, [r5, #136]	@ movhi
  80              		.loc 1 1609 0
  81 0034 A5F88C10 		strh	r1, [r5, #140]	@ movhi
  82              		.loc 1 1607 0
  83 0038 A5F80601 		strh	r0, [r5, #262]	@ movhi
  84 003c 0021     		movs	r1, #0
  85              		.loc 1 1608 0
  86 003e A5F80401 		strh	r0, [r5, #260]	@ movhi
  87              		.loc 1 1609 0
  88 0042 0A22     		movs	r2, #10
  89 0044 0A20     		movs	r0, #10
  90 0046 A5F80821 		strh	r2, [r5, #264]	@ movhi
  91              		.loc 1 1607 0
  92 004a A5F88211 		strh	r1, [r5, #386]	@ movhi
  93 004e 0022     		movs	r2, #0
  94              		.loc 1 1608 0
  95 0050 A5F88011 		strh	r1, [r5, #384]	@ movhi
  96              		.loc 1 1609 0
  97 0054 A5F88401 		strh	r0, [r5, #388]	@ movhi
  98 0058 0A21     		movs	r1, #10
  99              		.loc 1 1607 0
 100 005a 0020     		movs	r0, #0
 101 005c A5F8FE21 		strh	r2, [r5, #510]	@ movhi
 102              		.loc 1 1608 0
 103 0060 A5F8FC21 		strh	r2, [r5, #508]	@ movhi
 104              		.loc 1 1609 0
 105 0064 A5F80012 		strh	r1, [r5, #512]	@ movhi
 106              		.loc 1 1607 0
 107 0068 A5F87A02 		strh	r0, [r5, #634]	@ movhi
 108 006c 0021     		movs	r1, #0
 109              		.loc 1 1608 0
 110 006e A5F87802 		strh	r0, [r5, #632]	@ movhi
 111              		.loc 1 1609 0
 112 0072 0A22     		movs	r2, #10
 113 0074 0A20     		movs	r0, #10
 114              		.loc 1 1613 0
ARM GAS  /tmp/ccdUEzgz.s 			page 3


 115 0076 059B     		ldr	r3, [sp, #20]
 116              		.loc 1 1609 0
 117 0078 A5F87C22 		strh	r2, [r5, #636]	@ movhi
 118              		.loc 1 1607 0
 119 007c A5F8F612 		strh	r1, [r5, #758]	@ movhi
 120 0080 0022     		movs	r2, #0
 121              		.loc 1 1608 0
 122 0082 A5F8F412 		strh	r1, [r5, #756]	@ movhi
 123              		.loc 1 1609 0
 124 0086 A5F8F802 		strh	r0, [r5, #760]	@ movhi
 125 008a 0A21     		movs	r1, #10
 126              		.loc 1 1607 0
 127 008c 0020     		movs	r0, #0
 128 008e A5F87223 		strh	r2, [r5, #882]	@ movhi
 129              		.loc 1 1608 0
 130 0092 A5F87023 		strh	r2, [r5, #880]	@ movhi
 131              		.loc 1 1609 0
 132 0096 A5F87413 		strh	r1, [r5, #884]	@ movhi
 133              		.loc 1 1607 0
 134 009a A5F8EE03 		strh	r0, [r5, #1006]	@ movhi
 135 009e 0021     		movs	r1, #0
 136              		.loc 1 1608 0
 137 00a0 A5F8EC03 		strh	r0, [r5, #1004]	@ movhi
 138              		.loc 1 1609 0
 139 00a4 0A22     		movs	r2, #10
 140 00a6 0A20     		movs	r0, #10
 141              		.loc 1 1613 0
 142 00a8 9B69     		ldr	r3, [r3, #24]
 143              		.loc 1 1609 0
 144 00aa A5F8F023 		strh	r2, [r5, #1008]	@ movhi
 145              		.loc 1 1607 0
 146 00ae A5F86A14 		strh	r1, [r5, #1130]	@ movhi
 147              		.loc 1 1608 0
 148 00b2 A5F86814 		strh	r1, [r5, #1128]	@ movhi
 149              		.loc 1 1609 0
 150 00b6 A5F86C04 		strh	r0, [r5, #1132]	@ movhi
 151              		.loc 1 1607 0
 152 00ba 0021     		movs	r1, #0
 153              		.loc 1 1606 0
 154 00bc 05F58A62 		add	r2, r5, #1104
 155              		.loc 1 1609 0
 156 00c0 0A20     		movs	r0, #10
 157              		.loc 1 1613 0
 158 00c2 5B7F     		ldrb	r3, [r3, #29]	@ zero_extendqisi2
 159              		.loc 1 1606 0
 160 00c4 0292     		str	r2, [sp, #8]
 161              		.loc 1 1607 0
 162 00c6 E981     		strh	r1, [r5, #14]	@ movhi
 163              		.loc 1 1608 0
 164 00c8 A981     		strh	r1, [r5, #12]	@ movhi
 165              		.loc 1 1609 0
 166 00ca 2882     		strh	r0, [r5, #16]	@ movhi
 167              	.LVL3:
 168              		.loc 1 1606 0
 169 00cc 029A     		ldr	r2, [sp, #8]
 170 00ce 0C32     		adds	r2, r2, #12
 171 00d0 0292     		str	r2, [sp, #8]
ARM GAS  /tmp/ccdUEzgz.s 			page 4


 172              	.LVL4:
 173              		.loc 1 1613 0
 174 00d2 5A07     		lsls	r2, r3, #29
 175              	.LVL5:
 176 00d4 00F19B85 		bmi	.L3
 177              		.loc 1 1628 0
 178 00d8 40F20006 		movw	r6, #:lower16:.LANCHOR1
 179 00dc 40F20004 		movw	r4, #:lower16:.LANCHOR2
 180 00e0 C0F20006 		movt	r6, #:upper16:.LANCHOR1
 181 00e4 C0F20004 		movt	r4, #:upper16:.LANCHOR2
 182 00e8 0396     		str	r6, [sp, #12]
 183 00ea ADE1     		b	.L2
 184              	.LVL6:
 185              	.L312:
 186 00ec 0399     		ldr	r1, [sp, #12]
 187 00ee B1F90070 		ldrsh	r7, [r1, #0]
 188 00f2 002F     		cmp	r7, #0
 189 00f4 40F0B381 		bne	.L16
 190              	.L19:
 191              		.loc 1 1641 0
 192 00f8 AA89     		ldrh	r2, [r5, #12]
 193 00fa EA81     		strh	r2, [r5, #14]	@ movhi
 194 00fc 17B2     		sxth	r7, r2
 195              	.LVL7:
 196              	.L18:
 197              		.loc 1 1644 0
 198 00fe BE42     		cmp	r6, r7
 199 0100 0FD0     		beq	.L30
 200              		.loc 1 1647 0
 201 0102 80F22F83 		bge	.L303
 202              		.loc 1 1649 0
 203 0106 B5F910C0 		ldrsh	ip, [r5, #16]
 204 010a 0CEB0600 		add	r0, ip, r6
 205              	.LVL8:
 206 010e 8742     		cmp	r7, r0
 207 0110 B4BF     		ite	lt
 208 0112 B946     		movlt	r9, r7
 209 0114 8146     		movge	r9, r0
 210              	.LVL9:
 211              	.L33:
 212              		.loc 1 1665 0
 213 0116 95F90000 		ldrsb	r0, [r5, #0]
 214 011a 0FFA89F1 		sxth	r1, r9
 215 011e FFF7FEFF 		bl	vexMotorSet
 216              	.L30:
 217              	.LVL10:
 218              		.loc 1 1625 0
 219 0122 A84F     		ldr	r7, .L313
 220 0124 97F90000 		ldrsb	r0, [r7, #0]
 221 0128 FFF7FEFF 		bl	vexMotorGet
 222              		.loc 1 1628 0
 223 012c B4F90020 		ldrsh	r2, [r4, #0]
 224              		.loc 1 1625 0
 225 0130 0646     		mov	r6, r0
 226 0132 8146     		mov	r9, r0
 227              	.LVL11:
 228              		.loc 1 1628 0
ARM GAS  /tmp/ccdUEzgz.s 			page 5


 229 0134 002A     		cmp	r2, #0
 230 0136 40F07082 		bne	.L34
 231 013a 0398     		ldr	r0, [sp, #12]
 232              	.LVL12:
 233 013c B0F90030 		ldrsh	r3, [r0, #0]
 234 0140 002B     		cmp	r3, #0
 235 0142 40F06A82 		bne	.L34
 236              	.L37:
 237              		.loc 1 1641 0
 238 0146 9F4B     		ldr	r3, .L313
 239 0148 9989     		ldrh	r1, [r3, #12]
 240 014a D981     		strh	r1, [r3, #14]	@ movhi
 241 014c 0FB2     		sxth	r7, r1
 242              	.L36:
 243              		.loc 1 1644 0
 244 014e BE42     		cmp	r6, r7
 245 0150 11D0     		beq	.L48
 246              		.loc 1 1647 0
 247 0152 80F21183 		bge	.L304
 248              		.loc 1 1649 0
 249 0156 9B4A     		ldr	r2, .L313
 250 0158 B2F91090 		ldrsh	r9, [r2, #16]
 251 015c 09EB0600 		add	r0, r9, r6
 252              	.LVL13:
 253 0160 8742     		cmp	r7, r0
 254 0162 B4BF     		ite	lt
 255 0164 B946     		movlt	r9, r7
 256 0166 8146     		movge	r9, r0
 257              	.LVL14:
 258              	.L51:
 259              		.loc 1 1665 0
 260 0168 964E     		ldr	r6, .L313
 261 016a 0FFA89F1 		sxth	r1, r9
 262 016e 96F90000 		ldrsb	r0, [r6, #0]
 263 0172 FFF7FEFF 		bl	vexMotorSet
 264              	.L48:
 265              	.LVL15:
 266              		.loc 1 1625 0
 267 0176 944E     		ldr	r6, .L313+4
 268 0178 96F90000 		ldrsb	r0, [r6, #0]
 269 017c FFF7FEFF 		bl	vexMotorGet
 270              		.loc 1 1628 0
 271 0180 B4F90070 		ldrsh	r7, [r4, #0]
 272              		.loc 1 1625 0
 273 0184 0646     		mov	r6, r0
 274 0186 8146     		mov	r9, r0
 275              	.LVL16:
 276              		.loc 1 1628 0
 277 0188 002F     		cmp	r7, #0
 278 018a 40F07E82 		bne	.L52
 279 018e 0398     		ldr	r0, [sp, #12]
 280              	.LVL17:
 281 0190 B0F90030 		ldrsh	r3, [r0, #0]
 282 0194 002B     		cmp	r3, #0
 283 0196 40F07882 		bne	.L52
 284              	.L55:
 285              		.loc 1 1641 0
ARM GAS  /tmp/ccdUEzgz.s 			page 6


 286 019a 8B4B     		ldr	r3, .L313+4
 287 019c 9989     		ldrh	r1, [r3, #12]
 288 019e D981     		strh	r1, [r3, #14]	@ movhi
 289 01a0 0FB2     		sxth	r7, r1
 290              	.L54:
 291              		.loc 1 1644 0
 292 01a2 BE42     		cmp	r6, r7
 293 01a4 11D0     		beq	.L66
 294              		.loc 1 1647 0
 295 01a6 80F2F282 		bge	.L305
 296              		.loc 1 1649 0
 297 01aa 874A     		ldr	r2, .L313+4
 298 01ac B2F910E0 		ldrsh	lr, [r2, #16]
 299 01b0 0EEB0600 		add	r0, lr, r6
 300              	.LVL18:
 301 01b4 8742     		cmp	r7, r0
 302 01b6 B4BF     		ite	lt
 303 01b8 B946     		movlt	r9, r7
 304 01ba 8146     		movge	r9, r0
 305              	.LVL19:
 306              	.L69:
 307              		.loc 1 1665 0
 308 01bc 824E     		ldr	r6, .L313+4
 309 01be 0FFA89F1 		sxth	r1, r9
 310 01c2 96F90000 		ldrsb	r0, [r6, #0]
 311 01c6 FFF7FEFF 		bl	vexMotorSet
 312              	.L66:
 313              	.LVL20:
 314              		.loc 1 1625 0
 315 01ca 804E     		ldr	r6, .L313+8
 316 01cc 96F90000 		ldrsb	r0, [r6, #0]
 317 01d0 FFF7FEFF 		bl	vexMotorGet
 318              		.loc 1 1628 0
 319 01d4 B4F90070 		ldrsh	r7, [r4, #0]
 320              		.loc 1 1625 0
 321 01d8 0646     		mov	r6, r0
 322 01da 8146     		mov	r9, r0
 323              	.LVL21:
 324              		.loc 1 1628 0
 325 01dc 002F     		cmp	r7, #0
 326 01de 40F00082 		bne	.L70
 327 01e2 0398     		ldr	r0, [sp, #12]
 328              	.LVL22:
 329 01e4 B0F90030 		ldrsh	r3, [r0, #0]
 330 01e8 002B     		cmp	r3, #0
 331 01ea 40F0FA81 		bne	.L70
 332              	.L73:
 333              		.loc 1 1641 0
 334 01ee 774B     		ldr	r3, .L313+8
 335 01f0 9989     		ldrh	r1, [r3, #12]
 336 01f2 D981     		strh	r1, [r3, #14]	@ movhi
 337 01f4 0FB2     		sxth	r7, r1
 338              	.L72:
 339              		.loc 1 1644 0
 340 01f6 BE42     		cmp	r6, r7
 341 01f8 11D0     		beq	.L84
 342              		.loc 1 1647 0
ARM GAS  /tmp/ccdUEzgz.s 			page 7


 343 01fa 80F2D382 		bge	.L306
 344              		.loc 1 1649 0
 345 01fe 734A     		ldr	r2, .L313+8
 346 0200 B2F910C0 		ldrsh	ip, [r2, #16]
 347 0204 0CEB0600 		add	r0, ip, r6
 348              	.LVL23:
 349 0208 8742     		cmp	r7, r0
 350 020a B4BF     		ite	lt
 351 020c B946     		movlt	r9, r7
 352 020e 8146     		movge	r9, r0
 353              	.LVL24:
 354              	.L87:
 355              		.loc 1 1665 0
 356 0210 6E4E     		ldr	r6, .L313+8
 357 0212 0FFA89F1 		sxth	r1, r9
 358 0216 96F90000 		ldrsb	r0, [r6, #0]
 359 021a FFF7FEFF 		bl	vexMotorSet
 360              	.L84:
 361              	.LVL25:
 362              		.loc 1 1625 0
 363 021e 6C4E     		ldr	r6, .L313+12
 364 0220 96F90000 		ldrsb	r0, [r6, #0]
 365 0224 FFF7FEFF 		bl	vexMotorGet
 366              		.loc 1 1628 0
 367 0228 B4F90070 		ldrsh	r7, [r4, #0]
 368              		.loc 1 1625 0
 369 022c 0646     		mov	r6, r0
 370 022e 8146     		mov	r9, r0
 371              	.LVL26:
 372              		.loc 1 1628 0
 373 0230 002F     		cmp	r7, #0
 374 0232 40F04682 		bne	.L88
 375 0236 0398     		ldr	r0, [sp, #12]
 376              	.LVL27:
 377 0238 B0F90030 		ldrsh	r3, [r0, #0]
 378 023c 002B     		cmp	r3, #0
 379 023e 40F04082 		bne	.L88
 380              	.L91:
 381              		.loc 1 1641 0
 382 0242 634B     		ldr	r3, .L313+12
 383 0244 9989     		ldrh	r1, [r3, #12]
 384 0246 D981     		strh	r1, [r3, #14]	@ movhi
 385 0248 0FB2     		sxth	r7, r1
 386              	.L90:
 387              		.loc 1 1644 0
 388 024a BE42     		cmp	r6, r7
 389 024c 11D0     		beq	.L102
 390              		.loc 1 1647 0
 391 024e 80F2B482 		bge	.L307
 392              		.loc 1 1649 0
 393 0252 5F4A     		ldr	r2, .L313+12
 394 0254 B2F91090 		ldrsh	r9, [r2, #16]
 395 0258 09EB0600 		add	r0, r9, r6
 396              	.LVL28:
 397 025c 8742     		cmp	r7, r0
 398 025e B4BF     		ite	lt
 399 0260 B946     		movlt	r9, r7
ARM GAS  /tmp/ccdUEzgz.s 			page 8


 400 0262 8146     		movge	r9, r0
 401              	.LVL29:
 402              	.L105:
 403              		.loc 1 1665 0
 404 0264 5A4E     		ldr	r6, .L313+12
 405 0266 0FFA89F1 		sxth	r1, r9
 406 026a 96F90000 		ldrsb	r0, [r6, #0]
 407 026e FFF7FEFF 		bl	vexMotorSet
 408              	.L102:
 409              	.LVL30:
 410              		.loc 1 1625 0
 411 0272 584E     		ldr	r6, .L313+16
 412 0274 96F90000 		ldrsb	r0, [r6, #0]
 413 0278 FFF7FEFF 		bl	vexMotorGet
 414              		.loc 1 1628 0
 415 027c B4F90070 		ldrsh	r7, [r4, #0]
 416              		.loc 1 1625 0
 417 0280 0646     		mov	r6, r0
 418 0282 8146     		mov	r9, r0
 419              	.LVL31:
 420              		.loc 1 1628 0
 421 0284 002F     		cmp	r7, #0
 422 0286 40F0E481 		bne	.L106
 423 028a 0398     		ldr	r0, [sp, #12]
 424              	.LVL32:
 425 028c B0F90030 		ldrsh	r3, [r0, #0]
 426 0290 002B     		cmp	r3, #0
 427 0292 40F0DE81 		bne	.L106
 428              	.L109:
 429              		.loc 1 1641 0
 430 0296 4F4B     		ldr	r3, .L313+16
 431 0298 9989     		ldrh	r1, [r3, #12]
 432 029a D981     		strh	r1, [r3, #14]	@ movhi
 433 029c 0FB2     		sxth	r7, r1
 434              	.L108:
 435              		.loc 1 1644 0
 436 029e BE42     		cmp	r6, r7
 437 02a0 11D0     		beq	.L120
 438              		.loc 1 1647 0
 439 02a2 80F29582 		bge	.L308
 440              		.loc 1 1649 0
 441 02a6 4B4A     		ldr	r2, .L313+16
 442 02a8 B2F910E0 		ldrsh	lr, [r2, #16]
 443 02ac 0EEB0600 		add	r0, lr, r6
 444              	.LVL33:
 445 02b0 8742     		cmp	r7, r0
 446 02b2 B4BF     		ite	lt
 447 02b4 B946     		movlt	r9, r7
 448 02b6 8146     		movge	r9, r0
 449              	.LVL34:
 450              	.L123:
 451              		.loc 1 1665 0
 452 02b8 464E     		ldr	r6, .L313+16
 453 02ba 0FFA89F1 		sxth	r1, r9
 454 02be 96F90000 		ldrsb	r0, [r6, #0]
 455 02c2 FFF7FEFF 		bl	vexMotorSet
 456              	.L120:
ARM GAS  /tmp/ccdUEzgz.s 			page 9


 457              	.LVL35:
 458              		.loc 1 1625 0
 459 02c6 444E     		ldr	r6, .L313+20
 460 02c8 96F90000 		ldrsb	r0, [r6, #0]
 461 02cc FFF7FEFF 		bl	vexMotorGet
 462              		.loc 1 1628 0
 463 02d0 B4F90070 		ldrsh	r7, [r4, #0]
 464              		.loc 1 1625 0
 465 02d4 0646     		mov	r6, r0
 466 02d6 8146     		mov	r9, r0
 467              	.LVL36:
 468              		.loc 1 1628 0
 469 02d8 002F     		cmp	r7, #0
 470 02da 40F00E82 		bne	.L124
 471 02de 0398     		ldr	r0, [sp, #12]
 472              	.LVL37:
 473 02e0 B0F90030 		ldrsh	r3, [r0, #0]
 474 02e4 002B     		cmp	r3, #0
 475 02e6 40F00882 		bne	.L124
 476              	.L127:
 477              		.loc 1 1641 0
 478 02ea 3B4B     		ldr	r3, .L313+20
 479 02ec 9989     		ldrh	r1, [r3, #12]
 480 02ee D981     		strh	r1, [r3, #14]	@ movhi
 481 02f0 0FB2     		sxth	r7, r1
 482              	.L126:
 483              		.loc 1 1644 0
 484 02f2 BE42     		cmp	r6, r7
 485 02f4 11D0     		beq	.L138
 486              		.loc 1 1647 0
 487 02f6 80F27682 		bge	.L309
 488              		.loc 1 1649 0
 489 02fa 374A     		ldr	r2, .L313+20
 490 02fc B2F910C0 		ldrsh	ip, [r2, #16]
 491 0300 0CEB0600 		add	r0, ip, r6
 492              	.LVL38:
 493 0304 8742     		cmp	r7, r0
 494 0306 B4BF     		ite	lt
 495 0308 B946     		movlt	r9, r7
 496 030a 8146     		movge	r9, r0
 497              	.LVL39:
 498              	.L141:
 499              		.loc 1 1665 0
 500 030c 324E     		ldr	r6, .L313+20
 501 030e 0FFA89F1 		sxth	r1, r9
 502 0312 96F90000 		ldrsb	r0, [r6, #0]
 503 0316 FFF7FEFF 		bl	vexMotorSet
 504              	.L138:
 505              	.LVL40:
 506              		.loc 1 1625 0
 507 031a 304E     		ldr	r6, .L313+24
 508 031c 96F90000 		ldrsb	r0, [r6, #0]
 509 0320 FFF7FEFF 		bl	vexMotorGet
 510              		.loc 1 1628 0
 511 0324 B4F90070 		ldrsh	r7, [r4, #0]
 512              		.loc 1 1625 0
 513 0328 0646     		mov	r6, r0
ARM GAS  /tmp/ccdUEzgz.s 			page 10


 514 032a 8146     		mov	r9, r0
 515              	.LVL41:
 516              		.loc 1 1628 0
 517 032c 002F     		cmp	r7, #0
 518 032e 40F0D680 		bne	.L142
 519 0332 0398     		ldr	r0, [sp, #12]
 520              	.LVL42:
 521 0334 B0F90030 		ldrsh	r3, [r0, #0]
 522 0338 002B     		cmp	r3, #0
 523 033a 40F0D080 		bne	.L142
 524              	.L145:
 525              		.loc 1 1641 0
 526 033e 274B     		ldr	r3, .L313+24
 527 0340 9989     		ldrh	r1, [r3, #12]
 528 0342 D981     		strh	r1, [r3, #14]	@ movhi
 529 0344 0FB2     		sxth	r7, r1
 530              	.L144:
 531              		.loc 1 1644 0
 532 0346 BE42     		cmp	r6, r7
 533 0348 11D0     		beq	.L156
 534              		.loc 1 1647 0
 535 034a 80F26782 		bge	.L310
 536              		.loc 1 1649 0
 537 034e 234A     		ldr	r2, .L313+24
 538 0350 B2F91090 		ldrsh	r9, [r2, #16]
 539 0354 09EB0600 		add	r0, r9, r6
 540              	.LVL43:
 541 0358 8742     		cmp	r7, r0
 542 035a B4BF     		ite	lt
 543 035c B946     		movlt	r9, r7
 544 035e 8146     		movge	r9, r0
 545              	.LVL44:
 546              	.L159:
 547              		.loc 1 1665 0
 548 0360 1E4E     		ldr	r6, .L313+24
 549 0362 0FFA89F1 		sxth	r1, r9
 550 0366 96F90000 		ldrsb	r0, [r6, #0]
 551 036a FFF7FEFF 		bl	vexMotorSet
 552              	.L156:
 553              	.LVL45:
 554              		.loc 1 1625 0
 555 036e 1C4E     		ldr	r6, .L313+28
 556 0370 96F90000 		ldrsb	r0, [r6, #0]
 557 0374 FFF7FEFF 		bl	vexMotorGet
 558              		.loc 1 1628 0
 559 0378 B4F90070 		ldrsh	r7, [r4, #0]
 560              		.loc 1 1625 0
 561 037c 0646     		mov	r6, r0
 562 037e 8146     		mov	r9, r0
 563              	.LVL46:
 564              		.loc 1 1628 0
 565 0380 002F     		cmp	r7, #0
 566 0382 40F0C880 		bne	.L160
 567 0386 0398     		ldr	r0, [sp, #12]
 568              	.LVL47:
 569 0388 B0F90030 		ldrsh	r3, [r0, #0]
 570 038c 002B     		cmp	r3, #0
ARM GAS  /tmp/ccdUEzgz.s 			page 11


 571 038e 40F0C280 		bne	.L160
 572              	.L163:
 573              		.loc 1 1641 0
 574 0392 134B     		ldr	r3, .L313+28
 575 0394 9989     		ldrh	r1, [r3, #12]
 576 0396 D981     		strh	r1, [r3, #14]	@ movhi
 577 0398 0FB2     		sxth	r7, r1
 578              	.L162:
 579              		.loc 1 1644 0
 580 039a BE42     		cmp	r6, r7
 581 039c 22D0     		beq	.L174
 582              		.loc 1 1647 0
 583 039e 80F2CB81 		bge	.L311
 584              		.loc 1 1649 0
 585 03a2 0F4A     		ldr	r2, .L313+28
 586 03a4 B2F910E0 		ldrsh	lr, [r2, #16]
 587 03a8 0EEB0600 		add	r0, lr, r6
 588              	.LVL48:
 589 03ac 8742     		cmp	r7, r0
 590 03ae B4BF     		ite	lt
 591 03b0 B946     		movlt	r9, r7
 592 03b2 8146     		movge	r9, r0
 593              	.LVL49:
 594              	.L177:
 595              		.loc 1 1665 0
 596 03b4 0A4E     		ldr	r6, .L313+28
 597 03b6 0FFA89F1 		sxth	r1, r9
 598 03ba 96F90000 		ldrsb	r0, [r6, #0]
 599 03be FFF7FEFF 		bl	vexMotorSet
 600 03c2 0FE0     		b	.L314
 601              	.L315:
 602              		.align	2
 603              	.L313:
 604 03c4 7C000000 		.word	.LANCHOR0+124
 605 03c8 F8000000 		.word	.LANCHOR0+248
 606 03cc 74010000 		.word	.LANCHOR0+372
 607 03d0 F0010000 		.word	.LANCHOR0+496
 608 03d4 6C020000 		.word	.LANCHOR0+620
 609 03d8 E8020000 		.word	.LANCHOR0+744
 610 03dc 64030000 		.word	.LANCHOR0+868
 611 03e0 E0030000 		.word	.LANCHOR0+992
 612              	.L314:
 613              	.L174:
 614              	.LVL50:
 615              		.loc 1 1625 0
 616 03e4 029E     		ldr	r6, [sp, #8]
 617 03e6 96F90000 		ldrsb	r0, [r6, #0]
 618 03ea FFF7FEFF 		bl	vexMotorGet
 619              		.loc 1 1628 0
 620 03ee B4F90070 		ldrsh	r7, [r4, #0]
 621              		.loc 1 1625 0
 622 03f2 0646     		mov	r6, r0
 623 03f4 8146     		mov	r9, r0
 624              	.LVL51:
 625              		.loc 1 1628 0
 626 03f6 002F     		cmp	r7, #0
 627 03f8 40F0A980 		bne	.L178
ARM GAS  /tmp/ccdUEzgz.s 			page 12


 628              		.loc 1 1628 0 is_stmt 0 discriminator 2
 629 03fc 0398     		ldr	r0, [sp, #12]
 630              	.LVL52:
 631 03fe B0F90070 		ldrsh	r7, [r0, #0]
 632 0402 002F     		cmp	r7, #0
 633 0404 40F0A380 		bne	.L178
 634              	.L4:
 635              		.loc 1 1641 0 is_stmt 1
 636 0408 029A     		ldr	r2, [sp, #8]
 637 040a 9089     		ldrh	r0, [r2, #12]
 638 040c D081     		strh	r0, [r2, #14]	@ movhi
 639 040e 07B2     		sxth	r7, r0
 640              	.L12:
 641              		.loc 1 1644 0
 642 0410 BE42     		cmp	r6, r7
 643 0412 10D0     		beq	.L13
 644              		.loc 1 1647 0
 645 0414 80F29B81 		bge	.L14
 646              		.loc 1 1649 0
 647 0418 0299     		ldr	r1, [sp, #8]
 648 041a B1F91090 		ldrsh	r9, [r1, #16]
 649 041e 4E44     		add	r6, r9, r6
 650              	.LVL53:
 651 0420 B742     		cmp	r7, r6
 652 0422 B4BF     		ite	lt
 653 0424 B946     		movlt	r9, r7
 654 0426 B146     		movge	r9, r6
 655              	.L15:
 656              	.LVL54:
 657              		.loc 1 1665 0
 658 0428 029A     		ldr	r2, [sp, #8]
 659 042a 0FFA89F1 		sxth	r1, r9
 660 042e 92F90000 		ldrsb	r0, [r2, #0]
 661 0432 FFF7FEFF 		bl	vexMotorSet
 662              	.L13:
 663              	.LVL55:
 664              		.loc 1 1674 0
 665 0436 0F20     		movs	r0, #15
 666 0438 FFF7FEFF 		bl	vexSleep
 667              		.loc 1 1613 0
 668 043c 0598     		ldr	r0, [sp, #20]
 669 043e 8369     		ldr	r3, [r0, #24]
 670 0440 597F     		ldrb	r1, [r3, #29]	@ zero_extendqisi2
 671 0442 4B07     		lsls	r3, r1, #29
 672 0444 00F1E383 		bmi	.L3
 673              	.LVL56:
 674              	.L2:
 675              		.loc 1 1625 0
 676 0448 95F90000 		ldrsb	r0, [r5, #0]
 677 044c FFF7FEFF 		bl	vexMotorGet
 678              		.loc 1 1628 0
 679 0450 B4F90070 		ldrsh	r7, [r4, #0]
 680              		.loc 1 1625 0
 681 0454 0646     		mov	r6, r0
 682 0456 8146     		mov	r9, r0
 683              	.LVL57:
 684              		.loc 1 1628 0
ARM GAS  /tmp/ccdUEzgz.s 			page 13


 685 0458 002F     		cmp	r7, #0
 686 045a 3FF447AE 		beq	.L312
 687              	.L16:
 688 045e B5F814A0 		ldrh	sl, [r5, #20]
 689 0462 0FFA8AF8 		sxth	r8, sl
 690 0466 B8F1FF0F 		cmp	r8, #255
 691 046a 3FF445AE 		beq	.L19
 692              		.loc 1 1630 0
 693 046e B5F80CB0 		ldrh	fp, [r5, #12]
 694 0472 88EAE87E 		eor	lr, r8, r8, asr #31
 695 0476 AEEBE87E 		sub	lr, lr, r8, asr #31
 696 047a 0FFA8BF7 		sxth	r7, fp
 697 047e 87EAE771 		eor	r1, r7, r7, asr #31
 698 0482 A1EBE771 		sub	r1, r1, r7, asr #31
 699 0486 7145     		cmp	r1, lr
 700 0488 40F35381 		ble	.L301
 701              		.loc 1 1632 0
 702 048c 3846     		mov	r0, r7
 703              	.LVL58:
 704 048e FFF7FEFF 		bl	__aeabi_i2f
 705              	.LBB39:
 706              	.LBB40:
 707              		.loc 1 142 0
 708 0492 0021     		movs	r1, #0
 709              	.LBE40:
 710              	.LBE39:
 711              		.loc 1 1632 0
 712 0494 0190     		str	r0, [sp, #4]	@ float
 713              	.LVL59:
 714              	.LBB65:
 715              	.LBB41:
 716              		.loc 1 142 0
 717 0496 FFF7FEFF 		bl	__aeabi_fcmpeq
 718              	.LVL60:
 719 049a 0028     		cmp	r0, #0
 720 049c 00F09583 		beq	.L247
 721 04a0 0023     		movs	r3, #0
 722 04a2 0193     		str	r3, [sp, #4]	@ float
 723              	.L28:
 724              	.LBE41:
 725              	.LBE65:
 726              		.loc 1 1632 0
 727 04a4 4046     		mov	r0, r8
 728 04a6 FFF7FEFF 		bl	__aeabi_i2f
 729              	.LBB66:
 730              	.LBB67:
 731              		.loc 1 142 0
 732 04aa 0021     		movs	r1, #0
 733              	.LBE67:
 734              	.LBE66:
 735              		.loc 1 1632 0
 736 04ac 0490     		str	r0, [sp, #16]	@ float
 737              	.LVL61:
 738              	.LBB87:
 739              	.LBB68:
 740              		.loc 1 142 0
 741 04ae FFF7FEFF 		bl	__aeabi_fcmpeq
ARM GAS  /tmp/ccdUEzgz.s 			page 14


 742              	.LVL62:
 743 04b2 0021     		movs	r1, #0
 744 04b4 48B9     		cbnz	r0, .L26
 745              		.loc 1 143 0
 746 04b6 0021     		movs	r1, #0
 747 04b8 0498     		ldr	r0, [sp, #16]	@ float
 748 04ba FFF7FEFF 		bl	__aeabi_fcmpgt
 749 04be 4FF07E51 		mov	r1, #1065353216
 750 04c2 10B9     		cbnz	r0, .L26
 751 04c4 0021     		movs	r1, #0
 752 04c6 CBF68071 		movt	r1, 49024
 753              	.L26:
 754              	.LBE68:
 755              	.LBE87:
 756              		.loc 1 1632 0
 757 04ca 0198     		ldr	r0, [sp, #4]	@ float
 758 04cc FFF7FEFF 		bl	__aeabi_fcmpeq
 759 04d0 0028     		cmp	r0, #0
 760 04d2 00F02E81 		beq	.L301
 761              		.loc 1 1633 0
 762 04d6 A5F80EA0 		strh	sl, [r5, #14]	@ movhi
 763              		.loc 1 1630 0
 764 04da 4746     		mov	r7, r8
 765 04dc 0FE6     		b	.L18
 766              	.LVL63:
 767              	.L142:
 768              		.loc 1 1628 0
 769 04de C74A     		ldr	r2, .L316
 770 04e0 B2F814A0 		ldrh	sl, [r2, #20]
 771 04e4 0FFA8AF8 		sxth	r8, sl
 772 04e8 B8F1FF0F 		cmp	r8, #255
 773 04ec 3FF427AF 		beq	.L145
 774              		.loc 1 1630 0
 775 04f0 B2F80CB0 		ldrh	fp, [r2, #12]
 776 04f4 88EAE872 		eor	r2, r8, r8, asr #31
 777 04f8 A2EBE872 		sub	r2, r2, r8, asr #31
 778 04fc 0FFA8BF7 		sxth	r7, fp
 779 0500 87EAE770 		eor	r0, r7, r7, asr #31
 780 0504 A0EBE770 		sub	r0, r0, r7, asr #31
 781 0508 9042     		cmp	r0, r2
 782 050a 00F3B482 		bgt	.L146
 783              		.loc 1 1638 0
 784 050e BB49     		ldr	r1, .L316
 785 0510 A1F80EB0 		strh	fp, [r1, #14]	@ movhi
 786 0514 17E7     		b	.L144
 787              	.LVL64:
 788              	.L160:
 789              		.loc 1 1628 0
 790 0516 BA4A     		ldr	r2, .L316+4
 791 0518 B2F814A0 		ldrh	sl, [r2, #20]
 792 051c 0FFA8AF8 		sxth	r8, sl
 793 0520 B8F1FF0F 		cmp	r8, #255
 794 0524 3FF435AF 		beq	.L163
 795              		.loc 1 1630 0
 796 0528 B2F80CB0 		ldrh	fp, [r2, #12]
 797 052c 88EAE872 		eor	r2, r8, r8, asr #31
 798 0530 A2EBE872 		sub	r2, r2, r8, asr #31
ARM GAS  /tmp/ccdUEzgz.s 			page 15


 799 0534 0FFA8BF7 		sxth	r7, fp
 800 0538 87EAE770 		eor	r0, r7, r7, asr #31
 801 053c A0EBE770 		sub	r0, r0, r7, asr #31
 802 0540 9042     		cmp	r0, r2
 803 0542 00F34782 		bgt	.L164
 804              		.loc 1 1638 0
 805 0546 AE49     		ldr	r1, .L316+4
 806 0548 A1F80EB0 		strh	fp, [r1, #14]	@ movhi
 807 054c 25E7     		b	.L162
 808              	.LVL65:
 809              	.L178:
 810              		.loc 1 1628 0 discriminator 1
 811 054e 029B     		ldr	r3, [sp, #8]
 812 0550 B3F814A0 		ldrh	sl, [r3, #20]
 813 0554 0FFA8AF8 		sxth	r8, sl
 814 0558 B8F1FF0F 		cmp	r8, #255
 815 055c 3FF454AF 		beq	.L4
 816              		.loc 1 1630 0
 817 0560 B3F80CB0 		ldrh	fp, [r3, #12]
 818 0564 88EAE87C 		eor	ip, r8, r8, asr #31
 819 0568 ACEBE87C 		sub	ip, ip, r8, asr #31
 820 056c 0FFA8BF7 		sxth	r7, fp
 821 0570 87EAE771 		eor	r1, r7, r7, asr #31
 822 0574 A1EBE771 		sub	r1, r1, r7, asr #31
 823 0578 6145     		cmp	r1, ip
 824 057a 40F3FE81 		ble	.L5
 825              		.loc 1 1632 0
 826 057e 3846     		mov	r0, r7
 827 0580 FFF7FEFF 		bl	__aeabi_i2f
 828              	.LBB88:
 829              	.LBB42:
 830              		.loc 1 142 0
 831 0584 0021     		movs	r1, #0
 832              	.LBE42:
 833              	.LBE88:
 834              		.loc 1 1632 0
 835 0586 0190     		str	r0, [sp, #4]	@ float
 836              	.LVL66:
 837              	.LBB89:
 838              	.LBB43:
 839              		.loc 1 142 0
 840 0588 FFF7FEFF 		bl	__aeabi_fcmpeq
 841              	.LVL67:
 842 058c 0028     		cmp	r0, #0
 843 058e 40F00983 		bne	.L180
 844              		.loc 1 143 0
 845 0592 0198     		ldr	r0, [sp, #4]	@ float
 846 0594 0021     		movs	r1, #0
 847 0596 FFF7FEFF 		bl	__aeabi_fcmpgt
 848 059a 0028     		cmp	r0, #0
 849 059c 00F06383 		beq	.L243
 850 05a0 4FF07E53 		mov	r3, #1065353216
 851 05a4 0193     		str	r3, [sp, #4]	@ float
 852              	.L6:
 853              	.LBE43:
 854              	.LBE89:
 855              		.loc 1 1632 0
ARM GAS  /tmp/ccdUEzgz.s 			page 16


 856 05a6 4046     		mov	r0, r8
 857 05a8 FFF7FEFF 		bl	__aeabi_i2f
 858              	.LBB90:
 859              	.LBB69:
 860              		.loc 1 142 0
 861 05ac 0021     		movs	r1, #0
 862              	.LBE69:
 863              	.LBE90:
 864              		.loc 1 1632 0
 865 05ae 0490     		str	r0, [sp, #16]	@ float
 866              	.LVL68:
 867              	.LBB91:
 868              	.LBB70:
 869              		.loc 1 142 0
 870 05b0 FFF7FEFF 		bl	__aeabi_fcmpeq
 871              	.LVL69:
 872 05b4 0021     		movs	r1, #0
 873 05b6 48B9     		cbnz	r0, .L8
 874              		.loc 1 143 0
 875 05b8 0021     		movs	r1, #0
 876 05ba 0498     		ldr	r0, [sp, #16]	@ float
 877 05bc FFF7FEFF 		bl	__aeabi_fcmpgt
 878 05c0 4FF07E51 		mov	r1, #1065353216
 879 05c4 10B9     		cbnz	r0, .L8
 880 05c6 0021     		movs	r1, #0
 881 05c8 CBF68071 		movt	r1, 49024
 882              	.L8:
 883              	.LBE70:
 884              	.LBE91:
 885              		.loc 1 1632 0
 886 05cc 0198     		ldr	r0, [sp, #4]	@ float
 887 05ce FFF7FEFF 		bl	__aeabi_fcmpeq
 888 05d2 0028     		cmp	r0, #0
 889 05d4 00F0C882 		beq	.L245
 890              		.loc 1 1633 0
 891 05d8 029F     		ldr	r7, [sp, #8]
 892 05da A7F80EA0 		strh	sl, [r7, #14]	@ movhi
 893              		.loc 1 1630 0
 894 05de 4746     		mov	r7, r8
 895 05e0 16E7     		b	.L12
 896              	.LVL70:
 897              	.L70:
 898              		.loc 1 1628 0
 899 05e2 884A     		ldr	r2, .L316+8
 900 05e4 B2F814A0 		ldrh	sl, [r2, #20]
 901 05e8 0FFA8AF8 		sxth	r8, sl
 902 05ec B8F1FF0F 		cmp	r8, #255
 903 05f0 3FF4FDAD 		beq	.L73
 904              		.loc 1 1630 0
 905 05f4 B2F80CB0 		ldrh	fp, [r2, #12]
 906 05f8 88EAE872 		eor	r2, r8, r8, asr #31
 907 05fc A2EBE872 		sub	r2, r2, r8, asr #31
 908 0600 0FFA8BF7 		sxth	r7, fp
 909 0604 87EAE770 		eor	r0, r7, r7, asr #31
 910 0608 A0EBE770 		sub	r0, r0, r7, asr #31
 911 060c 9042     		cmp	r0, r2
 912 060e 00F38B81 		bgt	.L74
ARM GAS  /tmp/ccdUEzgz.s 			page 17


 913              		.loc 1 1638 0
 914 0612 7C49     		ldr	r1, .L316+8
 915 0614 A1F80EB0 		strh	fp, [r1, #14]	@ movhi
 916 0618 EDE5     		b	.L72
 917              	.LVL71:
 918              	.L34:
 919              		.loc 1 1628 0
 920 061a 7B4B     		ldr	r3, .L316+12
 921 061c B3F814A0 		ldrh	sl, [r3, #20]
 922 0620 0FFA8AF8 		sxth	r8, sl
 923 0624 B8F1FF0F 		cmp	r8, #255
 924 0628 3FF48DAD 		beq	.L37
 925              		.loc 1 1630 0
 926 062c B3F80CB0 		ldrh	fp, [r3, #12]
 927 0630 88EAE872 		eor	r2, r8, r8, asr #31
 928 0634 A2EBE872 		sub	r2, r2, r8, asr #31
 929 0638 0FFA8BF7 		sxth	r7, fp
 930 063c 87EAE770 		eor	r0, r7, r7, asr #31
 931 0640 A0EBE770 		sub	r0, r0, r7, asr #31
 932 0644 9042     		cmp	r0, r2
 933 0646 00F3F480 		bgt	.L38
 934              		.loc 1 1638 0
 935 064a 6F49     		ldr	r1, .L316+12
 936 064c A1F80EB0 		strh	fp, [r1, #14]	@ movhi
 937 0650 7DE5     		b	.L36
 938              	.LVL72:
 939              	.L106:
 940              		.loc 1 1628 0
 941 0652 6E4A     		ldr	r2, .L316+16
 942 0654 B2F814A0 		ldrh	sl, [r2, #20]
 943 0658 0FFA8AF8 		sxth	r8, sl
 944 065c B8F1FF0F 		cmp	r8, #255
 945 0660 3FF419AE 		beq	.L109
 946              		.loc 1 1630 0
 947 0664 B2F80CB0 		ldrh	fp, [r2, #12]
 948 0668 88EAE872 		eor	r2, r8, r8, asr #31
 949 066c A2EBE872 		sub	r2, r2, r8, asr #31
 950 0670 0FFA8BF7 		sxth	r7, fp
 951 0674 87EAE770 		eor	r0, r7, r7, asr #31
 952 0678 A0EBE770 		sub	r0, r0, r7, asr #31
 953 067c 9042     		cmp	r0, r2
 954 067e 00F38081 		bgt	.L110
 955              		.loc 1 1638 0
 956 0682 6249     		ldr	r1, .L316+16
 957 0684 A1F80EB0 		strh	fp, [r1, #14]	@ movhi
 958 0688 09E6     		b	.L108
 959              	.LVL73:
 960              	.L52:
 961              		.loc 1 1628 0
 962 068a 614A     		ldr	r2, .L316+20
 963 068c B2F814A0 		ldrh	sl, [r2, #20]
 964 0690 0FFA8AF8 		sxth	r8, sl
 965 0694 B8F1FF0F 		cmp	r8, #255
 966 0698 3FF47FAD 		beq	.L55
 967              		.loc 1 1630 0
 968 069c B2F80CB0 		ldrh	fp, [r2, #12]
 969 06a0 88EAE872 		eor	r2, r8, r8, asr #31
ARM GAS  /tmp/ccdUEzgz.s 			page 18


 970 06a4 A2EBE872 		sub	r2, r2, r8, asr #31
 971 06a8 0FFA8BF7 		sxth	r7, fp
 972 06ac 87EAE770 		eor	r0, r7, r7, asr #31
 973 06b0 A0EBE770 		sub	r0, r0, r7, asr #31
 974 06b4 9042     		cmp	r0, r2
 975 06b6 00F30E81 		bgt	.L56
 976              		.loc 1 1638 0
 977 06ba 5549     		ldr	r1, .L316+20
 978 06bc A1F80EB0 		strh	fp, [r1, #14]	@ movhi
 979 06c0 6FE5     		b	.L54
 980              	.LVL74:
 981              	.L88:
 982              		.loc 1 1628 0
 983 06c2 544A     		ldr	r2, .L316+24
 984 06c4 B2F814A0 		ldrh	sl, [r2, #20]
 985 06c8 0FFA8AF8 		sxth	r8, sl
 986 06cc B8F1FF0F 		cmp	r8, #255
 987 06d0 3FF4B7AD 		beq	.L91
 988              		.loc 1 1630 0
 989 06d4 B2F80CB0 		ldrh	fp, [r2, #12]
 990 06d8 88EAE872 		eor	r2, r8, r8, asr #31
 991 06dc A2EBE872 		sub	r2, r2, r8, asr #31
 992 06e0 0FFA8BF7 		sxth	r7, fp
 993 06e4 87EAE770 		eor	r0, r7, r7, asr #31
 994 06e8 A0EBE770 		sub	r0, r0, r7, asr #31
 995 06ec 9042     		cmp	r0, r2
 996 06ee 00F3C980 		bgt	.L92
 997              		.loc 1 1638 0
 998 06f2 4849     		ldr	r1, .L316+24
 999 06f4 A1F80EB0 		strh	fp, [r1, #14]	@ movhi
 1000 06f8 A7E5     		b	.L90
 1001              	.LVL75:
 1002              	.L124:
 1003              		.loc 1 1628 0
 1004 06fa 474A     		ldr	r2, .L316+28
 1005 06fc B2F814A0 		ldrh	sl, [r2, #20]
 1006 0700 0FFA8AF8 		sxth	r8, sl
 1007 0704 B8F1FF0F 		cmp	r8, #255
 1008 0708 3FF4EFAD 		beq	.L127
 1009              		.loc 1 1630 0
 1010 070c B2F80CB0 		ldrh	fp, [r2, #12]
 1011 0710 88EAE872 		eor	r2, r8, r8, asr #31
 1012 0714 A2EBE872 		sub	r2, r2, r8, asr #31
 1013 0718 0FFA8BF7 		sxth	r7, fp
 1014 071c 87EAE770 		eor	r0, r7, r7, asr #31
 1015 0720 A0EBE770 		sub	r0, r0, r7, asr #31
 1016 0724 9042     		cmp	r0, r2
 1017 0726 00F37E81 		bgt	.L128
 1018              		.loc 1 1638 0
 1019 072a 3B49     		ldr	r1, .L316+28
 1020 072c A1F80EB0 		strh	fp, [r1, #14]	@ movhi
 1021 0730 DFE5     		b	.L126
 1022              	.LVL76:
 1023              	.L301:
 1024              		.loc 1 1635 0
 1025 0732 A5F80EB0 		strh	fp, [r5, #14]	@ movhi
 1026 0736 E2E4     		b	.L18
ARM GAS  /tmp/ccdUEzgz.s 			page 19


 1027              	.LVL77:
 1028              	.L311:
 1029              		.loc 1 1656 0
 1030 0738 7FF73CAE 		ble	.L177
 1031              		.loc 1 1658 0
 1032 073c 304B     		ldr	r3, .L316+4
 1033 073e B3F91010 		ldrsh	r1, [r3, #16]
 1034 0742 721A     		subs	r2, r6, r1
 1035              	.LVL78:
 1036 0744 9742     		cmp	r7, r2
 1037 0746 ACBF     		ite	ge
 1038 0748 B946     		movge	r9, r7
 1039 074a 9146     		movlt	r9, r2
 1040 074c 32E6     		b	.L177
 1041              	.LVL79:
 1042              	.L14:
 1043              		.loc 1 1656 0
 1044 074e 7FF76BAE 		ble	.L15
 1045              		.loc 1 1658 0
 1046 0752 0298     		ldr	r0, [sp, #8]
 1047 0754 B0F91030 		ldrsh	r3, [r0, #16]
 1048 0758 F61A     		subs	r6, r6, r3
 1049              	.LVL80:
 1050 075a B742     		cmp	r7, r6
 1051 075c ACBF     		ite	ge
 1052 075e B946     		movge	r9, r7
 1053 0760 B146     		movlt	r9, r6
 1054 0762 61E6     		b	.L15
 1055              	.LVL81:
 1056              	.L303:
 1057              		.loc 1 1656 0
 1058 0764 7FF7D7AC 		ble	.L33
 1059              		.loc 1 1658 0
 1060 0768 B5F91030 		ldrsh	r3, [r5, #16]
 1061 076c F61A     		subs	r6, r6, r3
 1062              	.LVL82:
 1063 076e B742     		cmp	r7, r6
 1064 0770 ACBF     		ite	ge
 1065 0772 B946     		movge	r9, r7
 1066 0774 B146     		movlt	r9, r6
 1067 0776 CEE4     		b	.L33
 1068              	.LVL83:
 1069              	.L304:
 1070              		.loc 1 1656 0
 1071 0778 7FF7F6AC 		ble	.L51
 1072              		.loc 1 1658 0
 1073 077c 224B     		ldr	r3, .L316+12
 1074 077e B3F91010 		ldrsh	r1, [r3, #16]
 1075 0782 721A     		subs	r2, r6, r1
 1076              	.LVL84:
 1077 0784 9742     		cmp	r7, r2
 1078 0786 ACBF     		ite	ge
 1079 0788 B946     		movge	r9, r7
 1080 078a 9146     		movlt	r9, r2
 1081 078c ECE4     		b	.L51
 1082              	.LVL85:
 1083              	.L305:
ARM GAS  /tmp/ccdUEzgz.s 			page 20


 1084              		.loc 1 1656 0
 1085 078e 7FF715AD 		ble	.L69
 1086              		.loc 1 1658 0
 1087 0792 1F4B     		ldr	r3, .L316+20
 1088 0794 B3F91010 		ldrsh	r1, [r3, #16]
 1089 0798 721A     		subs	r2, r6, r1
 1090              	.LVL86:
 1091 079a 9742     		cmp	r7, r2
 1092 079c ACBF     		ite	ge
 1093 079e B946     		movge	r9, r7
 1094 07a0 9146     		movlt	r9, r2
 1095 07a2 0BE5     		b	.L69
 1096              	.LVL87:
 1097              	.L306:
 1098              		.loc 1 1656 0
 1099 07a4 7FF734AD 		ble	.L87
 1100              		.loc 1 1658 0
 1101 07a8 164B     		ldr	r3, .L316+8
 1102 07aa B3F91010 		ldrsh	r1, [r3, #16]
 1103 07ae 721A     		subs	r2, r6, r1
 1104              	.LVL88:
 1105 07b0 9742     		cmp	r7, r2
 1106 07b2 ACBF     		ite	ge
 1107 07b4 B946     		movge	r9, r7
 1108 07b6 9146     		movlt	r9, r2
 1109 07b8 2AE5     		b	.L87
 1110              	.LVL89:
 1111              	.L307:
 1112              		.loc 1 1656 0
 1113 07ba 7FF753AD 		ble	.L105
 1114              		.loc 1 1658 0
 1115 07be 154B     		ldr	r3, .L316+24
 1116 07c0 B3F91010 		ldrsh	r1, [r3, #16]
 1117 07c4 721A     		subs	r2, r6, r1
 1118              	.LVL90:
 1119 07c6 9742     		cmp	r7, r2
 1120 07c8 ACBF     		ite	ge
 1121 07ca B946     		movge	r9, r7
 1122 07cc 9146     		movlt	r9, r2
 1123 07ce 49E5     		b	.L105
 1124              	.LVL91:
 1125              	.L308:
 1126              		.loc 1 1656 0
 1127 07d0 7FF772AD 		ble	.L123
 1128              		.loc 1 1658 0
 1129 07d4 0D4B     		ldr	r3, .L316+16
 1130 07d6 B3F91010 		ldrsh	r1, [r3, #16]
 1131 07da 721A     		subs	r2, r6, r1
 1132              	.LVL92:
 1133 07dc 9742     		cmp	r7, r2
 1134 07de ACBF     		ite	ge
 1135 07e0 B946     		movge	r9, r7
 1136 07e2 9146     		movlt	r9, r2
 1137 07e4 68E5     		b	.L123
 1138              	.LVL93:
 1139              	.L309:
 1140              		.loc 1 1656 0
ARM GAS  /tmp/ccdUEzgz.s 			page 21


 1141 07e6 7FF791AD 		ble	.L141
 1142              		.loc 1 1658 0
 1143 07ea 0B4B     		ldr	r3, .L316+28
 1144 07ec B3F91010 		ldrsh	r1, [r3, #16]
 1145 07f0 721A     		subs	r2, r6, r1
 1146              	.LVL94:
 1147 07f2 9742     		cmp	r7, r2
 1148 07f4 ACBF     		ite	ge
 1149 07f6 B946     		movge	r9, r7
 1150 07f8 9146     		movlt	r9, r2
 1151 07fa 87E5     		b	.L141
 1152              	.L317:
 1153              		.align	2
 1154              	.L316:
 1155 07fc 64030000 		.word	.LANCHOR0+868
 1156 0800 E0030000 		.word	.LANCHOR0+992
 1157 0804 74010000 		.word	.LANCHOR0+372
 1158 0808 7C000000 		.word	.LANCHOR0+124
 1159 080c 6C020000 		.word	.LANCHOR0+620
 1160 0810 F8000000 		.word	.LANCHOR0+248
 1161 0814 F0010000 		.word	.LANCHOR0+496
 1162 0818 E8020000 		.word	.LANCHOR0+744
 1163              	.LVL95:
 1164              	.L310:
 1165              		.loc 1 1656 0
 1166 081c 7FF7A0AD 		ble	.L159
 1167              		.loc 1 1658 0
 1168 0820 A84B     		ldr	r3, .L318
 1169 0822 B3F91010 		ldrsh	r1, [r3, #16]
 1170 0826 721A     		subs	r2, r6, r1
 1171              	.LVL96:
 1172 0828 9742     		cmp	r7, r2
 1173 082a ACBF     		ite	ge
 1174 082c B946     		movge	r9, r7
 1175 082e 9146     		movlt	r9, r2
 1176 0830 96E5     		b	.L159
 1177              	.LVL97:
 1178              	.L38:
 1179              		.loc 1 1632 0
 1180 0832 3846     		mov	r0, r7
 1181 0834 FFF7FEFF 		bl	__aeabi_i2f
 1182              	.LBB92:
 1183              	.LBB44:
 1184              		.loc 1 142 0
 1185 0838 0021     		movs	r1, #0
 1186              	.LBE44:
 1187              	.LBE92:
 1188              		.loc 1 1632 0
 1189 083a 0190     		str	r0, [sp, #4]	@ float
 1190              	.LVL98:
 1191              	.LBB93:
 1192              	.LBB45:
 1193              		.loc 1 142 0
 1194 083c FFF7FEFF 		bl	__aeabi_fcmpeq
 1195              	.LVL99:
 1196 0840 0028     		cmp	r0, #0
 1197 0842 00F0B281 		beq	.L253
ARM GAS  /tmp/ccdUEzgz.s 			page 22


 1198 0846 0023     		movs	r3, #0
 1199 0848 0193     		str	r3, [sp, #4]	@ float
 1200              	.L46:
 1201              	.LBE45:
 1202              	.LBE93:
 1203              		.loc 1 1632 0
 1204 084a 4046     		mov	r0, r8
 1205 084c FFF7FEFF 		bl	__aeabi_i2f
 1206              	.LBB94:
 1207              	.LBB71:
 1208              		.loc 1 142 0
 1209 0850 0021     		movs	r1, #0
 1210              	.LBE71:
 1211              	.LBE94:
 1212              		.loc 1 1632 0
 1213 0852 0490     		str	r0, [sp, #16]	@ float
 1214              	.LVL100:
 1215              	.LBB95:
 1216              	.LBB72:
 1217              		.loc 1 142 0
 1218 0854 FFF7FEFF 		bl	__aeabi_fcmpeq
 1219              	.LVL101:
 1220 0858 0021     		movs	r1, #0
 1221 085a 48B9     		cbnz	r0, .L44
 1222              		.loc 1 143 0
 1223 085c 0021     		movs	r1, #0
 1224 085e 0498     		ldr	r0, [sp, #16]	@ float
 1225 0860 FFF7FEFF 		bl	__aeabi_fcmpgt
 1226 0864 4FF07E51 		mov	r1, #1065353216
 1227 0868 10B9     		cbnz	r0, .L44
 1228 086a 0021     		movs	r1, #0
 1229 086c CBF68071 		movt	r1, 49024
 1230              	.L44:
 1231              	.LBE72:
 1232              	.LBE95:
 1233              		.loc 1 1632 0
 1234 0870 0198     		ldr	r0, [sp, #4]	@ float
 1235 0872 FFF7FEFF 		bl	__aeabi_fcmpeq
 1236 0876 0028     		cmp	r0, #0
 1237 0878 40F0A181 		bne	.L43
 1238              		.loc 1 1635 0
 1239 087c 924A     		ldr	r2, .L318+4
 1240 087e A2F80EB0 		strh	fp, [r2, #14]	@ movhi
 1241 0882 64E4     		b	.L36
 1242              	.LVL102:
 1243              	.L92:
 1244              		.loc 1 1632 0
 1245 0884 3846     		mov	r0, r7
 1246 0886 FFF7FEFF 		bl	__aeabi_i2f
 1247              	.LBB96:
 1248              	.LBB46:
 1249              		.loc 1 142 0
 1250 088a 0021     		movs	r1, #0
 1251              	.LBE46:
 1252              	.LBE96:
 1253              		.loc 1 1632 0
 1254 088c 0190     		str	r0, [sp, #4]	@ float
ARM GAS  /tmp/ccdUEzgz.s 			page 23


 1255              	.LVL103:
 1256              	.LBB97:
 1257              	.LBB47:
 1258              		.loc 1 142 0
 1259 088e FFF7FEFF 		bl	__aeabi_fcmpeq
 1260              	.LVL104:
 1261 0892 0028     		cmp	r0, #0
 1262 0894 00F07C81 		beq	.L271
 1263 0898 0023     		movs	r3, #0
 1264 089a 0193     		str	r3, [sp, #4]	@ float
 1265              	.L100:
 1266              	.LBE47:
 1267              	.LBE97:
 1268              		.loc 1 1632 0
 1269 089c 4046     		mov	r0, r8
 1270 089e FFF7FEFF 		bl	__aeabi_i2f
 1271              	.LBB98:
 1272              	.LBB73:
 1273              		.loc 1 142 0
 1274 08a2 0021     		movs	r1, #0
 1275              	.LBE73:
 1276              	.LBE98:
 1277              		.loc 1 1632 0
 1278 08a4 0490     		str	r0, [sp, #16]	@ float
 1279              	.LVL105:
 1280              	.LBB99:
 1281              	.LBB74:
 1282              		.loc 1 142 0
 1283 08a6 FFF7FEFF 		bl	__aeabi_fcmpeq
 1284              	.LVL106:
 1285 08aa 0021     		movs	r1, #0
 1286 08ac 48B9     		cbnz	r0, .L98
 1287              		.loc 1 143 0
 1288 08ae 0021     		movs	r1, #0
 1289 08b0 0498     		ldr	r0, [sp, #16]	@ float
 1290 08b2 FFF7FEFF 		bl	__aeabi_fcmpgt
 1291 08b6 4FF07E51 		mov	r1, #1065353216
 1292 08ba 10B9     		cbnz	r0, .L98
 1293 08bc 0021     		movs	r1, #0
 1294 08be CBF68071 		movt	r1, 49024
 1295              	.L98:
 1296              	.LBE74:
 1297              	.LBE99:
 1298              		.loc 1 1632 0
 1299 08c2 0198     		ldr	r0, [sp, #4]	@ float
 1300 08c4 FFF7FEFF 		bl	__aeabi_fcmpeq
 1301 08c8 0028     		cmp	r0, #0
 1302 08ca 40F05181 		bne	.L97
 1303              		.loc 1 1635 0
 1304 08ce 7F4A     		ldr	r2, .L318+8
 1305 08d0 A2F80EB0 		strh	fp, [r2, #14]	@ movhi
 1306 08d4 B9E4     		b	.L90
 1307              	.LVL107:
 1308              	.L56:
 1309              		.loc 1 1632 0
 1310 08d6 3846     		mov	r0, r7
 1311 08d8 FFF7FEFF 		bl	__aeabi_i2f
ARM GAS  /tmp/ccdUEzgz.s 			page 24


 1312              	.LBB100:
 1313              	.LBB48:
 1314              		.loc 1 142 0
 1315 08dc 0021     		movs	r1, #0
 1316              	.LBE48:
 1317              	.LBE100:
 1318              		.loc 1 1632 0
 1319 08de 0190     		str	r0, [sp, #4]	@ float
 1320              	.LVL108:
 1321              	.LBB101:
 1322              	.LBB49:
 1323              		.loc 1 142 0
 1324 08e0 FFF7FEFF 		bl	__aeabi_fcmpeq
 1325              	.LVL109:
 1326 08e4 0028     		cmp	r0, #0
 1327 08e6 00F04981 		beq	.L259
 1328 08ea 0023     		movs	r3, #0
 1329 08ec 0193     		str	r3, [sp, #4]	@ float
 1330              	.L64:
 1331              	.LBE49:
 1332              	.LBE101:
 1333              		.loc 1 1632 0
 1334 08ee 4046     		mov	r0, r8
 1335 08f0 FFF7FEFF 		bl	__aeabi_i2f
 1336              	.LBB102:
 1337              	.LBB75:
 1338              		.loc 1 142 0
 1339 08f4 0021     		movs	r1, #0
 1340              	.LBE75:
 1341              	.LBE102:
 1342              		.loc 1 1632 0
 1343 08f6 0490     		str	r0, [sp, #16]	@ float
 1344              	.LVL110:
 1345              	.LBB103:
 1346              	.LBB76:
 1347              		.loc 1 142 0
 1348 08f8 FFF7FEFF 		bl	__aeabi_fcmpeq
 1349              	.LVL111:
 1350 08fc 0021     		movs	r1, #0
 1351 08fe 48B9     		cbnz	r0, .L62
 1352              		.loc 1 143 0
 1353 0900 0021     		movs	r1, #0
 1354 0902 0498     		ldr	r0, [sp, #16]	@ float
 1355 0904 FFF7FEFF 		bl	__aeabi_fcmpgt
 1356 0908 4FF07E51 		mov	r1, #1065353216
 1357 090c 10B9     		cbnz	r0, .L62
 1358 090e 0021     		movs	r1, #0
 1359 0910 CBF68071 		movt	r1, 49024
 1360              	.L62:
 1361              	.LBE76:
 1362              	.LBE103:
 1363              		.loc 1 1632 0
 1364 0914 0198     		ldr	r0, [sp, #4]	@ float
 1365 0916 FFF7FEFF 		bl	__aeabi_fcmpeq
 1366 091a 0028     		cmp	r0, #0
 1367 091c 40F01E81 		bne	.L61
 1368              		.loc 1 1635 0
ARM GAS  /tmp/ccdUEzgz.s 			page 25


 1369 0920 6B4A     		ldr	r2, .L318+12
 1370 0922 A2F80EB0 		strh	fp, [r2, #14]	@ movhi
 1371 0926 3CE4     		b	.L54
 1372              	.LVL112:
 1373              	.L74:
 1374              		.loc 1 1632 0
 1375 0928 3846     		mov	r0, r7
 1376 092a FFF7FEFF 		bl	__aeabi_i2f
 1377              	.LBB104:
 1378              	.LBB50:
 1379              		.loc 1 142 0
 1380 092e 0021     		movs	r1, #0
 1381              	.LBE50:
 1382              	.LBE104:
 1383              		.loc 1 1632 0
 1384 0930 0190     		str	r0, [sp, #4]	@ float
 1385              	.LVL113:
 1386              	.LBB105:
 1387              	.LBB51:
 1388              		.loc 1 142 0
 1389 0932 FFF7FEFF 		bl	__aeabi_fcmpeq
 1390              	.LVL114:
 1391 0936 0028     		cmp	r0, #0
 1392 0938 00F00681 		beq	.L265
 1393 093c 0023     		movs	r3, #0
 1394 093e 0193     		str	r3, [sp, #4]	@ float
 1395              	.L82:
 1396              	.LBE51:
 1397              	.LBE105:
 1398              		.loc 1 1632 0
 1399 0940 4046     		mov	r0, r8
 1400 0942 FFF7FEFF 		bl	__aeabi_i2f
 1401              	.LBB106:
 1402              	.LBB77:
 1403              		.loc 1 142 0
 1404 0946 0021     		movs	r1, #0
 1405              	.LBE77:
 1406              	.LBE106:
 1407              		.loc 1 1632 0
 1408 0948 0490     		str	r0, [sp, #16]	@ float
 1409              	.LVL115:
 1410              	.LBB107:
 1411              	.LBB78:
 1412              		.loc 1 142 0
 1413 094a FFF7FEFF 		bl	__aeabi_fcmpeq
 1414              	.LVL116:
 1415 094e 0021     		movs	r1, #0
 1416 0950 48B9     		cbnz	r0, .L80
 1417              		.loc 1 143 0
 1418 0952 0021     		movs	r1, #0
 1419 0954 0498     		ldr	r0, [sp, #16]	@ float
 1420 0956 FFF7FEFF 		bl	__aeabi_fcmpgt
 1421 095a 4FF07E51 		mov	r1, #1065353216
 1422 095e 10B9     		cbnz	r0, .L80
 1423 0960 0021     		movs	r1, #0
 1424 0962 CBF68071 		movt	r1, 49024
 1425              	.L80:
ARM GAS  /tmp/ccdUEzgz.s 			page 26


 1426              	.LBE78:
 1427              	.LBE107:
 1428              		.loc 1 1632 0
 1429 0966 0198     		ldr	r0, [sp, #4]	@ float
 1430 0968 FFF7FEFF 		bl	__aeabi_fcmpeq
 1431 096c 0028     		cmp	r0, #0
 1432 096e 40F04281 		bne	.L79
 1433              		.loc 1 1635 0
 1434 0972 584A     		ldr	r2, .L318+16
 1435 0974 A2F80EB0 		strh	fp, [r2, #14]	@ movhi
 1436 0978 3DE4     		b	.L72
 1437              	.LVL117:
 1438              	.L5:
 1439              		.loc 1 1638 0
 1440 097a 029B     		ldr	r3, [sp, #8]
 1441 097c A3F80EB0 		strh	fp, [r3, #14]	@ movhi
 1442 0980 46E5     		b	.L12
 1443              	.LVL118:
 1444              	.L110:
 1445              		.loc 1 1632 0
 1446 0982 3846     		mov	r0, r7
 1447 0984 FFF7FEFF 		bl	__aeabi_i2f
 1448              	.LBB108:
 1449              	.LBB52:
 1450              		.loc 1 142 0
 1451 0988 0021     		movs	r1, #0
 1452              	.LBE52:
 1453              	.LBE108:
 1454              		.loc 1 1632 0
 1455 098a 0190     		str	r0, [sp, #4]	@ float
 1456              	.LVL119:
 1457              	.LBB109:
 1458              	.LBB53:
 1459              		.loc 1 142 0
 1460 098c FFF7FEFF 		bl	__aeabi_fcmpeq
 1461              	.LVL120:
 1462 0990 0028     		cmp	r0, #0
 1463 0992 00F0C880 		beq	.L277
 1464 0996 0023     		movs	r3, #0
 1465 0998 0193     		str	r3, [sp, #4]	@ float
 1466              	.L118:
 1467              	.LBE53:
 1468              	.LBE109:
 1469              		.loc 1 1632 0
 1470 099a 4046     		mov	r0, r8
 1471 099c FFF7FEFF 		bl	__aeabi_i2f
 1472              	.LBB110:
 1473              	.LBB79:
 1474              		.loc 1 142 0
 1475 09a0 0021     		movs	r1, #0
 1476              	.LBE79:
 1477              	.LBE110:
 1478              		.loc 1 1632 0
 1479 09a2 0490     		str	r0, [sp, #16]	@ float
 1480              	.LVL121:
 1481              	.LBB111:
 1482              	.LBB80:
ARM GAS  /tmp/ccdUEzgz.s 			page 27


 1483              		.loc 1 142 0
 1484 09a4 FFF7FEFF 		bl	__aeabi_fcmpeq
 1485              	.LVL122:
 1486 09a8 0021     		movs	r1, #0
 1487 09aa 48B9     		cbnz	r0, .L116
 1488              		.loc 1 143 0
 1489 09ac 0021     		movs	r1, #0
 1490 09ae 0498     		ldr	r0, [sp, #16]	@ float
 1491 09b0 FFF7FEFF 		bl	__aeabi_fcmpgt
 1492 09b4 4FF07E51 		mov	r1, #1065353216
 1493 09b8 10B9     		cbnz	r0, .L116
 1494 09ba 0021     		movs	r1, #0
 1495 09bc CBF68071 		movt	r1, 49024
 1496              	.L116:
 1497              	.LBE80:
 1498              	.LBE111:
 1499              		.loc 1 1632 0
 1500 09c0 0198     		ldr	r0, [sp, #4]	@ float
 1501 09c2 FFF7FEFF 		bl	__aeabi_fcmpeq
 1502 09c6 0028     		cmp	r0, #0
 1503 09c8 40F00F81 		bne	.L115
 1504              		.loc 1 1635 0
 1505 09cc 424A     		ldr	r2, .L318+20
 1506 09ce A2F80EB0 		strh	fp, [r2, #14]	@ movhi
 1507 09d2 64E4     		b	.L108
 1508              	.LVL123:
 1509              	.L164:
 1510              		.loc 1 1632 0
 1511 09d4 3846     		mov	r0, r7
 1512 09d6 FFF7FEFF 		bl	__aeabi_i2f
 1513              	.LBB112:
 1514              	.LBB54:
 1515              		.loc 1 142 0
 1516 09da 0021     		movs	r1, #0
 1517              	.LBE54:
 1518              	.LBE112:
 1519              		.loc 1 1632 0
 1520 09dc 0190     		str	r0, [sp, #4]	@ float
 1521              	.LVL124:
 1522              	.LBB113:
 1523              	.LBB55:
 1524              		.loc 1 142 0
 1525 09de FFF7FEFF 		bl	__aeabi_fcmpeq
 1526              	.LVL125:
 1527 09e2 0028     		cmp	r0, #0
 1528 09e4 00F08980 		beq	.L295
 1529 09e8 0023     		movs	r3, #0
 1530 09ea 0193     		str	r3, [sp, #4]	@ float
 1531              	.L172:
 1532              	.LBE55:
 1533              	.LBE113:
 1534              		.loc 1 1632 0
 1535 09ec 4046     		mov	r0, r8
 1536 09ee FFF7FEFF 		bl	__aeabi_i2f
 1537              	.LBB114:
 1538              	.LBB81:
 1539              		.loc 1 142 0
ARM GAS  /tmp/ccdUEzgz.s 			page 28


 1540 09f2 0021     		movs	r1, #0
 1541              	.LBE81:
 1542              	.LBE114:
 1543              		.loc 1 1632 0
 1544 09f4 0490     		str	r0, [sp, #16]	@ float
 1545              	.LVL126:
 1546              	.LBB115:
 1547              	.LBB82:
 1548              		.loc 1 142 0
 1549 09f6 FFF7FEFF 		bl	__aeabi_fcmpeq
 1550              	.LVL127:
 1551 09fa 0021     		movs	r1, #0
 1552 09fc 48B9     		cbnz	r0, .L170
 1553              		.loc 1 143 0
 1554 09fe 0021     		movs	r1, #0
 1555 0a00 0498     		ldr	r0, [sp, #16]	@ float
 1556 0a02 FFF7FEFF 		bl	__aeabi_fcmpgt
 1557 0a06 4FF07E51 		mov	r1, #1065353216
 1558 0a0a 10B9     		cbnz	r0, .L170
 1559 0a0c 0021     		movs	r1, #0
 1560 0a0e CBF68071 		movt	r1, 49024
 1561              	.L170:
 1562              	.LBE82:
 1563              	.LBE115:
 1564              		.loc 1 1632 0
 1565 0a12 0198     		ldr	r0, [sp, #4]	@ float
 1566 0a14 FFF7FEFF 		bl	__aeabi_fcmpeq
 1567 0a18 0028     		cmp	r0, #0
 1568 0a1a 40F0E080 		bne	.L169
 1569              		.loc 1 1635 0
 1570 0a1e 2F4A     		ldr	r2, .L318+24
 1571 0a20 A2F80EB0 		strh	fp, [r2, #14]	@ movhi
 1572 0a24 B9E4     		b	.L162
 1573              	.LVL128:
 1574              	.L128:
 1575              		.loc 1 1632 0
 1576 0a26 3846     		mov	r0, r7
 1577 0a28 FFF7FEFF 		bl	__aeabi_i2f
 1578              	.LBB116:
 1579              	.LBB56:
 1580              		.loc 1 142 0
 1581 0a2c 0021     		movs	r1, #0
 1582              	.LBE56:
 1583              	.LBE116:
 1584              		.loc 1 1632 0
 1585 0a2e 0190     		str	r0, [sp, #4]	@ float
 1586              	.LVL129:
 1587              	.LBB117:
 1588              	.LBB57:
 1589              		.loc 1 142 0
 1590 0a30 FFF7FEFF 		bl	__aeabi_fcmpeq
 1591              	.LVL130:
 1592 0a34 0028     		cmp	r0, #0
 1593 0a36 6BD0     		beq	.L283
 1594 0a38 0023     		movs	r3, #0
 1595 0a3a 0193     		str	r3, [sp, #4]	@ float
 1596              	.L136:
ARM GAS  /tmp/ccdUEzgz.s 			page 29


 1597              	.LBE57:
 1598              	.LBE117:
 1599              		.loc 1 1632 0
 1600 0a3c 4046     		mov	r0, r8
 1601 0a3e FFF7FEFF 		bl	__aeabi_i2f
 1602              	.LBB118:
 1603              	.LBB83:
 1604              		.loc 1 142 0
 1605 0a42 0021     		movs	r1, #0
 1606              	.LBE83:
 1607              	.LBE118:
 1608              		.loc 1 1632 0
 1609 0a44 0490     		str	r0, [sp, #16]	@ float
 1610              	.LVL131:
 1611              	.LBB119:
 1612              	.LBB84:
 1613              		.loc 1 142 0
 1614 0a46 FFF7FEFF 		bl	__aeabi_fcmpeq
 1615              	.LVL132:
 1616 0a4a 0021     		movs	r1, #0
 1617 0a4c 48B9     		cbnz	r0, .L134
 1618              		.loc 1 143 0
 1619 0a4e 0021     		movs	r1, #0
 1620 0a50 0498     		ldr	r0, [sp, #16]	@ float
 1621 0a52 FFF7FEFF 		bl	__aeabi_fcmpgt
 1622 0a56 4FF07E51 		mov	r1, #1065353216
 1623 0a5a 10B9     		cbnz	r0, .L134
 1624 0a5c 0021     		movs	r1, #0
 1625 0a5e CBF68071 		movt	r1, 49024
 1626              	.L134:
 1627              	.LBE84:
 1628              	.LBE119:
 1629              		.loc 1 1632 0
 1630 0a62 0198     		ldr	r0, [sp, #4]	@ float
 1631 0a64 FFF7FEFF 		bl	__aeabi_fcmpeq
 1632 0a68 0028     		cmp	r0, #0
 1633 0a6a 40F0CA80 		bne	.L133
 1634              		.loc 1 1635 0
 1635 0a6e 1C4A     		ldr	r2, .L318+28
 1636 0a70 A2F80EB0 		strh	fp, [r2, #14]	@ movhi
 1637 0a74 3DE4     		b	.L126
 1638              	.LVL133:
 1639              	.L146:
 1640              		.loc 1 1632 0
 1641 0a76 3846     		mov	r0, r7
 1642 0a78 FFF7FEFF 		bl	__aeabi_i2f
 1643              	.LBB120:
 1644              	.LBB58:
 1645              		.loc 1 142 0
 1646 0a7c 0021     		movs	r1, #0
 1647              	.LBE58:
 1648              	.LBE120:
 1649              		.loc 1 1632 0
 1650 0a7e 0190     		str	r0, [sp, #4]	@ float
 1651              	.LVL134:
 1652              	.LBB121:
 1653              	.LBB59:
ARM GAS  /tmp/ccdUEzgz.s 			page 30


 1654              		.loc 1 142 0
 1655 0a80 FFF7FEFF 		bl	__aeabi_fcmpeq
 1656              	.LVL135:
 1657 0a84 70B3     		cbz	r0, .L289
 1658 0a86 0023     		movs	r3, #0
 1659 0a88 0193     		str	r3, [sp, #4]	@ float
 1660              	.L154:
 1661              	.LBE59:
 1662              	.LBE121:
 1663              		.loc 1 1632 0
 1664 0a8a 4046     		mov	r0, r8
 1665 0a8c FFF7FEFF 		bl	__aeabi_i2f
 1666              	.LBB122:
 1667              	.LBB85:
 1668              		.loc 1 142 0
 1669 0a90 0021     		movs	r1, #0
 1670              	.LBE85:
 1671              	.LBE122:
 1672              		.loc 1 1632 0
 1673 0a92 0490     		str	r0, [sp, #16]	@ float
 1674              	.LVL136:
 1675              	.LBB123:
 1676              	.LBB86:
 1677              		.loc 1 142 0
 1678 0a94 FFF7FEFF 		bl	__aeabi_fcmpeq
 1679              	.LVL137:
 1680 0a98 0021     		movs	r1, #0
 1681 0a9a 48B9     		cbnz	r0, .L152
 1682              		.loc 1 143 0
 1683 0a9c 0021     		movs	r1, #0
 1684 0a9e 0498     		ldr	r0, [sp, #16]	@ float
 1685 0aa0 FFF7FEFF 		bl	__aeabi_fcmpgt
 1686 0aa4 4FF07E51 		mov	r1, #1065353216
 1687 0aa8 10B9     		cbnz	r0, .L152
 1688 0aaa 0021     		movs	r1, #0
 1689 0aac CBF68071 		movt	r1, 49024
 1690              	.L152:
 1691              	.LBE86:
 1692              	.LBE123:
 1693              		.loc 1 1632 0
 1694 0ab0 0198     		ldr	r0, [sp, #4]	@ float
 1695 0ab2 FFF7FEFF 		bl	__aeabi_fcmpeq
 1696 0ab6 0028     		cmp	r0, #0
 1697 0ab8 40D1     		bne	.L151
 1698              		.loc 1 1635 0
 1699 0aba 024A     		ldr	r2, .L318
 1700 0abc A2F80EB0 		strh	fp, [r2, #14]	@ movhi
 1701 0ac0 41E4     		b	.L144
 1702              	.L319:
 1703 0ac2 00BF     		.align	2
 1704              	.L318:
 1705 0ac4 64030000 		.word	.LANCHOR0+868
 1706 0ac8 7C000000 		.word	.LANCHOR0+124
 1707 0acc F0010000 		.word	.LANCHOR0+496
 1708 0ad0 F8000000 		.word	.LANCHOR0+248
 1709 0ad4 74010000 		.word	.LANCHOR0+372
 1710 0ad8 6C020000 		.word	.LANCHOR0+620
ARM GAS  /tmp/ccdUEzgz.s 			page 31


 1711 0adc E0030000 		.word	.LANCHOR0+992
 1712 0ae0 E8020000 		.word	.LANCHOR0+744
 1713              	.LVL138:
 1714              	.L289:
 1715              	.LBB124:
 1716              	.LBB60:
 1717              		.loc 1 143 0
 1718 0ae4 0198     		ldr	r0, [sp, #4]	@ float
 1719 0ae6 0021     		movs	r1, #0
 1720 0ae8 FFF7FEFF 		bl	__aeabi_fcmpgt
 1721 0aec 0028     		cmp	r0, #0
 1722 0aee 00F09C80 		beq	.L292
 1723 0af2 4FF07E51 		mov	r1, #1065353216
 1724 0af6 0191     		str	r1, [sp, #4]	@ float
 1725 0af8 C7E7     		b	.L154
 1726              	.LVL139:
 1727              	.L295:
 1728 0afa 0198     		ldr	r0, [sp, #4]	@ float
 1729 0afc 0021     		movs	r1, #0
 1730 0afe FFF7FEFF 		bl	__aeabi_fcmpgt
 1731 0b02 0028     		cmp	r0, #0
 1732 0b04 00F09B80 		beq	.L298
 1733 0b08 4FF07E51 		mov	r1, #1065353216
 1734 0b0c 0191     		str	r1, [sp, #4]	@ float
 1735 0b0e 6DE7     		b	.L172
 1736              	.LVL140:
 1737              	.L283:
 1738 0b10 0198     		ldr	r0, [sp, #4]	@ float
 1739 0b12 0021     		movs	r1, #0
 1740 0b14 FFF7FEFF 		bl	__aeabi_fcmpgt
 1741 0b18 0028     		cmp	r0, #0
 1742 0b1a 00F08B80 		beq	.L286
 1743 0b1e 4FF07E51 		mov	r1, #1065353216
 1744 0b22 0191     		str	r1, [sp, #4]	@ float
 1745 0b24 8AE7     		b	.L136
 1746              	.LVL141:
 1747              	.L277:
 1748 0b26 0198     		ldr	r0, [sp, #4]	@ float
 1749 0b28 0021     		movs	r1, #0
 1750 0b2a FFF7FEFF 		bl	__aeabi_fcmpgt
 1751 0b2e 0028     		cmp	r0, #0
 1752 0b30 00F08A80 		beq	.L280
 1753 0b34 4FF07E51 		mov	r1, #1065353216
 1754 0b38 0191     		str	r1, [sp, #4]	@ float
 1755 0b3a 2EE7     		b	.L118
 1756              	.LVL142:
 1757              	.L151:
 1758              	.LBE60:
 1759              	.LBE124:
 1760              		.loc 1 1633 0
 1761 0b3c 4F4F     		ldr	r7, .L320
 1762 0b3e A7F80EA0 		strh	sl, [r7, #14]	@ movhi
 1763              		.loc 1 1630 0
 1764 0b42 4746     		mov	r7, r8
 1765 0b44 FFF7FFBB 		b	.L144
 1766              	.LVL143:
 1767              	.L265:
ARM GAS  /tmp/ccdUEzgz.s 			page 32


 1768              	.LBB125:
 1769              	.LBB61:
 1770              		.loc 1 143 0
 1771 0b48 0198     		ldr	r0, [sp, #4]	@ float
 1772 0b4a 0021     		movs	r1, #0
 1773 0b4c FFF7FEFF 		bl	__aeabi_fcmpgt
 1774 0b50 0028     		cmp	r0, #0
 1775 0b52 7ED0     		beq	.L268
 1776 0b54 4FF07E51 		mov	r1, #1065353216
 1777 0b58 0191     		str	r1, [sp, #4]	@ float
 1778 0b5a F1E6     		b	.L82
 1779              	.LVL144:
 1780              	.L61:
 1781              	.LBE61:
 1782              	.LBE125:
 1783              		.loc 1 1633 0
 1784 0b5c 484F     		ldr	r7, .L320+4
 1785 0b5e A7F80EA0 		strh	sl, [r7, #14]	@ movhi
 1786              		.loc 1 1630 0
 1787 0b62 4746     		mov	r7, r8
 1788 0b64 FFF71DBB 		b	.L54
 1789              	.LVL145:
 1790              	.L245:
 1791              		.loc 1 1635 0
 1792 0b68 0299     		ldr	r1, [sp, #8]
 1793 0b6a A1F80EB0 		strh	fp, [r1, #14]	@ movhi
 1794 0b6e 4FE4     		b	.L12
 1795              	.LVL146:
 1796              	.L97:
 1797              		.loc 1 1633 0
 1798 0b70 444F     		ldr	r7, .L320+8
 1799 0b72 A7F80EA0 		strh	sl, [r7, #14]	@ movhi
 1800              		.loc 1 1630 0
 1801 0b76 4746     		mov	r7, r8
 1802 0b78 FFF767BB 		b	.L90
 1803              	.LVL147:
 1804              	.L259:
 1805              	.LBB126:
 1806              	.LBB62:
 1807              		.loc 1 143 0
 1808 0b7c 0198     		ldr	r0, [sp, #4]	@ float
 1809 0b7e 0021     		movs	r1, #0
 1810 0b80 FFF7FEFF 		bl	__aeabi_fcmpgt
 1811 0b84 0028     		cmp	r0, #0
 1812 0b86 69D0     		beq	.L262
 1813 0b88 4FF07E51 		mov	r1, #1065353216
 1814 0b8c 0191     		str	r1, [sp, #4]	@ float
 1815 0b8e AEE6     		b	.L64
 1816              	.LVL148:
 1817              	.L271:
 1818 0b90 0198     		ldr	r0, [sp, #4]	@ float
 1819 0b92 0021     		movs	r1, #0
 1820 0b94 FFF7FEFF 		bl	__aeabi_fcmpgt
 1821 0b98 0028     		cmp	r0, #0
 1822 0b9a 69D0     		beq	.L274
 1823 0b9c 4FF07E51 		mov	r1, #1065353216
 1824 0ba0 0191     		str	r1, [sp, #4]	@ float
ARM GAS  /tmp/ccdUEzgz.s 			page 33


 1825 0ba2 7BE6     		b	.L100
 1826              	.LVL149:
 1827              	.L180:
 1828              		.loc 1 142 0
 1829 0ba4 0022     		movs	r2, #0
 1830 0ba6 0192     		str	r2, [sp, #4]	@ float
 1831 0ba8 FDE4     		b	.L6
 1832              	.LVL150:
 1833              	.L253:
 1834              		.loc 1 143 0
 1835 0baa 0198     		ldr	r0, [sp, #4]	@ float
 1836 0bac 0021     		movs	r1, #0
 1837 0bae FFF7FEFF 		bl	__aeabi_fcmpgt
 1838 0bb2 0028     		cmp	r0, #0
 1839 0bb4 2FD0     		beq	.L256
 1840 0bb6 4FF07E51 		mov	r1, #1065353216
 1841 0bba 0191     		str	r1, [sp, #4]	@ float
 1842 0bbc 45E6     		b	.L46
 1843              	.LVL151:
 1844              	.L43:
 1845              	.LBE62:
 1846              	.LBE126:
 1847              		.loc 1 1633 0
 1848 0bbe 324F     		ldr	r7, .L320+12
 1849 0bc0 A7F80EA0 		strh	sl, [r7, #14]	@ movhi
 1850              		.loc 1 1630 0
 1851 0bc4 4746     		mov	r7, r8
 1852 0bc6 FFF7C2BA 		b	.L36
 1853              	.LVL152:
 1854              	.L247:
 1855              	.LBB127:
 1856              	.LBB63:
 1857              		.loc 1 143 0
 1858 0bca 0198     		ldr	r0, [sp, #4]	@ float
 1859 0bcc 0021     		movs	r1, #0
 1860 0bce FFF7FEFF 		bl	__aeabi_fcmpgt
 1861 0bd2 0028     		cmp	r0, #0
 1862 0bd4 24D0     		beq	.L250
 1863 0bd6 4FF07E52 		mov	r2, #1065353216
 1864 0bda 0192     		str	r2, [sp, #4]	@ float
 1865 0bdc 62E4     		b	.L28
 1866              	.LVL153:
 1867              	.L169:
 1868              	.LBE63:
 1869              	.LBE127:
 1870              		.loc 1 1633 0
 1871 0bde 2B4F     		ldr	r7, .L320+16
 1872 0be0 A7F80EA0 		strh	sl, [r7, #14]	@ movhi
 1873              		.loc 1 1630 0
 1874 0be4 4746     		mov	r7, r8
 1875 0be6 FFF7D8BB 		b	.L162
 1876              	.LVL154:
 1877              	.L115:
 1878              		.loc 1 1633 0
 1879 0bea 294F     		ldr	r7, .L320+20
 1880 0bec A7F80EA0 		strh	sl, [r7, #14]	@ movhi
 1881              		.loc 1 1630 0
ARM GAS  /tmp/ccdUEzgz.s 			page 34


 1882 0bf0 4746     		mov	r7, r8
 1883 0bf2 FFF754BB 		b	.L108
 1884              	.LVL155:
 1885              	.L79:
 1886              		.loc 1 1633 0
 1887 0bf6 274F     		ldr	r7, .L320+24
 1888 0bf8 A7F80EA0 		strh	sl, [r7, #14]	@ movhi
 1889              		.loc 1 1630 0
 1890 0bfc 4746     		mov	r7, r8
 1891 0bfe FFF7FABA 		b	.L72
 1892              	.LVL156:
 1893              	.L133:
 1894              		.loc 1 1633 0
 1895 0c02 254F     		ldr	r7, .L320+28
 1896 0c04 A7F80EA0 		strh	sl, [r7, #14]	@ movhi
 1897              		.loc 1 1630 0
 1898 0c08 4746     		mov	r7, r8
 1899 0c0a FFF772BB 		b	.L126
 1900              	.LVL157:
 1901              	.L3:
 1902              		.loc 1 1678 0
 1903 0c0e 0020     		movs	r0, #0
 1904 0c10 07B0     		add	sp, sp, #28
 1905 0c12 BDE8F08F 		pop	{r4, r5, r6, r7, r8, r9, sl, fp, pc}
 1906              	.LVL158:
 1907              	.L256:
 1908              	.LBB128:
 1909              	.LBB64:
 1910              		.loc 1 143 0
 1911 0c16 0020     		movs	r0, #0
 1912 0c18 CBF68070 		movt	r0, 49024
 1913 0c1c 0190     		str	r0, [sp, #4]	@ float
 1914 0c1e 14E6     		b	.L46
 1915              	.LVL159:
 1916              	.L250:
 1917 0c20 0020     		movs	r0, #0
 1918 0c22 CBF68070 		movt	r0, 49024
 1919 0c26 0190     		str	r0, [sp, #4]	@ float
 1920 0c28 3CE4     		b	.L28
 1921              	.LVL160:
 1922              	.L292:
 1923 0c2a 0020     		movs	r0, #0
 1924 0c2c CBF68070 		movt	r0, 49024
 1925 0c30 0190     		str	r0, [sp, #4]	@ float
 1926 0c32 2AE7     		b	.L154
 1927              	.LVL161:
 1928              	.L286:
 1929 0c34 0020     		movs	r0, #0
 1930 0c36 CBF68070 		movt	r0, 49024
 1931 0c3a 0190     		str	r0, [sp, #4]	@ float
 1932 0c3c FEE6     		b	.L136
 1933              	.LVL162:
 1934              	.L298:
 1935 0c3e 0020     		movs	r0, #0
 1936 0c40 CBF68070 		movt	r0, 49024
 1937 0c44 0190     		str	r0, [sp, #4]	@ float
 1938 0c46 D1E6     		b	.L172
ARM GAS  /tmp/ccdUEzgz.s 			page 35


 1939              	.LVL163:
 1940              	.L280:
 1941 0c48 0020     		movs	r0, #0
 1942 0c4a CBF68070 		movt	r0, 49024
 1943 0c4e 0190     		str	r0, [sp, #4]	@ float
 1944 0c50 A3E6     		b	.L118
 1945              	.LVL164:
 1946              	.L268:
 1947 0c52 0020     		movs	r0, #0
 1948 0c54 CBF68070 		movt	r0, 49024
 1949 0c58 0190     		str	r0, [sp, #4]	@ float
 1950 0c5a 71E6     		b	.L82
 1951              	.LVL165:
 1952              	.L262:
 1953 0c5c 0020     		movs	r0, #0
 1954 0c5e CBF68070 		movt	r0, 49024
 1955 0c62 0190     		str	r0, [sp, #4]	@ float
 1956 0c64 43E6     		b	.L64
 1957              	.LVL166:
 1958              	.L243:
 1959 0c66 0020     		movs	r0, #0
 1960 0c68 CBF68070 		movt	r0, 49024
 1961 0c6c 0190     		str	r0, [sp, #4]	@ float
 1962 0c6e 9AE4     		b	.L6
 1963              	.LVL167:
 1964              	.L274:
 1965 0c70 0020     		movs	r0, #0
 1966 0c72 CBF68070 		movt	r0, 49024
 1967 0c76 0190     		str	r0, [sp, #4]	@ float
 1968 0c78 10E6     		b	.L100
 1969              	.L321:
 1970 0c7a 00BF     		.align	2
 1971              	.L320:
 1972 0c7c 64030000 		.word	.LANCHOR0+868
 1973 0c80 F8000000 		.word	.LANCHOR0+248
 1974 0c84 F0010000 		.word	.LANCHOR0+496
 1975 0c88 7C000000 		.word	.LANCHOR0+124
 1976 0c8c E0030000 		.word	.LANCHOR0+992
 1977 0c90 6C020000 		.word	.LANCHOR0+620
 1978 0c94 74010000 		.word	.LANCHOR0+372
 1979 0c98 E8020000 		.word	.LANCHOR0+744
 1980              	.LBE64:
 1981              	.LBE128:
 1982              		.cfi_endproc
 1983              	.LFE108:
 1984              		.size	SmartMotorSlewRateTask, .-SmartMotorSlewRateTask
 1985 0c9c AFF30080 		.section	.text.SmartMotorGetPtr,"ax",%progbits
 1986              		.align	2
 1987              		.p2align 4,,15
 1988              		.global	SmartMotorGetPtr
 1989              		.thumb
 1990              		.thumb_func
 1991              		.type	SmartMotorGetPtr, %function
 1992              	SmartMotorGetPtr:
 1993              	.LFB69:
 1994              		.loc 1 167 0
 1995              		.cfi_startproc
ARM GAS  /tmp/ccdUEzgz.s 			page 36


 1996              		@ args = 0, pretend = 0, frame = 0
 1997              		@ frame_needed = 0, uses_anonymous_args = 0
 1998              		@ link register save eliminated.
 1999              	.LVL168:
 2000              		.loc 1 169 0
 2001 0000 C3B2     		uxtb	r3, r0
 2002 0002 092B     		cmp	r3, #9
 2003 0004 08D8     		bhi	.L324
 2004              		.loc 1 172 0
 2005 0006 40F20001 		movw	r1, #:lower16:.LANCHOR0
 2006 000a 4201     		lsls	r2, r0, #5
 2007 000c C0F20001 		movt	r1, #:upper16:.LANCHOR0
 2008 0010 101A     		subs	r0, r2, r0
 2009              	.LVL169:
 2010 0012 01EB8000 		add	r0, r1, r0, lsl #2
 2011 0016 7047     		bx	lr
 2012              	.L324:
 2013              		.loc 1 170 0
 2014 0018 0020     		movs	r0, #0
 2015              		.loc 1 173 0
 2016 001a 7047     		bx	lr
 2017              		.cfi_endproc
 2018              	.LFE69:
 2019              		.size	SmartMotorGetPtr, .-SmartMotorGetPtr
 2020 001c AFF30080 		.section	.text.SmartMotorControllerGetPtr,"ax",%progbits
 2021              		.align	2
 2022              		.p2align 4,,15
 2023              		.global	SmartMotorControllerGetPtr
 2024              		.thumb
 2025              		.thumb_func
 2026              		.type	SmartMotorControllerGetPtr, %function
 2027              	SmartMotorControllerGetPtr:
 2028              	.LFB70:
 2029              		.loc 1 183 0
 2030              		.cfi_startproc
 2031              		@ args = 0, pretend = 0, frame = 0
 2032              		@ frame_needed = 0, uses_anonymous_args = 0
 2033              		@ link register save eliminated.
 2034              	.LVL170:
 2035              		.loc 1 185 0
 2036 0000 83B2     		uxth	r3, r0
 2037 0002 092B     		cmp	r3, #9
 2038 0004 07D8     		bhi	.L327
 2039              		.loc 1 188 0
 2040 0006 40F20001 		movw	r1, #:lower16:.LANCHOR3
 2041 000a C0F20001 		movt	r1, #:upper16:.LANCHOR3
 2042 000e 3422     		movs	r2, #52
 2043 0010 02FB0010 		mla	r0, r2, r0, r1
 2044              	.LVL171:
 2045 0014 7047     		bx	lr
 2046              	.L327:
 2047              		.loc 1 186 0
 2048 0016 0020     		movs	r0, #0
 2049              		.loc 1 189 0
 2050 0018 7047     		bx	lr
 2051              		.cfi_endproc
 2052              	.LFE70:
ARM GAS  /tmp/ccdUEzgz.s 			page 37


 2053              		.size	SmartMotorControllerGetPtr, .-SmartMotorControllerGetPtr
 2054 001a 00BFAFF3 		.section	.text.SmartMotorGetSpeed,"ax",%progbits
 2054      0080
 2055              		.align	2
 2056              		.p2align 4,,15
 2057              		.global	SmartMotorGetSpeed
 2058              		.thumb
 2059              		.thumb_func
 2060              		.type	SmartMotorGetSpeed, %function
 2061              	SmartMotorGetSpeed:
 2062              	.LFB71:
 2063              		.loc 1 199 0
 2064              		.cfi_startproc
 2065              		@ args = 0, pretend = 0, frame = 0
 2066              		@ frame_needed = 0, uses_anonymous_args = 0
 2067              		@ link register save eliminated.
 2068              	.LVL172:
 2069              		.loc 1 201 0
 2070 0000 C3B2     		uxtb	r3, r0
 2071 0002 092B     		cmp	r3, #9
 2072 0004 09D8     		bhi	.L330
 2073              		.loc 1 204 0
 2074 0006 4301     		lsls	r3, r0, #5
 2075 0008 40F20001 		movw	r1, #:lower16:.LANCHOR0
 2076 000c C0F20001 		movt	r1, #:upper16:.LANCHOR0
 2077 0010 1A1A     		subs	r2, r3, r0
 2078 0012 01EB8200 		add	r0, r1, r2, lsl #2
 2079              	.LVL173:
 2080 0016 006B     		ldr	r0, [r0, #48]	@ float
 2081 0018 7047     		bx	lr
 2082              	.LVL174:
 2083              	.L330:
 2084              		.loc 1 202 0
 2085 001a 0020     		movs	r0, #0
 2086              	.LVL175:
 2087              		.loc 1 205 0
 2088 001c 7047     		bx	lr
 2089              		.cfi_endproc
 2090              	.LFE71:
 2091              		.size	SmartMotorGetSpeed, .-SmartMotorGetSpeed
 2092 001e 00BF     		.section	.text._SmartMotorGetCurrent,"ax",%progbits
 2093              		.align	2
 2094              		.p2align 4,,15
 2095              		.global	_SmartMotorGetCurrent
 2096              		.thumb
 2097              		.thumb_func
 2098              		.type	_SmartMotorGetCurrent, %function
 2099              	_SmartMotorGetCurrent:
 2100              	.LFB72:
 2101              		.loc 1 217 0
 2102              		.cfi_startproc
 2103              		@ args = 4, pretend = 12, frame = 0
 2104              		@ frame_needed = 0, uses_anonymous_args = 1
 2105              		@ link register save eliminated.
 2106              	.LVL176:
 2107 0000 0EB4     		push	{r1, r2, r3}
 2108              	.LCFI2:
ARM GAS  /tmp/ccdUEzgz.s 			page 38


 2109              		.cfi_def_cfa_offset 12
 2110              		.cfi_offset 3, -4
 2111              		.cfi_offset 2, -8
 2112              		.cfi_offset 1, -12
 2113              		.loc 1 219 0
 2114 0002 C3B2     		uxtb	r3, r0
 2115 0004 092B     		cmp	r3, #9
 2116 0006 18D8     		bhi	.L334
 2117              		.loc 1 223 0
 2118 0008 0099     		ldr	r1, [sp, #0]
 2119 000a 61B9     		cbnz	r1, .L335
 2120              		.loc 1 226 0
 2121 000c 4301     		lsls	r3, r0, #5
 2122 000e 40F2000C 		movw	ip, #:lower16:.LANCHOR0
 2123 0012 C0F2000C 		movt	ip, #:upper16:.LANCHOR0
 2124 0016 1A1A     		subs	r2, r3, r0
 2125 0018 0CEB8200 		add	r0, ip, r2, lsl #2
 2126              	.LVL177:
 2127 001c 016D     		ldr	r1, [r0, #80]
 2128 001e 21F00040 		bic	r0, r1, #-2147483648
 2129              	.L332:
 2130              		.loc 1 227 0
 2131 0022 03B0     		add	sp, sp, #12
 2132 0024 7047     		bx	lr
 2133              	.LVL178:
 2134              	.L335:
 2135              		.loc 1 224 0
 2136 0026 4301     		lsls	r3, r0, #5
 2137 0028 40F2000C 		movw	ip, #:lower16:.LANCHOR0
 2138 002c C0F2000C 		movt	ip, #:upper16:.LANCHOR0
 2139 0030 1A1A     		subs	r2, r3, r0
 2140 0032 0CEB8200 		add	r0, ip, r2, lsl #2
 2141              	.LVL179:
 2142 0036 006D     		ldr	r0, [r0, #80]	@ float
 2143 0038 F3E7     		b	.L332
 2144              	.LVL180:
 2145              	.L334:
 2146              		.loc 1 220 0
 2147 003a 0020     		movs	r0, #0
 2148              	.LVL181:
 2149 003c F1E7     		b	.L332
 2150              		.cfi_endproc
 2151              	.LFE72:
 2152              		.size	_SmartMotorGetCurrent, .-_SmartMotorGetCurrent
 2153 003e 00BF     		.section	.text.SmartMotorGetTemperature,"ax",%progbits
 2154              		.align	2
 2155              		.p2align 4,,15
 2156              		.global	SmartMotorGetTemperature
 2157              		.thumb
 2158              		.thumb_func
 2159              		.type	SmartMotorGetTemperature, %function
 2160              	SmartMotorGetTemperature:
 2161              	.LFB73:
 2162              		.loc 1 237 0
 2163              		.cfi_startproc
 2164              		@ args = 0, pretend = 0, frame = 0
 2165              		@ frame_needed = 0, uses_anonymous_args = 0
ARM GAS  /tmp/ccdUEzgz.s 			page 39


 2166              		@ link register save eliminated.
 2167              	.LVL182:
 2168              		.loc 1 239 0
 2169 0000 C3B2     		uxtb	r3, r0
 2170 0002 092B     		cmp	r3, #9
 2171 0004 09D8     		bhi	.L338
 2172              		.loc 1 242 0
 2173 0006 4301     		lsls	r3, r0, #5
 2174 0008 40F20001 		movw	r1, #:lower16:.LANCHOR0
 2175 000c C0F20001 		movt	r1, #:upper16:.LANCHOR0
 2176 0010 1A1A     		subs	r2, r3, r0
 2177 0012 01EB8200 		add	r0, r1, r2, lsl #2
 2178              	.LVL183:
 2179 0016 406E     		ldr	r0, [r0, #100]	@ float
 2180 0018 7047     		bx	lr
 2181              	.LVL184:
 2182              	.L338:
 2183              		.loc 1 240 0
 2184 001a 0020     		movs	r0, #0
 2185              	.LVL185:
 2186              		.loc 1 243 0
 2187 001c 7047     		bx	lr
 2188              		.cfi_endproc
 2189              	.LFE73:
 2190              		.size	SmartMotorGetTemperature, .-SmartMotorGetTemperature
 2191 001e 00BF     		.section	.text.SmartMotorGetLimitCmd,"ax",%progbits
 2192              		.align	2
 2193              		.p2align 4,,15
 2194              		.global	SmartMotorGetLimitCmd
 2195              		.thumb
 2196              		.thumb_func
 2197              		.type	SmartMotorGetLimitCmd, %function
 2198              	SmartMotorGetLimitCmd:
 2199              	.LFB74:
 2200              		.loc 1 253 0
 2201              		.cfi_startproc
 2202              		@ args = 0, pretend = 0, frame = 0
 2203              		@ frame_needed = 0, uses_anonymous_args = 0
 2204              		@ link register save eliminated.
 2205              	.LVL186:
 2206              		.loc 1 255 0
 2207 0000 C3B2     		uxtb	r3, r0
 2208 0002 092B     		cmp	r3, #9
 2209 0004 0AD8     		bhi	.L341
 2210              		.loc 1 258 0
 2211 0006 4301     		lsls	r3, r0, #5
 2212 0008 40F20001 		movw	r1, #:lower16:.LANCHOR0
 2213 000c C0F20001 		movt	r1, #:upper16:.LANCHOR0
 2214 0010 1A1A     		subs	r2, r3, r0
 2215 0012 01EB8200 		add	r0, r1, r2, lsl #2
 2216              	.LVL187:
 2217 0016 B0F91400 		ldrsh	r0, [r0, #20]
 2218 001a 7047     		bx	lr
 2219              	.LVL188:
 2220              	.L341:
 2221              		.loc 1 256 0
 2222 001c 0020     		movs	r0, #0
ARM GAS  /tmp/ccdUEzgz.s 			page 40


 2223              	.LVL189:
 2224              		.loc 1 259 0
 2225 001e 7047     		bx	lr
 2226              		.cfi_endproc
 2227              	.LFE74:
 2228              		.size	SmartMotorGetLimitCmd, .-SmartMotorGetLimitCmd
 2229              		.section	.text._SmartMotorSetLimitCurent,"ax",%progbits
 2230              		.align	2
 2231              		.p2align 4,,15
 2232              		.global	_SmartMotorSetLimitCurent
 2233              		.thumb
 2234              		.thumb_func
 2235              		.type	_SmartMotorSetLimitCurent, %function
 2236              	_SmartMotorSetLimitCurent:
 2237              	.LFB75:
 2238              		.loc 1 273 0
 2239              		.cfi_startproc
 2240              		@ args = 4, pretend = 12, frame = 0
 2241              		@ frame_needed = 0, uses_anonymous_args = 1
 2242              		@ link register save eliminated.
 2243              	.LVL190:
 2244 0000 0EB4     		push	{r1, r2, r3}
 2245              	.LCFI3:
 2246              		.cfi_def_cfa_offset 12
 2247              		.cfi_offset 3, -4
 2248              		.cfi_offset 2, -8
 2249              		.cfi_offset 1, -12
 2250              		.loc 1 275 0
 2251 0002 C3B2     		uxtb	r3, r0
 2252 0004 092B     		cmp	r3, #9
 2253 0006 09D8     		bhi	.L342
 2254              		.loc 1 278 0
 2255 0008 4201     		lsls	r2, r0, #5
 2256 000a 40F20001 		movw	r1, #:lower16:.LANCHOR0
 2257 000e 131A     		subs	r3, r2, r0
 2258 0010 C0F20001 		movt	r1, #:upper16:.LANCHOR0
 2259 0014 009A     		ldr	r2, [sp, #0]	@ float
 2260 0016 01EB8300 		add	r0, r1, r3, lsl #2
 2261              	.LVL191:
 2262 001a 8261     		str	r2, [r0, #24]	@ float
 2263              	.L342:
 2264              		.loc 1 279 0
 2265 001c 03B0     		add	sp, sp, #12
 2266 001e 7047     		bx	lr
 2267              		.cfi_endproc
 2268              	.LFE75:
 2269              		.size	_SmartMotorSetLimitCurent, .-_SmartMotorSetLimitCurent
 2270              		.global	__aeabi_fdiv
 2271              		.global	__aeabi_fsub
 2272              		.global	__aeabi_f2d
 2273              		.global	__aeabi_dmul
 2274              		.global	__aeabi_ddiv
 2275              		.global	__aeabi_d2f
 2276              		.global	__aeabi_fmul
 2277              		.section	.text.SmartMotorSetFreeRpm,"ax",%progbits
 2278              		.align	2
 2279              		.p2align 4,,15
ARM GAS  /tmp/ccdUEzgz.s 			page 41


 2280              		.global	SmartMotorSetFreeRpm
 2281              		.thumb
 2282              		.thumb_func
 2283              		.type	SmartMotorSetFreeRpm, %function
 2284              	SmartMotorSetFreeRpm:
 2285              	.LFB76:
 2286              		.loc 1 289 0
 2287              		.cfi_startproc
 2288              		@ args = 0, pretend = 0, frame = 0
 2289              		@ frame_needed = 0, uses_anonymous_args = 0
 2290              	.LVL192:
 2291 0000 F8B5     		push	{r3, r4, r5, r6, r7, lr}
 2292              	.LCFI4:
 2293              		.cfi_def_cfa_offset 24
 2294              		.cfi_offset 14, -4
 2295              		.cfi_offset 7, -8
 2296              		.cfi_offset 6, -12
 2297              		.cfi_offset 5, -16
 2298              		.cfi_offset 4, -20
 2299              		.cfi_offset 3, -24
 2300              		.loc 1 291 0
 2301 0002 C3B2     		uxtb	r3, r0
 2302 0004 092B     		cmp	r3, #9
 2303 0006 30D8     		bhi	.L344
 2304              		.loc 1 294 0
 2305 0008 4401     		lsls	r4, r0, #5
 2306 000a 40F20003 		movw	r3, #:lower16:.LANCHOR0
 2307 000e C0F20003 		movt	r3, #:upper16:.LANCHOR0
 2308 0012 241A     		subs	r4, r4, r0
 2309              		.loc 1 297 0
 2310 0014 0846     		mov	r0, r1
 2311              	.LVL193:
 2312              		.loc 1 294 0
 2313 0016 03EB8404 		add	r4, r3, r4, lsl #2
 2314              	.LVL194:
 2315              		.loc 1 297 0
 2316 001a FFF7FEFF 		bl	__aeabi_i2f
 2317              	.LVL195:
 2318 001e 0546     		mov	r5, r0
 2319              		.loc 1 300 0
 2320 0020 A16B     		ldr	r1, [r4, #56]	@ float
 2321 0022 606B     		ldr	r0, [r4, #52]	@ float
 2322              		.loc 1 297 0
 2323 0024 A564     		str	r5, [r4, #72]	@ float
 2324              		.loc 1 300 0
 2325 0026 FFF7FEFF 		bl	__aeabi_fdiv
 2326 002a 0146     		mov	r1, r0
 2327 002c 4FF07E50 		mov	r0, #1065353216
 2328 0030 FFF7FEFF 		bl	__aeabi_fsub
 2329 0034 FFF7FEFF 		bl	__aeabi_f2d
 2330 0038 0DA3     		adr	r3, .L346
 2331 003a D3E90023 		ldrd	r2, [r3]
 2332 003e FFF7FEFF 		bl	__aeabi_dmul
 2333 0042 0646     		mov	r6, r0
 2334 0044 2846     		mov	r0, r5
 2335 0046 0F46     		mov	r7, r1
 2336 0048 FFF7FEFF 		bl	__aeabi_f2d
ARM GAS  /tmp/ccdUEzgz.s 			page 42


 2337 004c 0246     		mov	r2, r0
 2338 004e 0B46     		mov	r3, r1
 2339 0050 3046     		mov	r0, r6
 2340 0052 3946     		mov	r1, r7
 2341 0054 FFF7FEFF 		bl	__aeabi_ddiv
 2342 0058 FFF7FEFF 		bl	__aeabi_d2f
 2343 005c 0346     		mov	r3, r0
 2344              		.loc 1 303 0
 2345 005e 0146     		mov	r1, r0
 2346              		.loc 1 300 0
 2347 0060 6364     		str	r3, [r4, #68]	@ float
 2348              		.loc 1 303 0
 2349 0062 2846     		mov	r0, r5
 2350 0064 FFF7FEFF 		bl	__aeabi_fmul
 2351 0068 E064     		str	r0, [r4, #76]	@ float
 2352              	.LVL196:
 2353              	.L344:
 2354 006a F8BD     		pop	{r3, r4, r5, r6, r7, pc}
 2355              	.L347:
 2356 006c AFF30080 		.align	3
 2357              	.L346:
 2358 0070 CDCCCCCC 		.word	-858993459
 2359 0074 CCCC1C40 		.word	1075629260
 2360              		.cfi_endproc
 2361              	.LFE76:
 2362              		.size	SmartMotorSetFreeRpm, .-SmartMotorSetFreeRpm
 2363 0078 AFF30080 		.section	.text.SmartMotorSetSlewRate,"ax",%progbits
 2363      AFF30080 
 2364              		.align	2
 2365              		.p2align 4,,15
 2366              		.global	SmartMotorSetSlewRate
 2367              		.thumb
 2368              		.thumb_func
 2369              		.type	SmartMotorSetSlewRate, %function
 2370              	SmartMotorSetSlewRate:
 2371              	.LFB77:
 2372              		.loc 1 315 0
 2373              		.cfi_startproc
 2374              		@ args = 0, pretend = 0, frame = 0
 2375              		@ frame_needed = 0, uses_anonymous_args = 0
 2376              		@ link register save eliminated.
 2377              	.LVL197:
 2378              		.loc 1 317 0
 2379 0000 C3B2     		uxtb	r3, r0
 2380 0002 092B     		cmp	r3, #9
 2381 0004 0AD8     		bhi	.L348
 2382              		.loc 1 321 0
 2383 0006 0029     		cmp	r1, #0
 2384 0008 08DD     		ble	.L348
 2385              		.loc 1 324 0
 2386 000a 4301     		lsls	r3, r0, #5
 2387 000c 40F2000C 		movw	ip, #:lower16:.LANCHOR0
 2388 0010 C0F2000C 		movt	ip, #:upper16:.LANCHOR0
 2389 0014 1A1A     		subs	r2, r3, r0
 2390 0016 0CEB8200 		add	r0, ip, r2, lsl #2
 2391              	.LVL198:
 2392 001a 0182     		strh	r1, [r0, #16]	@ movhi
ARM GAS  /tmp/ccdUEzgz.s 			page 43


 2393              	.L348:
 2394 001c 7047     		bx	lr
 2395              		.cfi_endproc
 2396              	.LFE77:
 2397              		.size	SmartMotorSetSlewRate, .-SmartMotorSetSlewRate
 2398 001e 00BF     		.section	.text.SmartMotorGetControllerCurrent,"ax",%progbits
 2399              		.align	2
 2400              		.p2align 4,,15
 2401              		.global	SmartMotorGetControllerCurrent
 2402              		.thumb
 2403              		.thumb_func
 2404              		.type	SmartMotorGetControllerCurrent, %function
 2405              	SmartMotorGetControllerCurrent:
 2406              	.LFB78:
 2407              		.loc 1 335 0
 2408              		.cfi_startproc
 2409              		@ args = 0, pretend = 0, frame = 0
 2410              		@ frame_needed = 0, uses_anonymous_args = 0
 2411              		@ link register save eliminated.
 2412              	.LVL199:
 2413              		.loc 1 337 0
 2414 0000 83B2     		uxth	r3, r0
 2415 0002 022B     		cmp	r3, #2
 2416 0004 08D8     		bhi	.L352
 2417              		.loc 1 340 0
 2418 0006 40F20001 		movw	r1, #:lower16:.LANCHOR3
 2419 000a C0F20001 		movt	r1, #:upper16:.LANCHOR3
 2420 000e 3422     		movs	r2, #52
 2421 0010 02FB0010 		mla	r0, r2, r0, r1
 2422              	.LVL200:
 2423 0014 4069     		ldr	r0, [r0, #20]	@ float
 2424 0016 7047     		bx	lr
 2425              	.L352:
 2426              		.loc 1 338 0
 2427 0018 0020     		movs	r0, #0
 2428              		.loc 1 341 0
 2429 001a 7047     		bx	lr
 2430              		.cfi_endproc
 2431              	.LFE78:
 2432              		.size	SmartMotorGetControllerCurrent, .-SmartMotorGetControllerCurrent
 2433 001c AFF30080 		.section	.text.SmartMotorGetControllerTemperature,"ax",%progbits
 2434              		.align	2
 2435              		.p2align 4,,15
 2436              		.global	SmartMotorGetControllerTemperature
 2437              		.thumb
 2438              		.thumb_func
 2439              		.type	SmartMotorGetControllerTemperature, %function
 2440              	SmartMotorGetControllerTemperature:
 2441              	.LFB79:
 2442              		.loc 1 350 0
 2443              		.cfi_startproc
 2444              		@ args = 0, pretend = 0, frame = 0
 2445              		@ frame_needed = 0, uses_anonymous_args = 0
 2446              		@ link register save eliminated.
 2447              	.LVL201:
 2448              		.loc 1 352 0
 2449 0000 83B2     		uxth	r3, r0
ARM GAS  /tmp/ccdUEzgz.s 			page 44


 2450 0002 022B     		cmp	r3, #2
 2451 0004 08D8     		bhi	.L355
 2452              		.loc 1 355 0
 2453 0006 40F20001 		movw	r1, #:lower16:.LANCHOR3
 2454 000a C0F20001 		movt	r1, #:upper16:.LANCHOR3
 2455 000e 3422     		movs	r2, #52
 2456 0010 02FB0010 		mla	r0, r2, r0, r1
 2457              	.LVL202:
 2458 0014 006A     		ldr	r0, [r0, #32]	@ float
 2459 0016 7047     		bx	lr
 2460              	.L355:
 2461              		.loc 1 353 0
 2462 0018 0020     		movs	r0, #0
 2463              		.loc 1 356 0
 2464 001a 7047     		bx	lr
 2465              		.cfi_endproc
 2466              	.LFE79:
 2467              		.size	SmartMotorGetControllerTemperature, .-SmartMotorGetControllerTemperature
 2468 001c AFF30080 		.section	.text.SmartMotorSetControllerStatusLed,"ax",%progbits
 2469              		.align	2
 2470              		.p2align 4,,15
 2471              		.global	SmartMotorSetControllerStatusLed
 2472              		.thumb
 2473              		.thumb_func
 2474              		.type	SmartMotorSetControllerStatusLed, %function
 2475              	SmartMotorSetControllerStatusLed:
 2476              	.LFB80:
 2477              		.loc 1 370 0
 2478              		.cfi_startproc
 2479              		@ args = 0, pretend = 0, frame = 0
 2480              		@ frame_needed = 0, uses_anonymous_args = 0
 2481              		@ link register save eliminated.
 2482              	.LVL203:
 2483              		.loc 1 372 0
 2484 0000 0228     		cmp	r0, #2
 2485 0002 0BD8     		bhi	.L356
 2486              		.loc 1 375 0
 2487 0004 CBB2     		uxtb	r3, r1
 2488 0006 0B2B     		cmp	r3, #11
 2489 0008 08D8     		bhi	.L356
 2490              		.loc 1 378 0
 2491 000a 40F2000C 		movw	ip, #:lower16:.LANCHOR3
 2492 000e C0F2000C 		movt	ip, #:upper16:.LANCHOR3
 2493 0012 3422     		movs	r2, #52
 2494 0014 02FB00C0 		mla	r0, r2, r0, ip
 2495              	.LVL204:
 2496 0018 80F83210 		strb	r1, [r0, #50]
 2497              	.L356:
 2498 001c 7047     		bx	lr
 2499              		.cfi_endproc
 2500              	.LFE80:
 2501              		.size	SmartMotorSetControllerStatusLed, .-SmartMotorSetControllerStatusLed
 2502 001e 00BF     		.section	.text.SmartMotorSetPowerExpanderStatusPort,"ax",%progbits
 2503              		.align	2
 2504              		.p2align 4,,15
 2505              		.global	SmartMotorSetPowerExpanderStatusPort
 2506              		.thumb
ARM GAS  /tmp/ccdUEzgz.s 			page 45


 2507              		.thumb_func
 2508              		.type	SmartMotorSetPowerExpanderStatusPort, %function
 2509              	SmartMotorSetPowerExpanderStatusPort:
 2510              	.LFB81:
 2511              		.loc 1 392 0
 2512              		.cfi_startproc
 2513              		@ args = 0, pretend = 0, frame = 0
 2514              		@ frame_needed = 0, uses_anonymous_args = 0
 2515              		@ link register save eliminated.
 2516              	.LVL205:
 2517              		.loc 1 393 0
 2518 0000 C3B2     		uxtb	r3, r0
 2519 0002 072B     		cmp	r3, #7
 2520              		.loc 1 396 0
 2521 0004 9EBF     		ittt	ls
 2522 0006 40F20003 		movwls	r3, #:lower16:.LANCHOR3
 2523 000a C0F20003 		movtls	r3, #:upper16:.LANCHOR3
 2524 000e 83F89B00 		strbls	r0, [r3, #155]
 2525 0012 7047     		bx	lr
 2526              		.cfi_endproc
 2527              	.LFE81:
 2528              		.size	SmartMotorSetPowerExpanderStatusPort, .-SmartMotorSetPowerExpanderStatusPort
 2529 0014 AFF30080 		.section	.text.SmartMotorPtcMonitorEnable,"ax",%progbits
 2529      AFF30080 
 2529      AFF30080 
 2530              		.align	2
 2531              		.p2align 4,,15
 2532              		.global	SmartMotorPtcMonitorEnable
 2533              		.thumb
 2534              		.thumb_func
 2535              		.type	SmartMotorPtcMonitorEnable, %function
 2536              	SmartMotorPtcMonitorEnable:
 2537              	.LFB82:
 2538              		.loc 1 405 0
 2539              		.cfi_startproc
 2540              		@ args = 0, pretend = 0, frame = 0
 2541              		@ frame_needed = 0, uses_anonymous_args = 0
 2542              		@ link register save eliminated.
 2543              		.loc 1 406 0
 2544 0000 40F20000 		movw	r0, #:lower16:.LANCHOR1
 2545              		.loc 1 407 0
 2546 0004 40F20003 		movw	r3, #:lower16:.LANCHOR2
 2547              		.loc 1 406 0
 2548 0008 C0F20000 		movt	r0, #:upper16:.LANCHOR1
 2549              		.loc 1 407 0
 2550 000c C0F20003 		movt	r3, #:upper16:.LANCHOR2
 2551              		.loc 1 406 0
 2552 0010 0021     		movs	r1, #0
 2553              		.loc 1 407 0
 2554 0012 0122     		movs	r2, #1
 2555              		.loc 1 406 0
 2556 0014 0180     		strh	r1, [r0, #0]	@ movhi
 2557              		.loc 1 407 0
 2558 0016 1A80     		strh	r2, [r3, #0]	@ movhi
 2559              		.loc 1 408 0
 2560 0018 7047     		bx	lr
 2561              		.cfi_endproc
ARM GAS  /tmp/ccdUEzgz.s 			page 46


 2562              	.LFE82:
 2563              		.size	SmartMotorPtcMonitorEnable, .-SmartMotorPtcMonitorEnable
 2564 001a 00BFAFF3 		.section	.text.SmartMotorPtcMonitorDisable,"ax",%progbits
 2564      0080
 2565              		.align	2
 2566              		.p2align 4,,15
 2567              		.global	SmartMotorPtcMonitorDisable
 2568              		.thumb
 2569              		.thumb_func
 2570              		.type	SmartMotorPtcMonitorDisable, %function
 2571              	SmartMotorPtcMonitorDisable:
 2572              	.LFB83:
 2573              		.loc 1 416 0
 2574              		.cfi_startproc
 2575              		@ args = 0, pretend = 0, frame = 0
 2576              		@ frame_needed = 0, uses_anonymous_args = 0
 2577              		@ link register save eliminated.
 2578              		.loc 1 417 0
 2579 0000 40F20003 		movw	r3, #:lower16:.LANCHOR2
 2580 0004 C0F20003 		movt	r3, #:upper16:.LANCHOR2
 2581 0008 0022     		movs	r2, #0
 2582 000a 1A80     		strh	r2, [r3, #0]	@ movhi
 2583              		.loc 1 418 0
 2584 000c 7047     		bx	lr
 2585              		.cfi_endproc
 2586              	.LFE83:
 2587              		.size	SmartMotorPtcMonitorDisable, .-SmartMotorPtcMonitorDisable
 2588 000e 00BF     		.section	.text.SmartMotorCurrentMonitorEnable,"ax",%progbits
 2589              		.align	2
 2590              		.p2align 4,,15
 2591              		.global	SmartMotorCurrentMonitorEnable
 2592              		.thumb
 2593              		.thumb_func
 2594              		.type	SmartMotorCurrentMonitorEnable, %function
 2595              	SmartMotorCurrentMonitorEnable:
 2596              	.LFB84:
 2597              		.loc 1 426 0
 2598              		.cfi_startproc
 2599              		@ args = 0, pretend = 0, frame = 0
 2600              		@ frame_needed = 0, uses_anonymous_args = 0
 2601              		@ link register save eliminated.
 2602              		.loc 1 427 0
 2603 0000 40F20000 		movw	r0, #:lower16:.LANCHOR2
 2604              		.loc 1 428 0
 2605 0004 40F20003 		movw	r3, #:lower16:.LANCHOR1
 2606              		.loc 1 427 0
 2607 0008 C0F20000 		movt	r0, #:upper16:.LANCHOR2
 2608              		.loc 1 428 0
 2609 000c C0F20003 		movt	r3, #:upper16:.LANCHOR1
 2610              		.loc 1 427 0
 2611 0010 0021     		movs	r1, #0
 2612              		.loc 1 428 0
 2613 0012 0122     		movs	r2, #1
 2614              		.loc 1 427 0
 2615 0014 0180     		strh	r1, [r0, #0]	@ movhi
 2616              		.loc 1 428 0
 2617 0016 1A80     		strh	r2, [r3, #0]	@ movhi
ARM GAS  /tmp/ccdUEzgz.s 			page 47


 2618              		.loc 1 429 0
 2619 0018 7047     		bx	lr
 2620              		.cfi_endproc
 2621              	.LFE84:
 2622              		.size	SmartMotorCurrentMonitorEnable, .-SmartMotorCurrentMonitorEnable
 2623 001a 00BFAFF3 		.section	.text.SmartMotorCurrentMonitorDisable,"ax",%progbits
 2623      0080
 2624              		.align	2
 2625              		.p2align 4,,15
 2626              		.global	SmartMotorCurrentMonitorDisable
 2627              		.thumb
 2628              		.thumb_func
 2629              		.type	SmartMotorCurrentMonitorDisable, %function
 2630              	SmartMotorCurrentMonitorDisable:
 2631              	.LFB85:
 2632              		.loc 1 437 0
 2633              		.cfi_startproc
 2634              		@ args = 0, pretend = 0, frame = 0
 2635              		@ frame_needed = 0, uses_anonymous_args = 0
 2636              		@ link register save eliminated.
 2637              		.loc 1 438 0
 2638 0000 40F20003 		movw	r3, #:lower16:.LANCHOR1
 2639 0004 C0F20003 		movt	r3, #:upper16:.LANCHOR1
 2640 0008 0022     		movs	r2, #0
 2641 000a 1A80     		strh	r2, [r3, #0]	@ movhi
 2642              		.loc 1 439 0
 2643 000c 7047     		bx	lr
 2644              		.cfi_endproc
 2645              	.LFE85:
 2646              		.size	SmartMotorCurrentMonitorDisable, .-SmartMotorCurrentMonitorDisable
 2647 000e 00BF     		.section	.text.SmartMotorRun,"ax",%progbits
 2648              		.align	2
 2649              		.p2align 4,,15
 2650              		.global	SmartMotorRun
 2651              		.thumb
 2652              		.thumb_func
 2653              		.type	SmartMotorRun, %function
 2654              	SmartMotorRun:
 2655              	.LFB86:
 2656              		.loc 1 448 0
 2657              		.cfi_startproc
 2658              		@ args = 0, pretend = 0, frame = 0
 2659              		@ frame_needed = 0, uses_anonymous_args = 0
 2660              		.loc 1 450 0
 2661 0000 40F20000 		movw	r0, #:lower16:SmartMotorTask
 2662 0004 4521     		movs	r1, #69
 2663 0006 4022     		movs	r2, #64
 2664              		.loc 1 448 0
 2665 0008 08B5     		push	{r3, lr}
 2666              	.LCFI5:
 2667              		.cfi_def_cfa_offset 8
 2668              		.cfi_offset 14, -4
 2669              		.cfi_offset 3, -8
 2670              		.loc 1 450 0
 2671 000a C0F20000 		movt	r0, #:upper16:SmartMotorTask
 2672 000e FFF7FEFF 		bl	StartTaskWithPriority
 2673              		.loc 1 452 0
ARM GAS  /tmp/ccdUEzgz.s 			page 48


 2674 0012 40F20000 		movw	r0, #:lower16:SmartMotorSlewRateTask
 2675 0016 C0F20000 		movt	r0, #:upper16:SmartMotorSlewRateTask
 2676 001a 4421     		movs	r1, #68
 2677 001c 4022     		movs	r2, #64
 2678              		.loc 1 453 0
 2679 001e BDE80840 		pop	{r3, lr}
 2680              		.loc 1 452 0
 2681 0022 FFF7FEBF 		b	StartTaskWithPriority
 2682              		.cfi_endproc
 2683              	.LFE86:
 2684              		.size	SmartMotorRun, .-SmartMotorRun
 2685 0026 00BFAFF3 		.section	.text.SmartMotorStop,"ax",%progbits
 2685      0080AFF3 
 2685      0080
 2686              		.align	2
 2687              		.p2align 4,,15
 2688              		.global	SmartMotorStop
 2689              		.thumb
 2690              		.thumb_func
 2691              		.type	SmartMotorStop, %function
 2692              	SmartMotorStop:
 2693              	.LFB87:
 2694              		.loc 1 461 0
 2695              		.cfi_startproc
 2696              		@ args = 0, pretend = 0, frame = 0
 2697              		@ frame_needed = 0, uses_anonymous_args = 0
 2698 0000 08B5     		push	{r3, lr}
 2699              	.LCFI6:
 2700              		.cfi_def_cfa_offset 8
 2701              		.cfi_offset 14, -4
 2702              		.cfi_offset 3, -8
 2703              	.LBB129:
 2704              	.LBB130:
 2705              		.loc 1 417 0
 2706 0002 40F20002 		movw	r2, #:lower16:.LANCHOR2
 2707              	.LBE130:
 2708              	.LBE129:
 2709              	.LBB133:
 2710              	.LBB134:
 2711              		.loc 1 438 0
 2712 0006 40F20003 		movw	r3, #:lower16:.LANCHOR1
 2713              	.LBE134:
 2714              	.LBE133:
 2715              	.LBB137:
 2716              	.LBB131:
 2717              		.loc 1 417 0
 2718 000a 0021     		movs	r1, #0
 2719 000c C0F20002 		movt	r2, #:upper16:.LANCHOR2
 2720              	.LBE131:
 2721              	.LBE137:
 2722              	.LBB138:
 2723              	.LBB135:
 2724              		.loc 1 438 0
 2725 0010 C0F20003 		movt	r3, #:upper16:.LANCHOR1
 2726              	.LBE135:
 2727              	.LBE138:
 2728              		.loc 1 465 0
ARM GAS  /tmp/ccdUEzgz.s 			page 49


 2729 0014 40F20000 		movw	r0, #:lower16:SmartMotorTask
 2730 0018 C0F20000 		movt	r0, #:upper16:SmartMotorTask
 2731              	.LBB139:
 2732              	.LBB132:
 2733              		.loc 1 417 0
 2734 001c 1180     		strh	r1, [r2, #0]	@ movhi
 2735              	.LBE132:
 2736              	.LBE139:
 2737              	.LBB140:
 2738              	.LBB136:
 2739              		.loc 1 438 0
 2740 001e 1980     		strh	r1, [r3, #0]	@ movhi
 2741              	.LBE136:
 2742              	.LBE140:
 2743              		.loc 1 465 0
 2744 0020 FFF7FEFF 		bl	StopTask
 2745              		.loc 1 466 0
 2746 0024 40F20000 		movw	r0, #:lower16:SmartMotorSlewRateTask
 2747 0028 C0F20000 		movt	r0, #:upper16:SmartMotorSlewRateTask
 2748              		.loc 1 467 0
 2749 002c BDE80840 		pop	{r3, lr}
 2750              		.loc 1 466 0
 2751 0030 FFF7FEBF 		b	StopTask
 2752              		.cfi_endproc
 2753              	.LFE87:
 2754              		.size	SmartMotorStop, .-SmartMotorStop
 2755 0034 AFF30080 		.section	.text.SmartMotorDebugStatus,"ax",%progbits
 2755      AFF30080 
 2755      AFF30080 
 2756              		.align	2
 2757              		.p2align 4,,15
 2758              		.global	SmartMotorDebugStatus
 2759              		.thumb
 2760              		.thumb_func
 2761              		.type	SmartMotorDebugStatus, %function
 2762              	SmartMotorDebugStatus:
 2763              	.LFB88:
 2764              		.loc 1 475 0
 2765              		.cfi_startproc
 2766              		@ args = 0, pretend = 0, frame = 0
 2767              		@ frame_needed = 0, uses_anonymous_args = 0
 2768              	.LVL206:
 2769 0000 38B5     		push	{r3, r4, r5, lr}
 2770              	.LCFI7:
 2771              		.cfi_def_cfa_offset 16
 2772              		.cfi_offset 14, -4
 2773              		.cfi_offset 5, -8
 2774              		.cfi_offset 4, -12
 2775              		.cfi_offset 3, -16
 2776              		.loc 1 486 0
 2777 0002 40F20000 		movw	r0, #:lower16:.LC1
 2778              		.loc 1 492 0
 2779 0006 40F20005 		movw	r5, #:lower16:.LANCHOR3
 2780 000a C0F20005 		movt	r5, #:upper16:.LANCHOR3
 2781              		.loc 1 486 0
 2782 000e C0F20000 		movt	r0, #:upper16:.LC1
 2783 0012 FFF7FEFF 		bl	vex_printf
ARM GAS  /tmp/ccdUEzgz.s 			page 50


 2784              		.loc 1 492 0
 2785 0016 6869     		ldr	r0, [r5, #20]	@ float
 2786 0018 FFF7FEFF 		bl	__aeabi_f2d
 2787 001c 0246     		mov	r2, r0
 2788 001e 40F20000 		movw	r0, #:lower16:.LC2
 2789 0022 0B46     		mov	r3, r1
 2790 0024 C0F20000 		movt	r0, #:upper16:.LC2
 2791 0028 FFF7FEFF 		bl	vex_printf
 2792              		.loc 1 493 0
 2793 002c 286A     		ldr	r0, [r5, #32]	@ float
 2794 002e FFF7FEFF 		bl	__aeabi_f2d
 2795 0032 0246     		mov	r2, r0
 2796 0034 40F20000 		movw	r0, #:lower16:.LC3
 2797 0038 0B46     		mov	r3, r1
 2798 003a C0F20000 		movt	r0, #:upper16:.LC3
 2799 003e FFF7FEFF 		bl	vex_printf
 2800              		.loc 1 494 0
 2801 0042 40F20000 		movw	r0, #:lower16:.LC4
 2802 0046 B5F93010 		ldrsh	r1, [r5, #48]
 2803 004a C0F20000 		movt	r0, #:upper16:.LC4
 2804 004e FFF7FEFF 		bl	vex_printf
 2805              		.loc 1 495 0
 2806 0052 40F20000 		movw	r0, #:lower16:.LC5
 2807 0056 C0F20000 		movt	r0, #:upper16:.LC5
 2808 005a FFF7FEFF 		bl	vex_printf
 2809              	.LVL207:
 2810              		.loc 1 499 0
 2811 005e 2C68     		ldr	r4, [r5, #0]
 2812 0060 7CB3     		cbz	r4, .L367
 2813              	.LVL208:
 2814              		.loc 1 502 0
 2815 0062 40F20000 		movw	r0, #:lower16:.LC6
 2816 0066 94F90010 		ldrsb	r1, [r4, #0]
 2817 006a C0F20000 		movt	r0, #:upper16:.LC6
 2818 006e FFF7FEFF 		bl	vex_printf
 2819              	.LVL209:
 2820              		.loc 1 503 0
 2821 0072 206D     		ldr	r0, [r4, #80]	@ float
 2822 0074 FFF7FEFF 		bl	__aeabi_f2d
 2823 0078 0246     		mov	r2, r0
 2824 007a 40F20000 		movw	r0, #:lower16:.LC2
 2825 007e 0B46     		mov	r3, r1
 2826 0080 C0F20000 		movt	r0, #:upper16:.LC2
 2827 0084 FFF7FEFF 		bl	vex_printf
 2828              		.loc 1 504 0
 2829 0088 606E     		ldr	r0, [r4, #100]	@ float
 2830 008a FFF7FEFF 		bl	__aeabi_f2d
 2831 008e 0246     		mov	r2, r0
 2832 0090 40F20000 		movw	r0, #:lower16:.LC3
 2833 0094 0B46     		mov	r3, r1
 2834 0096 C0F20000 		movt	r0, #:upper16:.LC3
 2835 009a FFF7FEFF 		bl	vex_printf
 2836              		.loc 1 505 0
 2837 009e B4F97430 		ldrsh	r3, [r4, #116]
 2838 00a2 B4F91210 		ldrsh	r1, [r4, #18]
 2839 00a6 40F20000 		movw	r0, #:lower16:.LC4
 2840 00aa C0F20000 		movt	r0, #:upper16:.LC4
ARM GAS  /tmp/ccdUEzgz.s 			page 51


 2841 00ae 03EB4101 		add	r1, r3, r1, lsl #1
 2842 00b2 FFF7FEFF 		bl	vex_printf
 2843              		.loc 1 506 0
 2844 00b6 40F20000 		movw	r0, #:lower16:.LC5
 2845 00ba C0F20000 		movt	r0, #:upper16:.LC5
 2846 00be FFF7FEFF 		bl	vex_printf
 2847              	.LVL210:
 2848              	.L367:
 2849              		.loc 1 499 0
 2850 00c2 6C68     		ldr	r4, [r5, #4]
 2851 00c4 7CB3     		cbz	r4, .L368
 2852              	.LVL211:
 2853              		.loc 1 502 0
 2854 00c6 40F20000 		movw	r0, #:lower16:.LC6
 2855 00ca 94F90010 		ldrsb	r1, [r4, #0]
 2856 00ce C0F20000 		movt	r0, #:upper16:.LC6
 2857 00d2 FFF7FEFF 		bl	vex_printf
 2858              	.LVL212:
 2859              		.loc 1 503 0
 2860 00d6 206D     		ldr	r0, [r4, #80]	@ float
 2861 00d8 FFF7FEFF 		bl	__aeabi_f2d
 2862 00dc 0246     		mov	r2, r0
 2863 00de 40F20000 		movw	r0, #:lower16:.LC2
 2864 00e2 0B46     		mov	r3, r1
 2865 00e4 C0F20000 		movt	r0, #:upper16:.LC2
 2866 00e8 FFF7FEFF 		bl	vex_printf
 2867              		.loc 1 504 0
 2868 00ec 606E     		ldr	r0, [r4, #100]	@ float
 2869 00ee FFF7FEFF 		bl	__aeabi_f2d
 2870 00f2 0246     		mov	r2, r0
 2871 00f4 40F20000 		movw	r0, #:lower16:.LC3
 2872 00f8 0B46     		mov	r3, r1
 2873 00fa C0F20000 		movt	r0, #:upper16:.LC3
 2874 00fe FFF7FEFF 		bl	vex_printf
 2875              		.loc 1 505 0
 2876 0102 B4F974C0 		ldrsh	ip, [r4, #116]
 2877 0106 B4F91240 		ldrsh	r4, [r4, #18]
 2878              	.LVL213:
 2879 010a 40F20000 		movw	r0, #:lower16:.LC4
 2880 010e C0F20000 		movt	r0, #:upper16:.LC4
 2881 0112 0CEB4401 		add	r1, ip, r4, lsl #1
 2882 0116 FFF7FEFF 		bl	vex_printf
 2883              		.loc 1 506 0
 2884 011a 40F20000 		movw	r0, #:lower16:.LC5
 2885 011e C0F20000 		movt	r0, #:upper16:.LC5
 2886 0122 FFF7FEFF 		bl	vex_printf
 2887              	.L368:
 2888              	.LVL214:
 2889              		.loc 1 499 0
 2890 0126 AC68     		ldr	r4, [r5, #8]
 2891 0128 7CB3     		cbz	r4, .L369
 2892              	.LVL215:
 2893              		.loc 1 502 0
 2894 012a 40F20000 		movw	r0, #:lower16:.LC6
 2895 012e 94F90010 		ldrsb	r1, [r4, #0]
 2896 0132 C0F20000 		movt	r0, #:upper16:.LC6
 2897 0136 FFF7FEFF 		bl	vex_printf
ARM GAS  /tmp/ccdUEzgz.s 			page 52


 2898              	.LVL216:
 2899              		.loc 1 503 0
 2900 013a 206D     		ldr	r0, [r4, #80]	@ float
 2901 013c FFF7FEFF 		bl	__aeabi_f2d
 2902 0140 0246     		mov	r2, r0
 2903 0142 40F20000 		movw	r0, #:lower16:.LC2
 2904 0146 0B46     		mov	r3, r1
 2905 0148 C0F20000 		movt	r0, #:upper16:.LC2
 2906 014c FFF7FEFF 		bl	vex_printf
 2907              		.loc 1 504 0
 2908 0150 606E     		ldr	r0, [r4, #100]	@ float
 2909 0152 FFF7FEFF 		bl	__aeabi_f2d
 2910 0156 0246     		mov	r2, r0
 2911 0158 40F20000 		movw	r0, #:lower16:.LC3
 2912 015c 0B46     		mov	r3, r1
 2913 015e C0F20000 		movt	r0, #:upper16:.LC3
 2914 0162 FFF7FEFF 		bl	vex_printf
 2915              		.loc 1 505 0
 2916 0166 B4F97430 		ldrsh	r3, [r4, #116]
 2917 016a B4F91210 		ldrsh	r1, [r4, #18]
 2918 016e 40F20000 		movw	r0, #:lower16:.LC4
 2919 0172 C0F20000 		movt	r0, #:upper16:.LC4
 2920 0176 03EB4101 		add	r1, r3, r1, lsl #1
 2921 017a FFF7FEFF 		bl	vex_printf
 2922              		.loc 1 506 0
 2923 017e 40F20000 		movw	r0, #:lower16:.LC5
 2924 0182 C0F20000 		movt	r0, #:upper16:.LC5
 2925 0186 FFF7FEFF 		bl	vex_printf
 2926              	.LVL217:
 2927              	.L369:
 2928              		.loc 1 499 0
 2929 018a EC68     		ldr	r4, [r5, #12]
 2930 018c 7CB3     		cbz	r4, .L370
 2931              	.LVL218:
 2932              		.loc 1 502 0
 2933 018e 40F20000 		movw	r0, #:lower16:.LC6
 2934 0192 94F90010 		ldrsb	r1, [r4, #0]
 2935 0196 C0F20000 		movt	r0, #:upper16:.LC6
 2936 019a FFF7FEFF 		bl	vex_printf
 2937              	.LVL219:
 2938              		.loc 1 503 0
 2939 019e 206D     		ldr	r0, [r4, #80]	@ float
 2940 01a0 FFF7FEFF 		bl	__aeabi_f2d
 2941 01a4 0246     		mov	r2, r0
 2942 01a6 40F20000 		movw	r0, #:lower16:.LC2
 2943 01aa 0B46     		mov	r3, r1
 2944 01ac C0F20000 		movt	r0, #:upper16:.LC2
 2945 01b0 FFF7FEFF 		bl	vex_printf
 2946              		.loc 1 504 0
 2947 01b4 606E     		ldr	r0, [r4, #100]	@ float
 2948 01b6 FFF7FEFF 		bl	__aeabi_f2d
 2949 01ba 0246     		mov	r2, r0
 2950 01bc 40F20000 		movw	r0, #:lower16:.LC3
 2951 01c0 0B46     		mov	r3, r1
 2952 01c2 C0F20000 		movt	r0, #:upper16:.LC3
 2953 01c6 FFF7FEFF 		bl	vex_printf
 2954              		.loc 1 505 0
ARM GAS  /tmp/ccdUEzgz.s 			page 53


 2955 01ca B4F974C0 		ldrsh	ip, [r4, #116]
 2956 01ce B4F91240 		ldrsh	r4, [r4, #18]
 2957              	.LVL220:
 2958 01d2 40F20000 		movw	r0, #:lower16:.LC4
 2959 01d6 C0F20000 		movt	r0, #:upper16:.LC4
 2960 01da 0CEB4401 		add	r1, ip, r4, lsl #1
 2961 01de FFF7FEFF 		bl	vex_printf
 2962              		.loc 1 506 0
 2963 01e2 40F20000 		movw	r0, #:lower16:.LC5
 2964 01e6 C0F20000 		movt	r0, #:upper16:.LC5
 2965 01ea FFF7FEFF 		bl	vex_printf
 2966              	.L370:
 2967              	.LVL221:
 2968              		.loc 1 499 0
 2969 01ee 2C69     		ldr	r4, [r5, #16]
 2970 01f0 7CB3     		cbz	r4, .L371
 2971              	.LVL222:
 2972              		.loc 1 502 0
 2973 01f2 40F20000 		movw	r0, #:lower16:.LC6
 2974 01f6 94F90010 		ldrsb	r1, [r4, #0]
 2975 01fa C0F20000 		movt	r0, #:upper16:.LC6
 2976 01fe FFF7FEFF 		bl	vex_printf
 2977              	.LVL223:
 2978              		.loc 1 503 0
 2979 0202 206D     		ldr	r0, [r4, #80]	@ float
 2980 0204 FFF7FEFF 		bl	__aeabi_f2d
 2981 0208 0246     		mov	r2, r0
 2982 020a 40F20000 		movw	r0, #:lower16:.LC2
 2983 020e 0B46     		mov	r3, r1
 2984 0210 C0F20000 		movt	r0, #:upper16:.LC2
 2985 0214 FFF7FEFF 		bl	vex_printf
 2986              		.loc 1 504 0
 2987 0218 606E     		ldr	r0, [r4, #100]	@ float
 2988 021a FFF7FEFF 		bl	__aeabi_f2d
 2989 021e 0246     		mov	r2, r0
 2990 0220 40F20000 		movw	r0, #:lower16:.LC3
 2991 0224 0B46     		mov	r3, r1
 2992 0226 C0F20000 		movt	r0, #:upper16:.LC3
 2993 022a FFF7FEFF 		bl	vex_printf
 2994              		.loc 1 505 0
 2995 022e B4F97430 		ldrsh	r3, [r4, #116]
 2996 0232 B4F91210 		ldrsh	r1, [r4, #18]
 2997 0236 40F20000 		movw	r0, #:lower16:.LC4
 2998 023a C0F20000 		movt	r0, #:upper16:.LC4
 2999 023e 03EB4101 		add	r1, r3, r1, lsl #1
 3000 0242 FFF7FEFF 		bl	vex_printf
 3001              		.loc 1 506 0
 3002 0246 40F20000 		movw	r0, #:lower16:.LC5
 3003 024a C0F20000 		movt	r0, #:upper16:.LC5
 3004 024e FFF7FEFF 		bl	vex_printf
 3005              	.LVL224:
 3006              	.L371:
 3007              		.loc 1 509 0
 3008 0252 40F20000 		movw	r0, #:lower16:.LC5
 3009 0256 C0F20000 		movt	r0, #:upper16:.LC5
 3010 025a FFF7FEFF 		bl	vex_printf
 3011              	.LVL225:
ARM GAS  /tmp/ccdUEzgz.s 			page 54


 3012              		.loc 1 488 0
 3013 025e 40F20000 		movw	r0, #:lower16:.LC7
 3014 0262 C0F20000 		movt	r0, #:upper16:.LC7
 3015 0266 FFF7FEFF 		bl	vex_printf
 3016              		.loc 1 492 0
 3017 026a A86C     		ldr	r0, [r5, #72]	@ float
 3018 026c FFF7FEFF 		bl	__aeabi_f2d
 3019 0270 0246     		mov	r2, r0
 3020 0272 40F20000 		movw	r0, #:lower16:.LC2
 3021 0276 0B46     		mov	r3, r1
 3022 0278 C0F20000 		movt	r0, #:upper16:.LC2
 3023 027c FFF7FEFF 		bl	vex_printf
 3024              		.loc 1 493 0
 3025 0280 686D     		ldr	r0, [r5, #84]	@ float
 3026 0282 FFF7FEFF 		bl	__aeabi_f2d
 3027 0286 0246     		mov	r2, r0
 3028 0288 40F20000 		movw	r0, #:lower16:.LC3
 3029 028c 0B46     		mov	r3, r1
 3030 028e C0F20000 		movt	r0, #:upper16:.LC3
 3031 0292 FFF7FEFF 		bl	vex_printf
 3032              		.loc 1 494 0
 3033 0296 40F20000 		movw	r0, #:lower16:.LC4
 3034 029a B5F96410 		ldrsh	r1, [r5, #100]
 3035 029e C0F20000 		movt	r0, #:upper16:.LC4
 3036 02a2 FFF7FEFF 		bl	vex_printf
 3037              		.loc 1 495 0
 3038 02a6 40F20000 		movw	r0, #:lower16:.LC5
 3039 02aa C0F20000 		movt	r0, #:upper16:.LC5
 3040 02ae FFF7FEFF 		bl	vex_printf
 3041              	.LVL226:
 3042              		.loc 1 499 0
 3043 02b2 6C6B     		ldr	r4, [r5, #52]
 3044 02b4 7CB3     		cbz	r4, .L372
 3045              	.LVL227:
 3046              		.loc 1 502 0
 3047 02b6 40F20000 		movw	r0, #:lower16:.LC6
 3048 02ba 94F90010 		ldrsb	r1, [r4, #0]
 3049 02be C0F20000 		movt	r0, #:upper16:.LC6
 3050 02c2 FFF7FEFF 		bl	vex_printf
 3051              	.LVL228:
 3052              		.loc 1 503 0
 3053 02c6 206D     		ldr	r0, [r4, #80]	@ float
 3054 02c8 FFF7FEFF 		bl	__aeabi_f2d
 3055 02cc 0246     		mov	r2, r0
 3056 02ce 40F20000 		movw	r0, #:lower16:.LC2
 3057 02d2 0B46     		mov	r3, r1
 3058 02d4 C0F20000 		movt	r0, #:upper16:.LC2
 3059 02d8 FFF7FEFF 		bl	vex_printf
 3060              		.loc 1 504 0
 3061 02dc 606E     		ldr	r0, [r4, #100]	@ float
 3062 02de FFF7FEFF 		bl	__aeabi_f2d
 3063 02e2 0246     		mov	r2, r0
 3064 02e4 40F20000 		movw	r0, #:lower16:.LC3
 3065 02e8 0B46     		mov	r3, r1
 3066 02ea C0F20000 		movt	r0, #:upper16:.LC3
 3067 02ee FFF7FEFF 		bl	vex_printf
 3068              		.loc 1 505 0
ARM GAS  /tmp/ccdUEzgz.s 			page 55


 3069 02f2 B4F974C0 		ldrsh	ip, [r4, #116]
 3070 02f6 B4F91240 		ldrsh	r4, [r4, #18]
 3071              	.LVL229:
 3072 02fa 40F20000 		movw	r0, #:lower16:.LC4
 3073 02fe C0F20000 		movt	r0, #:upper16:.LC4
 3074 0302 0CEB4401 		add	r1, ip, r4, lsl #1
 3075 0306 FFF7FEFF 		bl	vex_printf
 3076              		.loc 1 506 0
 3077 030a 40F20000 		movw	r0, #:lower16:.LC5
 3078 030e C0F20000 		movt	r0, #:upper16:.LC5
 3079 0312 FFF7FEFF 		bl	vex_printf
 3080              	.L372:
 3081              	.LVL230:
 3082              		.loc 1 499 0
 3083 0316 AC6B     		ldr	r4, [r5, #56]
 3084 0318 7CB3     		cbz	r4, .L373
 3085              	.LVL231:
 3086              		.loc 1 502 0
 3087 031a 40F20000 		movw	r0, #:lower16:.LC6
 3088 031e 94F90010 		ldrsb	r1, [r4, #0]
 3089 0322 C0F20000 		movt	r0, #:upper16:.LC6
 3090 0326 FFF7FEFF 		bl	vex_printf
 3091              	.LVL232:
 3092              		.loc 1 503 0
 3093 032a 206D     		ldr	r0, [r4, #80]	@ float
 3094 032c FFF7FEFF 		bl	__aeabi_f2d
 3095 0330 0246     		mov	r2, r0
 3096 0332 40F20000 		movw	r0, #:lower16:.LC2
 3097 0336 0B46     		mov	r3, r1
 3098 0338 C0F20000 		movt	r0, #:upper16:.LC2
 3099 033c FFF7FEFF 		bl	vex_printf
 3100              		.loc 1 504 0
 3101 0340 606E     		ldr	r0, [r4, #100]	@ float
 3102 0342 FFF7FEFF 		bl	__aeabi_f2d
 3103 0346 0246     		mov	r2, r0
 3104 0348 40F20000 		movw	r0, #:lower16:.LC3
 3105 034c 0B46     		mov	r3, r1
 3106 034e C0F20000 		movt	r0, #:upper16:.LC3
 3107 0352 FFF7FEFF 		bl	vex_printf
 3108              		.loc 1 505 0
 3109 0356 B4F97430 		ldrsh	r3, [r4, #116]
 3110 035a B4F91210 		ldrsh	r1, [r4, #18]
 3111 035e 40F20000 		movw	r0, #:lower16:.LC4
 3112 0362 C0F20000 		movt	r0, #:upper16:.LC4
 3113 0366 03EB4101 		add	r1, r3, r1, lsl #1
 3114 036a FFF7FEFF 		bl	vex_printf
 3115              		.loc 1 506 0
 3116 036e 40F20000 		movw	r0, #:lower16:.LC5
 3117 0372 C0F20000 		movt	r0, #:upper16:.LC5
 3118 0376 FFF7FEFF 		bl	vex_printf
 3119              	.LVL233:
 3120              	.L373:
 3121              		.loc 1 499 0
 3122 037a EC6B     		ldr	r4, [r5, #60]
 3123 037c 7CB3     		cbz	r4, .L374
 3124              	.LVL234:
 3125              		.loc 1 502 0
ARM GAS  /tmp/ccdUEzgz.s 			page 56


 3126 037e 40F20000 		movw	r0, #:lower16:.LC6
 3127 0382 94F90010 		ldrsb	r1, [r4, #0]
 3128 0386 C0F20000 		movt	r0, #:upper16:.LC6
 3129 038a FFF7FEFF 		bl	vex_printf
 3130              	.LVL235:
 3131              		.loc 1 503 0
 3132 038e 206D     		ldr	r0, [r4, #80]	@ float
 3133 0390 FFF7FEFF 		bl	__aeabi_f2d
 3134 0394 0246     		mov	r2, r0
 3135 0396 40F20000 		movw	r0, #:lower16:.LC2
 3136 039a 0B46     		mov	r3, r1
 3137 039c C0F20000 		movt	r0, #:upper16:.LC2
 3138 03a0 FFF7FEFF 		bl	vex_printf
 3139              		.loc 1 504 0
 3140 03a4 606E     		ldr	r0, [r4, #100]	@ float
 3141 03a6 FFF7FEFF 		bl	__aeabi_f2d
 3142 03aa 0246     		mov	r2, r0
 3143 03ac 40F20000 		movw	r0, #:lower16:.LC3
 3144 03b0 0B46     		mov	r3, r1
 3145 03b2 C0F20000 		movt	r0, #:upper16:.LC3
 3146 03b6 FFF7FEFF 		bl	vex_printf
 3147              		.loc 1 505 0
 3148 03ba B4F974C0 		ldrsh	ip, [r4, #116]
 3149 03be B4F91240 		ldrsh	r4, [r4, #18]
 3150              	.LVL236:
 3151 03c2 40F20000 		movw	r0, #:lower16:.LC4
 3152 03c6 C0F20000 		movt	r0, #:upper16:.LC4
 3153 03ca 0CEB4401 		add	r1, ip, r4, lsl #1
 3154 03ce FFF7FEFF 		bl	vex_printf
 3155              		.loc 1 506 0
 3156 03d2 40F20000 		movw	r0, #:lower16:.LC5
 3157 03d6 C0F20000 		movt	r0, #:upper16:.LC5
 3158 03da FFF7FEFF 		bl	vex_printf
 3159              	.L374:
 3160              	.LVL237:
 3161              		.loc 1 499 0
 3162 03de 2C6C     		ldr	r4, [r5, #64]
 3163 03e0 7CB3     		cbz	r4, .L375
 3164              	.LVL238:
 3165              		.loc 1 502 0
 3166 03e2 40F20000 		movw	r0, #:lower16:.LC6
 3167 03e6 94F90010 		ldrsb	r1, [r4, #0]
 3168 03ea C0F20000 		movt	r0, #:upper16:.LC6
 3169 03ee FFF7FEFF 		bl	vex_printf
 3170              	.LVL239:
 3171              		.loc 1 503 0
 3172 03f2 206D     		ldr	r0, [r4, #80]	@ float
 3173 03f4 FFF7FEFF 		bl	__aeabi_f2d
 3174 03f8 0246     		mov	r2, r0
 3175 03fa 40F20000 		movw	r0, #:lower16:.LC2
 3176 03fe 0B46     		mov	r3, r1
 3177 0400 C0F20000 		movt	r0, #:upper16:.LC2
 3178 0404 FFF7FEFF 		bl	vex_printf
 3179              		.loc 1 504 0
 3180 0408 606E     		ldr	r0, [r4, #100]	@ float
 3181 040a FFF7FEFF 		bl	__aeabi_f2d
 3182 040e 0246     		mov	r2, r0
ARM GAS  /tmp/ccdUEzgz.s 			page 57


 3183 0410 40F20000 		movw	r0, #:lower16:.LC3
 3184 0414 0B46     		mov	r3, r1
 3185 0416 C0F20000 		movt	r0, #:upper16:.LC3
 3186 041a FFF7FEFF 		bl	vex_printf
 3187              		.loc 1 505 0
 3188 041e B4F97430 		ldrsh	r3, [r4, #116]
 3189 0422 B4F91210 		ldrsh	r1, [r4, #18]
 3190 0426 40F20000 		movw	r0, #:lower16:.LC4
 3191 042a C0F20000 		movt	r0, #:upper16:.LC4
 3192 042e 03EB4101 		add	r1, r3, r1, lsl #1
 3193 0432 FFF7FEFF 		bl	vex_printf
 3194              		.loc 1 506 0
 3195 0436 40F20000 		movw	r0, #:lower16:.LC5
 3196 043a C0F20000 		movt	r0, #:upper16:.LC5
 3197 043e FFF7FEFF 		bl	vex_printf
 3198              	.LVL240:
 3199              	.L375:
 3200              		.loc 1 499 0
 3201 0442 6C6C     		ldr	r4, [r5, #68]
 3202 0444 7CB3     		cbz	r4, .L376
 3203              	.LVL241:
 3204              		.loc 1 502 0
 3205 0446 40F20000 		movw	r0, #:lower16:.LC6
 3206 044a 94F90010 		ldrsb	r1, [r4, #0]
 3207 044e C0F20000 		movt	r0, #:upper16:.LC6
 3208 0452 FFF7FEFF 		bl	vex_printf
 3209              	.LVL242:
 3210              		.loc 1 503 0
 3211 0456 206D     		ldr	r0, [r4, #80]	@ float
 3212 0458 FFF7FEFF 		bl	__aeabi_f2d
 3213 045c 0246     		mov	r2, r0
 3214 045e 40F20000 		movw	r0, #:lower16:.LC2
 3215 0462 0B46     		mov	r3, r1
 3216 0464 C0F20000 		movt	r0, #:upper16:.LC2
 3217 0468 FFF7FEFF 		bl	vex_printf
 3218              		.loc 1 504 0
 3219 046c 606E     		ldr	r0, [r4, #100]	@ float
 3220 046e FFF7FEFF 		bl	__aeabi_f2d
 3221 0472 0246     		mov	r2, r0
 3222 0474 40F20000 		movw	r0, #:lower16:.LC3
 3223 0478 0B46     		mov	r3, r1
 3224 047a C0F20000 		movt	r0, #:upper16:.LC3
 3225 047e FFF7FEFF 		bl	vex_printf
 3226              		.loc 1 505 0
 3227 0482 B4F974C0 		ldrsh	ip, [r4, #116]
 3228 0486 B4F91240 		ldrsh	r4, [r4, #18]
 3229              	.LVL243:
 3230 048a 40F20000 		movw	r0, #:lower16:.LC4
 3231 048e C0F20000 		movt	r0, #:upper16:.LC4
 3232 0492 0CEB4401 		add	r1, ip, r4, lsl #1
 3233 0496 FFF7FEFF 		bl	vex_printf
 3234              		.loc 1 506 0
 3235 049a 40F20000 		movw	r0, #:lower16:.LC5
 3236 049e C0F20000 		movt	r0, #:upper16:.LC5
 3237 04a2 FFF7FEFF 		bl	vex_printf
 3238              	.L376:
 3239              	.LVL244:
ARM GAS  /tmp/ccdUEzgz.s 			page 58


 3240              		.loc 1 509 0
 3241 04a6 40F20000 		movw	r0, #:lower16:.LC5
 3242 04aa C0F20000 		movt	r0, #:upper16:.LC5
 3243 04ae FFF7FEFF 		bl	vex_printf
 3244              	.LVL245:
 3245              		.loc 1 490 0
 3246 04b2 40F20000 		movw	r0, #:lower16:.LC8
 3247 04b6 C0F20000 		movt	r0, #:upper16:.LC8
 3248 04ba FFF7FEFF 		bl	vex_printf
 3249              		.loc 1 492 0
 3250 04be E86F     		ldr	r0, [r5, #124]	@ float
 3251 04c0 FFF7FEFF 		bl	__aeabi_f2d
 3252 04c4 0246     		mov	r2, r0
 3253 04c6 40F20000 		movw	r0, #:lower16:.LC2
 3254 04ca 0B46     		mov	r3, r1
 3255 04cc C0F20000 		movt	r0, #:upper16:.LC2
 3256 04d0 FFF7FEFF 		bl	vex_printf
 3257              		.loc 1 493 0
 3258 04d4 D5F88800 		ldr	r0, [r5, #136]	@ float
 3259 04d8 FFF7FEFF 		bl	__aeabi_f2d
 3260 04dc 0246     		mov	r2, r0
 3261 04de 40F20000 		movw	r0, #:lower16:.LC3
 3262 04e2 0B46     		mov	r3, r1
 3263 04e4 C0F20000 		movt	r0, #:upper16:.LC3
 3264 04e8 FFF7FEFF 		bl	vex_printf
 3265              		.loc 1 494 0
 3266 04ec 40F20000 		movw	r0, #:lower16:.LC4
 3267 04f0 B5F99810 		ldrsh	r1, [r5, #152]
 3268 04f4 C0F20000 		movt	r0, #:upper16:.LC4
 3269 04f8 FFF7FEFF 		bl	vex_printf
 3270              		.loc 1 495 0
 3271 04fc 40F20000 		movw	r0, #:lower16:.LC5
 3272 0500 C0F20000 		movt	r0, #:upper16:.LC5
 3273 0504 FFF7FEFF 		bl	vex_printf
 3274              	.LVL246:
 3275              		.loc 1 499 0
 3276 0508 AC6E     		ldr	r4, [r5, #104]
 3277 050a 7CB3     		cbz	r4, .L377
 3278              	.LVL247:
 3279              		.loc 1 502 0
 3280 050c 40F20000 		movw	r0, #:lower16:.LC6
 3281 0510 94F90010 		ldrsb	r1, [r4, #0]
 3282 0514 C0F20000 		movt	r0, #:upper16:.LC6
 3283 0518 FFF7FEFF 		bl	vex_printf
 3284              	.LVL248:
 3285              		.loc 1 503 0
 3286 051c 206D     		ldr	r0, [r4, #80]	@ float
 3287 051e FFF7FEFF 		bl	__aeabi_f2d
 3288 0522 0246     		mov	r2, r0
 3289 0524 40F20000 		movw	r0, #:lower16:.LC2
 3290 0528 0B46     		mov	r3, r1
 3291 052a C0F20000 		movt	r0, #:upper16:.LC2
 3292 052e FFF7FEFF 		bl	vex_printf
 3293              		.loc 1 504 0
 3294 0532 606E     		ldr	r0, [r4, #100]	@ float
 3295 0534 FFF7FEFF 		bl	__aeabi_f2d
 3296 0538 0246     		mov	r2, r0
ARM GAS  /tmp/ccdUEzgz.s 			page 59


 3297 053a 40F20000 		movw	r0, #:lower16:.LC3
 3298 053e 0B46     		mov	r3, r1
 3299 0540 C0F20000 		movt	r0, #:upper16:.LC3
 3300 0544 FFF7FEFF 		bl	vex_printf
 3301              		.loc 1 505 0
 3302 0548 B4F97430 		ldrsh	r3, [r4, #116]
 3303 054c B4F91210 		ldrsh	r1, [r4, #18]
 3304 0550 40F20000 		movw	r0, #:lower16:.LC4
 3305 0554 C0F20000 		movt	r0, #:upper16:.LC4
 3306 0558 03EB4101 		add	r1, r3, r1, lsl #1
 3307 055c FFF7FEFF 		bl	vex_printf
 3308              		.loc 1 506 0
 3309 0560 40F20000 		movw	r0, #:lower16:.LC5
 3310 0564 C0F20000 		movt	r0, #:upper16:.LC5
 3311 0568 FFF7FEFF 		bl	vex_printf
 3312              	.LVL249:
 3313              	.L377:
 3314              		.loc 1 499 0
 3315 056c EC6E     		ldr	r4, [r5, #108]
 3316 056e 7CB3     		cbz	r4, .L378
 3317              	.LVL250:
 3318              		.loc 1 502 0
 3319 0570 40F20000 		movw	r0, #:lower16:.LC6
 3320 0574 94F90010 		ldrsb	r1, [r4, #0]
 3321 0578 C0F20000 		movt	r0, #:upper16:.LC6
 3322 057c FFF7FEFF 		bl	vex_printf
 3323              	.LVL251:
 3324              		.loc 1 503 0
 3325 0580 206D     		ldr	r0, [r4, #80]	@ float
 3326 0582 FFF7FEFF 		bl	__aeabi_f2d
 3327 0586 0246     		mov	r2, r0
 3328 0588 40F20000 		movw	r0, #:lower16:.LC2
 3329 058c 0B46     		mov	r3, r1
 3330 058e C0F20000 		movt	r0, #:upper16:.LC2
 3331 0592 FFF7FEFF 		bl	vex_printf
 3332              		.loc 1 504 0
 3333 0596 606E     		ldr	r0, [r4, #100]	@ float
 3334 0598 FFF7FEFF 		bl	__aeabi_f2d
 3335 059c 0246     		mov	r2, r0
 3336 059e 40F20000 		movw	r0, #:lower16:.LC3
 3337 05a2 0B46     		mov	r3, r1
 3338 05a4 C0F20000 		movt	r0, #:upper16:.LC3
 3339 05a8 FFF7FEFF 		bl	vex_printf
 3340              		.loc 1 505 0
 3341 05ac B4F974C0 		ldrsh	ip, [r4, #116]
 3342 05b0 B4F91240 		ldrsh	r4, [r4, #18]
 3343              	.LVL252:
 3344 05b4 40F20000 		movw	r0, #:lower16:.LC4
 3345 05b8 C0F20000 		movt	r0, #:upper16:.LC4
 3346 05bc 0CEB4401 		add	r1, ip, r4, lsl #1
 3347 05c0 FFF7FEFF 		bl	vex_printf
 3348              		.loc 1 506 0
 3349 05c4 40F20000 		movw	r0, #:lower16:.LC5
 3350 05c8 C0F20000 		movt	r0, #:upper16:.LC5
 3351 05cc FFF7FEFF 		bl	vex_printf
 3352              	.L378:
 3353              	.LVL253:
ARM GAS  /tmp/ccdUEzgz.s 			page 60


 3354              		.loc 1 499 0
 3355 05d0 2C6F     		ldr	r4, [r5, #112]
 3356 05d2 7CB3     		cbz	r4, .L379
 3357              	.LVL254:
 3358              		.loc 1 502 0
 3359 05d4 40F20000 		movw	r0, #:lower16:.LC6
 3360 05d8 94F90010 		ldrsb	r1, [r4, #0]
 3361 05dc C0F20000 		movt	r0, #:upper16:.LC6
 3362 05e0 FFF7FEFF 		bl	vex_printf
 3363              	.LVL255:
 3364              		.loc 1 503 0
 3365 05e4 206D     		ldr	r0, [r4, #80]	@ float
 3366 05e6 FFF7FEFF 		bl	__aeabi_f2d
 3367 05ea 0246     		mov	r2, r0
 3368 05ec 40F20000 		movw	r0, #:lower16:.LC2
 3369 05f0 0B46     		mov	r3, r1
 3370 05f2 C0F20000 		movt	r0, #:upper16:.LC2
 3371 05f6 FFF7FEFF 		bl	vex_printf
 3372              		.loc 1 504 0
 3373 05fa 606E     		ldr	r0, [r4, #100]	@ float
 3374 05fc FFF7FEFF 		bl	__aeabi_f2d
 3375 0600 0246     		mov	r2, r0
 3376 0602 40F20000 		movw	r0, #:lower16:.LC3
 3377 0606 0B46     		mov	r3, r1
 3378 0608 C0F20000 		movt	r0, #:upper16:.LC3
 3379 060c FFF7FEFF 		bl	vex_printf
 3380              		.loc 1 505 0
 3381 0610 B4F97430 		ldrsh	r3, [r4, #116]
 3382 0614 B4F91210 		ldrsh	r1, [r4, #18]
 3383 0618 40F20000 		movw	r0, #:lower16:.LC4
 3384 061c C0F20000 		movt	r0, #:upper16:.LC4
 3385 0620 03EB4101 		add	r1, r3, r1, lsl #1
 3386 0624 FFF7FEFF 		bl	vex_printf
 3387              		.loc 1 506 0
 3388 0628 40F20000 		movw	r0, #:lower16:.LC5
 3389 062c C0F20000 		movt	r0, #:upper16:.LC5
 3390 0630 FFF7FEFF 		bl	vex_printf
 3391              	.LVL256:
 3392              	.L379:
 3393              		.loc 1 499 0
 3394 0634 6C6F     		ldr	r4, [r5, #116]
 3395 0636 7CB3     		cbz	r4, .L380
 3396              	.LVL257:
 3397              		.loc 1 502 0
 3398 0638 40F20000 		movw	r0, #:lower16:.LC6
 3399 063c 94F90010 		ldrsb	r1, [r4, #0]
 3400 0640 C0F20000 		movt	r0, #:upper16:.LC6
 3401 0644 FFF7FEFF 		bl	vex_printf
 3402              	.LVL258:
 3403              		.loc 1 503 0
 3404 0648 206D     		ldr	r0, [r4, #80]	@ float
 3405 064a FFF7FEFF 		bl	__aeabi_f2d
 3406 064e 0246     		mov	r2, r0
 3407 0650 40F20000 		movw	r0, #:lower16:.LC2
 3408 0654 0B46     		mov	r3, r1
 3409 0656 C0F20000 		movt	r0, #:upper16:.LC2
 3410 065a FFF7FEFF 		bl	vex_printf
ARM GAS  /tmp/ccdUEzgz.s 			page 61


 3411              		.loc 1 504 0
 3412 065e 606E     		ldr	r0, [r4, #100]	@ float
 3413 0660 FFF7FEFF 		bl	__aeabi_f2d
 3414 0664 0246     		mov	r2, r0
 3415 0666 40F20000 		movw	r0, #:lower16:.LC3
 3416 066a 0B46     		mov	r3, r1
 3417 066c C0F20000 		movt	r0, #:upper16:.LC3
 3418 0670 FFF7FEFF 		bl	vex_printf
 3419              		.loc 1 505 0
 3420 0674 B4F974C0 		ldrsh	ip, [r4, #116]
 3421 0678 B4F91240 		ldrsh	r4, [r4, #18]
 3422              	.LVL259:
 3423 067c 40F20000 		movw	r0, #:lower16:.LC4
 3424 0680 C0F20000 		movt	r0, #:upper16:.LC4
 3425 0684 0CEB4401 		add	r1, ip, r4, lsl #1
 3426 0688 FFF7FEFF 		bl	vex_printf
 3427              		.loc 1 506 0
 3428 068c 40F20000 		movw	r0, #:lower16:.LC5
 3429 0690 C0F20000 		movt	r0, #:upper16:.LC5
 3430 0694 FFF7FEFF 		bl	vex_printf
 3431              	.L380:
 3432              	.LVL260:
 3433              		.loc 1 499 0
 3434 0698 AC6F     		ldr	r4, [r5, #120]
 3435 069a 7CB3     		cbz	r4, .L381
 3436              	.LVL261:
 3437              		.loc 1 502 0
 3438 069c 40F20000 		movw	r0, #:lower16:.LC6
 3439 06a0 94F90010 		ldrsb	r1, [r4, #0]
 3440 06a4 C0F20000 		movt	r0, #:upper16:.LC6
 3441 06a8 FFF7FEFF 		bl	vex_printf
 3442              	.LVL262:
 3443              		.loc 1 503 0
 3444 06ac 206D     		ldr	r0, [r4, #80]	@ float
 3445 06ae FFF7FEFF 		bl	__aeabi_f2d
 3446 06b2 0246     		mov	r2, r0
 3447 06b4 40F20000 		movw	r0, #:lower16:.LC2
 3448 06b8 0B46     		mov	r3, r1
 3449 06ba C0F20000 		movt	r0, #:upper16:.LC2
 3450 06be FFF7FEFF 		bl	vex_printf
 3451              		.loc 1 504 0
 3452 06c2 606E     		ldr	r0, [r4, #100]	@ float
 3453 06c4 FFF7FEFF 		bl	__aeabi_f2d
 3454 06c8 0246     		mov	r2, r0
 3455 06ca 40F20000 		movw	r0, #:lower16:.LC3
 3456 06ce 0B46     		mov	r3, r1
 3457 06d0 C0F20000 		movt	r0, #:upper16:.LC3
 3458 06d4 FFF7FEFF 		bl	vex_printf
 3459              		.loc 1 505 0
 3460 06d8 B4F97430 		ldrsh	r3, [r4, #116]
 3461 06dc B4F91210 		ldrsh	r1, [r4, #18]
 3462 06e0 40F20000 		movw	r0, #:lower16:.LC4
 3463 06e4 C0F20000 		movt	r0, #:upper16:.LC4
 3464 06e8 03EB4101 		add	r1, r3, r1, lsl #1
 3465 06ec FFF7FEFF 		bl	vex_printf
 3466              		.loc 1 506 0
 3467 06f0 40F20000 		movw	r0, #:lower16:.LC5
ARM GAS  /tmp/ccdUEzgz.s 			page 62


 3468 06f4 C0F20000 		movt	r0, #:upper16:.LC5
 3469 06f8 FFF7FEFF 		bl	vex_printf
 3470              	.LVL263:
 3471              	.L381:
 3472              		.loc 1 509 0
 3473 06fc 40F20000 		movw	r0, #:lower16:.LC5
 3474 0700 C0F20000 		movt	r0, #:upper16:.LC5
 3475              		.loc 1 511 0
 3476 0704 BDE83840 		pop	{r3, r4, r5, lr}
 3477              		.loc 1 509 0
 3478 0708 FFF7FEBF 		b	vex_printf
 3479              		.cfi_endproc
 3480              	.LFE88:
 3481              		.size	SmartMotorDebugStatus, .-SmartMotorDebugStatus
 3482 070c AFF30080 		.section	.text._SetMotor,"ax",%progbits
 3483              		.align	2
 3484              		.p2align 4,,15
 3485              		.global	_SetMotor
 3486              		.thumb
 3487              		.thumb_func
 3488              		.type	_SetMotor, %function
 3489              	_SetMotor:
 3490              	.LFB89:
 3491              		.loc 1 532 0
 3492              		.cfi_startproc
 3493              		@ args = 4, pretend = 8, frame = 0
 3494              		@ frame_needed = 0, uses_anonymous_args = 1
 3495              	.LVL264:
 3496 0000 0CB4     		push	{r2, r3}
 3497              	.LCFI8:
 3498              		.cfi_def_cfa_offset 8
 3499              		.cfi_offset 3, -4
 3500              		.cfi_offset 2, -8
 3501              		.loc 1 536 0
 3502 0002 0928     		cmp	r0, #9
 3503              		.loc 1 532 0
 3504 0004 08B5     		push	{r3, lr}
 3505              	.LCFI9:
 3506              		.cfi_def_cfa_offset 16
 3507              		.cfi_offset 14, -12
 3508              		.cfi_offset 3, -16
 3509              		.loc 1 536 0
 3510 0006 12D8     		bhi	.L382
 3511              		.loc 1 540 0
 3512 0008 4201     		lsls	r2, r0, #5
 3513 000a 40F20003 		movw	r3, #:lower16:.LANCHOR0
 3514 000e C0F20003 		movt	r3, #:upper16:.LANCHOR0
 3515 0012 121A     		subs	r2, r2, r0
 3516              		.loc 1 543 0
 3517 0014 7F29     		cmp	r1, #127
 3518              		.loc 1 540 0
 3519 0016 03EB8203 		add	r3, r3, r2, lsl #2
 3520              	.LVL265:
 3521              		.loc 1 543 0
 3522 001a 0CDD     		ble	.L384
 3523              		.loc 1 544 0
 3524 001c 7F22     		movs	r2, #127
ARM GAS  /tmp/ccdUEzgz.s 			page 63


 3525 001e 9A81     		strh	r2, [r3, #12]	@ movhi
 3526              	.L385:
 3527              		.loc 1 555 0
 3528 0020 9DF80830 		ldrb	r3, [sp, #8]	@ zero_extendqisi2
 3529              	.LVL266:
 3530 0024 1BB1     		cbz	r3, .L382
 3531              		.loc 1 556 0
 3532 0026 00B2     		sxth	r0, r0
 3533              	.LVL267:
 3534 0028 09B2     		sxth	r1, r1
 3535              	.LVL268:
 3536 002a FFF7FEFF 		bl	vexMotorSet
 3537              	.L382:
 3538              		.loc 1 557 0
 3539 002e BDE80840 		pop	{r3, lr}
 3540 0032 02B0     		add	sp, sp, #8
 3541 0034 7047     		bx	lr
 3542              	.LVL269:
 3543              	.L384:
 3544              		.loc 1 546 0
 3545 0036 11F17F0F 		cmn	r1, #127
 3546              		.loc 1 547 0
 3547 003a BCBF     		itt	lt
 3548 003c 4FF68172 		movwlt	r2, 65409	@ movhi
 3549 0040 9A81     		strhlt	r2, [r3, #12]	@ movhi
 3550              		.loc 1 546 0
 3551 0042 EDDB     		blt	.L385
 3552              		.loc 1 549 0
 3553 0044 81EAE17C 		eor	ip, r1, r1, asr #31
 3554 0048 ACEBE17C 		sub	ip, ip, r1, asr #31
 3555 004c BCF1090F 		cmp	ip, #9
 3556              		.loc 1 550 0
 3557 0050 C8BF     		it	gt
 3558 0052 9981     		strhgt	r1, [r3, #12]	@ movhi
 3559              		.loc 1 549 0
 3560 0054 E4DC     		bgt	.L385
 3561              		.loc 1 552 0
 3562 0056 0022     		movs	r2, #0
 3563 0058 9A81     		strh	r2, [r3, #12]	@ movhi
 3564 005a E1E7     		b	.L385
 3565              		.cfi_endproc
 3566              	.LFE89:
 3567              		.size	_SetMotor, .-_SetMotor
 3568 005c AFF30080 		.section	.text.SmartMotorsInit,"ax",%progbits
 3569              		.align	2
 3570              		.p2align 4,,15
 3571              		.global	SmartMotorsInit
 3572              		.thumb
 3573              		.thumb_func
 3574              		.type	SmartMotorsInit, %function
 3575              	SmartMotorsInit:
 3576              	.LFB90:
 3577              		.loc 1 573 0
 3578              		.cfi_startproc
 3579              		@ args = 0, pretend = 0, frame = 0
 3580              		@ frame_needed = 0, uses_anonymous_args = 0
 3581              	.LVL270:
ARM GAS  /tmp/ccdUEzgz.s 			page 64


 3582 0000 2DE9F047 		push	{r4, r5, r6, r7, r8, r9, sl, lr}
 3583              	.LCFI10:
 3584              		.cfi_def_cfa_offset 32
 3585              		.cfi_offset 14, -4
 3586              		.cfi_offset 10, -8
 3587              		.cfi_offset 9, -12
 3588              		.cfi_offset 8, -16
 3589              		.cfi_offset 7, -20
 3590              		.cfi_offset 6, -24
 3591              		.cfi_offset 5, -28
 3592              		.cfi_offset 4, -32
 3593              		.loc 1 585 0
 3594 0004 4CF21C71 		movw	r1, #50972
 3595              		.loc 1 583 0
 3596 0008 45F2555E 		movw	lr, #21845
 3597              		.loc 1 584 0
 3598 000c 46F20716 		movw	r6, #24839
 3599              		.loc 1 589 0
 3600 0010 0024     		movs	r4, #0
 3601              		.loc 1 581 0
 3602 0012 40F20007 		movw	r7, #:lower16:.LANCHOR3
 3603 0016 C0F20007 		movt	r7, #:upper16:.LANCHOR3
 3604 001a 0025     		movs	r5, #0
 3605              		.loc 1 585 0
 3606 001c C4F2B111 		movt	r1, 16817
 3607              		.loc 1 587 0
 3608 0020 0022     		movs	r2, #0
 3609              		.loc 1 590 0
 3610 0022 FF23     		movs	r3, #255
 3611              		.loc 1 583 0
 3612 0024 C4F2051E 		movt	lr, 16645
 3613              		.loc 1 584 0
 3614 0028 C3F64506 		movt	r6, 14405
 3615              		.loc 1 589 0
 3616 002c C4F24004 		movt	r4, 16448
 3617              		.loc 1 583 0
 3618 0030 C7F824E0 		str	lr, [r7, #36]	@ float
 3619              		.loc 1 585 0
 3620 0034 F962     		str	r1, [r7, #44]	@ float
 3621              		.loc 1 586 0
 3622 0036 3962     		str	r1, [r7, #32]	@ float
 3623              		.loc 1 587 0
 3624 0038 7A61     		str	r2, [r7, #20]	@ float
 3625              		.loc 1 588 0
 3626 003a BA61     		str	r2, [r7, #24]	@ float
 3627              		.loc 1 590 0
 3628 003c 87F83230 		strb	r3, [r7, #50]
 3629              		.loc 1 591 0
 3630 0040 87F83330 		strb	r3, [r7, #51]
 3631              		.loc 1 583 0
 3632 0044 C7F858E0 		str	lr, [r7, #88]	@ float
 3633              		.loc 1 585 0
 3634 0048 3966     		str	r1, [r7, #96]	@ float
 3635              		.loc 1 586 0
 3636 004a 7965     		str	r1, [r7, #84]	@ float
 3637              		.loc 1 587 0
 3638 004c BA64     		str	r2, [r7, #72]	@ float
ARM GAS  /tmp/ccdUEzgz.s 			page 65


 3639              		.loc 1 588 0
 3640 004e FA64     		str	r2, [r7, #76]	@ float
 3641              		.loc 1 590 0
 3642 0050 87F86630 		strb	r3, [r7, #102]
 3643              		.loc 1 591 0
 3644 0054 87F86730 		strb	r3, [r7, #103]
 3645              		.loc 1 584 0
 3646 0058 BE62     		str	r6, [r7, #40]	@ float
 3647 005a FE65     		str	r6, [r7, #92]	@ float
 3648              		.loc 1 589 0
 3649 005c FC61     		str	r4, [r7, #28]	@ float
 3650 005e 3C65     		str	r4, [r7, #80]	@ float
 3651              		.loc 1 581 0
 3652 0060 3D60     		str	r5, [r7, #0]
 3653              	.LVL271:
 3654 0062 7D60     		str	r5, [r7, #4]
 3655              	.LVL272:
 3656 0064 BD60     		str	r5, [r7, #8]
 3657              	.LVL273:
 3658 0066 FD60     		str	r5, [r7, #12]
 3659              	.LVL274:
 3660 0068 3D61     		str	r5, [r7, #16]
 3661              	.LVL275:
 3662 006a 7D63     		str	r5, [r7, #52]
 3663              	.LVL276:
 3664 006c BD63     		str	r5, [r7, #56]
 3665              	.LVL277:
 3666 006e FD63     		str	r5, [r7, #60]
 3667              	.LVL278:
 3668 0070 3D64     		str	r5, [r7, #64]
 3669              	.LVL279:
 3670 0072 7D64     		str	r5, [r7, #68]
 3671              	.LVL280:
 3672 0074 BD66     		str	r5, [r7, #104]
 3673              	.LVL281:
 3674 0076 FD66     		str	r5, [r7, #108]
 3675              	.LVL282:
 3676 0078 3D67     		str	r5, [r7, #112]
 3677              	.LVL283:
 3678 007a 7D67     		str	r5, [r7, #116]
 3679              	.LVL284:
 3680              		.loc 1 597 0
 3681 007c 2846     		mov	r0, r5
 3682              		.loc 1 581 0
 3683 007e BD67     		str	r5, [r7, #120]
 3684              	.LVL285:
 3685              		.loc 1 583 0
 3686 0080 C7F88CE0 		str	lr, [r7, #140]	@ float
 3687              		.loc 1 585 0
 3688 0084 C7F89410 		str	r1, [r7, #148]	@ float
 3689              		.loc 1 586 0
 3690 0088 C7F88810 		str	r1, [r7, #136]	@ float
 3691              		.loc 1 587 0
 3692 008c FA67     		str	r2, [r7, #124]	@ float
 3693              		.loc 1 588 0
 3694 008e C7F88020 		str	r2, [r7, #128]	@ float
 3695              		.loc 1 590 0
ARM GAS  /tmp/ccdUEzgz.s 			page 66


 3696 0092 87F89A30 		strb	r3, [r7, #154]
 3697              		.loc 1 591 0
 3698 0096 87F89B30 		strb	r3, [r7, #155]
 3699              	.LVL286:
 3700              		.loc 1 584 0
 3701 009a C7F89060 		str	r6, [r7, #144]	@ float
 3702              		.loc 1 589 0
 3703 009e C7F88440 		str	r4, [r7, #132]	@ float
 3704              		.loc 1 597 0
 3705 00a2 FFF7FEFF 		bl	vexMotorEncoderIdGet
 3706 00a6 40F20006 		movw	r6, #:lower16:.LANCHOR0
 3707 00aa C0F20006 		movt	r6, #:upper16:.LANCHOR0
 3708 00ae B083     		strh	r0, [r6, #28]	@ movhi
 3709              		.loc 1 598 0
 3710 00b0 0120     		movs	r0, #1
 3711 00b2 FFF7FEFF 		bl	vexMotorEncoderIdGet
 3712 00b6 A6F89800 		strh	r0, [r6, #152]	@ movhi
 3713              		.loc 1 599 0
 3714 00ba 0220     		movs	r0, #2
 3715 00bc FFF7FEFF 		bl	vexMotorEncoderIdGet
 3716 00c0 A6F81401 		strh	r0, [r6, #276]	@ movhi
 3717              		.loc 1 600 0
 3718 00c4 0320     		movs	r0, #3
 3719 00c6 FFF7FEFF 		bl	vexMotorEncoderIdGet
 3720 00ca A6F89001 		strh	r0, [r6, #400]	@ movhi
 3721              		.loc 1 601 0
 3722 00ce 0420     		movs	r0, #4
 3723 00d0 FFF7FEFF 		bl	vexMotorEncoderIdGet
 3724 00d4 A6F80C02 		strh	r0, [r6, #524]	@ movhi
 3725              		.loc 1 602 0
 3726 00d8 0520     		movs	r0, #5
 3727 00da FFF7FEFF 		bl	vexMotorEncoderIdGet
 3728 00de A6F88802 		strh	r0, [r6, #648]	@ movhi
 3729              		.loc 1 603 0
 3730 00e2 0620     		movs	r0, #6
 3731 00e4 FFF7FEFF 		bl	vexMotorEncoderIdGet
 3732 00e8 A6F80403 		strh	r0, [r6, #772]	@ movhi
 3733              		.loc 1 604 0
 3734 00ec 0720     		movs	r0, #7
 3735 00ee FFF7FEFF 		bl	vexMotorEncoderIdGet
 3736 00f2 A6F88003 		strh	r0, [r6, #896]	@ movhi
 3737              		.loc 1 605 0
 3738 00f6 0820     		movs	r0, #8
 3739 00f8 FFF7FEFF 		bl	vexMotorEncoderIdGet
 3740 00fc A6F8FC03 		strh	r0, [r6, #1020]	@ movhi
 3741              		.loc 1 606 0
 3742 0100 0920     		movs	r0, #9
 3743 0102 FFF7FEFF 		bl	vexMotorEncoderIdGet
 3744              		.loc 1 619 0
 3745 0106 4CF6CD4A 		movw	sl, #52429
 3746              		.loc 1 620 0
 3747 010a 49F69A19 		movw	r9, #39322
 3748              		.loc 1 619 0
 3749 010e C3F64C6A 		movt	sl, 15948
 3750              		.loc 1 620 0
 3751 0112 C4F29909 		movt	r9, 16537
 3752              		.loc 1 621 0
ARM GAS  /tmp/ccdUEzgz.s 			page 67


 3753 0116 4FF07F58 		mov	r8, #1069547520
 3754              		.loc 1 606 0
 3755 011a A6F87804 		strh	r0, [r6, #1144]	@ movhi
 3756              	.LVL287:
 3757 011e 2037     		adds	r7, r7, #32
 3758 0120 11E0     		b	.L402
 3759              	.LVL288:
 3760              	.L409:
 3761              		.loc 1 719 0
 3762 0122 042D     		cmp	r5, #4
 3763              		.loc 1 720 0
 3764 0124 D4BF     		ite	le
 3765 0126 47F8204C 		strle	r4, [r7, #-32]
 3766              		.loc 1 722 0
 3767 012a 3C60     		strgt	r4, [r7, #0]
 3768              		.loc 1 719 0
 3769 012c 51DC     		bgt	.L400
 3770              	.L399:
 3771              		.loc 1 727 0
 3772 012e 40F20003 		movw	r3, #:lower16:.LANCHOR3
 3773              		.loc 1 608 0
 3774 0132 0135     		adds	r5, r5, #1
 3775              	.LVL289:
 3776              		.loc 1 727 0
 3777 0134 C0F20003 		movt	r3, #:upper16:.LANCHOR3
 3778              		.loc 1 732 0
 3779 0138 4FF0FF30 		mov	r0, #-1
 3780              		.loc 1 608 0
 3781 013c 0437     		adds	r7, r7, #4
 3782 013e 0A2D     		cmp	r5, #10
 3783              		.loc 1 726 0
 3784 0140 A360     		str	r3, [r4, #8]
 3785              		.loc 1 732 0
 3786 0142 A067     		str	r0, [r4, #120]
 3787              		.loc 1 608 0
 3788 0144 4ED0     		beq	.L406
 3789              	.LVL290:
 3790              	.L402:
 3791              		.loc 1 610 0
 3792 0146 6801     		lsls	r0, r5, #5
 3793 0148 431B     		subs	r3, r0, r5
 3794 014a 06EB8304 		add	r4, r6, r3, lsl #2
 3795              	.LVL291:
 3796              		.loc 1 613 0
 3797 014e 28B2     		sxth	r0, r5
 3798              		.loc 1 611 0
 3799 0150 06F82350 		strb	r5, [r6, r3, lsl #2]
 3800              		.loc 1 612 0
 3801 0154 6570     		strb	r5, [r4, #1]
 3802              		.loc 1 613 0
 3803 0156 FFF7FEFF 		bl	vexMotorTypeGet
 3804              		.loc 1 615 0
 3805 015a 0228     		cmp	r0, #2
 3806              		.loc 1 613 0
 3807 015c A070     		strb	r0, [r4, #2]
 3808              		.loc 1 615 0
 3809 015e 00F0A580 		beq	.L391
ARM GAS  /tmp/ccdUEzgz.s 			page 68


 3810 0162 0328     		cmp	r0, #3
 3811 0164 7BD0     		beq	.L392
 3812 0166 0128     		cmp	r0, #1
 3813 0168 46D0     		beq	.L407
 3814              		.loc 1 671 0
 3815 016a 0023     		movs	r3, #0
 3816 016c A370     		strb	r3, [r4, #2]
 3817              	.L393:
 3818              		.loc 1 676 0
 3819 016e B4F91C30 		ldrsh	r3, [r4, #28]
 3820 0172 002B     		cmp	r3, #0
 3821 0174 38DB     		blt	.L408
 3822              		.loc 1 684 0
 3823 0176 132B     		cmp	r3, #19
 3824              		.loc 1 687 0
 3825 0178 94F90100 		ldrsb	r0, [r4, #1]
 3826              		.loc 1 684 0
 3827 017c 03DC     		bgt	.L396
 3828              		.loc 1 686 0
 3829 017e 0021     		movs	r1, #0
 3830 0180 C4F2B431 		movt	r1, 17332
 3831 0184 2162     		str	r1, [r4, #32]	@ float
 3832              	.L396:
 3833              		.loc 1 692 0
 3834 0186 FFF7FEFF 		bl	vexMotorPositionGet
 3835 018a 6062     		str	r0, [r4, #36]
 3836              		.loc 1 693 0
 3837 018c 94F90100 		ldrsb	r0, [r4, #1]
 3838 0190 FFF7FEFF 		bl	vexMotorPositionGet
 3839 0194 A062     		str	r0, [r4, #40]
 3840              	.L395:
 3841              		.loc 1 697 0
 3842 0196 4CF21C73 		movw	r3, #50972
 3843 019a C4F2B113 		movt	r3, 16817
 3844              		.loc 1 701 0
 3845 019e D4F85CE0 		ldr	lr, [r4, #92]	@ float
 3846              		.loc 1 706 0
 3847 01a2 0022     		movs	r2, #0
 3848              		.loc 1 697 0
 3849 01a4 2367     		str	r3, [r4, #112]	@ float
 3850              		.loc 1 698 0
 3851 01a6 6366     		str	r3, [r4, #100]	@ float
 3852              		.loc 1 706 0
 3853 01a8 A265     		str	r2, [r4, #88]	@ float
 3854              		.loc 1 709 0
 3855 01aa 0023     		movs	r3, #0
 3856              		.loc 1 711 0
 3857 01ac FF22     		movs	r2, #255
 3858              		.loc 1 709 0
 3859 01ae 6382     		strh	r3, [r4, #18]	@ movhi
 3860              		.loc 1 710 0
 3861 01b0 A4F87430 		strh	r3, [r4, #116]	@ movhi
 3862              		.loc 1 714 0
 3863 01b4 606C     		ldr	r0, [r4, #68]	@ float
 3864 01b6 A16C     		ldr	r1, [r4, #72]	@ float
 3865              		.loc 1 701 0
 3866 01b8 C4F860E0 		str	lr, [r4, #96]	@ float
ARM GAS  /tmp/ccdUEzgz.s 			page 69


 3867              		.loc 1 703 0
 3868 01bc C4F818E0 		str	lr, [r4, #24]	@ float
 3869              		.loc 1 711 0
 3870 01c0 A282     		strh	r2, [r4, #20]	@ movhi
 3871              		.loc 1 714 0
 3872 01c2 FFF7FEFF 		bl	__aeabi_fmul
 3873              		.loc 1 717 0
 3874 01c6 A378     		ldrb	r3, [r4, #2]	@ zero_extendqisi2
 3875              		.loc 1 714 0
 3876 01c8 E064     		str	r0, [r4, #76]	@ float
 3877              		.loc 1 717 0
 3878 01ca 002B     		cmp	r3, #0
 3879 01cc A9D1     		bne	.L409
 3880              		.loc 1 726 0
 3881 01ce 042D     		cmp	r5, #4
 3882 01d0 ADDD     		ble	.L399
 3883              	.L400:
 3884              		.loc 1 729 0
 3885 01d2 434B     		ldr	r3, .L410
 3886              		.loc 1 608 0
 3887 01d4 0135     		adds	r5, r5, #1
 3888              	.LVL292:
 3889              		.loc 1 732 0
 3890 01d6 4FF0FF30 		mov	r0, #-1
 3891              		.loc 1 608 0
 3892 01da 0437     		adds	r7, r7, #4
 3893 01dc 0A2D     		cmp	r5, #10
 3894              		.loc 1 726 0
 3895 01de A360     		str	r3, [r4, #8]
 3896              		.loc 1 732 0
 3897 01e0 A067     		str	r0, [r4, #120]
 3898              		.loc 1 608 0
 3899 01e2 B0D1     		bne	.L402
 3900              	.L406:
 3901              		.loc 1 734 0
 3902 01e4 BDE8F087 		pop	{r4, r5, r6, r7, r8, r9, sl, pc}
 3903              	.LVL293:
 3904              	.L408:
 3905              		.loc 1 679 0
 3906 01e8 0022     		movs	r2, #0
 3907              		.loc 1 680 0
 3908 01ea 0020     		movs	r0, #0
 3909              		.loc 1 679 0
 3910 01ec CBF68072 		movt	r2, 49024
 3911 01f0 2262     		str	r2, [r4, #32]	@ float
 3912              		.loc 1 680 0
 3913 01f2 6062     		str	r0, [r4, #36]
 3914              		.loc 1 681 0
 3915 01f4 A062     		str	r0, [r4, #40]
 3916 01f6 CEE7     		b	.L395
 3917              	.L407:
 3918              		.loc 1 653 0
 3919 01f8 45F2EC1C 		movw	ip, #20972
 3920              		.loc 1 655 0
 3921 01fc 0021     		movs	r1, #0
 3922              		.loc 1 656 0
 3923 01fe 46F2C342 		movw	r2, #25795
ARM GAS  /tmp/ccdUEzgz.s 			page 70


 3924              		.loc 1 653 0
 3925 0202 C3F6386C 		movt	ip, 15928
 3926              		.loc 1 655 0
 3927 0206 C4F22001 		movt	r1, 16416
 3928              		.loc 1 656 0
 3929 020a C3F62A22 		movt	r2, 14890
 3930              		.loc 1 654 0
 3931 020e 45F2EC1E 		movw	lr, #20972
 3932 0212 C4F2380E 		movt	lr, 16440
 3933              		.loc 1 653 0
 3934 0216 C4F834C0 		str	ip, [r4, #52]	@ float
 3935              		.loc 1 655 0
 3936 021a E163     		str	r1, [r4, #60]	@ float
 3937              		.loc 1 656 0
 3938 021c 2264     		str	r2, [r4, #64]	@ float
 3939              		.loc 1 657 0
 3940 021e 46F26660 		movw	r0, #26214
 3941              		.loc 1 658 0
 3942 0222 0023     		movs	r3, #0
 3943              		.loc 1 660 0
 3944 0224 47F2B02C 		movw	ip, #29360
 3945              		.loc 1 664 0
 3946 0228 45F25551 		movw	r1, #21845
 3947              		.loc 1 665 0
 3948 022c 4CF2AC52 		movw	r2, #50604
 3949              		.loc 1 654 0
 3950 0230 C4F838E0 		str	lr, [r4, #56]	@ float
 3951              		.loc 1 657 0
 3952 0234 C3F66650 		movt	r0, 15718
 3953              		.loc 1 658 0
 3954 0238 C4F2F023 		movt	r3, 17136
 3955              		.loc 1 660 0
 3956 023c C4F2703C 		movt	ip, 17264
 3957              		.loc 1 662 0
 3958 0240 4FF07D5E 		mov	lr, #1061158912
 3959              		.loc 1 664 0
 3960 0244 C4F20531 		movt	r1, 17157
 3961              		.loc 1 665 0
 3962 0248 C3F62702 		movt	r2, 14375
 3963              		.loc 1 657 0
 3964 024c 6064     		str	r0, [r4, #68]	@ float
 3965              		.loc 1 658 0
 3966 024e A364     		str	r3, [r4, #72]	@ float
 3967              		.loc 1 660 0
 3968 0250 C4F820C0 		str	ip, [r4, #32]	@ float
 3969              		.loc 1 662 0
 3970 0254 C4F85CE0 		str	lr, [r4, #92]	@ float
 3971              		.loc 1 664 0
 3972 0258 A166     		str	r1, [r4, #104]	@ float
 3973              		.loc 1 665 0
 3974 025a E266     		str	r2, [r4, #108]	@ float
 3975              		.loc 1 666 0
 3976 025c 87E7     		b	.L393
 3977              	.L392:
 3978              		.loc 1 641 0
 3979 025e 0023     		movs	r3, #0
 3980 0260 C4F23033 		movt	r3, 17200
ARM GAS  /tmp/ccdUEzgz.s 			page 71


 3981              		.loc 1 639 0
 3982 0264 46F2C342 		movw	r2, #25795
 3983              		.loc 1 640 0
 3984 0268 49F2F240 		movw	r0, #38130
 3985              		.loc 1 639 0
 3986 026c C3F62A22 		movt	r2, 14890
 3987              		.loc 1 640 0
 3988 0270 C3F62050 		movt	r0, 15648
 3989              		.loc 1 641 0
 3990 0274 A364     		str	r3, [r4, #72]	@ float
 3991              		.loc 1 643 0
 3992 0276 0023     		movs	r3, #0
 3993              		.loc 1 636 0
 3994 0278 C4F834A0 		str	sl, [r4, #52]	@ float
 3995              		.loc 1 637 0
 3996 027c C4F83890 		str	r9, [r4, #56]	@ float
 3997              		.loc 1 638 0
 3998 0280 C4F83C80 		str	r8, [r4, #60]	@ float
 3999              		.loc 1 639 0
 4000 0284 2264     		str	r2, [r4, #64]	@ float
 4001              		.loc 1 640 0
 4002 0286 6064     		str	r0, [r4, #68]	@ float
 4003              		.loc 1 643 0
 4004 0288 C4F2C433 		movt	r3, 17348
 4005              	.L405:
 4006 028c 2362     		str	r3, [r4, #32]	@ float
 4007              		.loc 1 645 0
 4008 028e 46F26660 		movw	r0, #26214
 4009              		.loc 1 647 0
 4010 0292 0023     		movs	r3, #0
 4011              		.loc 1 648 0
 4012 0294 40F6FF11 		movw	r1, #2559
 4013              		.loc 1 645 0
 4014 0298 C3F66670 		movt	r0, 16230
 4015              		.loc 1 647 0
 4016 029c C4F29623 		movt	r3, 17046
 4017              		.loc 1 648 0
 4018 02a0 C3F23D71 		movt	r1, 14141
 4019              		.loc 1 645 0
 4020 02a4 E065     		str	r0, [r4, #92]	@ float
 4021              		.loc 1 647 0
 4022 02a6 A366     		str	r3, [r4, #104]	@ float
 4023              		.loc 1 648 0
 4024 02a8 E166     		str	r1, [r4, #108]	@ float
 4025              		.loc 1 649 0
 4026 02aa 60E7     		b	.L393
 4027              	.L391:
 4028              		.loc 1 622 0
 4029 02ac 46F2C34C 		movw	ip, #25795
 4030              		.loc 1 623 0
 4031 02b0 47F22871 		movw	r1, #30504
 4032              		.loc 1 624 0
 4033 02b4 0022     		movs	r2, #0
 4034              		.loc 1 622 0
 4035 02b6 C3F62A2C 		movt	ip, 14890
 4036              		.loc 1 623 0
 4037 02ba C3F68051 		movt	r1, 15744
ARM GAS  /tmp/ccdUEzgz.s 			page 72


 4038              		.loc 1 624 0
 4039 02be C4F2DC22 		movt	r2, 17116
 4040              		.loc 1 626 0
 4041 02c2 4CF6CD43 		movw	r3, #52429
 4042              		.loc 1 619 0
 4043 02c6 C4F834A0 		str	sl, [r4, #52]	@ float
 4044              		.loc 1 620 0
 4045 02ca C4F83890 		str	r9, [r4, #56]	@ float
 4046              		.loc 1 621 0
 4047 02ce C4F83C80 		str	r8, [r4, #60]	@ float
 4048              		.loc 1 622 0
 4049 02d2 C4F840C0 		str	ip, [r4, #64]	@ float
 4050              		.loc 1 623 0
 4051 02d6 6164     		str	r1, [r4, #68]	@ float
 4052              		.loc 1 624 0
 4053 02d8 A264     		str	r2, [r4, #72]	@ float
 4054              		.loc 1 626 0
 4055 02da C4F21C43 		movt	r3, 17436
 4056 02de D5E7     		b	.L405
 4057              	.L411:
 4058              		.align	2
 4059              	.L410:
 4060 02e0 34000000 		.word	.LANCHOR3+52
 4061              		.cfi_endproc
 4062              	.LFE90:
 4063              		.size	SmartMotorsInit, .-SmartMotorsInit
 4064 02e4 AFF30080 		.section	.text.SmartMotorLinkMotors,"ax",%progbits
 4064      AFF30080 
 4064      AFF30080 
 4065              		.align	2
 4066              		.p2align 4,,15
 4067              		.global	SmartMotorLinkMotors
 4068              		.thumb
 4069              		.thumb_func
 4070              		.type	SmartMotorLinkMotors, %function
 4071              	SmartMotorLinkMotors:
 4072              	.LFB91:
 4073              		.loc 1 747 0
 4074              		.cfi_startproc
 4075              		@ args = 0, pretend = 0, frame = 0
 4076              		@ frame_needed = 0, uses_anonymous_args = 0
 4077              		@ link register save eliminated.
 4078              	.LVL294:
 4079              		.loc 1 749 0
 4080 0000 C3B2     		uxtb	r3, r0
 4081 0002 092B     		cmp	r3, #9
 4082              		.loc 1 747 0
 4083 0004 70B4     		push	{r4, r5, r6}
 4084              	.LCFI11:
 4085              		.cfi_def_cfa_offset 12
 4086              		.cfi_offset 6, -4
 4087              		.cfi_offset 5, -8
 4088              		.cfi_offset 4, -12
 4089              		.loc 1 749 0
 4090 0006 1DD8     		bhi	.L412
 4091              		.loc 1 753 0
 4092 0008 CAB2     		uxtb	r2, r1
ARM GAS  /tmp/ccdUEzgz.s 			page 73


 4093 000a 092A     		cmp	r2, #9
 4094 000c 1AD8     		bhi	.L412
 4095              		.loc 1 757 0
 4096 000e 4401     		lsls	r4, r0, #5
 4097 0010 201A     		subs	r0, r4, r0
 4098              	.LVL295:
 4099 0012 40F20003 		movw	r3, #:lower16:.LANCHOR0
 4100              	.LVL296:
 4101 0016 8000     		lsls	r0, r0, #2
 4102 0018 C0F20003 		movt	r3, #:upper16:.LANCHOR0
 4103 001c 1A18     		adds	r2, r3, r0
 4104              	.LVL297:
 4105              		.loc 1 761 0
 4106 001e 948B     		ldrh	r4, [r2, #28]
 4107 0020 25B2     		sxth	r5, r4
 4108 0022 B5F1FF3F 		cmp	r5, #-1
 4109 0026 0DD0     		beq	.L412
 4110              		.loc 1 758 0
 4111 0028 4D01     		lsls	r5, r1, #5
 4112 002a C1EB050C 		rsb	ip, r1, r5
 4113              		.loc 1 765 0
 4114 002e 1E5C     		ldrb	r6, [r3, r0]	@ zero_extendqisi2
 4115              		.loc 1 768 0
 4116 0030 156A     		ldr	r5, [r2, #32]	@ float
 4117              		.loc 1 770 0
 4118 0032 506A     		ldr	r0, [r2, #36]
 4119              		.loc 1 771 0
 4120 0034 926A     		ldr	r2, [r2, #40]
 4121              	.LVL298:
 4122              		.loc 1 758 0
 4123 0036 03EB8C01 		add	r1, r3, ip, lsl #2
 4124              	.LVL299:
 4125              		.loc 1 765 0
 4126 003a 4E70     		strb	r6, [r1, #1]
 4127              		.loc 1 768 0
 4128 003c 0D62     		str	r5, [r1, #32]	@ float
 4129              		.loc 1 769 0
 4130 003e 8C83     		strh	r4, [r1, #28]	@ movhi
 4131              		.loc 1 770 0
 4132 0040 4862     		str	r0, [r1, #36]
 4133              		.loc 1 771 0
 4134 0042 8A62     		str	r2, [r1, #40]
 4135              	.L412:
 4136              		.loc 1 772 0
 4137 0044 70BC     		pop	{r4, r5, r6}
 4138 0046 7047     		bx	lr
 4139              		.cfi_endproc
 4140              	.LFE91:
 4141              		.size	SmartMotorLinkMotors, .-SmartMotorLinkMotors
 4142 0048 AFF30080 		.section	.text.SmartMotorsSetEncoderGearing,"ax",%progbits
 4142      AFF30080 
 4143              		.align	2
 4144              		.p2align 4,,15
 4145              		.global	SmartMotorsSetEncoderGearing
 4146              		.thumb
 4147              		.thumb_func
 4148              		.type	SmartMotorsSetEncoderGearing, %function
ARM GAS  /tmp/ccdUEzgz.s 			page 74


 4149              	SmartMotorsSetEncoderGearing:
 4150              	.LFB92:
 4151              		.loc 1 788 0
 4152              		.cfi_startproc
 4153              		@ args = 0, pretend = 0, frame = 0
 4154              		@ frame_needed = 0, uses_anonymous_args = 0
 4155              	.LVL300:
 4156              		.loc 1 790 0
 4157 0000 C3B2     		uxtb	r3, r0
 4158 0002 092B     		cmp	r3, #9
 4159              		.loc 1 788 0
 4160 0004 10B5     		push	{r4, lr}
 4161              	.LCFI12:
 4162              		.cfi_def_cfa_offset 8
 4163              		.cfi_offset 14, -4
 4164              		.cfi_offset 4, -8
 4165              		.loc 1 790 0
 4166 0006 0ED8     		bhi	.L414
 4167              		.loc 1 793 0
 4168 0008 4301     		lsls	r3, r0, #5
 4169 000a 40F20002 		movw	r2, #:lower16:.LANCHOR0
 4170 000e 1C1A     		subs	r4, r3, r0
 4171 0010 C0F20002 		movt	r2, #:upper16:.LANCHOR0
 4172 0014 02EB8404 		add	r4, r2, r4, lsl #2
 4173              	.LVL301:
 4174              		.loc 1 796 0
 4175 0018 A08B     		ldrh	r0, [r4, #28]
 4176              	.LVL302:
 4177 001a 1328     		cmp	r0, #19
 4178 001c 03D8     		bhi	.L414
 4179              		.loc 1 797 0
 4180 001e 206A     		ldr	r0, [r4, #32]	@ float
 4181 0020 FFF7FEFF 		bl	__aeabi_fmul
 4182              	.LVL303:
 4183 0024 2062     		str	r0, [r4, #32]	@ float
 4184              	.LVL304:
 4185              	.L414:
 4186 0026 10BD     		pop	{r4, pc}
 4187              		.cfi_endproc
 4188              	.LFE92:
 4189              		.size	SmartMotorsSetEncoderGearing, .-SmartMotorsSetEncoderGearing
 4190 0028 AFF30080 		.section	.text._SmartMotorsAddPowerExtender,"ax",%progbits
 4190      AFF30080 
 4191              		.align	2
 4192              		.p2align 4,,15
 4193              		.global	_SmartMotorsAddPowerExtender
 4194              		.thumb
 4195              		.thumb_func
 4196              		.type	_SmartMotorsAddPowerExtender, %function
 4197              	_SmartMotorsAddPowerExtender:
 4198              	.LFB93:
 4199              		.loc 1 828 0
 4200              		.cfi_startproc
 4201              		@ args = 4, pretend = 4, frame = 0
 4202              		@ frame_needed = 0, uses_anonymous_args = 1
 4203              		@ link register save eliminated.
 4204              	.LVL305:
ARM GAS  /tmp/ccdUEzgz.s 			page 75


 4205 0000 08B4     		push	{r3}
 4206              	.LCFI13:
 4207              		.cfi_def_cfa_offset 4
 4208              		.cfi_offset 3, -4
 4209              		.loc 1 835 0
 4210 0002 40F20003 		movw	r3, #:lower16:.LANCHOR0
 4211 0006 C0F20003 		movt	r3, #:upper16:.LANCHOR0
 4212              		.loc 1 828 0
 4213 000a 2DE9F001 		push	{r4, r5, r6, r7, r8}
 4214              	.LCFI14:
 4215              		.cfi_def_cfa_offset 24
 4216              		.cfi_offset 8, -8
 4217              		.cfi_offset 7, -12
 4218              		.cfi_offset 6, -16
 4219              		.cfi_offset 5, -20
 4220              		.cfi_offset 4, -24
 4221              		.loc 1 839 0
 4222 000e 9C78     		ldrb	r4, [r3, #2]	@ zero_extendqisi2
 4223              		.loc 1 828 0
 4224 0010 059E     		ldr	r6, [sp, #20]
 4225              		.loc 1 835 0
 4226 0012 1D46     		mov	r5, r3
 4227              	.LVL306:
 4228              		.loc 1 839 0
 4229 0014 ECB1     		cbz	r4, .L417
 4230 0016 93F90040 		ldrsb	r4, [r3, #0]
 4231 001a 002C     		cmp	r4, #0
 4232 001c 40F38A81 		ble	.L448
 4233 0020 082C     		cmp	r4, #8
 4234 0022 00F38781 		bgt	.L448
 4235              		.loc 1 842 0
 4236 0026 D0F10104 		rsbs	r4, r0, #1
 4237 002a 38BF     		it	cc
 4238 002c 0024     		movcc	r4, #0
 4239 002e 0029     		cmp	r1, #0
 4240 0030 08BF     		it	eq
 4241 0032 44F00104 		orreq	r4, r4, #1
 4242 0036 002C     		cmp	r4, #0
 4243 0038 40F07E81 		bne	.L419
 4244 003c D2F10104 		rsbs	r4, r2, #1
 4245 0040 38BF     		it	cc
 4246 0042 0024     		movcc	r4, #0
 4247 0044 002E     		cmp	r6, #0
 4248 0046 08BF     		it	eq
 4249 0048 44F00104 		orreq	r4, r4, #1
 4250 004c 002C     		cmp	r4, #0
 4251 004e 40F07381 		bne	.L419
 4252              	.LVL307:
 4253              	.L417:
 4254              		.loc 1 835 0
 4255 0052 40F20005 		movw	r5, #:lower16:.LANCHOR0
 4256              		.loc 1 839 0
 4257 0056 93F87E70 		ldrb	r7, [r3, #126]	@ zero_extendqisi2
 4258              		.loc 1 835 0
 4259 005a C0F20005 		movt	r5, #:upper16:.LANCHOR0
 4260 005e 05F17C0C 		add	ip, r5, #124
 4261              	.LVL308:
ARM GAS  /tmp/ccdUEzgz.s 			page 76


 4262              		.loc 1 839 0
 4263 0062 EFB1     		cbz	r7, .L420
 4264 0064 95F97C50 		ldrsb	r5, [r5, #124]
 4265 0068 002D     		cmp	r5, #0
 4266 006a 19DD     		ble	.L420
 4267 006c 082D     		cmp	r5, #8
 4268 006e 17DC     		bgt	.L420
 4269              		.loc 1 842 0
 4270 0070 A0F10107 		sub	r7, r0, #1
 4271 0074 7D42     		rsbs	r5, r7, #0
 4272 0076 45EB0705 		adc	r5, r5, r7
 4273 007a 0129     		cmp	r1, #1
 4274 007c 08BF     		it	eq
 4275 007e 45F00105 		orreq	r5, r5, #1
 4276 0082 002D     		cmp	r5, #0
 4277 0084 40F06581 		bne	.L422
 4278 0088 A2F10107 		sub	r7, r2, #1
 4279 008c 7D42     		rsbs	r5, r7, #0
 4280 008e 45EB0705 		adc	r5, r5, r7
 4281 0092 012E     		cmp	r6, #1
 4282 0094 08BF     		it	eq
 4283 0096 45F00105 		orreq	r5, r5, #1
 4284 009a 002D     		cmp	r5, #0
 4285 009c 40F05981 		bne	.L422
 4286              	.L420:
 4287              	.LVL309:
 4288              		.loc 1 835 0
 4289 00a0 40F20005 		movw	r5, #:lower16:.LANCHOR0
 4290              		.loc 1 839 0
 4291 00a4 93F8FA70 		ldrb	r7, [r3, #250]	@ zero_extendqisi2
 4292              		.loc 1 835 0
 4293 00a8 C0F20005 		movt	r5, #:upper16:.LANCHOR0
 4294 00ac 05F1F80C 		add	ip, r5, #248
 4295              	.LVL310:
 4296              		.loc 1 839 0
 4297 00b0 EFB1     		cbz	r7, .L423
 4298 00b2 95F9F850 		ldrsb	r5, [r5, #248]
 4299 00b6 002D     		cmp	r5, #0
 4300 00b8 19DD     		ble	.L423
 4301 00ba 082D     		cmp	r5, #8
 4302 00bc 17DC     		bgt	.L423
 4303              		.loc 1 842 0
 4304 00be A0F10207 		sub	r7, r0, #2
 4305 00c2 7D42     		rsbs	r5, r7, #0
 4306 00c4 45EB0705 		adc	r5, r5, r7
 4307 00c8 0229     		cmp	r1, #2
 4308 00ca 08BF     		it	eq
 4309 00cc 45F00105 		orreq	r5, r5, #1
 4310 00d0 002D     		cmp	r5, #0
 4311 00d2 40F07E81 		bne	.L425
 4312 00d6 A2F10207 		sub	r7, r2, #2
 4313 00da 7D42     		rsbs	r5, r7, #0
 4314 00dc 45EB0705 		adc	r5, r5, r7
 4315 00e0 022E     		cmp	r6, #2
 4316 00e2 08BF     		it	eq
 4317 00e4 45F00105 		orreq	r5, r5, #1
 4318 00e8 002D     		cmp	r5, #0
ARM GAS  /tmp/ccdUEzgz.s 			page 77


 4319 00ea 40F07281 		bne	.L425
 4320              	.L423:
 4321              	.LVL311:
 4322              		.loc 1 835 0
 4323 00ee 40F20005 		movw	r5, #:lower16:.LANCHOR0
 4324              		.loc 1 839 0
 4325 00f2 93F87671 		ldrb	r7, [r3, #374]	@ zero_extendqisi2
 4326              		.loc 1 835 0
 4327 00f6 C0F20005 		movt	r5, #:upper16:.LANCHOR0
 4328 00fa 05F5BA7C 		add	ip, r5, #372
 4329              	.LVL312:
 4330              		.loc 1 839 0
 4331 00fe EFB1     		cbz	r7, .L426
 4332 0100 95F97451 		ldrsb	r5, [r5, #372]
 4333 0104 002D     		cmp	r5, #0
 4334 0106 19DD     		ble	.L426
 4335 0108 082D     		cmp	r5, #8
 4336 010a 17DC     		bgt	.L426
 4337              		.loc 1 842 0
 4338 010c A0F10307 		sub	r7, r0, #3
 4339 0110 7D42     		rsbs	r5, r7, #0
 4340 0112 45EB0705 		adc	r5, r5, r7
 4341 0116 0329     		cmp	r1, #3
 4342 0118 08BF     		it	eq
 4343 011a 45F00105 		orreq	r5, r5, #1
 4344 011e 002D     		cmp	r5, #0
 4345 0120 40F06781 		bne	.L428
 4346 0124 A2F10307 		sub	r7, r2, #3
 4347 0128 7D42     		rsbs	r5, r7, #0
 4348 012a 45EB0705 		adc	r5, r5, r7
 4349 012e 032E     		cmp	r6, #3
 4350 0130 08BF     		it	eq
 4351 0132 45F00105 		orreq	r5, r5, #1
 4352 0136 002D     		cmp	r5, #0
 4353 0138 40F05B81 		bne	.L428
 4354              	.L426:
 4355              	.LVL313:
 4356              		.loc 1 835 0
 4357 013c 40F20005 		movw	r5, #:lower16:.LANCHOR0
 4358              		.loc 1 839 0
 4359 0140 93F8F271 		ldrb	r7, [r3, #498]	@ zero_extendqisi2
 4360              		.loc 1 835 0
 4361 0144 C0F20005 		movt	r5, #:upper16:.LANCHOR0
 4362 0148 05F5F87C 		add	ip, r5, #496
 4363              	.LVL314:
 4364              		.loc 1 839 0
 4365 014c EFB1     		cbz	r7, .L429
 4366 014e 95F9F051 		ldrsb	r5, [r5, #496]
 4367 0152 002D     		cmp	r5, #0
 4368 0154 19DD     		ble	.L429
 4369 0156 082D     		cmp	r5, #8
 4370 0158 17DC     		bgt	.L429
 4371              		.loc 1 842 0
 4372 015a A0F10407 		sub	r7, r0, #4
 4373 015e 7D42     		rsbs	r5, r7, #0
 4374 0160 45EB0705 		adc	r5, r5, r7
 4375 0164 0429     		cmp	r1, #4
ARM GAS  /tmp/ccdUEzgz.s 			page 78


 4376 0166 08BF     		it	eq
 4377 0168 45F00105 		orreq	r5, r5, #1
 4378 016c 002D     		cmp	r5, #0
 4379 016e 40F05081 		bne	.L431
 4380 0172 A2F10407 		sub	r7, r2, #4
 4381 0176 7D42     		rsbs	r5, r7, #0
 4382 0178 45EB0705 		adc	r5, r5, r7
 4383 017c 042E     		cmp	r6, #4
 4384 017e 08BF     		it	eq
 4385 0180 45F00105 		orreq	r5, r5, #1
 4386 0184 002D     		cmp	r5, #0
 4387 0186 40F04481 		bne	.L431
 4388              	.L429:
 4389              	.LVL315:
 4390              		.loc 1 835 0
 4391 018a 40F20005 		movw	r5, #:lower16:.LANCHOR0
 4392              		.loc 1 839 0
 4393 018e 93F86E72 		ldrb	r7, [r3, #622]	@ zero_extendqisi2
 4394              		.loc 1 835 0
 4395 0192 C0F20005 		movt	r5, #:upper16:.LANCHOR0
 4396 0196 05F51B7C 		add	ip, r5, #620
 4397              	.LVL316:
 4398              		.loc 1 839 0
 4399 019a EFB1     		cbz	r7, .L432
 4400 019c 95F96C52 		ldrsb	r5, [r5, #620]
 4401 01a0 002D     		cmp	r5, #0
 4402 01a2 19DD     		ble	.L432
 4403 01a4 082D     		cmp	r5, #8
 4404 01a6 17DC     		bgt	.L432
 4405              		.loc 1 842 0
 4406 01a8 A0F10507 		sub	r7, r0, #5
 4407 01ac 7D42     		rsbs	r5, r7, #0
 4408 01ae 45EB0705 		adc	r5, r5, r7
 4409 01b2 0529     		cmp	r1, #5
 4410 01b4 08BF     		it	eq
 4411 01b6 45F00105 		orreq	r5, r5, #1
 4412 01ba 002D     		cmp	r5, #0
 4413 01bc 40F03981 		bne	.L434
 4414 01c0 A2F10507 		sub	r7, r2, #5
 4415 01c4 7D42     		rsbs	r5, r7, #0
 4416 01c6 45EB0705 		adc	r5, r5, r7
 4417 01ca 052E     		cmp	r6, #5
 4418 01cc 08BF     		it	eq
 4419 01ce 45F00105 		orreq	r5, r5, #1
 4420 01d2 002D     		cmp	r5, #0
 4421 01d4 40F02D81 		bne	.L434
 4422              	.L432:
 4423              	.LVL317:
 4424              		.loc 1 835 0
 4425 01d8 40F20005 		movw	r5, #:lower16:.LANCHOR0
 4426              		.loc 1 839 0
 4427 01dc 93F8EA72 		ldrb	r7, [r3, #746]	@ zero_extendqisi2
 4428              		.loc 1 835 0
 4429 01e0 C0F20005 		movt	r5, #:upper16:.LANCHOR0
 4430 01e4 05F53A7C 		add	ip, r5, #744
 4431              	.LVL318:
 4432              		.loc 1 839 0
ARM GAS  /tmp/ccdUEzgz.s 			page 79


 4433 01e8 EFB1     		cbz	r7, .L435
 4434 01ea 95F9E852 		ldrsb	r5, [r5, #744]
 4435 01ee 002D     		cmp	r5, #0
 4436 01f0 19DD     		ble	.L435
 4437 01f2 082D     		cmp	r5, #8
 4438 01f4 17DC     		bgt	.L435
 4439              		.loc 1 842 0
 4440 01f6 A0F10607 		sub	r7, r0, #6
 4441 01fa 7D42     		rsbs	r5, r7, #0
 4442 01fc 45EB0705 		adc	r5, r5, r7
 4443 0200 0629     		cmp	r1, #6
 4444 0202 08BF     		it	eq
 4445 0204 45F00105 		orreq	r5, r5, #1
 4446 0208 002D     		cmp	r5, #0
 4447 020a 40F0C280 		bne	.L437
 4448 020e A2F10607 		sub	r7, r2, #6
 4449 0212 7D42     		rsbs	r5, r7, #0
 4450 0214 45EB0705 		adc	r5, r5, r7
 4451 0218 062E     		cmp	r6, #6
 4452 021a 08BF     		it	eq
 4453 021c 45F00105 		orreq	r5, r5, #1
 4454 0220 002D     		cmp	r5, #0
 4455 0222 40F0B680 		bne	.L437
 4456              	.L435:
 4457              	.LVL319:
 4458              		.loc 1 835 0
 4459 0226 40F20005 		movw	r5, #:lower16:.LANCHOR0
 4460              		.loc 1 839 0
 4461 022a 93F86673 		ldrb	r7, [r3, #870]	@ zero_extendqisi2
 4462              		.loc 1 835 0
 4463 022e C0F20005 		movt	r5, #:upper16:.LANCHOR0
 4464 0232 05F5597C 		add	ip, r5, #868
 4465              	.LVL320:
 4466              		.loc 1 839 0
 4467 0236 EFB1     		cbz	r7, .L438
 4468 0238 95F96453 		ldrsb	r5, [r5, #868]
 4469 023c 002D     		cmp	r5, #0
 4470 023e 19DD     		ble	.L438
 4471 0240 082D     		cmp	r5, #8
 4472 0242 17DC     		bgt	.L438
 4473              		.loc 1 842 0
 4474 0244 A0F10707 		sub	r7, r0, #7
 4475 0248 7D42     		rsbs	r5, r7, #0
 4476 024a 45EB0705 		adc	r5, r5, r7
 4477 024e 0729     		cmp	r1, #7
 4478 0250 08BF     		it	eq
 4479 0252 45F00105 		orreq	r5, r5, #1
 4480 0256 002D     		cmp	r5, #0
 4481 0258 40F0AB80 		bne	.L440
 4482 025c A2F10707 		sub	r7, r2, #7
 4483 0260 7D42     		rsbs	r5, r7, #0
 4484 0262 45EB0705 		adc	r5, r5, r7
 4485 0266 072E     		cmp	r6, #7
 4486 0268 08BF     		it	eq
 4487 026a 45F00105 		orreq	r5, r5, #1
 4488 026e 002D     		cmp	r5, #0
 4489 0270 40F09F80 		bne	.L440
ARM GAS  /tmp/ccdUEzgz.s 			page 80


 4490              	.L438:
 4491              	.LVL321:
 4492              		.loc 1 835 0
 4493 0274 40F20005 		movw	r5, #:lower16:.LANCHOR0
 4494              		.loc 1 839 0
 4495 0278 93F8E273 		ldrb	r7, [r3, #994]	@ zero_extendqisi2
 4496              		.loc 1 835 0
 4497 027c C0F20005 		movt	r5, #:upper16:.LANCHOR0
 4498 0280 05F5787C 		add	ip, r5, #992
 4499              	.LVL322:
 4500              		.loc 1 839 0
 4501 0284 DFB1     		cbz	r7, .L441
 4502 0286 95F9E053 		ldrsb	r5, [r5, #992]
 4503 028a 002D     		cmp	r5, #0
 4504 028c 17DD     		ble	.L441
 4505 028e 082D     		cmp	r5, #8
 4506 0290 15DC     		bgt	.L441
 4507              		.loc 1 842 0
 4508 0292 A0F10807 		sub	r7, r0, #8
 4509 0296 7D42     		rsbs	r5, r7, #0
 4510 0298 45EB0705 		adc	r5, r5, r7
 4511 029c 0829     		cmp	r1, #8
 4512 029e 08BF     		it	eq
 4513 02a0 45F00105 		orreq	r5, r5, #1
 4514 02a4 002D     		cmp	r5, #0
 4515 02a6 64D1     		bne	.L443
 4516 02a8 A2F10807 		sub	r7, r2, #8
 4517 02ac 7D42     		rsbs	r5, r7, #0
 4518 02ae 45EB0705 		adc	r5, r5, r7
 4519 02b2 082E     		cmp	r6, #8
 4520 02b4 08BF     		it	eq
 4521 02b6 45F00105 		orreq	r5, r5, #1
 4522 02ba 002D     		cmp	r5, #0
 4523 02bc 59D1     		bne	.L443
 4524              	.L441:
 4525              	.LVL323:
 4526              		.loc 1 835 0
 4527 02be 40F20005 		movw	r5, #:lower16:.LANCHOR0
 4528 02c2 C0F20005 		movt	r5, #:upper16:.LANCHOR0
 4529              		.loc 1 839 0
 4530 02c6 93F85EC4 		ldrb	ip, [r3, #1118]	@ zero_extendqisi2
 4531              	.LVL324:
 4532              		.loc 1 835 0
 4533 02ca 05F58A67 		add	r7, r5, #1104
 4534 02ce 0C37     		adds	r7, r7, #12
 4535              	.LVL325:
 4536              		.loc 1 839 0
 4537 02d0 BCF1000F 		cmp	ip, #0
 4538 02d4 2AD0     		beq	.L416
 4539              		.loc 1 839 0 is_stmt 0 discriminator 1
 4540 02d6 95F95C54 		ldrsb	r5, [r5, #1116]
 4541 02da 002D     		cmp	r5, #0
 4542 02dc 26DD     		ble	.L416
 4543 02de 082D     		cmp	r5, #8
 4544 02e0 24DC     		bgt	.L416
 4545              		.loc 1 842 0 is_stmt 1
 4546 02e2 A0F1090C 		sub	ip, r0, #9
ARM GAS  /tmp/ccdUEzgz.s 			page 81


 4547 02e6 DCF10000 		rsbs	r0, ip, #0
 4548              	.LVL326:
 4549 02ea 40EB0C00 		adc	r0, r0, ip
 4550 02ee 0929     		cmp	r1, #9
 4551 02f0 14BF     		ite	ne
 4552 02f2 0146     		movne	r1, r0
 4553 02f4 40F00101 		orreq	r1, r0, #1
 4554              	.LVL327:
 4555 02f8 51B9     		cbnz	r1, .L445
 4556              		.loc 1 842 0 is_stmt 0 discriminator 1
 4557 02fa A2F10901 		sub	r1, r2, #9
 4558 02fe 4842     		rsbs	r0, r1, #0
 4559 0300 40EB0102 		adc	r2, r0, r1
 4560              	.LVL328:
 4561 0304 092E     		cmp	r6, #9
 4562 0306 14BF     		ite	ne
 4563 0308 1646     		movne	r6, r2
 4564 030a 42F00106 		orreq	r6, r2, #1
 4565 030e 6EB1     		cbz	r6, .L416
 4566              	.LVL329:
 4567              	.L445:
 4568              		.loc 1 845 0 is_stmt 1
 4569 0310 40F2000C 		movw	ip, #:lower16:.LANCHOR3
 4570              	.LVL330:
 4571 0314 C0F2000C 		movt	ip, #:upper16:.LANCHOR3
 4572              		.loc 1 846 0
 4573 0318 0CF16802 		add	r2, ip, #104
 4574              		.loc 1 845 0
 4575 031c 1A34     		adds	r4, r4, #26
 4576              	.LVL331:
 4577              		.loc 1 846 0
 4578 031e C3F86424 		str	r2, [r3, #1124]
 4579              	.LVL332:
 4580              		.loc 1 853 0
 4581 0322 0023     		movs	r3, #0
 4582              		.loc 1 845 0
 4583 0324 4CF82470 		str	r7, [ip, r4, lsl #2]
 4584              		.loc 1 853 0
 4585 0328 CCF84430 		str	r3, [ip, #68]
 4586              	.LVL333:
 4587              	.L416:
 4588              		.loc 1 857 0
 4589 032c BDE8F001 		pop	{r4, r5, r6, r7, r8}
 4590 0330 01B0     		add	sp, sp, #4
 4591 0332 7047     		bx	lr
 4592              	.LVL334:
 4593              	.L448:
 4594              		.loc 1 830 0
 4595 0334 0024     		movs	r4, #0
 4596 0336 8CE6     		b	.L417
 4597              	.L419:
 4598              		.loc 1 845 0
 4599 0338 40F2000C 		movw	ip, #:lower16:.LANCHOR3
 4600 033c C0F2000C 		movt	ip, #:upper16:.LANCHOR3
 4601 0340 6746     		mov	r7, ip
 4602 0342 47F8685F 		str	r5, [r7, #104]!
 4603              		.loc 1 851 0
ARM GAS  /tmp/ccdUEzgz.s 			page 82


 4604 0346 0025     		movs	r5, #0
 4605              		.loc 1 846 0
 4606 0348 9F60     		str	r7, [r3, #8]
 4607              	.LVL335:
 4608              		.loc 1 851 0
 4609 034a CCF80050 		str	r5, [ip, #0]
 4610              		.loc 1 847 0
 4611 034e 0124     		movs	r4, #1
 4612 0350 7FE6     		b	.L417
 4613              	.LVL336:
 4614              	.L422:
 4615              		.loc 1 845 0
 4616 0352 40F20005 		movw	r5, #:lower16:.LANCHOR3
 4617 0356 C0F20005 		movt	r5, #:upper16:.LANCHOR3
 4618              		.loc 1 846 0
 4619 035a 05F16807 		add	r7, r5, #104
 4620              		.loc 1 845 0
 4621 035e 04F11A08 		add	r8, r4, #26
 4622              		.loc 1 846 0
 4623 0362 C3F88470 		str	r7, [r3, #132]
 4624              		.loc 1 851 0
 4625 0366 0027     		movs	r7, #0
 4626              		.loc 1 845 0
 4627 0368 45F828C0 		str	ip, [r5, r8, lsl #2]
 4628              		.loc 1 847 0
 4629 036c 0134     		adds	r4, r4, #1
 4630              	.LVL337:
 4631              		.loc 1 851 0
 4632 036e 6F60     		str	r7, [r5, #4]
 4633 0370 96E6     		b	.L420
 4634              	.LVL338:
 4635              	.L443:
 4636              		.loc 1 845 0
 4637 0372 40F20005 		movw	r5, #:lower16:.LANCHOR3
 4638 0376 C0F20005 		movt	r5, #:upper16:.LANCHOR3
 4639              		.loc 1 846 0
 4640 037a 05F16807 		add	r7, r5, #104
 4641              		.loc 1 845 0
 4642 037e 04F11A08 		add	r8, r4, #26
 4643              		.loc 1 846 0
 4644 0382 C3F8E873 		str	r7, [r3, #1000]
 4645              		.loc 1 853 0
 4646 0386 0027     		movs	r7, #0
 4647              		.loc 1 845 0
 4648 0388 45F828C0 		str	ip, [r5, r8, lsl #2]
 4649              		.loc 1 847 0
 4650 038c 0134     		adds	r4, r4, #1
 4651              	.LVL339:
 4652              		.loc 1 853 0
 4653 038e 2F64     		str	r7, [r5, #64]
 4654 0390 95E7     		b	.L441
 4655              	.LVL340:
 4656              	.L437:
 4657              		.loc 1 845 0
 4658 0392 40F20005 		movw	r5, #:lower16:.LANCHOR3
 4659 0396 C0F20005 		movt	r5, #:upper16:.LANCHOR3
 4660              		.loc 1 846 0
ARM GAS  /tmp/ccdUEzgz.s 			page 83


 4661 039a 05F16807 		add	r7, r5, #104
 4662              		.loc 1 845 0
 4663 039e 04F11A08 		add	r8, r4, #26
 4664              		.loc 1 846 0
 4665 03a2 C3F8F072 		str	r7, [r3, #752]
 4666              		.loc 1 853 0
 4667 03a6 0027     		movs	r7, #0
 4668              		.loc 1 845 0
 4669 03a8 45F828C0 		str	ip, [r5, r8, lsl #2]
 4670              		.loc 1 847 0
 4671 03ac 0134     		adds	r4, r4, #1
 4672              	.LVL341:
 4673              		.loc 1 853 0
 4674 03ae AF63     		str	r7, [r5, #56]
 4675 03b0 39E7     		b	.L435
 4676              	.LVL342:
 4677              	.L440:
 4678              		.loc 1 845 0
 4679 03b2 40F20005 		movw	r5, #:lower16:.LANCHOR3
 4680 03b6 C0F20005 		movt	r5, #:upper16:.LANCHOR3
 4681              		.loc 1 846 0
 4682 03ba 05F16807 		add	r7, r5, #104
 4683              		.loc 1 845 0
 4684 03be 04F11A08 		add	r8, r4, #26
 4685              		.loc 1 846 0
 4686 03c2 C3F86C73 		str	r7, [r3, #876]
 4687              		.loc 1 853 0
 4688 03c6 0027     		movs	r7, #0
 4689              		.loc 1 845 0
 4690 03c8 45F828C0 		str	ip, [r5, r8, lsl #2]
 4691              		.loc 1 847 0
 4692 03cc 0134     		adds	r4, r4, #1
 4693              	.LVL343:
 4694              		.loc 1 853 0
 4695 03ce EF63     		str	r7, [r5, #60]
 4696 03d0 50E7     		b	.L438
 4697              	.LVL344:
 4698              	.L425:
 4699              		.loc 1 845 0
 4700 03d2 40F20005 		movw	r5, #:lower16:.LANCHOR3
 4701 03d6 C0F20005 		movt	r5, #:upper16:.LANCHOR3
 4702              		.loc 1 846 0
 4703 03da 05F16807 		add	r7, r5, #104
 4704              		.loc 1 845 0
 4705 03de 04F11A08 		add	r8, r4, #26
 4706              		.loc 1 846 0
 4707 03e2 C3F80071 		str	r7, [r3, #256]
 4708              		.loc 1 851 0
 4709 03e6 0027     		movs	r7, #0
 4710              		.loc 1 845 0
 4711 03e8 45F828C0 		str	ip, [r5, r8, lsl #2]
 4712              		.loc 1 847 0
 4713 03ec 0134     		adds	r4, r4, #1
 4714              	.LVL345:
 4715              		.loc 1 851 0
 4716 03ee AF60     		str	r7, [r5, #8]
 4717 03f0 7DE6     		b	.L423
ARM GAS  /tmp/ccdUEzgz.s 			page 84


 4718              	.LVL346:
 4719              	.L428:
 4720              		.loc 1 845 0
 4721 03f2 40F20005 		movw	r5, #:lower16:.LANCHOR3
 4722 03f6 C0F20005 		movt	r5, #:upper16:.LANCHOR3
 4723              		.loc 1 846 0
 4724 03fa 05F16807 		add	r7, r5, #104
 4725              		.loc 1 845 0
 4726 03fe 04F11A08 		add	r8, r4, #26
 4727              		.loc 1 846 0
 4728 0402 C3F87C71 		str	r7, [r3, #380]
 4729              		.loc 1 851 0
 4730 0406 0027     		movs	r7, #0
 4731              		.loc 1 845 0
 4732 0408 45F828C0 		str	ip, [r5, r8, lsl #2]
 4733              		.loc 1 847 0
 4734 040c 0134     		adds	r4, r4, #1
 4735              	.LVL347:
 4736              		.loc 1 851 0
 4737 040e EF60     		str	r7, [r5, #12]
 4738 0410 94E6     		b	.L426
 4739              	.LVL348:
 4740              	.L431:
 4741              		.loc 1 845 0
 4742 0412 40F20005 		movw	r5, #:lower16:.LANCHOR3
 4743 0416 C0F20005 		movt	r5, #:upper16:.LANCHOR3
 4744              		.loc 1 846 0
 4745 041a 05F16807 		add	r7, r5, #104
 4746              		.loc 1 845 0
 4747 041e 04F11A08 		add	r8, r4, #26
 4748              		.loc 1 846 0
 4749 0422 C3F8F871 		str	r7, [r3, #504]
 4750              		.loc 1 851 0
 4751 0426 0027     		movs	r7, #0
 4752              		.loc 1 845 0
 4753 0428 45F828C0 		str	ip, [r5, r8, lsl #2]
 4754              		.loc 1 847 0
 4755 042c 0134     		adds	r4, r4, #1
 4756              	.LVL349:
 4757              		.loc 1 851 0
 4758 042e 2F61     		str	r7, [r5, #16]
 4759 0430 ABE6     		b	.L429
 4760              	.LVL350:
 4761              	.L434:
 4762              		.loc 1 845 0
 4763 0432 40F20005 		movw	r5, #:lower16:.LANCHOR3
 4764 0436 C0F20005 		movt	r5, #:upper16:.LANCHOR3
 4765              		.loc 1 846 0
 4766 043a 05F16807 		add	r7, r5, #104
 4767              		.loc 1 845 0
 4768 043e 04F11A08 		add	r8, r4, #26
 4769              		.loc 1 846 0
 4770 0442 C3F87472 		str	r7, [r3, #628]
 4771              		.loc 1 853 0
 4772 0446 0027     		movs	r7, #0
 4773              		.loc 1 845 0
 4774 0448 45F828C0 		str	ip, [r5, r8, lsl #2]
ARM GAS  /tmp/ccdUEzgz.s 			page 85


 4775              		.loc 1 847 0
 4776 044c 0134     		adds	r4, r4, #1
 4777              	.LVL351:
 4778              		.loc 1 853 0
 4779 044e 6F63     		str	r7, [r5, #52]
 4780 0450 C2E6     		b	.L432
 4781              		.cfi_endproc
 4782              	.LFE93:
 4783              		.size	_SmartMotorsAddPowerExtender, .-_SmartMotorsAddPowerExtender
 4784 0452 00BFAFF3 		.section	.text._SmartMotorSetRpmSensor,"ax",%progbits
 4784      0080AFF3 
 4784      0080AFF3 
 4784      0080
 4785              		.align	2
 4786              		.p2align 4,,15
 4787              		.global	_SmartMotorSetRpmSensor
 4788              		.thumb
 4789              		.thumb_func
 4790              		.type	_SmartMotorSetRpmSensor, %function
 4791              	_SmartMotorSetRpmSensor:
 4792              	.LFB94:
 4793              		.loc 1 888 0
 4794              		.cfi_startproc
 4795              		@ args = 4, pretend = 4, frame = 0
 4796              		@ frame_needed = 0, uses_anonymous_args = 1
 4797              		@ link register save eliminated.
 4798              	.LVL352:
 4799 0000 08B4     		push	{r3}
 4800              	.LCFI15:
 4801              		.cfi_def_cfa_offset 4
 4802              		.cfi_offset 3, -4
 4803              		.loc 1 890 0
 4804 0002 C3B2     		uxtb	r3, r0
 4805 0004 092B     		cmp	r3, #9
 4806              		.loc 1 888 0
 4807 0006 10B4     		push	{r4}
 4808              	.LCFI16:
 4809              		.cfi_def_cfa_offset 8
 4810              		.cfi_offset 4, -8
 4811              		.loc 1 890 0
 4812 0008 17D8     		bhi	.L449
 4813              	.LVL353:
 4814              		.loc 1 898 0
 4815 000a 5FFA81FC 		uxtb	ip, r1
 4816 000e BCF1070F 		cmp	ip, #7
 4817 0012 12D8     		bhi	.L449
 4818              		.loc 1 893 0
 4819 0014 4401     		lsls	r4, r0, #5
 4820 0016 40F20003 		movw	r3, #:lower16:.LANCHOR0
 4821 001a C0EB040C 		rsb	ip, r0, r4
 4822 001e C0F20003 		movt	r3, #:upper16:.LANCHOR0
 4823              		.loc 1 900 0
 4824 0022 01F50060 		add	r0, r1, #2048
 4825              	.LVL354:
 4826              		.loc 1 903 0
 4827 0026 9DF80410 		ldrb	r1, [sp, #4]	@ zero_extendqisi2
 4828              	.LVL355:
ARM GAS  /tmp/ccdUEzgz.s 			page 86


 4829              		.loc 1 893 0
 4830 002a 03EB8C03 		add	r3, r3, ip, lsl #2
 4831              		.loc 1 900 0
 4832 002e 9883     		strh	r0, [r3, #28]	@ movhi
 4833              		.loc 1 901 0
 4834 0030 1A62     		str	r2, [r3, #32]	@ float
 4835              		.loc 1 903 0
 4836 0032 11B1     		cbz	r1, .L449
 4837              		.loc 1 904 0
 4838 0034 02F10042 		add	r2, r2, #-2147483648
 4839              	.LVL356:
 4840 0038 1A62     		str	r2, [r3, #32]	@ float
 4841              	.LVL357:
 4842              	.L449:
 4843              		.loc 1 906 0
 4844 003a 10BC     		pop	{r4}
 4845 003c 01B0     		add	sp, sp, #4
 4846 003e 7047     		bx	lr
 4847              		.cfi_endproc
 4848              	.LFE94:
 4849              		.size	_SmartMotorSetRpmSensor, .-_SmartMotorSetRpmSensor
 4850              		.global	__aeabi_i2d
 4851              		.section	.text.SmartMotorSpeed,"ax",%progbits
 4852              		.align	2
 4853              		.p2align 4,,15
 4854              		.global	SmartMotorSpeed
 4855              		.thumb
 4856              		.thumb_func
 4857              		.type	SmartMotorSpeed, %function
 4858              	SmartMotorSpeed:
 4859              	.LFB95:
 4860              		.loc 1 930 0
 4861              		.cfi_startproc
 4862              		@ args = 0, pretend = 0, frame = 0
 4863              		@ frame_needed = 0, uses_anonymous_args = 0
 4864              	.LVL358:
 4865 0000 F8B5     		push	{r3, r4, r5, r6, r7, lr}
 4866              	.LCFI17:
 4867              		.cfi_def_cfa_offset 24
 4868              		.cfi_offset 14, -4
 4869              		.cfi_offset 7, -8
 4870              		.cfi_offset 6, -12
 4871              		.cfi_offset 5, -16
 4872              		.cfi_offset 4, -20
 4873              		.cfi_offset 3, -24
 4874              		.loc 1 930 0
 4875 0002 0446     		mov	r4, r0
 4876              		.loc 1 941 0
 4877 0004 90F90100 		ldrsb	r0, [r0, #1]
 4878              	.LVL359:
 4879              		.loc 1 930 0
 4880 0008 0F46     		mov	r7, r1
 4881              		.loc 1 941 0
 4882 000a FFF7FEFF 		bl	vexMotorPositionGet
 4883              	.LVL360:
 4884 000e 0646     		mov	r6, r0
 4885              		.loc 1 945 0
ARM GAS  /tmp/ccdUEzgz.s 			page 87


 4886 0010 A06A     		ldr	r0, [r4, #40]
 4887              		.loc 1 941 0
 4888 0012 6662     		str	r6, [r4, #36]
 4889              		.loc 1 945 0
 4890 0014 301A     		subs	r0, r6, r0
 4891 0016 FFF7FEFF 		bl	__aeabi_i2f
 4892              		.loc 1 946 0
 4893 001a A662     		str	r6, [r4, #40]
 4894              		.loc 1 945 0
 4895 001c 0546     		mov	r5, r0
 4896 001e E062     		str	r0, [r4, #44]	@ float
 4897              		.loc 1 949 0
 4898 0020 3846     		mov	r0, r7
 4899 0022 FFF7FEFF 		bl	__aeabi_i2d
 4900 0026 0246     		mov	r2, r0
 4901 0028 0B46     		mov	r3, r1
 4902 002a 13A1     		adr	r1, .L452
 4903 002c D1E90001 		ldrd	r0, [r1]
 4904 0030 FFF7FEFF 		bl	__aeabi_ddiv
 4905 0034 0646     		mov	r6, r0
 4906 0036 2846     		mov	r0, r5
 4907 0038 0F46     		mov	r7, r1
 4908              	.LVL361:
 4909 003a FFF7FEFF 		bl	__aeabi_f2d
 4910 003e 0246     		mov	r2, r0
 4911 0040 0B46     		mov	r3, r1
 4912 0042 3046     		mov	r0, r6
 4913 0044 3946     		mov	r1, r7
 4914 0046 FFF7FEFF 		bl	__aeabi_dmul
 4915 004a 0023     		movs	r3, #0
 4916 004c 0022     		movs	r2, #0
 4917 004e C4F24E03 		movt	r3, 16462
 4918 0052 FFF7FEFF 		bl	__aeabi_dmul
 4919 0056 0646     		mov	r6, r0
 4920 0058 206A     		ldr	r0, [r4, #32]	@ float
 4921 005a 0F46     		mov	r7, r1
 4922 005c FFF7FEFF 		bl	__aeabi_f2d
 4923 0060 0246     		mov	r2, r0
 4924 0062 0B46     		mov	r3, r1
 4925 0064 3046     		mov	r0, r6
 4926 0066 3946     		mov	r1, r7
 4927 0068 FFF7FEFF 		bl	__aeabi_ddiv
 4928 006c FFF7FEFF 		bl	__aeabi_d2f
 4929 0070 2063     		str	r0, [r4, #48]	@ float
 4930              		.loc 1 950 0
 4931 0072 F8BD     		pop	{r3, r4, r5, r6, r7, pc}
 4932              	.L453:
 4933 0074 AFF30080 		.align	3
 4934              	.L452:
 4935 0078 00000000 		.word	0
 4936 007c 00408F40 		.word	1083129856
 4937              		.cfi_endproc
 4938              	.LFE95:
 4939              		.size	SmartMotorSpeed, .-SmartMotorSpeed
 4940              		.global	__aeabi_fadd
 4941              		.section	.text.SmartMotorSimulateSpeed,"ax",%progbits
 4942              		.align	2
ARM GAS  /tmp/ccdUEzgz.s 			page 88


 4943              		.p2align 4,,15
 4944              		.global	SmartMotorSimulateSpeed
 4945              		.thumb
 4946              		.thumb_func
 4947              		.type	SmartMotorSimulateSpeed, %function
 4948              	SmartMotorSimulateSpeed:
 4949              	.LFB96:
 4950              		.loc 1 964 0
 4951              		.cfi_startproc
 4952              		@ args = 0, pretend = 0, frame = 0
 4953              		@ frame_needed = 0, uses_anonymous_args = 0
 4954              	.LVL362:
 4955 0000 2DE9F84F 		push	{r3, r4, r5, r6, r7, r8, r9, sl, fp, lr}
 4956              	.LCFI18:
 4957              		.cfi_def_cfa_offset 40
 4958              		.cfi_offset 14, -4
 4959              		.cfi_offset 11, -8
 4960              		.cfi_offset 10, -12
 4961              		.cfi_offset 9, -16
 4962              		.cfi_offset 8, -20
 4963              		.cfi_offset 7, -24
 4964              		.cfi_offset 6, -28
 4965              		.cfi_offset 5, -32
 4966              		.cfi_offset 4, -36
 4967              		.cfi_offset 3, -40
 4968              		.loc 1 964 0
 4969 0004 0546     		mov	r5, r0
 4970              		.loc 1 972 0
 4971 0006 90F90000 		ldrsb	r0, [r0, #0]
 4972              	.LVL363:
 4973 000a FFF7FEFF 		bl	vexMotorGet
 4974 000e 0646     		mov	r6, r0
 4975              	.LVL364:
 4976              		.loc 1 981 0
 4977 0010 A86C     		ldr	r0, [r5, #72]	@ float
 4978              	.LVL365:
 4979 0012 FFF7FEFF 		bl	__aeabi_f2d
 4980 0016 0023     		movs	r3, #0
 4981 0018 0022     		movs	r2, #0
 4982 001a C4F25903 		movt	r3, 16473
 4983 001e FFF7FEFF 		bl	__aeabi_ddiv
 4984 0022 2BA3     		adr	r3, .L461
 4985 0024 D3E90023 		ldrd	r2, [r3]
 4986 0028 FFF7FEFF 		bl	__aeabi_dmul
 4987 002c FFF7FEFF 		bl	__aeabi_d2f
 4988              		.loc 1 974 0
 4989 0030 86EAE677 		eor	r7, r6, r6, asr #31
 4990 0034 A7EBE677 		sub	r7, r7, r6, asr #31
 4991              	.LVL366:
 4992              		.loc 1 982 0
 4993 0038 40F20004 		movw	r4, #:lower16:.LANCHOR4
 4994              		.loc 1 976 0
 4995 003c 47F30F1A 		sbfx	sl, r7, #4, #16
 4996              	.LVL367:
 4997              		.loc 1 982 0
 4998 0040 C0F20004 		movt	r4, #:upper16:.LANCHOR4
 4999 0044 34F91AB0 		ldrsh	fp, [r4, sl, lsl #1]
ARM GAS  /tmp/ccdUEzgz.s 			page 89


 5000              		.loc 1 981 0
 5001 0048 8146     		mov	r9, r0
 5002              	.LVL368:
 5003              		.loc 1 982 0
 5004 004a 5846     		mov	r0, fp
 5005              	.LVL369:
 5006 004c FFF7FEFF 		bl	__aeabi_i2f
 5007 0050 0AF10103 		add	r3, sl, #1
 5008 0054 8046     		mov	r8, r0
 5009 0056 34F91300 		ldrsh	r0, [r4, r3, lsl #1]
 5010 005a CBEB0000 		rsb	r0, fp, r0
 5011 005e FFF7FEFF 		bl	__aeabi_i2f
 5012 0062 0446     		mov	r4, r0
 5013              		.loc 1 976 0
 5014 0064 A7EB0A10 		sub	r0, r7, sl, lsl #4
 5015 0068 FFF7FEFF 		bl	__aeabi_i2d
 5016 006c 0023     		movs	r3, #0
 5017 006e 0022     		movs	r2, #0
 5018 0070 C3F6B073 		movt	r3, 16304
 5019 0074 FFF7FEFF 		bl	__aeabi_dmul
 5020 0078 FFF7FEFF 		bl	__aeabi_d2f
 5021 007c 0146     		mov	r1, r0
 5022              		.loc 1 982 0
 5023 007e 2046     		mov	r0, r4
 5024 0080 FFF7FEFF 		bl	__aeabi_fmul
 5025 0084 0146     		mov	r1, r0
 5026 0086 4046     		mov	r0, r8
 5027 0088 FFF7FEFF 		bl	__aeabi_fadd
 5028 008c 0446     		mov	r4, r0
 5029              	.LVL370:
 5030              		.loc 1 984 0
 5031 008e 3046     		mov	r0, r6
 5032              	.LVL371:
 5033 0090 FFF7FEFF 		bl	__aeabi_i2f
 5034              	.LBB141:
 5035              	.LBB142:
 5036              		.loc 1 142 0
 5037 0094 0021     		movs	r1, #0
 5038              	.LBE142:
 5039              	.LBE141:
 5040              		.loc 1 984 0
 5041 0096 0646     		mov	r6, r0
 5042              	.LVL372:
 5043              	.LBB145:
 5044              	.LBB143:
 5045              		.loc 1 142 0
 5046 0098 FFF7FEFF 		bl	__aeabi_fcmpeq
 5047              	.LVL373:
 5048 009c 98B9     		cbnz	r0, .L457
 5049              		.loc 1 143 0
 5050 009e 3046     		mov	r0, r6
 5051 00a0 0021     		movs	r1, #0
 5052 00a2 FFF7FEFF 		bl	__aeabi_fcmpgt
 5053 00a6 4FF07E56 		mov	r6, #1065353216
 5054              	.LVL374:
 5055 00aa 10B9     		cbnz	r0, .L455
 5056 00ac 0026     		movs	r6, #0
ARM GAS  /tmp/ccdUEzgz.s 			page 90


 5057 00ae CBF68076 		movt	r6, 49024
 5058              	.L455:
 5059              	.LBE143:
 5060              	.LBE145:
 5061              		.loc 1 984 0
 5062 00b2 4946     		mov	r1, r9
 5063 00b4 2046     		mov	r0, r4
 5064 00b6 FFF7FEFF 		bl	__aeabi_fmul
 5065 00ba 3146     		mov	r1, r6
 5066 00bc FFF7FEFF 		bl	__aeabi_fmul
 5067 00c0 2863     		str	r0, [r5, #48]	@ float
 5068              		.loc 1 985 0
 5069 00c2 BDE8F88F 		pop	{r3, r4, r5, r6, r7, r8, r9, sl, fp, pc}
 5070              	.LVL375:
 5071              	.L457:
 5072              	.LBB146:
 5073              	.LBB144:
 5074              		.loc 1 142 0
 5075 00c6 0026     		movs	r6, #0
 5076              	.LVL376:
 5077 00c8 F3E7     		b	.L455
 5078              	.L462:
 5079 00ca 00BFAFF3 		.align	3
 5079      0080
 5080              	.L461:
 5081 00d0 CDCCCCCC 		.word	-858993459
 5082 00d4 CCCCEC3F 		.word	1072483532
 5083              	.LBE144:
 5084              	.LBE146:
 5085              		.cfi_endproc
 5086              	.LFE96:
 5087              		.size	SmartMotorSimulateSpeed, .-SmartMotorSimulateSpeed
 5088              		.global	__aeabi_fcmplt
 5089              		.global	__aeabi_f2iz
 5090              		.global	__aeabi_f2uiz
 5091              		.global	__aeabi_dadd
 5092              		.global	__aeabi_ui2f
 5093 00d8 AFF30080 		.section	.text.SmartMotorCurrent,"ax",%progbits
 5093      AFF30080 
 5094              		.align	2
 5095              		.p2align 4,,15
 5096              		.global	SmartMotorCurrent
 5097              		.thumb
 5098              		.thumb_func
 5099              		.type	SmartMotorCurrent, %function
 5100              	SmartMotorCurrent:
 5101              	.LFB98:
 5102              		.loc 1 1035 0
 5103              		.cfi_startproc
 5104              		@ args = 0, pretend = 0, frame = 32
 5105              		@ frame_needed = 0, uses_anonymous_args = 0
 5106              	.LVL377:
 5107 0000 2DE9F04F 		push	{r4, r5, r6, r7, r8, r9, sl, fp, lr}
 5108              	.LCFI19:
 5109              		.cfi_def_cfa_offset 36
 5110              		.cfi_offset 14, -4
 5111              		.cfi_offset 11, -8
ARM GAS  /tmp/ccdUEzgz.s 			page 91


 5112              		.cfi_offset 10, -12
 5113              		.cfi_offset 9, -16
 5114              		.cfi_offset 8, -20
 5115              		.cfi_offset 7, -24
 5116              		.cfi_offset 6, -28
 5117              		.cfi_offset 5, -32
 5118              		.cfi_offset 4, -36
 5119 0004 0646     		mov	r6, r0
 5120 0006 89B0     		sub	sp, sp, #36
 5121              	.LCFI20:
 5122              		.cfi_def_cfa_offset 72
 5123              		.loc 1 1048 0
 5124 0008 90F90000 		ldrsb	r0, [r0, #0]
 5125              	.LVL378:
 5126              		.loc 1 1035 0
 5127 000c 0791     		str	r1, [sp, #28]	@ float
 5128              		.loc 1 1048 0
 5129 000e FFF7FEFF 		bl	vexMotorGet
 5130              	.LVL379:
 5131              		.loc 1 1052 0
 5132 0012 3278     		ldrb	r2, [r6, #0]	@ zero_extendqisi2
 5133              		.loc 1 1048 0
 5134 0014 0446     		mov	r4, r0
 5135              	.LVL380:
 5136              		.loc 1 1052 0
 5137 0016 511E     		subs	r1, r2, #1
 5138 0018 CBB2     		uxtb	r3, r1
 5139 001a 072B     		cmp	r3, #7
 5140 001c 0AD8     		bhi	.L464
 5141              		.loc 1 1053 0
 5142 001e 46F2B703 		movw	r3, #24759
 5143 0022 C701     		lsls	r7, r0, #7
 5144 0024 CBF20B63 		movt	r3, 46603
 5145 0028 83FB0715 		smull	r1, r5, r3, r7
 5146 002c F817     		asrs	r0, r7, #31
 5147              	.LVL381:
 5148 002e EC19     		adds	r4, r5, r7
 5149              	.LVL382:
 5150 0030 C0EBA414 		rsb	r4, r0, r4, asr #6
 5151              	.LVL383:
 5152              	.L464:
 5153              		.loc 1 1056 0
 5154 0034 84EAE475 		eor	r5, r4, r4, asr #31
 5155 0038 A5EBE475 		sub	r5, r5, r4, asr #31
 5156 003c 7F2D     		cmp	r5, #127
 5157 003e 00F3EC81 		bgt	.L465
 5158 0042 2846     		mov	r0, r5
 5159 0044 FFF7FEFF 		bl	__aeabi_i2d
 5160 0048 B1A3     		adr	r3, .L521
 5161 004a D3E90023 		ldrd	r2, [r3]
 5162 004e FFF7FEFF 		bl	__aeabi_ddiv
 5163 0052 FFF7FEFF 		bl	__aeabi_d2f
 5164 0056 0146     		mov	r1, r0
 5165 0058 8346     		mov	fp, r0
 5166 005a 4FF07E50 		mov	r0, #1065353216
 5167 005e FFF7FEFF 		bl	__aeabi_fsub
 5168              		.loc 1 1061 0
ARM GAS  /tmp/ccdUEzgz.s 			page 92


 5169 0062 0A2D     		cmp	r5, #10
 5170              		.loc 1 1056 0
 5171 0064 0290     		str	r0, [sp, #8]	@ float
 5172              		.loc 1 1061 0
 5173 0066 40F3E581 		ble	.L469
 5174              		.loc 1 1062 0
 5175 006a 2046     		mov	r0, r4
 5176 006c FFF7FEFF 		bl	__aeabi_i2f
 5177              	.LBB167:
 5178              	.LBB168:
 5179              		.loc 1 142 0
 5180 0070 0021     		movs	r1, #0
 5181              	.LBE168:
 5182              	.LBE167:
 5183              		.loc 1 1062 0
 5184 0072 0446     		mov	r4, r0
 5185              	.LVL384:
 5186              	.LBB175:
 5187              	.LBB169:
 5188              		.loc 1 142 0
 5189 0074 FFF7FEFF 		bl	__aeabi_fcmpeq
 5190              	.LVL385:
 5191 0078 0028     		cmp	r0, #0
 5192 007a 00F0FE81 		beq	.L517
 5193              	.L491:
 5194 007e 0023     		movs	r3, #0
 5195 0080 0022     		movs	r2, #0
 5196 0082 CDE90423 		strd	r2, [sp, #16]
 5197 0086 0023     		movs	r3, #0
 5198 0088 0393     		str	r3, [sp, #12]	@ float
 5199              	.L470:
 5200              		.loc 1 143 0
 5201 008a D6F83080 		ldr	r8, [r6, #48]	@ float
 5202              	.LVL386:
 5203              	.L472:
 5204              	.LBE169:
 5205              	.LBE175:
 5206              		.loc 1 1070 0
 5207 008e 4FF44041 		mov	r1, #49152
 5208 0092 C4F28F41 		movt	r1, 17551
 5209 0096 306C     		ldr	r0, [r6, #64]	@ float
 5210 0098 FFF7FEFF 		bl	__aeabi_fmul
 5211 009c F56B     		ldr	r5, [r6, #60]	@ float
 5212 009e 0146     		mov	r1, r0
 5213 00a0 2846     		mov	r0, r5
 5214 00a2 FFF7FEFF 		bl	__aeabi_fdiv
 5215 00a6 0690     		str	r0, [sp, #24]	@ float
 5216              	.LVL387:
 5217              		.loc 1 1071 0
 5218 00a8 069F     		ldr	r7, [sp, #24]
 5219 00aa 5946     		mov	r1, fp
 5220 00ac 07F10047 		add	r7, r7, #-2147483648
 5221              	.LVL388:
 5222 00b0 3846     		mov	r0, r7
 5223              	.LVL389:
 5224 00b2 FFF7FEFF 		bl	__aeabi_fmul
 5225              	.LBB176:
ARM GAS  /tmp/ccdUEzgz.s 			page 93


 5226              	.LBB177:
 5227              		.file 2 "../convex/cortex/opt/fastmath.c"
 5228              		.loc 2 86 0
 5229 00b6 4AF63B21 		movw	r1, #43579
 5230 00ba C3F6B871 		movt	r1, 16312
 5231 00be FFF7FEFF 		bl	__aeabi_fmul
 5232              	.LBB178:
 5233              	.LBB179:
 5234              		.loc 2 61 0
 5235 00c2 0021     		movs	r1, #0
 5236              	.LBE179:
 5237              	.LBE178:
 5238              		.loc 2 86 0
 5239 00c4 0446     		mov	r4, r0
 5240              	.LVL390:
 5241              	.LBB182:
 5242              	.LBB180:
 5243              		.loc 2 61 0
 5244 00c6 FFF7FEFF 		bl	__aeabi_fcmplt
 5245              	.LVL391:
 5246 00ca 4FF07E5A 		mov	sl, #1065353216
 5247 00ce 08B9     		cbnz	r0, .L475
 5248 00d0 4FF0000A 		mov	sl, #0
 5249              	.L475:
 5250              	.LVL392:
 5251              		.loc 2 62 0
 5252 00d4 0021     		movs	r1, #0
 5253 00d6 2046     		mov	r0, r4
 5254 00d8 CCF2FC21 		movt	r1, 49916
 5255 00dc FFF7FEFF 		bl	__aeabi_fcmplt
 5256 00e0 0028     		cmp	r0, #0
 5257 00e2 40F0E981 		bne	.L496
 5258 00e6 2046     		mov	r0, r4
 5259 00e8 FFF7FEFF 		bl	__aeabi_f2iz
 5260 00ec FFF7FEFF 		bl	__aeabi_i2f
 5261 00f0 0146     		mov	r1, r0
 5262 00f2 2046     		mov	r0, r4
 5263 00f4 FFF7FEFF 		bl	__aeabi_fsub
 5264 00f8 48F65141 		movw	r1, #35921
 5265 00fc 8146     		mov	r9, r0
 5266 00fe C4F2F221 		movt	r1, 17138
 5267 0102 2046     		mov	r0, r4
 5268 0104 FFF7FEFF 		bl	__aeabi_fadd
 5269 0108 0446     		mov	r4, r0
 5270              	.LVL393:
 5271              	.L477:
 5272              		.loc 2 64 0
 5273 010a 4946     		mov	r1, r9
 5274 010c 5046     		mov	r0, sl
 5275 010e FFF7FEFF 		bl	__aeabi_fadd
 5276              		.loc 2 65 0
 5277 0112 0146     		mov	r1, r0
 5278              		.loc 2 64 0
 5279 0114 8146     		mov	r9, r0
 5280              	.LVL394:
 5281              		.loc 2 65 0
 5282 0116 4FF2F850 		movw	r0, #62968
ARM GAS  /tmp/ccdUEzgz.s 			page 94


 5283              	.LVL395:
 5284 011a C4F29A00 		movt	r0, 16538
 5285 011e FFF7FEFF 		bl	__aeabi_fsub
 5286              	.LVL396:
 5287 0122 0146     		mov	r1, r0
 5288 0124 4DF2FE20 		movw	r0, #54014
 5289 0128 C4F2DD10 		movt	r0, 16861
 5290 012c FFF7FEFF 		bl	__aeabi_fdiv
 5291 0130 2146     		mov	r1, r4
 5292 0132 FFF7FEFF 		bl	__aeabi_fadd
 5293 0136 4BF68D41 		movw	r1, #48269
 5294 013a 8246     		mov	sl, r0
 5295              	.LVL397:
 5296 013c C3F6BE71 		movt	r1, 16318
 5297 0140 4846     		mov	r0, r9
 5298 0142 FFF7FEFF 		bl	__aeabi_fmul
 5299 0146 0146     		mov	r1, r0
 5300 0148 5046     		mov	r0, sl
 5301 014a FFF7FEFF 		bl	__aeabi_fsub
 5302 014e 4FF09641 		mov	r1, #1258291200
 5303 0152 FFF7FEFF 		bl	__aeabi_fmul
 5304 0156 FFF7FEFF 		bl	__aeabi_f2uiz
 5305              	.LBE180:
 5306              	.LBE182:
 5307              	.LBE177:
 5308              	.LBE176:
 5309              		.loc 1 1072 0
 5310 015a 0299     		ldr	r1, [sp, #8]	@ float
 5311              	.LBB185:
 5312              		.loc 2 65 0
 5313 015c 8246     		mov	sl, r0
 5314              	.LVL398:
 5315              	.LBE185:
 5316              		.loc 1 1072 0
 5317 015e 3846     		mov	r0, r7
 5318              	.LVL399:
 5319 0160 FFF7FEFF 		bl	__aeabi_fmul
 5320              	.LBB186:
 5321              	.LBB187:
 5322              		.loc 2 86 0
 5323 0164 4AF63B21 		movw	r1, #43579
 5324 0168 C3F6B871 		movt	r1, 16312
 5325 016c FFF7FEFF 		bl	__aeabi_fmul
 5326              	.LBB188:
 5327              	.LBB189:
 5328              		.loc 2 61 0
 5329 0170 0021     		movs	r1, #0
 5330              	.LBE189:
 5331              	.LBE188:
 5332              		.loc 2 86 0
 5333 0172 0446     		mov	r4, r0
 5334              	.LVL400:
 5335              	.LBB192:
 5336              	.LBB190:
 5337              		.loc 2 61 0
 5338 0174 FFF7FEFF 		bl	__aeabi_fcmplt
 5339              	.LVL401:
ARM GAS  /tmp/ccdUEzgz.s 			page 95


 5340 0178 4FF07E57 		mov	r7, #1065353216
 5341              	.LVL402:
 5342 017c 00B9     		cbnz	r0, .L478
 5343 017e 0027     		movs	r7, #0
 5344              	.L478:
 5345              	.LVL403:
 5346              		.loc 2 62 0
 5347 0180 0021     		movs	r1, #0
 5348 0182 2046     		mov	r0, r4
 5349 0184 CCF2FC21 		movt	r1, 49916
 5350 0188 FFF7FEFF 		bl	__aeabi_fcmplt
 5351 018c 0028     		cmp	r0, #0
 5352 018e 40F09A81 		bne	.L498
 5353 0192 2046     		mov	r0, r4
 5354 0194 FFF7FEFF 		bl	__aeabi_f2iz
 5355 0198 FFF7FEFF 		bl	__aeabi_i2f
 5356 019c 0146     		mov	r1, r0
 5357 019e 2046     		mov	r0, r4
 5358 01a0 FFF7FEFF 		bl	__aeabi_fsub
 5359 01a4 48F65141 		movw	r1, #35921
 5360 01a8 8146     		mov	r9, r0
 5361              	.LVL404:
 5362 01aa C4F2F221 		movt	r1, 17138
 5363 01ae 2046     		mov	r0, r4
 5364 01b0 FFF7FEFF 		bl	__aeabi_fadd
 5365 01b4 0446     		mov	r4, r0
 5366              	.LVL405:
 5367              	.L480:
 5368              		.loc 2 64 0
 5369 01b6 4946     		mov	r1, r9
 5370 01b8 3846     		mov	r0, r7
 5371 01ba FFF7FEFF 		bl	__aeabi_fadd
 5372 01be 0746     		mov	r7, r0
 5373              	.LVL406:
 5374              		.loc 2 65 0
 5375 01c0 0146     		mov	r1, r0
 5376 01c2 4FF2F850 		movw	r0, #62968
 5377              	.LVL407:
 5378 01c6 C4F29A00 		movt	r0, 16538
 5379 01ca FFF7FEFF 		bl	__aeabi_fsub
 5380              	.LVL408:
 5381 01ce 0146     		mov	r1, r0
 5382 01d0 4DF2FE20 		movw	r0, #54014
 5383 01d4 C4F2DD10 		movt	r0, 16861
 5384 01d8 FFF7FEFF 		bl	__aeabi_fdiv
 5385 01dc 2146     		mov	r1, r4
 5386 01de FFF7FEFF 		bl	__aeabi_fadd
 5387 01e2 4BF68D41 		movw	r1, #48269
 5388 01e6 0446     		mov	r4, r0
 5389 01e8 C3F6BE71 		movt	r1, 16318
 5390 01ec 3846     		mov	r0, r7
 5391 01ee FFF7FEFF 		bl	__aeabi_fmul
 5392 01f2 0146     		mov	r1, r0
 5393 01f4 2046     		mov	r0, r4
 5394 01f6 FFF7FEFF 		bl	__aeabi_fsub
 5395 01fa 4FF09641 		mov	r1, #1258291200
 5396 01fe FFF7FEFF 		bl	__aeabi_fmul
ARM GAS  /tmp/ccdUEzgz.s 			page 96


 5397 0202 FFF7FEFF 		bl	__aeabi_f2uiz
 5398              	.LBE190:
 5399              	.LBE192:
 5400              	.LBE187:
 5401              	.LBE186:
 5402              		.loc 1 1075 0
 5403 0206 716C     		ldr	r1, [r6, #68]	@ float
 5404              	.LBB195:
 5405              		.loc 2 65 0
 5406 0208 0746     		mov	r7, r0
 5407              	.LVL409:
 5408              	.LBE195:
 5409              		.loc 1 1075 0
 5410 020a 4046     		mov	r0, r8
 5411              	.LVL410:
 5412 020c FFF7FEFF 		bl	__aeabi_fmul
 5413              		.loc 1 1078 0
 5414 0210 D6F84C90 		ldr	r9, [r6, #76]	@ float
 5415              		.loc 1 1075 0
 5416 0214 8046     		mov	r8, r0
 5417              		.loc 1 1078 0
 5418 0216 4946     		mov	r1, r9
 5419 0218 20F00040 		bic	r0, r0, #-2147483648
 5420              		.loc 1 1075 0
 5421 021c 4446     		mov	r4, r8
 5422              	.LVL411:
 5423              		.loc 1 1078 0
 5424 021e FFF7FEFF 		bl	__aeabi_fcmpgt
 5425 0222 90B1     		cbz	r0, .L481
 5426              	.LVL412:
 5427              	.LBB196:
 5428              	.LBB197:
 5429              		.loc 1 142 0
 5430 0224 0021     		movs	r1, #0
 5431 0226 4046     		mov	r0, r8
 5432 0228 FFF7FEFF 		bl	__aeabi_fcmpeq
 5433 022c 0021     		movs	r1, #0
 5434 022e 40B9     		cbnz	r0, .L483
 5435              		.loc 1 143 0
 5436 0230 0021     		movs	r1, #0
 5437 0232 4046     		mov	r0, r8
 5438 0234 FFF7FEFF 		bl	__aeabi_fcmpgt
 5439 0238 4FF07E51 		mov	r1, #1065353216
 5440 023c 0028     		cmp	r0, #0
 5441 023e 00F05481 		beq	.L518
 5442              	.L483:
 5443              	.LBE197:
 5444              	.LBE196:
 5445              		.loc 1 1079 0
 5446 0242 4846     		mov	r0, r9
 5447 0244 FFF7FEFF 		bl	__aeabi_fmul
 5448 0248 0446     		mov	r4, r0
 5449              	.LVL413:
 5450              	.L481:
 5451              		.loc 1 1082 0
 5452 024a 2846     		mov	r0, r5
 5453 024c FFF7FEFF 		bl	__aeabi_f2d
ARM GAS  /tmp/ccdUEzgz.s 			page 97


 5454 0250 CDE90001 		strd	r0, [sp]
 5455 0254 0399     		ldr	r1, [sp, #12]	@ float
 5456 0256 0798     		ldr	r0, [sp, #28]	@ float
 5457 0258 FFF7FEFF 		bl	__aeabi_fmul
 5458 025c 2146     		mov	r1, r4
 5459 025e FFF7FEFF 		bl	__aeabi_fsub
 5460 0262 FFF7FEFF 		bl	__aeabi_f2d
 5461 0266 2CA3     		adr	r3, .L521+8
 5462 0268 D3E90023 		ldrd	r2, [r3]
 5463 026c 8046     		mov	r8, r0
 5464 026e 8946     		mov	r9, r1
 5465 0270 DDE90001 		ldrd	r0, [sp]
 5466 0274 FFF7FEFF 		bl	__aeabi_dadd
 5467 0278 0246     		mov	r2, r0
 5468 027a 0B46     		mov	r3, r1
 5469 027c 4046     		mov	r0, r8
 5470 027e 4946     		mov	r1, r9
 5471 0280 FFF7FEFF 		bl	__aeabi_ddiv
 5472 0284 FFF7FEFF 		bl	__aeabi_d2f
 5473 0288 8046     		mov	r8, r0
 5474              	.LVL414:
 5475              		.loc 1 1083 0
 5476 028a 2046     		mov	r0, r4
 5477              	.LVL415:
 5478 028c FFF7FEFF 		bl	__aeabi_f2d
 5479 0290 DDE90423 		ldrd	r2, [sp, #16]
 5480 0294 FFF7FEFF 		bl	__aeabi_dadd
 5481 0298 DDE90023 		ldrd	r2, [sp]
 5482 029c 01F10045 		add	r5, r1, #-2147483648
 5483 02a0 2946     		mov	r1, r5
 5484 02a2 FFF7FEFF 		bl	__aeabi_ddiv
 5485 02a6 FFF7FEFF 		bl	__aeabi_d2f
 5486              		.loc 1 1086 0
 5487 02aa 5146     		mov	r1, sl
 5488              		.loc 1 1083 0
 5489 02ac 0446     		mov	r4, r0
 5490              	.LVL416:
 5491              		.loc 1 1086 0
 5492 02ae 4FF07E50 		mov	r0, #1065353216
 5493              	.LVL417:
 5494 02b2 FFF7FEFF 		bl	__aeabi_fsub
 5495 02b6 4146     		mov	r1, r8
 5496 02b8 FFF7FEFF 		bl	__aeabi_fmul
 5497 02bc 3946     		mov	r1, r7
 5498 02be 8146     		mov	r9, r0
 5499              	.LVL418:
 5500 02c0 FFF7FEFF 		bl	__aeabi_fmul
 5501              	.LVL419:
 5502 02c4 3946     		mov	r1, r7
 5503 02c6 0546     		mov	r5, r0
 5504 02c8 4FF07E50 		mov	r0, #1065353216
 5505 02cc FFF7FEFF 		bl	__aeabi_fsub
 5506 02d0 2146     		mov	r1, r4
 5507 02d2 FFF7FEFF 		bl	__aeabi_fmul
 5508 02d6 0146     		mov	r1, r0
 5509 02d8 2846     		mov	r0, r5
 5510 02da FFF7FEFF 		bl	__aeabi_fadd
ARM GAS  /tmp/ccdUEzgz.s 			page 98


 5511 02de 3946     		mov	r1, r7
 5512 02e0 0546     		mov	r5, r0
 5513 02e2 5046     		mov	r0, sl
 5514 02e4 FFF7FEFF 		bl	__aeabi_fmul
 5515 02e8 0146     		mov	r1, r0
 5516 02ea 4FF07E50 		mov	r0, #1065353216
 5517 02ee FFF7FEFF 		bl	__aeabi_fsub
 5518 02f2 0146     		mov	r1, r0
 5519 02f4 2846     		mov	r0, r5
 5520 02f6 FFF7FEFF 		bl	__aeabi_fdiv
 5521              		.loc 1 1089 0
 5522 02fa 0399     		ldr	r1, [sp, #12]	@ float
 5523 02fc FFF7FEFF 		bl	__aeabi_fmul
 5524 0300 0021     		movs	r1, #0
 5525 0302 FFF7FEFF 		bl	__aeabi_fcmplt
 5526 0306 0028     		cmp	r0, #0
 5527 0308 51D0     		beq	.L485
 5528 030a 09E0     		b	.L522
 5529              	.L523:
 5530 030c AFF30080 		.align	3
 5531              	.L521:
 5532 0310 00000000 		.word	0
 5533 0314 00C05F40 		.word	1080016896
 5534 0318 33333333 		.word	858993459
 5535 031c 3333D33F 		.word	1070805811
 5536              	.L522:
 5537              	.LVL420:
 5538              		.loc 1 1100 0
 5539 0320 4846     		mov	r0, r9
 5540 0322 2146     		mov	r1, r4
 5541 0324 FFF7FEFF 		bl	__aeabi_fsub
 5542 0328 04F10047 		add	r7, r4, #-2147483648
 5543              	.LVL421:
 5544 032c 0146     		mov	r1, r0
 5545 032e 3846     		mov	r0, r7
 5546 0330 FFF7FEFF 		bl	__aeabi_fdiv
 5547              	.LBB199:
 5548              	.LBB200:
 5549              	.LBB201:
 5550              	.LBB202:
 5551              		.loc 2 74 0
 5552 0334 20F07F41 		bic	r1, r0, #-16777216
 5553 0338 21F40003 		bic	r3, r1, #8388608
 5554              	.LBE202:
 5555              	.LBE201:
 5556              	.LBE200:
 5557 033c 43F07C55 		orr	r5, r3, #1056964608
 5558              	.LVL422:
 5559              	.LBB205:
 5560              	.LBB204:
 5561              	.LBB203:
 5562              		.loc 2 75 0
 5563 0340 FFF7FEFF 		bl	__aeabi_ui2f
 5564              		.loc 2 76 0
 5565 0344 4FF05051 		mov	r1, #872415232
 5566 0348 FFF7FEFF 		bl	__aeabi_fmul
 5567              		.loc 2 78 0
ARM GAS  /tmp/ccdUEzgz.s 			page 99


 5568 034c 47F27731 		movw	r1, #29559
 5569 0350 C4F2F821 		movt	r1, 17144
 5570 0354 FFF7FEFF 		bl	__aeabi_fsub
 5571              		.loc 2 79 0
 5572 0358 4BF67571 		movw	r1, #49013
 5573              		.loc 2 78 0
 5574 035c 8146     		mov	r9, r0
 5575              	.LVL423:
 5576              		.loc 2 79 0
 5577 035e C3F6BF71 		movt	r1, 16319
 5578 0362 2846     		mov	r0, r5
 5579 0364 FFF7FEFF 		bl	__aeabi_fmul
 5580 0368 0146     		mov	r1, r0
 5581 036a 4846     		mov	r0, r9
 5582 036c FFF7FEFF 		bl	__aeabi_fsub
 5583              		.loc 2 80 0
 5584 0370 44F2F941 		movw	r1, #17657
 5585              		.loc 2 79 0
 5586 0374 0746     		mov	r7, r0
 5587              		.loc 2 80 0
 5588 0376 C3F6B461 		movt	r1, 16052
 5589 037a 2846     		mov	r0, r5
 5590 037c FFF7FEFF 		bl	__aeabi_fadd
 5591 0380 0146     		mov	r1, r0
 5592 0382 4EF6A310 		movw	r0, #59811
 5593 0386 C3F6DC70 		movt	r0, 16348
 5594 038a FFF7FEFF 		bl	__aeabi_fdiv
 5595 038e 0146     		mov	r1, r0
 5596              		.loc 2 78 0
 5597 0390 3846     		mov	r0, r7
 5598 0392 FFF7FEFF 		bl	__aeabi_fsub
 5599              	.LBE203:
 5600              	.LBE204:
 5601              		.loc 2 99 0
 5602 0396 47F21821 		movw	r1, #29208
 5603 039a C3F63171 		movt	r1, 16177
 5604 039e FFF7FEFF 		bl	__aeabi_fmul
 5605              	.LBE205:
 5606              	.LBE199:
 5607              		.loc 1 1100 0
 5608 03a2 0699     		ldr	r1, [sp, #24]	@ float
 5609 03a4 00F10040 		add	r0, r0, #-2147483648
 5610 03a8 FFF7FEFF 		bl	__aeabi_fdiv
 5611 03ac 0290     		str	r0, [sp, #8]	@ float
 5612              	.LVL424:
 5613              	.L485:
 5614              		.loc 1 1112 0
 5615 03ae 4046     		mov	r0, r8
 5616 03b0 5946     		mov	r1, fp
 5617 03b2 FFF7FEFF 		bl	__aeabi_fmul
 5618 03b6 0299     		ldr	r1, [sp, #8]	@ float
 5619 03b8 0546     		mov	r5, r0
 5620 03ba 2046     		mov	r0, r4
 5621 03bc FFF7FEFF 		bl	__aeabi_fmul
 5622 03c0 0146     		mov	r1, r0
 5623 03c2 2846     		mov	r0, r5
 5624 03c4 FFF7FEFF 		bl	__aeabi_fadd
ARM GAS  /tmp/ccdUEzgz.s 			page 100


 5625 03c8 0446     		mov	r4, r0
 5626              	.LVL425:
 5627              		.loc 1 1115 0
 5628 03ca 3065     		str	r0, [r6, #80]	@ float
 5629              		.loc 1 1118 0
 5630 03cc 706D     		ldr	r0, [r6, #84]	@ float
 5631              	.LVL426:
 5632 03ce FFF7FEFF 		bl	__aeabi_f2d
 5633 03d2 57A3     		adr	r3, .L524
 5634 03d4 D3E90023 		ldrd	r2, [r3]
 5635 03d8 FFF7FEFF 		bl	__aeabi_dmul
 5636 03dc 8046     		mov	r8, r0
 5637              	.LVL427:
 5638 03de 2046     		mov	r0, r4
 5639 03e0 8946     		mov	r9, r1
 5640 03e2 FFF7FEFF 		bl	__aeabi_f2d
 5641 03e6 54A3     		adr	r3, .L524+8
 5642 03e8 D3E90023 		ldrd	r2, [r3]
 5643 03ec FFF7FEFF 		bl	__aeabi_dmul
 5644 03f0 0246     		mov	r2, r0
 5645 03f2 0B46     		mov	r3, r1
 5646 03f4 4046     		mov	r0, r8
 5647 03f6 4946     		mov	r1, r9
 5648 03f8 FFF7FEFF 		bl	__aeabi_dadd
 5649 03fc FFF7FEFF 		bl	__aeabi_d2f
 5650              		.loc 1 1121 0
 5651 0400 24F00045 		bic	r5, r4, #-2147483648
 5652              		.loc 1 1118 0
 5653 0404 7065     		str	r0, [r6, #84]	@ float
 5654              		.loc 1 1121 0
 5655 0406 B16D     		ldr	r1, [r6, #88]	@ float
 5656 0408 2846     		mov	r0, r5
 5657 040a FFF7FEFF 		bl	__aeabi_fcmpgt
 5658 040e 00B1     		cbz	r0, .L487
 5659              		.loc 1 1122 0
 5660 0410 B565     		str	r5, [r6, #88]	@ float
 5661              	.L487:
 5662              		.loc 1 1125 0
 5663 0412 2046     		mov	r0, r4
 5664 0414 09B0     		add	sp, sp, #36
 5665 0416 BDE8F08F 		pop	{r4, r5, r6, r7, r8, r9, sl, fp, pc}
 5666              	.LVL428:
 5667              	.L465:
 5668              		.loc 1 1057 0
 5669 041a 2046     		mov	r0, r4
 5670 041c FFF7FEFF 		bl	__aeabi_i2f
 5671              	.LBB206:
 5672              	.LBB207:
 5673              		.loc 1 142 0
 5674 0420 0021     		movs	r1, #0
 5675              	.LBE207:
 5676              	.LBE206:
 5677              		.loc 1 1057 0
 5678 0422 0446     		mov	r4, r0
 5679              	.LVL429:
 5680              	.LBB214:
 5681              	.LBB208:
ARM GAS  /tmp/ccdUEzgz.s 			page 101


 5682              		.loc 1 142 0
 5683 0424 FFF7FEFF 		bl	__aeabi_fcmpeq
 5684              	.LVL430:
 5685 0428 90B1     		cbz	r0, .L519
 5686 042a 4FF07E52 		mov	r2, #1065353216
 5687 042e 0292     		str	r2, [sp, #8]	@ float
 5688 0430 4FF0000B 		mov	fp, #0
 5689              	.LVL431:
 5690              	.L469:
 5691              	.LBE208:
 5692              	.LBE214:
 5693              		.loc 1 1064 0
 5694 0434 D6F83080 		ldr	r8, [r6, #48]	@ float
 5695              	.LVL432:
 5696              	.LBB215:
 5697              	.LBB216:
 5698              		.loc 1 142 0
 5699 0438 0021     		movs	r1, #0
 5700 043a 4046     		mov	r0, r8
 5701 043c FFF7FEFF 		bl	__aeabi_fcmpeq
 5702              	.LVL433:
 5703 0440 58B3     		cbz	r0, .L520
 5704 0442 0023     		movs	r3, #0
 5705 0444 0022     		movs	r2, #0
 5706 0446 CDE90423 		strd	r2, [sp, #16]
 5707 044a 0023     		movs	r3, #0
 5708 044c 0393     		str	r3, [sp, #12]	@ float
 5709 044e 1EE6     		b	.L472
 5710              	.LVL434:
 5711              	.L519:
 5712              	.LBE216:
 5713              	.LBE215:
 5714              	.LBB219:
 5715              	.LBB209:
 5716              		.loc 1 143 0
 5717 0450 2046     		mov	r0, r4
 5718 0452 0021     		movs	r1, #0
 5719 0454 FFF7FEFF 		bl	__aeabi_fcmpgt
 5720 0458 0028     		cmp	r0, #0
 5721 045a 55D0     		beq	.L511
 5722 045c 7F24     		movs	r4, #127
 5723              	.LVL435:
 5724 045e 0021     		movs	r1, #0
 5725              	.LBE209:
 5726              	.LBE219:
 5727              		.loc 1 1062 0
 5728 0460 2046     		mov	r0, r4
 5729              	.LBB220:
 5730              	.LBB210:
 5731              		.loc 1 143 0
 5732 0462 0291     		str	r1, [sp, #8]	@ float
 5733              	.LBE210:
 5734              	.LBE220:
 5735              		.loc 1 1062 0
 5736 0464 FFF7FEFF 		bl	__aeabi_i2f
 5737              	.LBB221:
 5738              	.LBB170:
ARM GAS  /tmp/ccdUEzgz.s 			page 102


 5739              		.loc 1 142 0
 5740 0468 0021     		movs	r1, #0
 5741              	.LBE170:
 5742              	.LBE221:
 5743              	.LBB222:
 5744              	.LBB211:
 5745              		.loc 1 143 0
 5746 046a 4FF07E5B 		mov	fp, #1065353216
 5747              	.LBE211:
 5748              	.LBE222:
 5749              		.loc 1 1062 0
 5750 046e 0446     		mov	r4, r0
 5751              	.LVL436:
 5752              	.LBB223:
 5753              	.LBB171:
 5754              		.loc 1 142 0
 5755 0470 FFF7FEFF 		bl	__aeabi_fcmpeq
 5756              	.LVL437:
 5757 0474 0028     		cmp	r0, #0
 5758 0476 7FF402AE 		bne	.L491
 5759              	.L517:
 5760              		.loc 1 143 0
 5761 047a 2046     		mov	r0, r4
 5762 047c 0021     		movs	r1, #0
 5763 047e FFF7FEFF 		bl	__aeabi_fcmpgt
 5764 0482 0028     		cmp	r0, #0
 5765 0484 35D0     		beq	.L512
 5766 0486 0023     		movs	r3, #0
 5767 0488 C3F6E873 		movt	r3, 16360
 5768 048c 0022     		movs	r2, #0
 5769 048e CDE90423 		strd	r2, [sp, #16]
 5770 0492 4FF07E53 		mov	r3, #1065353216
 5771 0496 0393     		str	r3, [sp, #12]	@ float
 5772 0498 F7E5     		b	.L470
 5773              	.LVL438:
 5774              	.L520:
 5775              	.LBE171:
 5776              	.LBE223:
 5777              	.LBB224:
 5778              	.LBB217:
 5779 049a 4046     		mov	r0, r8
 5780 049c 0021     		movs	r1, #0
 5781 049e FFF7FEFF 		bl	__aeabi_fcmpgt
 5782 04a2 B8B1     		cbz	r0, .L513
 5783 04a4 0023     		movs	r3, #0
 5784 04a6 C3F6E873 		movt	r3, 16360
 5785 04aa 0022     		movs	r2, #0
 5786 04ac CDE90423 		strd	r2, [sp, #16]
 5787 04b0 4FF07E53 		mov	r3, #1065353216
 5788 04b4 0393     		str	r3, [sp, #12]	@ float
 5789 04b6 EAE5     		b	.L472
 5790              	.LVL439:
 5791              	.L496:
 5792              	.LBE217:
 5793              	.LBE224:
 5794              	.LBB225:
 5795              	.LBB184:
ARM GAS  /tmp/ccdUEzgz.s 			page 103


 5796              	.LBB183:
 5797              	.LBB181:
 5798              		.loc 2 62 0
 5799 04b8 43F6F024 		movw	r4, #15088
 5800              	.LVL440:
 5801 04bc CCF29704 		movt	r4, 49303
 5802 04c0 4FF00009 		mov	r9, #0
 5803 04c4 21E6     		b	.L477
 5804              	.LVL441:
 5805              	.L498:
 5806              	.LBE181:
 5807              	.LBE183:
 5808              	.LBE184:
 5809              	.LBE225:
 5810              	.LBB226:
 5811              	.LBB194:
 5812              	.LBB193:
 5813              	.LBB191:
 5814 04c6 43F6F024 		movw	r4, #15088
 5815              	.LVL442:
 5816 04ca CCF29704 		movt	r4, 49303
 5817 04ce 4FF00009 		mov	r9, #0
 5818              	.LVL443:
 5819 04d2 70E6     		b	.L480
 5820              	.LVL444:
 5821              	.L513:
 5822              	.LBE191:
 5823              	.LBE193:
 5824              	.LBE194:
 5825              	.LBE226:
 5826              	.LBB227:
 5827              	.LBB218:
 5828              		.loc 1 143 0
 5829 04d4 0025     		movs	r5, #0
 5830 04d6 0023     		movs	r3, #0
 5831 04d8 CBF68075 		movt	r5, 49024
 5832 04dc 0022     		movs	r2, #0
 5833 04de CBF6E873 		movt	r3, 49128
 5834 04e2 0395     		str	r5, [sp, #12]	@ float
 5835 04e4 CDE90423 		strd	r2, [sp, #16]
 5836 04e8 D1E5     		b	.L472
 5837              	.LVL445:
 5838              	.L518:
 5839              	.LBE218:
 5840              	.LBE227:
 5841              	.LBB228:
 5842              	.LBB198:
 5843 04ea 0021     		movs	r1, #0
 5844 04ec CBF68071 		movt	r1, 49024
 5845 04f0 A7E6     		b	.L483
 5846              	.LVL446:
 5847              	.L512:
 5848              	.LBE198:
 5849              	.LBE228:
 5850              	.LBB229:
 5851              	.LBB172:
 5852 04f2 0020     		movs	r0, #0
ARM GAS  /tmp/ccdUEzgz.s 			page 104


 5853 04f4 0023     		movs	r3, #0
 5854 04f6 CBF68070 		movt	r0, 49024
 5855 04fa 0022     		movs	r2, #0
 5856 04fc CBF6E873 		movt	r3, 49128
 5857 0500 0390     		str	r0, [sp, #12]	@ float
 5858 0502 CDE90423 		strd	r2, [sp, #16]
 5859 0506 C0E5     		b	.L470
 5860              	.LVL447:
 5861              	.L511:
 5862              	.LBE172:
 5863              	.LBE229:
 5864              	.LBB230:
 5865              	.LBB212:
 5866 0508 0024     		movs	r4, #0
 5867              	.LVL448:
 5868 050a 0294     		str	r4, [sp, #8]	@ float
 5869 050c 6FF07E04 		mvn	r4, #126
 5870              	.LVL449:
 5871              	.LBE212:
 5872              	.LBE230:
 5873              		.loc 1 1062 0
 5874 0510 2046     		mov	r0, r4
 5875 0512 FFF7FEFF 		bl	__aeabi_i2f
 5876              	.LBB231:
 5877              	.LBB173:
 5878              		.loc 1 142 0
 5879 0516 0021     		movs	r1, #0
 5880              	.LBE173:
 5881              	.LBE231:
 5882              	.LBB232:
 5883              	.LBB213:
 5884              		.loc 1 143 0
 5885 0518 4FF07E5B 		mov	fp, #1065353216
 5886              	.LBE213:
 5887              	.LBE232:
 5888              		.loc 1 1062 0
 5889 051c 0446     		mov	r4, r0
 5890              	.LVL450:
 5891              	.LBB233:
 5892              	.LBB174:
 5893              		.loc 1 142 0
 5894 051e FFF7FEFF 		bl	__aeabi_fcmpeq
 5895              	.LVL451:
 5896 0522 0028     		cmp	r0, #0
 5897 0524 7FF4ABAD 		bne	.L491
 5898 0528 A7E7     		b	.L517
 5899              	.L525:
 5900 052a 00BFAFF3 		.align	3
 5900      0080
 5901              	.L524:
 5902 0530 9A999999 		.word	-1717986918
 5903 0534 9999E93F 		.word	1072273817
 5904 0538 9A999999 		.word	-1717986918
 5905 053c 9999C93F 		.word	1070176665
 5906              	.LBE174:
 5907              	.LBE233:
 5908              		.cfi_endproc
ARM GAS  /tmp/ccdUEzgz.s 			page 105


 5909              	.LFE98:
 5910              		.size	SmartMotorCurrent, .-SmartMotorCurrent
 5911              		.section	.text.SmartMotorControllerCurrent,"ax",%progbits
 5912              		.align	2
 5913              		.p2align 4,,15
 5914              		.global	SmartMotorControllerCurrent
 5915              		.thumb
 5916              		.thumb_func
 5917              		.type	SmartMotorControllerCurrent, %function
 5918              	SmartMotorControllerCurrent:
 5919              	.LFB99:
 5920              		.loc 1 1137 0
 5921              		.cfi_startproc
 5922              		@ args = 0, pretend = 0, frame = 0
 5923              		@ frame_needed = 0, uses_anonymous_args = 0
 5924              	.LVL452:
 5925 0000 38B5     		push	{r3, r4, r5, lr}
 5926              	.LCFI21:
 5927              		.cfi_def_cfa_offset 16
 5928              		.cfi_offset 14, -4
 5929              		.cfi_offset 5, -8
 5930              		.cfi_offset 4, -12
 5931              		.cfi_offset 3, -16
 5932              		.loc 1 1146 0
 5933 0002 0368     		ldr	r3, [r0, #0]
 5934              		.loc 1 1140 0
 5935 0004 0021     		movs	r1, #0
 5936              		.loc 1 1137 0
 5937 0006 0446     		mov	r4, r0
 5938              		.loc 1 1140 0
 5939 0008 4161     		str	r1, [r0, #20]	@ float
 5940              	.LVL453:
 5941              		.loc 1 1146 0
 5942 000a 13B1     		cbz	r3, .L535
 5943              		.loc 1 1148 0
 5944 000c 9A78     		ldrb	r2, [r3, #2]	@ zero_extendqisi2
 5945 000e 002A     		cmp	r2, #0
 5946 0010 3DD1     		bne	.L537
 5947              	.L535:
 5948 0012 0D46     		mov	r5, r1
 5949              	.LVL454:
 5950              	.L527:
 5951              		.loc 1 1146 0
 5952 0014 6368     		ldr	r3, [r4, #4]
 5953 0016 13B1     		cbz	r3, .L528
 5954              		.loc 1 1148 0
 5955 0018 9978     		ldrb	r1, [r3, #2]	@ zero_extendqisi2
 5956 001a 0029     		cmp	r1, #0
 5957 001c 2ED1     		bne	.L538
 5958              	.L528:
 5959              	.LVL455:
 5960              		.loc 1 1146 0
 5961 001e A368     		ldr	r3, [r4, #8]
 5962 0020 0BB1     		cbz	r3, .L529
 5963              		.loc 1 1148 0
 5964 0022 9A78     		ldrb	r2, [r3, #2]	@ zero_extendqisi2
 5965 0024 0ABB     		cbnz	r2, .L539
ARM GAS  /tmp/ccdUEzgz.s 			page 106


 5966              	.L529:
 5967              	.LVL456:
 5968              		.loc 1 1146 0
 5969 0026 E368     		ldr	r3, [r4, #12]
 5970 0028 0BB1     		cbz	r3, .L530
 5971              		.loc 1 1148 0
 5972 002a 9878     		ldrb	r0, [r3, #2]	@ zero_extendqisi2
 5973 002c A0B9     		cbnz	r0, .L540
 5974              	.L530:
 5975              	.LVL457:
 5976              		.loc 1 1146 0
 5977 002e 2369     		ldr	r3, [r4, #16]
 5978 0030 0BB1     		cbz	r3, .L531
 5979              		.loc 1 1148 0
 5980 0032 9A78     		ldrb	r2, [r3, #2]	@ zero_extendqisi2
 5981 0034 3AB9     		cbnz	r2, .L541
 5982              	.L531:
 5983              	.LVL458:
 5984              		.loc 1 1154 0
 5985 0036 A069     		ldr	r0, [r4, #24]	@ float
 5986 0038 2946     		mov	r1, r5
 5987 003a FFF7FEFF 		bl	__aeabi_fcmplt
 5988 003e 00B1     		cbz	r0, .L532
 5989              		.loc 1 1155 0
 5990 0040 A561     		str	r5, [r4, #24]	@ float
 5991              	.L532:
 5992              		.loc 1 1158 0
 5993 0042 2846     		mov	r0, r5
 5994 0044 38BD     		pop	{r3, r4, r5, pc}
 5995              	.LVL459:
 5996              	.L541:
 5997              		.loc 1 1149 0
 5998 0046 196D     		ldr	r1, [r3, #80]
 5999 0048 2846     		mov	r0, r5
 6000 004a 21F00041 		bic	r1, r1, #-2147483648
 6001 004e FFF7FEFF 		bl	__aeabi_fadd
 6002 0052 0546     		mov	r5, r0
 6003 0054 6061     		str	r0, [r4, #20]	@ float
 6004 0056 EEE7     		b	.L531
 6005              	.LVL460:
 6006              	.L540:
 6007 0058 1B6D     		ldr	r3, [r3, #80]
 6008 005a 2846     		mov	r0, r5
 6009 005c 23F00041 		bic	r1, r3, #-2147483648
 6010 0060 FFF7FEFF 		bl	__aeabi_fadd
 6011 0064 0546     		mov	r5, r0
 6012 0066 6061     		str	r0, [r4, #20]	@ float
 6013 0068 E1E7     		b	.L530
 6014              	.LVL461:
 6015              	.L539:
 6016 006a 196D     		ldr	r1, [r3, #80]
 6017 006c 2846     		mov	r0, r5
 6018 006e 21F00041 		bic	r1, r1, #-2147483648
 6019 0072 FFF7FEFF 		bl	__aeabi_fadd
 6020 0076 0546     		mov	r5, r0
 6021 0078 6061     		str	r0, [r4, #20]	@ float
 6022 007a D4E7     		b	.L529
ARM GAS  /tmp/ccdUEzgz.s 			page 107


 6023              	.LVL462:
 6024              	.L538:
 6025 007c 1B6D     		ldr	r3, [r3, #80]
 6026 007e 2846     		mov	r0, r5
 6027 0080 23F00041 		bic	r1, r3, #-2147483648
 6028 0084 FFF7FEFF 		bl	__aeabi_fadd
 6029 0088 0546     		mov	r5, r0
 6030 008a 6061     		str	r0, [r4, #20]	@ float
 6031 008c C7E7     		b	.L528
 6032              	.LVL463:
 6033              	.L537:
 6034 008e 186D     		ldr	r0, [r3, #80]
 6035 0090 20F00040 		bic	r0, r0, #-2147483648
 6036 0094 FFF7FEFF 		bl	__aeabi_fadd
 6037 0098 0546     		mov	r5, r0
 6038 009a 6061     		str	r0, [r4, #20]	@ float
 6039 009c BAE7     		b	.L527
 6040              		.cfi_endproc
 6041              	.LFE99:
 6042              		.size	SmartMotorControllerCurrent, .-SmartMotorControllerCurrent
 6043              		.global	__aeabi_fcmpge
 6044              		.global	__aeabi_d2iz
 6045              		.global	__aeabi_fcmple
 6046              		.global	__aeabi_dsub
 6047 009e 00BF     		.section	.text.SmartMotorSafeCommand,"ax",%progbits
 6048              		.align	2
 6049              		.p2align 4,,15
 6050              		.global	SmartMotorSafeCommand
 6051              		.thumb
 6052              		.thumb_func
 6053              		.type	SmartMotorSafeCommand, %function
 6054              	SmartMotorSafeCommand:
 6055              	.LFB100:
 6056              		.loc 1 1183 0
 6057              		.cfi_startproc
 6058              		@ args = 0, pretend = 0, frame = 0
 6059              		@ frame_needed = 0, uses_anonymous_args = 0
 6060              	.LVL464:
 6061 0000 2DE9704F 		push	{r4, r5, r6, r8, r9, sl, fp, lr}
 6062              	.LCFI22:
 6063              		.cfi_def_cfa_offset 32
 6064              		.cfi_offset 14, -4
 6065              		.cfi_offset 11, -8
 6066              		.cfi_offset 10, -12
 6067              		.cfi_offset 9, -16
 6068              		.cfi_offset 8, -20
 6069              		.cfi_offset 6, -24
 6070              		.cfi_offset 5, -28
 6071              		.cfi_offset 4, -32
 6072              		.loc 1 1183 0
 6073 0004 0446     		mov	r4, r0
 6074              		.loc 1 1185 0
 6075 0006 90F90000 		ldrsb	r0, [r0, #0]
 6076              	.LVL465:
 6077              		.loc 1 1183 0
 6078 000a 0E46     		mov	r6, r1
 6079              		.loc 1 1185 0
ARM GAS  /tmp/ccdUEzgz.s 			page 108


 6080 000c FFF7FEFF 		bl	vexMotorGet
 6081              	.LVL466:
 6082              		.loc 1 1191 0
 6083 0010 256B     		ldr	r5, [r4, #48]	@ float
 6084 0012 0021     		movs	r1, #0
 6085              		.loc 1 1189 0
 6086 0014 0028     		cmp	r0, #0
 6087              		.loc 1 1191 0
 6088 0016 2846     		mov	r0, r5
 6089              	.LVL467:
 6090              		.loc 1 1189 0
 6091 0018 62DB     		blt	.L543
 6092              		.loc 1 1191 0
 6093 001a FFF7FEFF 		bl	__aeabi_fcmpge
 6094 001e D0B9     		cbnz	r0, .L560
 6095 0020 256E     		ldr	r5, [r4, #96]	@ float
 6096              		.loc 1 1194 0
 6097 0022 7F26     		movs	r6, #127
 6098              	.LVL468:
 6099              	.L546:
 6100              		.loc 1 1213 0
 6101 0024 0021     		movs	r1, #0
 6102 0026 2846     		mov	r0, r5
 6103 0028 FFF7FEFF 		bl	__aeabi_fcmpeq
 6104              		.loc 1 1217 0
 6105 002c 2278     		ldrb	r2, [r4, #0]	@ zero_extendqisi2
 6106              		.loc 1 1214 0
 6107 002e 0028     		cmp	r0, #0
 6108 0030 0CBF     		ite	eq
 6109 0032 3046     		moveq	r0, r6
 6110 0034 0020     		movne	r0, #0
 6111              		.loc 1 1217 0
 6112 0036 511E     		subs	r1, r2, #1
 6113 0038 CBB2     		uxtb	r3, r1
 6114 003a 072B     		cmp	r3, #7
 6115 003c 09D8     		bhi	.L550
 6116              		.loc 1 1218 0
 6117 003e 5A26     		movs	r6, #90
 6118 0040 06FB00F0 		mul	r0, r6, r0
 6119 0044 00F17F06 		add	r6, r0, #127
 6120 0048 30EA2000 		bics	r0, r0, r0, asr #32
 6121 004c 28BF     		it	cs
 6122 004e 3046     		movcs	r0, r6
 6123 0050 C011     		asrs	r0, r0, #7
 6124              	.L550:
 6125              		.loc 1 1221 0
 6126 0052 BDE8708F 		pop	{r4, r5, r6, r8, r9, sl, fp, pc}
 6127              	.LVL469:
 6128              	.L560:
 6129              		.loc 1 1192 0
 6130 0056 616C     		ldr	r1, [r4, #68]	@ float
 6131 0058 2846     		mov	r0, r5
 6132 005a FFF7FEFF 		bl	__aeabi_fmul
 6133 005e FFF7FEFF 		bl	__aeabi_f2d
 6134 0062 256E     		ldr	r5, [r4, #96]	@ float
 6135 0064 8246     		mov	sl, r0
 6136 0066 2846     		mov	r0, r5
ARM GAS  /tmp/ccdUEzgz.s 			page 109


 6137 0068 8B46     		mov	fp, r1
 6138 006a FFF7FEFF 		bl	__aeabi_f2d
 6139 006e 8046     		mov	r8, r0
 6140 0070 E06B     		ldr	r0, [r4, #60]	@ float
 6141 0072 8946     		mov	r9, r1
 6142 0074 FFF7FEFF 		bl	__aeabi_f2d
 6143 0078 41A3     		adr	r3, .L561
 6144 007a D3E90023 		ldrd	r2, [r3]
 6145 007e FFF7FEFF 		bl	__aeabi_dadd
 6146 0082 0246     		mov	r2, r0
 6147 0084 0B46     		mov	r3, r1
 6148 0086 4046     		mov	r0, r8
 6149 0088 4946     		mov	r1, r9
 6150 008a FFF7FEFF 		bl	__aeabi_dmul
 6151 008e 0246     		mov	r2, r0
 6152 0090 0B46     		mov	r3, r1
 6153 0092 5046     		mov	r0, sl
 6154 0094 5946     		mov	r1, fp
 6155 0096 FFF7FEFF 		bl	__aeabi_dadd
 6156 009a 0023     		movs	r3, #0
 6157 009c 0022     		movs	r2, #0
 6158 009e C3F6E873 		movt	r3, 16360
 6159 00a2 FFF7FEFF 		bl	__aeabi_dadd
 6160 00a6 38A3     		adr	r3, .L561+8
 6161 00a8 D3E90023 		ldrd	r2, [r3]
 6162 00ac FFF7FEFF 		bl	__aeabi_dmul
 6163 00b0 8046     		mov	r8, r0
 6164 00b2 3046     		mov	r0, r6
 6165 00b4 8946     		mov	r9, r1
 6166 00b6 FFF7FEFF 		bl	__aeabi_f2d
 6167 00ba 0023     		movs	r3, #0
 6168 00bc 0022     		movs	r2, #0
 6169 00be C3F6E873 		movt	r3, 16360
 6170 00c2 FFF7FEFF 		bl	__aeabi_dadd
 6171 00c6 0246     		mov	r2, r0
 6172 00c8 0B46     		mov	r3, r1
 6173 00ca 4046     		mov	r0, r8
 6174 00cc 4946     		mov	r1, r9
 6175 00ce FFF7FEFF 		bl	__aeabi_ddiv
 6176 00d2 FFF7FEFF 		bl	__aeabi_d2iz
 6177              	.LVL470:
 6178              		.loc 1 1198 0
 6179 00d6 7F28     		cmp	r0, #127
 6180 00d8 B4BF     		ite	lt
 6181 00da 0646     		movlt	r6, r0
 6182 00dc 7F26     		movge	r6, #127
 6183              	.LVL471:
 6184 00de A1E7     		b	.L546
 6185              	.LVL472:
 6186              	.L543:
 6187              		.loc 1 1202 0
 6188 00e0 FFF7FEFF 		bl	__aeabi_fcmple
 6189 00e4 0028     		cmp	r0, #0
 6190 00e6 45D0     		beq	.L559
 6191              		.loc 1 1203 0
 6192 00e8 616C     		ldr	r1, [r4, #68]	@ float
 6193 00ea 2846     		mov	r0, r5
ARM GAS  /tmp/ccdUEzgz.s 			page 110


 6194 00ec FFF7FEFF 		bl	__aeabi_fmul
 6195 00f0 FFF7FEFF 		bl	__aeabi_f2d
 6196 00f4 256E     		ldr	r5, [r4, #96]	@ float
 6197 00f6 8246     		mov	sl, r0
 6198 00f8 2846     		mov	r0, r5
 6199 00fa 8B46     		mov	fp, r1
 6200 00fc FFF7FEFF 		bl	__aeabi_f2d
 6201 0100 8046     		mov	r8, r0
 6202 0102 E06B     		ldr	r0, [r4, #60]	@ float
 6203 0104 8946     		mov	r9, r1
 6204 0106 FFF7FEFF 		bl	__aeabi_f2d
 6205 010a 1DA3     		adr	r3, .L561
 6206 010c D3E90023 		ldrd	r2, [r3]
 6207 0110 FFF7FEFF 		bl	__aeabi_dadd
 6208 0114 0246     		mov	r2, r0
 6209 0116 0B46     		mov	r3, r1
 6210 0118 4046     		mov	r0, r8
 6211 011a 4946     		mov	r1, r9
 6212 011c FFF7FEFF 		bl	__aeabi_dmul
 6213 0120 0246     		mov	r2, r0
 6214 0122 0B46     		mov	r3, r1
 6215 0124 5046     		mov	r0, sl
 6216 0126 5946     		mov	r1, fp
 6217 0128 FFF7FEFF 		bl	__aeabi_dsub
 6218 012c 0023     		movs	r3, #0
 6219 012e 0022     		movs	r2, #0
 6220 0130 C3F6E873 		movt	r3, 16360
 6221 0134 FFF7FEFF 		bl	__aeabi_dsub
 6222 0138 13A3     		adr	r3, .L561+8
 6223 013a D3E90023 		ldrd	r2, [r3]
 6224 013e FFF7FEFF 		bl	__aeabi_dmul
 6225 0142 8046     		mov	r8, r0
 6226 0144 3046     		mov	r0, r6
 6227 0146 8946     		mov	r9, r1
 6228 0148 FFF7FEFF 		bl	__aeabi_f2d
 6229 014c 0023     		movs	r3, #0
 6230 014e 0022     		movs	r2, #0
 6231 0150 C3F6E873 		movt	r3, 16360
 6232 0154 FFF7FEFF 		bl	__aeabi_dadd
 6233 0158 0246     		mov	r2, r0
 6234 015a 0B46     		mov	r3, r1
 6235 015c 4046     		mov	r0, r8
 6236 015e 4946     		mov	r1, r9
 6237 0160 FFF7FEFF 		bl	__aeabi_ddiv
 6238 0164 FFF7FEFF 		bl	__aeabi_d2iz
 6239              		.loc 1 1209 0
 6240 0168 6FF07E06 		mvn	r6, #126
 6241              	.LVL473:
 6242 016c B042     		cmp	r0, r6
 6243 016e A8BF     		it	ge
 6244 0170 0646     		movge	r6, r0
 6245 0172 57E7     		b	.L546
 6246              	.LVL474:
 6247              	.L559:
 6248 0174 256E     		ldr	r5, [r4, #96]	@ float
 6249              		.loc 1 1205 0
 6250 0176 6FF07E06 		mvn	r6, #126
ARM GAS  /tmp/ccdUEzgz.s 			page 111


 6251              	.LVL475:
 6252 017a 53E7     		b	.L546
 6253              	.L562:
 6254 017c AFF30080 		.align	3
 6255              	.L561:
 6256 0180 33333333 		.word	858993459
 6257 0184 3333D33F 		.word	1070805811
 6258 0188 00000000 		.word	0
 6259 018c 00C05F40 		.word	1080016896
 6260              		.cfi_endproc
 6261              	.LFE100:
 6262              		.size	SmartMotorSafeCommand, .-SmartMotorSafeCommand
 6263              		.section	.text.SmartMotorTemperature,"ax",%progbits
 6264              		.align	2
 6265              		.p2align 4,,15
 6266              		.global	SmartMotorTemperature
 6267              		.thumb
 6268              		.thumb_func
 6269              		.type	SmartMotorTemperature, %function
 6270              	SmartMotorTemperature:
 6271              	.LFB101:
 6272              		.loc 1 1234 0
 6273              		.cfi_startproc
 6274              		@ args = 0, pretend = 0, frame = 0
 6275              		@ frame_needed = 0, uses_anonymous_args = 0
 6276              	.LVL476:
 6277 0000 F8B5     		push	{r3, r4, r5, r6, r7, lr}
 6278              	.LCFI23:
 6279              		.cfi_def_cfa_offset 24
 6280              		.cfi_offset 14, -4
 6281              		.cfi_offset 7, -8
 6282              		.cfi_offset 6, -12
 6283              		.cfi_offset 5, -16
 6284              		.cfi_offset 4, -20
 6285              		.cfi_offset 3, -24
 6286              		.loc 1 1234 0
 6287 0002 0446     		mov	r4, r0
 6288              		.loc 1 1237 0
 6289 0004 056D     		ldr	r5, [r0, #80]	@ float
 6290              		.loc 1 1239 0
 6291 0006 0846     		mov	r0, r1
 6292              	.LVL477:
 6293 0008 FFF7FEFF 		bl	__aeabi_i2f
 6294              	.LVL478:
 6295              		.loc 1 1237 0
 6296 000c 2946     		mov	r1, r5
 6297              		.loc 1 1239 0
 6298 000e 0646     		mov	r6, r0
 6299              		.loc 1 1237 0
 6300 0010 2846     		mov	r0, r5
 6301 0012 FFF7FEFF 		bl	__aeabi_fmul
 6302 0016 A16E     		ldr	r1, [r4, #104]	@ float
 6303 0018 FFF7FEFF 		bl	__aeabi_fmul
 6304 001c 656E     		ldr	r5, [r4, #100]	@ float
 6305 001e 0746     		mov	r7, r0
 6306 0020 216F     		ldr	r1, [r4, #112]	@ float
 6307 0022 2846     		mov	r0, r5
ARM GAS  /tmp/ccdUEzgz.s 			page 112


 6308 0024 FFF7FEFF 		bl	__aeabi_fsub
 6309 0028 0146     		mov	r1, r0
 6310 002a 3846     		mov	r0, r7
 6311 002c FFF7FEFF 		bl	__aeabi_fsub
 6312 0030 E16E     		ldr	r1, [r4, #108]	@ float
 6313 0032 FFF7FEFF 		bl	__aeabi_fmul
 6314 0036 0146     		mov	r1, r0
 6315              		.loc 1 1239 0
 6316 0038 3046     		mov	r0, r6
 6317 003a FFF7FEFF 		bl	__aeabi_fmul
 6318 003e 0146     		mov	r1, r0
 6319 0040 2846     		mov	r0, r5
 6320 0042 FFF7FEFF 		bl	__aeabi_fadd
 6321 0046 6066     		str	r0, [r4, #100]	@ float
 6322              		.loc 1 1242 0
 6323 0048 F8BD     		pop	{r3, r4, r5, r6, r7, pc}
 6324              		.cfi_endproc
 6325              	.LFE101:
 6326              		.size	SmartMotorTemperature, .-SmartMotorTemperature
 6327 004a 00BFAFF3 		.section	.text.SmartMotorControllerTemperature,"ax",%progbits
 6327      0080
 6328              		.align	2
 6329              		.p2align 4,,15
 6330              		.global	SmartMotorControllerTemperature
 6331              		.thumb
 6332              		.thumb_func
 6333              		.type	SmartMotorControllerTemperature, %function
 6334              	SmartMotorControllerTemperature:
 6335              	.LFB102:
 6336              		.loc 1 1255 0
 6337              		.cfi_startproc
 6338              		@ args = 0, pretend = 0, frame = 0
 6339              		@ frame_needed = 0, uses_anonymous_args = 0
 6340              	.LVL479:
 6341 0000 F8B5     		push	{r3, r4, r5, r6, r7, lr}
 6342              	.LCFI24:
 6343              		.cfi_def_cfa_offset 24
 6344              		.cfi_offset 14, -4
 6345              		.cfi_offset 7, -8
 6346              		.cfi_offset 6, -12
 6347              		.cfi_offset 5, -16
 6348              		.cfi_offset 4, -20
 6349              		.cfi_offset 3, -24
 6350              		.loc 1 1255 0
 6351 0002 0446     		mov	r4, r0
 6352              		.loc 1 1258 0
 6353 0004 4569     		ldr	r5, [r0, #20]	@ float
 6354              		.loc 1 1260 0
 6355 0006 0846     		mov	r0, r1
 6356              	.LVL480:
 6357 0008 FFF7FEFF 		bl	__aeabi_i2f
 6358              	.LVL481:
 6359              		.loc 1 1258 0
 6360 000c 2946     		mov	r1, r5
 6361              		.loc 1 1260 0
 6362 000e 0646     		mov	r6, r0
 6363              		.loc 1 1258 0
ARM GAS  /tmp/ccdUEzgz.s 			page 113


 6364 0010 2846     		mov	r0, r5
 6365 0012 FFF7FEFF 		bl	__aeabi_fmul
 6366 0016 616A     		ldr	r1, [r4, #36]	@ float
 6367 0018 FFF7FEFF 		bl	__aeabi_fmul
 6368 001c 256A     		ldr	r5, [r4, #32]	@ float
 6369 001e 0746     		mov	r7, r0
 6370 0020 E16A     		ldr	r1, [r4, #44]	@ float
 6371 0022 2846     		mov	r0, r5
 6372 0024 FFF7FEFF 		bl	__aeabi_fsub
 6373 0028 0146     		mov	r1, r0
 6374 002a 3846     		mov	r0, r7
 6375 002c FFF7FEFF 		bl	__aeabi_fsub
 6376 0030 A16A     		ldr	r1, [r4, #40]	@ float
 6377 0032 FFF7FEFF 		bl	__aeabi_fmul
 6378 0036 0146     		mov	r1, r0
 6379              		.loc 1 1260 0
 6380 0038 3046     		mov	r0, r6
 6381 003a FFF7FEFF 		bl	__aeabi_fmul
 6382 003e 0146     		mov	r1, r0
 6383 0040 2846     		mov	r0, r5
 6384 0042 FFF7FEFF 		bl	__aeabi_fadd
 6385 0046 2062     		str	r0, [r4, #32]	@ float
 6386              		.loc 1 1263 0
 6387 0048 F8BD     		pop	{r3, r4, r5, r6, r7, pc}
 6388              		.cfi_endproc
 6389              	.LFE102:
 6390              		.size	SmartMotorControllerTemperature, .-SmartMotorControllerTemperature
 6391 004a 00BFAFF3 		.section	.text.SmartMotorMonitorPtc,"ax",%progbits
 6391      0080
 6392              		.align	2
 6393              		.p2align 4,,15
 6394              		.global	SmartMotorMonitorPtc
 6395              		.thumb
 6396              		.thumb_func
 6397              		.type	SmartMotorMonitorPtc, %function
 6398              	SmartMotorMonitorPtc:
 6399              	.LFB103:
 6400              		.loc 1 1278 0
 6401              		.cfi_startproc
 6402              		@ args = 0, pretend = 0, frame = 0
 6403              		@ frame_needed = 0, uses_anonymous_args = 0
 6404              	.LVL482:
 6405 0000 38B5     		push	{r3, r4, r5, lr}
 6406              	.LCFI25:
 6407              		.cfi_def_cfa_offset 16
 6408              		.cfi_offset 14, -4
 6409              		.cfi_offset 5, -8
 6410              		.cfi_offset 4, -12
 6411              		.cfi_offset 3, -16
 6412              		.loc 1 1279 0
 6413 0002 B0F97430 		ldrsh	r3, [r0, #116]
 6414              		.loc 1 1278 0
 6415 0006 0446     		mov	r4, r0
 6416 0008 0D46     		mov	r5, r1
 6417              		.loc 1 1280 0
 6418 000a 406E     		ldr	r0, [r0, #100]	@ float
 6419              	.LVL483:
ARM GAS  /tmp/ccdUEzgz.s 			page 114


 6420 000c 0021     		movs	r1, #0
 6421              	.LVL484:
 6422              		.loc 1 1279 0
 6423 000e 7BB9     		cbnz	r3, .L566
 6424              		.loc 1 1280 0
 6425 0010 C4F2C821 		movt	r1, 17096
 6426 0014 FFF7FEFF 		bl	__aeabi_fcmpgt
 6427 0018 A0B9     		cbnz	r0, .L575
 6428              	.L567:
 6429              		.loc 1 1291 0
 6430 001a A368     		ldr	r3, [r4, #8]
 6431 001c 13B1     		cbz	r3, .L570
 6432              		.loc 1 1293 0
 6433 001e B3F93020 		ldrsh	r2, [r3, #48]
 6434 0022 22B9     		cbnz	r2, .L565
 6435              	.L570:
 6436              		.loc 1 1298 0
 6437 0024 B4F97430 		ldrsh	r3, [r4, #116]
 6438 0028 83B9     		cbnz	r3, .L576
 6439              		.loc 1 1309 0
 6440 002a FF20     		movs	r0, #255
 6441 002c A082     		strh	r0, [r4, #20]	@ movhi
 6442              	.L565:
 6443 002e 38BD     		pop	{r3, r4, r5, pc}
 6444              	.L566:
 6445              		.loc 1 1285 0
 6446 0030 C4F2B421 		movt	r1, 17076
 6447 0034 FFF7FEFF 		bl	__aeabi_fcmplt
 6448 0038 0028     		cmp	r0, #0
 6449 003a EED0     		beq	.L567
 6450              		.loc 1 1286 0
 6451 003c 0021     		movs	r1, #0
 6452 003e A4F87410 		strh	r1, [r4, #116]	@ movhi
 6453 0042 EAE7     		b	.L567
 6454              	.L575:
 6455              		.loc 1 1281 0
 6456 0044 0120     		movs	r0, #1
 6457 0046 A4F87400 		strh	r0, [r4, #116]	@ movhi
 6458 004a E6E7     		b	.L567
 6459              	.L576:
 6460              		.loc 1 1302 0
 6461 004c E16D     		ldr	r1, [r4, #92]	@ float
 6462              		.loc 1 1304 0
 6463 004e 2046     		mov	r0, r4
 6464              		.loc 1 1302 0
 6465 0050 2166     		str	r1, [r4, #96]	@ float
 6466              		.loc 1 1304 0
 6467 0052 2946     		mov	r1, r5
 6468 0054 FFF7FEFF 		bl	SmartMotorSafeCommand
 6469 0058 A082     		strh	r0, [r4, #20]	@ movhi
 6470 005a 38BD     		pop	{r3, r4, r5, pc}
 6471              		.cfi_endproc
 6472              	.LFE103:
 6473              		.size	SmartMotorMonitorPtc, .-SmartMotorMonitorPtc
 6474              		.global	__aeabi_dcmpgt
 6475 005c AFF30080 		.section	.text.SmartMotorControllerMonitorPtc,"ax",%progbits
 6476              		.align	2
ARM GAS  /tmp/ccdUEzgz.s 			page 115


 6477              		.p2align 4,,15
 6478              		.global	SmartMotorControllerMonitorPtc
 6479              		.thumb
 6480              		.thumb_func
 6481              		.type	SmartMotorControllerMonitorPtc, %function
 6482              	SmartMotorControllerMonitorPtc:
 6483              	.LFB104:
 6484              		.loc 1 1327 0
 6485              		.cfi_startproc
 6486              		@ args = 0, pretend = 0, frame = 0
 6487              		@ frame_needed = 0, uses_anonymous_args = 0
 6488              	.LVL485:
 6489              		.loc 1 1331 0
 6490 0000 B0F93030 		ldrsh	r3, [r0, #48]
 6491              		.loc 1 1327 0
 6492 0004 2DE9F041 		push	{r4, r5, r6, r7, r8, lr}
 6493              	.LCFI26:
 6494              		.cfi_def_cfa_offset 24
 6495              		.cfi_offset 14, -4
 6496              		.cfi_offset 8, -8
 6497              		.cfi_offset 7, -12
 6498              		.cfi_offset 6, -16
 6499              		.cfi_offset 5, -20
 6500              		.cfi_offset 4, -24
 6501              		.loc 1 1327 0
 6502 0008 0446     		mov	r4, r0
 6503 000a 0F46     		mov	r7, r1
 6504              		.loc 1 1332 0
 6505 000c 006A     		ldr	r0, [r0, #32]	@ float
 6506              	.LVL486:
 6507 000e 0021     		movs	r1, #0
 6508              	.LVL487:
 6509              		.loc 1 1331 0
 6510 0010 002B     		cmp	r3, #0
 6511 0012 40F0B880 		bne	.L578
 6512              		.loc 1 1332 0
 6513 0016 C4F2C821 		movt	r1, 17096
 6514 001a FFF7FEFF 		bl	__aeabi_fcmpgt
 6515 001e 0028     		cmp	r0, #0
 6516 0020 00F0AF80 		beq	.L577
 6517              		.loc 1 1333 0
 6518 0024 0120     		movs	r0, #1
 6519 0026 2086     		strh	r0, [r4, #48]	@ movhi
 6520              	.L581:
 6521              	.LVL488:
 6522              	.LBB234:
 6523              		.loc 1 1351 0
 6524 0028 2668     		ldr	r6, [r4, #0]
 6525              	.LVL489:
 6526              		.loc 1 1352 0
 6527 002a B046     		mov	r8, r6
 6528 002c 76B1     		cbz	r6, .L583
 6529              		.loc 1 1354 0
 6530 002e 326D     		ldr	r2, [r6, #80]
 6531 0030 22F00040 		bic	r0, r2, #-2147483648
 6532 0034 FFF7FEFF 		bl	__aeabi_f2d
 6533              	.LVL490:
ARM GAS  /tmp/ccdUEzgz.s 			page 116


 6534 0038 69A3     		adr	r3, .L624
 6535 003a D3E90023 		ldrd	r2, [r3]
 6536 003e FFF7FEFF 		bl	__aeabi_dcmpgt
 6537 0042 10F10008 		adds	r8, r0, #0
 6538 0046 18BF     		it	ne
 6539 0048 4FF00108 		movne	r8, #1
 6540              	.L583:
 6541              	.LVL491:
 6542              		.loc 1 1351 0
 6543 004c 6568     		ldr	r5, [r4, #4]
 6544              	.LVL492:
 6545              		.loc 1 1352 0
 6546 004e 65B1     		cbz	r5, .L585
 6547              		.loc 1 1354 0
 6548 0050 2B6D     		ldr	r3, [r5, #80]
 6549 0052 23F00040 		bic	r0, r3, #-2147483648
 6550 0056 FFF7FEFF 		bl	__aeabi_f2d
 6551              	.LVL493:
 6552 005a 61A3     		adr	r3, .L624
 6553 005c D3E90023 		ldrd	r2, [r3]
 6554 0060 FFF7FEFF 		bl	__aeabi_dcmpgt
 6555 0064 0028     		cmp	r0, #0
 6556 0066 40F0A580 		bne	.L620
 6557              	.L585:
 6558              	.LVL494:
 6559              		.loc 1 1351 0
 6560 006a A368     		ldr	r3, [r4, #8]
 6561              	.LVL495:
 6562              		.loc 1 1352 0
 6563 006c 63B1     		cbz	r3, .L587
 6564              		.loc 1 1354 0
 6565 006e 186D     		ldr	r0, [r3, #80]
 6566 0070 20F00040 		bic	r0, r0, #-2147483648
 6567 0074 FFF7FEFF 		bl	__aeabi_f2d
 6568              	.LVL496:
 6569 0078 59A3     		adr	r3, .L624
 6570 007a D3E90023 		ldrd	r2, [r3]
 6571 007e FFF7FEFF 		bl	__aeabi_dcmpgt
 6572 0082 0028     		cmp	r0, #0
 6573 0084 40F09380 		bne	.L621
 6574              	.L587:
 6575              	.LVL497:
 6576              		.loc 1 1351 0
 6577 0088 E368     		ldr	r3, [r4, #12]
 6578              	.LVL498:
 6579              		.loc 1 1352 0
 6580 008a 63B1     		cbz	r3, .L589
 6581              		.loc 1 1354 0
 6582 008c 196D     		ldr	r1, [r3, #80]
 6583 008e 21F00040 		bic	r0, r1, #-2147483648
 6584 0092 FFF7FEFF 		bl	__aeabi_f2d
 6585              	.LVL499:
 6586 0096 52A3     		adr	r3, .L624
 6587 0098 D3E90023 		ldrd	r2, [r3]
 6588 009c FFF7FEFF 		bl	__aeabi_dcmpgt
 6589 00a0 0028     		cmp	r0, #0
 6590 00a2 40F08180 		bne	.L622
ARM GAS  /tmp/ccdUEzgz.s 			page 117


 6591              	.L589:
 6592              	.LVL500:
 6593              		.loc 1 1351 0
 6594 00a6 2369     		ldr	r3, [r4, #16]
 6595              	.LVL501:
 6596              		.loc 1 1352 0
 6597 00a8 5BB1     		cbz	r3, .L591
 6598              		.loc 1 1354 0
 6599 00aa 1A6D     		ldr	r2, [r3, #80]
 6600 00ac 22F00040 		bic	r0, r2, #-2147483648
 6601 00b0 FFF7FEFF 		bl	__aeabi_f2d
 6602              	.LVL502:
 6603 00b4 4AA3     		adr	r3, .L624
 6604 00b6 D3E90023 		ldrd	r2, [r3]
 6605 00ba FFF7FEFF 		bl	__aeabi_dcmpgt
 6606 00be 0028     		cmp	r0, #0
 6607 00c0 7BD1     		bne	.L623
 6608              	.L591:
 6609              	.LVL503:
 6610              		.loc 1 1360 0
 6611 00c2 4FF07E51 		mov	r1, #1065353216
 6612 00c6 B8F1000F 		cmp	r8, #0
 6613 00ca 78D1     		bne	.L593
 6614              	.L594:
 6615              	.LVL504:
 6616              		.loc 1 1364 0
 6617 00cc E069     		ldr	r0, [r4, #28]	@ float
 6618 00ce FFF7FEFF 		bl	__aeabi_fdiv
 6619 00d2 8046     		mov	r8, r0
 6620              	.LVL505:
 6621              		.loc 1 1369 0
 6622 00d4 5EB1     		cbz	r6, .L595
 6623              		.loc 1 1374 0
 6624 00d6 B6F97450 		ldrsh	r5, [r6, #116]
 6625 00da 002D     		cmp	r5, #0
 6626 00dc 74D1     		bne	.L596
 6627              		.loc 1 1377 0
 6628 00de 0546     		mov	r5, r0
 6629              	.LVL506:
 6630              	.L597:
 6631              		.loc 1 1374 0
 6632 00e0 3566     		str	r5, [r6, #96]	@ float
 6633              		.loc 1 1379 0
 6634 00e2 3046     		mov	r0, r6
 6635 00e4 3946     		mov	r1, r7
 6636 00e6 FFF7FEFF 		bl	SmartMotorSafeCommand
 6637 00ea 6568     		ldr	r5, [r4, #4]
 6638 00ec B082     		strh	r0, [r6, #20]	@ movhi
 6639              	.L595:
 6640              	.LVL507:
 6641              		.loc 1 1369 0
 6642 00ee 85B1     		cbz	r5, .L598
 6643              		.loc 1 1374 0
 6644 00f0 B5F97460 		ldrsh	r6, [r5, #116]
 6645 00f4 002E     		cmp	r6, #0
 6646 00f6 55D0     		beq	.L617
 6647 00f8 EE6D     		ldr	r6, [r5, #92]	@ float
ARM GAS  /tmp/ccdUEzgz.s 			page 118


 6648 00fa 4146     		mov	r1, r8
 6649 00fc 3046     		mov	r0, r6
 6650 00fe FFF7FEFF 		bl	__aeabi_fcmplt
 6651 0102 0028     		cmp	r0, #0
 6652 0104 4ED0     		beq	.L617
 6653              	.L600:
 6654 0106 2E66     		str	r6, [r5, #96]	@ float
 6655              		.loc 1 1379 0
 6656 0108 2846     		mov	r0, r5
 6657 010a 3946     		mov	r1, r7
 6658 010c FFF7FEFF 		bl	SmartMotorSafeCommand
 6659 0110 A882     		strh	r0, [r5, #20]	@ movhi
 6660              	.L598:
 6661              	.LVL508:
 6662              		.loc 1 1368 0
 6663 0112 A568     		ldr	r5, [r4, #8]
 6664              	.LVL509:
 6665              		.loc 1 1369 0
 6666 0114 85B1     		cbz	r5, .L601
 6667              		.loc 1 1374 0
 6668 0116 B5F97430 		ldrsh	r3, [r5, #116]
 6669 011a 002B     		cmp	r3, #0
 6670 011c 3ED0     		beq	.L618
 6671 011e EE6D     		ldr	r6, [r5, #92]	@ float
 6672 0120 4146     		mov	r1, r8
 6673 0122 3046     		mov	r0, r6
 6674 0124 FFF7FEFF 		bl	__aeabi_fcmplt
 6675              	.LVL510:
 6676 0128 0028     		cmp	r0, #0
 6677 012a 37D0     		beq	.L618
 6678              	.L603:
 6679 012c 2E66     		str	r6, [r5, #96]	@ float
 6680              		.loc 1 1379 0
 6681 012e 2846     		mov	r0, r5
 6682 0130 3946     		mov	r1, r7
 6683 0132 FFF7FEFF 		bl	SmartMotorSafeCommand
 6684 0136 A882     		strh	r0, [r5, #20]	@ movhi
 6685              	.L601:
 6686              	.LVL511:
 6687              		.loc 1 1368 0
 6688 0138 E568     		ldr	r5, [r4, #12]
 6689              	.LVL512:
 6690              		.loc 1 1369 0
 6691 013a 7DB1     		cbz	r5, .L604
 6692              		.loc 1 1374 0
 6693 013c B5F97400 		ldrsh	r0, [r5, #116]
 6694 0140 0028     		cmp	r0, #0
 6695 0142 2DD0     		beq	.L619
 6696 0144 EE6D     		ldr	r6, [r5, #92]	@ float
 6697 0146 4146     		mov	r1, r8
 6698 0148 3046     		mov	r0, r6
 6699 014a FFF7FEFF 		bl	__aeabi_fcmplt
 6700              	.LVL513:
 6701 014e 38B3     		cbz	r0, .L619
 6702              	.L606:
 6703 0150 2E66     		str	r6, [r5, #96]	@ float
 6704              		.loc 1 1379 0
ARM GAS  /tmp/ccdUEzgz.s 			page 119


 6705 0152 2846     		mov	r0, r5
 6706 0154 3946     		mov	r1, r7
 6707 0156 FFF7FEFF 		bl	SmartMotorSafeCommand
 6708 015a A882     		strh	r0, [r5, #20]	@ movhi
 6709              	.L604:
 6710              	.LVL514:
 6711              		.loc 1 1368 0
 6712 015c 2469     		ldr	r4, [r4, #16]
 6713              	.LVL515:
 6714              		.loc 1 1369 0
 6715 015e 84B1     		cbz	r4, .L577
 6716              		.loc 1 1374 0
 6717 0160 B4F97410 		ldrsh	r1, [r4, #116]
 6718 0164 31B1     		cbz	r1, .L607
 6719              		.loc 1 1374 0 is_stmt 0 discriminator 1
 6720 0166 E56D     		ldr	r5, [r4, #92]	@ float
 6721 0168 4146     		mov	r1, r8
 6722 016a 2846     		mov	r0, r5
 6723 016c FFF7FEFF 		bl	__aeabi_fcmplt
 6724 0170 00B1     		cbz	r0, .L607
 6725              		.loc 1 1374 0
 6726 0172 A846     		mov	r8, r5
 6727              	.LVL516:
 6728              	.L607:
 6729 0174 C4F86080 		str	r8, [r4, #96]	@ float
 6730              		.loc 1 1379 0 is_stmt 1
 6731 0178 2046     		mov	r0, r4
 6732 017a 3946     		mov	r1, r7
 6733 017c FFF7FEFF 		bl	SmartMotorSafeCommand
 6734 0180 A082     		strh	r0, [r4, #20]	@ movhi
 6735              	.LVL517:
 6736              	.L577:
 6737 0182 BDE8F081 		pop	{r4, r5, r6, r7, r8, pc}
 6738              	.LVL518:
 6739              	.L578:
 6740              	.LBE234:
 6741              		.loc 1 1337 0
 6742 0186 C4F2B421 		movt	r1, 17076
 6743 018a FFF7FEFF 		bl	__aeabi_fcmplt
 6744 018e 0028     		cmp	r0, #0
 6745 0190 3FF44AAF 		beq	.L581
 6746              		.loc 1 1338 0
 6747 0194 0021     		movs	r1, #0
 6748 0196 2186     		strh	r1, [r4, #48]	@ movhi
 6749 0198 BDE8F081 		pop	{r4, r5, r6, r7, r8, pc}
 6750              	.LVL519:
 6751              	.L618:
 6752              	.LBB235:
 6753              		.loc 1 1377 0
 6754 019c 4646     		mov	r6, r8
 6755 019e C5E7     		b	.L603
 6756              	.LVL520:
 6757              	.L619:
 6758 01a0 4646     		mov	r6, r8
 6759 01a2 D5E7     		b	.L606
 6760              	.LVL521:
 6761              	.L617:
ARM GAS  /tmp/ccdUEzgz.s 			page 120


 6762 01a4 4646     		mov	r6, r8
 6763 01a6 AEE7     		b	.L600
 6764              	.LVL522:
 6765              	.L622:
 6766              		.loc 1 1355 0
 6767 01a8 08F10108 		add	r8, r8, #1
 6768              	.LVL523:
 6769 01ac 7BE7     		b	.L589
 6770              	.LVL524:
 6771              	.L621:
 6772 01ae 08F10108 		add	r8, r8, #1
 6773              	.LVL525:
 6774 01b2 69E7     		b	.L587
 6775              	.LVL526:
 6776              	.L620:
 6777 01b4 08F10108 		add	r8, r8, #1
 6778              	.LVL527:
 6779 01b8 57E7     		b	.L585
 6780              	.LVL528:
 6781              	.L623:
 6782 01ba 08F10108 		add	r8, r8, #1
 6783              	.LVL529:
 6784              	.L593:
 6785              		.loc 1 1360 0
 6786 01be 4046     		mov	r0, r8
 6787 01c0 FFF7FEFF 		bl	__aeabi_i2f
 6788 01c4 0146     		mov	r1, r0
 6789 01c6 81E7     		b	.L594
 6790              	.LVL530:
 6791              	.L596:
 6792              		.loc 1 1374 0
 6793 01c8 F56D     		ldr	r5, [r6, #92]	@ float
 6794 01ca 0146     		mov	r1, r0
 6795 01cc 2846     		mov	r0, r5
 6796              	.LVL531:
 6797 01ce FFF7FEFF 		bl	__aeabi_fcmplt
 6798 01d2 0028     		cmp	r0, #0
 6799 01d4 84D1     		bne	.L597
 6800              		.loc 1 1377 0
 6801 01d6 4546     		mov	r5, r8
 6802 01d8 82E7     		b	.L597
 6803              	.L625:
 6804 01da 00BFAFF3 		.align	3
 6804      0080
 6805              	.L624:
 6806 01e0 9A999999 		.word	-1717986918
 6807 01e4 9999B93F 		.word	1069128089
 6808              	.LBE235:
 6809              		.cfi_endproc
 6810              	.LFE104:
 6811              		.size	SmartMotorControllerMonitorPtc, .-SmartMotorControllerMonitorPtc
 6812              		.global	__aeabi_dcmplt
 6813 01e8 AFF30080 		.section	.text.SmartMotorMonitorCurrent,"ax",%progbits
 6813      AFF30080 
 6814              		.align	2
 6815              		.p2align 4,,15
 6816              		.global	SmartMotorMonitorCurrent
ARM GAS  /tmp/ccdUEzgz.s 			page 121


 6817              		.thumb
 6818              		.thumb_func
 6819              		.type	SmartMotorMonitorCurrent, %function
 6820              	SmartMotorMonitorCurrent:
 6821              	.LFB105:
 6822              		.loc 1 1394 0
 6823              		.cfi_startproc
 6824              		@ args = 0, pretend = 0, frame = 0
 6825              		@ frame_needed = 0, uses_anonymous_args = 0
 6826              	.LVL532:
 6827 0000 2DE9F041 		push	{r4, r5, r6, r7, r8, lr}
 6828              	.LCFI27:
 6829              		.cfi_def_cfa_offset 24
 6830              		.cfi_offset 14, -4
 6831              		.cfi_offset 8, -8
 6832              		.cfi_offset 7, -12
 6833              		.cfi_offset 6, -16
 6834              		.cfi_offset 5, -20
 6835              		.cfi_offset 4, -24
 6836              		.loc 1 1401 0
 6837 0004 B0F91230 		ldrsh	r3, [r0, #18]
 6838              		.loc 1 1395 0
 6839 0008 D0F81880 		ldr	r8, [r0, #24]	@ float
 6840              		.loc 1 1394 0
 6841 000c 0446     		mov	r4, r0
 6842 000e 0D46     		mov	r5, r1
 6843              		.loc 1 1395 0
 6844 0010 C0F86080 		str	r8, [r0, #96]	@ float
 6845              		.loc 1 1401 0
 6846 0014 7BB9     		cbnz	r3, .L627
 6847              		.loc 1 1402 0
 6848 0016 416D     		ldr	r1, [r0, #84]
 6849              	.LVL533:
 6850 0018 4046     		mov	r0, r8
 6851              	.LVL534:
 6852 001a 21F00041 		bic	r1, r1, #-2147483648
 6853 001e FFF7FEFF 		bl	__aeabi_fcmplt
 6854 0022 08B3     		cbz	r0, .L628
 6855              		.loc 1 1403 0
 6856 0024 0120     		movs	r0, #1
 6857 0026 6082     		strh	r0, [r4, #18]	@ movhi
 6858              	.L630:
 6859              		.loc 1 1412 0
 6860 0028 2046     		mov	r0, r4
 6861 002a 2946     		mov	r1, r5
 6862 002c FFF7FEFF 		bl	SmartMotorSafeCommand
 6863 0030 A082     		strh	r0, [r4, #20]	@ movhi
 6864 0032 BDE8F081 		pop	{r4, r5, r6, r7, r8, pc}
 6865              	.L627:
 6866              		.loc 1 1406 0
 6867 0036 406D     		ldr	r0, [r0, #84]
 6868 0038 20F00040 		bic	r0, r0, #-2147483648
 6869 003c FFF7FEFF 		bl	__aeabi_f2d
 6870 0040 0646     		mov	r6, r0
 6871 0042 4046     		mov	r0, r8
 6872 0044 0F46     		mov	r7, r1
 6873 0046 FFF7FEFF 		bl	__aeabi_f2d
ARM GAS  /tmp/ccdUEzgz.s 			page 122


 6874 004a 09A3     		adr	r3, .L635
 6875 004c D3E90023 		ldrd	r2, [r3]
 6876 0050 FFF7FEFF 		bl	__aeabi_dmul
 6877 0054 0246     		mov	r2, r0
 6878 0056 0B46     		mov	r3, r1
 6879 0058 3046     		mov	r0, r6
 6880 005a 3946     		mov	r1, r7
 6881 005c FFF7FEFF 		bl	__aeabi_dcmplt
 6882 0060 0028     		cmp	r0, #0
 6883 0062 E1D0     		beq	.L630
 6884              		.loc 1 1407 0
 6885 0064 0022     		movs	r2, #0
 6886 0066 6282     		strh	r2, [r4, #18]	@ movhi
 6887              	.L628:
 6888              		.loc 1 1414 0
 6889 0068 FF23     		movs	r3, #255
 6890 006a A382     		strh	r3, [r4, #20]	@ movhi
 6891 006c BDE8F081 		pop	{r4, r5, r6, r7, r8, pc}
 6892              	.L636:
 6893              		.align	3
 6894              	.L635:
 6895 0070 CDCCCCCC 		.word	-858993459
 6896 0074 CCCCEC3F 		.word	1072483532
 6897              		.cfi_endproc
 6898              	.LFE105:
 6899              		.size	SmartMotorMonitorCurrent, .-SmartMotorMonitorCurrent
 6900 0078 AFF30080 		.section	.text.SmartMotorControllerSetLed,"ax",%progbits
 6900      AFF30080 
 6901              		.align	2
 6902              		.p2align 4,,15
 6903              		.global	SmartMotorControllerSetLed
 6904              		.thumb
 6905              		.thumb_func
 6906              		.type	SmartMotorControllerSetLed, %function
 6907              	SmartMotorControllerSetLed:
 6908              	.LFB106:
 6909              		.loc 1 1433 0
 6910              		.cfi_startproc
 6911              		@ args = 0, pretend = 0, frame = 0
 6912              		@ frame_needed = 0, uses_anonymous_args = 0
 6913              		@ link register save eliminated.
 6914              	.LVL535:
 6915              		.loc 1 1438 0
 6916 0000 90F93210 		ldrsb	r1, [r0, #50]
 6917              		.loc 1 1433 0
 6918 0004 10B4     		push	{r4}
 6919              	.LCFI28:
 6920              		.cfi_def_cfa_offset 4
 6921              		.cfi_offset 4, -4
 6922              		.loc 1 1438 0
 6923 0006 0029     		cmp	r1, #0
 6924 0008 2FDB     		blt	.L637
 6925              		.loc 1 1445 0
 6926 000a 0268     		ldr	r2, [r0, #0]
 6927              		.loc 1 1441 0
 6928 000c B0F93030 		ldrsh	r3, [r0, #48]
 6929              	.LVL536:
ARM GAS  /tmp/ccdUEzgz.s 			page 123


 6930              		.loc 1 1447 0
 6931 0010 32B1     		cbz	r2, .L639
 6932              		.loc 1 1448 0
 6933 0012 B2F97440 		ldrsh	r4, [r2, #116]
 6934 0016 B2F912C0 		ldrsh	ip, [r2, #18]
 6935 001a 04EB0C02 		add	r2, r4, ip
 6936 001e 9B18     		adds	r3, r3, r2
 6937              	.LVL537:
 6938              	.L639:
 6939              		.loc 1 1445 0
 6940 0020 4268     		ldr	r2, [r0, #4]
 6941              	.LVL538:
 6942              		.loc 1 1447 0
 6943 0022 32B1     		cbz	r2, .L640
 6944              		.loc 1 1448 0
 6945 0024 B2F97440 		ldrsh	r4, [r2, #116]
 6946 0028 B2F912C0 		ldrsh	ip, [r2, #18]
 6947 002c 04EB0C02 		add	r2, r4, ip
 6948 0030 9B18     		adds	r3, r3, r2
 6949              	.LVL539:
 6950              	.L640:
 6951              		.loc 1 1445 0
 6952 0032 8268     		ldr	r2, [r0, #8]
 6953              	.LVL540:
 6954              		.loc 1 1447 0
 6955 0034 32B1     		cbz	r2, .L641
 6956              		.loc 1 1448 0
 6957 0036 B2F97440 		ldrsh	r4, [r2, #116]
 6958 003a B2F912C0 		ldrsh	ip, [r2, #18]
 6959 003e 04EB0C02 		add	r2, r4, ip
 6960 0042 9B18     		adds	r3, r3, r2
 6961              	.LVL541:
 6962              	.L641:
 6963              		.loc 1 1445 0
 6964 0044 C268     		ldr	r2, [r0, #12]
 6965              	.LVL542:
 6966              		.loc 1 1447 0
 6967 0046 32B1     		cbz	r2, .L642
 6968              		.loc 1 1448 0
 6969 0048 B2F97440 		ldrsh	r4, [r2, #116]
 6970 004c B2F912C0 		ldrsh	ip, [r2, #18]
 6971 0050 04EB0C02 		add	r2, r4, ip
 6972 0054 9B18     		adds	r3, r3, r2
 6973              	.LVL543:
 6974              	.L642:
 6975              		.loc 1 1445 0
 6976 0056 0269     		ldr	r2, [r0, #16]
 6977              	.LVL544:
 6978              		.loc 1 1447 0
 6979 0058 32B1     		cbz	r2, .L643
 6980              		.loc 1 1448 0
 6981 005a B2F974C0 		ldrsh	ip, [r2, #116]
 6982 005e B2F91220 		ldrsh	r2, [r2, #18]
 6983 0062 0CEB0200 		add	r0, ip, r2
 6984              	.LVL545:
 6985 0066 1B18     		adds	r3, r3, r0
 6986              	.LVL546:
ARM GAS  /tmp/ccdUEzgz.s 			page 124


 6987              	.L643:
 6988              		.loc 1 1451 0
 6989 0068 0BB9     		cbnz	r3, .L644
 6990              	.LVL547:
 6991              	.L637:
 6992              		.loc 1 1453 0
 6993 006a 10BC     		pop	{r4}
 6994 006c 7047     		bx	lr
 6995              	.LVL548:
 6996              	.L644:
 6997              		.loc 1 1452 0
 6998 006e 0846     		mov	r0, r1
 6999 0070 0021     		movs	r1, #0
 7000              		.loc 1 1453 0
 7001 0072 10BC     		pop	{r4}
 7002              		.loc 1 1452 0
 7003 0074 FFF7FEBF 		b	vexDigitalPinSet
 7004              	.LVL549:
 7005              		.cfi_endproc
 7006              	.LFE106:
 7007              		.size	SmartMotorControllerSetLed, .-SmartMotorControllerSetLed
 7008 0078 AFF30080 		.section	.text.SmartMotorTask,"ax",%progbits
 7008      AFF30080 
 7009              		.align	2
 7010              		.p2align 4,,15
 7011              		.global	SmartMotorTask
 7012              		.thumb
 7013              		.thumb_func
 7014              		.type	SmartMotorTask, %function
 7015              	SmartMotorTask:
 7016              	.LFB107:
 7017              		.loc 1 1466 0
 7018              		.cfi_startproc
 7019              		@ args = 0, pretend = 0, frame = 24
 7020              		@ frame_needed = 0, uses_anonymous_args = 0
 7021              	.LVL550:
 7022 0000 2DE9F04F 		push	{r4, r5, r6, r7, r8, r9, sl, fp, lr}
 7023              	.LCFI29:
 7024              		.cfi_def_cfa_offset 36
 7025              		.cfi_offset 14, -4
 7026              		.cfi_offset 11, -8
 7027              		.cfi_offset 10, -12
 7028              		.cfi_offset 9, -16
 7029              		.cfi_offset 8, -20
 7030              		.cfi_offset 7, -24
 7031              		.cfi_offset 6, -28
 7032              		.cfi_offset 5, -32
 7033              		.cfi_offset 4, -36
 7034              		.loc 1 1476 0
 7035 0004 40F20000 		movw	r0, #:lower16:.LC9
 7036              	.LVL551:
 7037              		.loc 1 1478 0
 7038 0008 40F20007 		movw	r7, #:lower16:rlist
 7039              		.loc 1 1476 0
 7040 000c 0121     		movs	r1, #1
 7041              		.loc 1 1466 0
 7042 000e 87B0     		sub	sp, sp, #28
ARM GAS  /tmp/ccdUEzgz.s 			page 125


 7043              	.LCFI30:
 7044              		.cfi_def_cfa_offset 64
 7045              		.loc 1 1476 0
 7046 0010 C0F20000 		movt	r0, #:upper16:.LC9
 7047              		.loc 1 1478 0
 7048 0014 C0F20007 		movt	r7, #:upper16:rlist
 7049              		.loc 1 1476 0
 7050 0018 FFF7FEFF 		bl	vexTaskRegisterPersistant
 7051              		.loc 1 1478 0
 7052 001c BB69     		ldr	r3, [r7, #24]
 7053 001e 5D7F     		ldrb	r5, [r3, #29]	@ zero_extendqisi2
 7054 0020 15F00405 		ands	r5, r5, #4
 7055 0024 40F06381 		bne	.L646
 7056 0028 40F20002 		movw	r2, #:lower16:.LANCHOR0
 7057              	.LBB236:
 7058              		.loc 1 1509 0
 7059 002c 40F20000 		movw	r0, #:lower16:.LANCHOR2
 7060 0030 40F20008 		movw	r8, #:lower16:vtlist
 7061 0034 40F20006 		movw	r6, #:lower16:.LANCHOR5
 7062 0038 C0F20002 		movt	r2, #:upper16:.LANCHOR0
 7063 003c C0F20000 		movt	r0, #:upper16:.LANCHOR2
 7064 0040 0392     		str	r2, [sp, #12]
 7065 0042 C0F20008 		movt	r8, #:upper16:vtlist
 7066 0046 C0F20006 		movt	r6, #:upper16:.LANCHOR5
 7067 004a 0290     		str	r0, [sp, #8]
 7068 004c 07E0     		b	.L663
 7069              	.LVL552:
 7070              	.L652:
 7071              		.loc 1 1574 0
 7072 004e 0A20     		movs	r0, #10
 7073 0050 FFF7FEFF 		bl	vexSleep
 7074              	.LBE236:
 7075              		.loc 1 1478 0
 7076 0054 B969     		ldr	r1, [r7, #24]
 7077 0056 487F     		ldrb	r0, [r1, #29]	@ zero_extendqisi2
 7078 0058 4307     		lsls	r3, r0, #29
 7079 005a 00F14881 		bmi	.L646
 7080              	.LVL553:
 7081              	.L663:
 7082              	.LBB267:
 7083              		.loc 1 1485 0
 7084 005e FFF7FEFF 		bl	vexSpiGetMainBattery
 7085 0062 FFF7FEFF 		bl	__aeabi_i2d
 7086 0066 ACA3     		adr	r3, .L676
 7087 0068 D3E90023 		ldrd	r2, [r3]
 7088 006c FFF7FEFF 		bl	__aeabi_ddiv
 7089 0070 FFF7FEFF 		bl	__aeabi_d2f
 7090              		.loc 1 1487 0
 7091 0074 6C01     		lsls	r4, r5, #5
 7092 0076 039A     		ldr	r2, [sp, #12]
 7093 0078 641B     		subs	r4, r4, r5
 7094 007a 02EB8404 		add	r4, r2, r4, lsl #2
 7095              		.loc 1 1490 0
 7096 007e A16F     		ldr	r1, [r4, #120]
 7097              		.loc 1 1485 0
 7098 0080 8146     		mov	r9, r0
 7099              	.LVL554:
ARM GAS  /tmp/ccdUEzgz.s 			page 126


 7100              		.loc 1 1490 0
 7101 0082 D8F80C00 		ldr	r0, [r8, #12]
 7102              	.LVL555:
 7103              		.loc 1 1495 0
 7104 0086 A378     		ldrb	r3, [r4, #2]	@ zero_extendqisi2
 7105              		.loc 1 1491 0
 7106 0088 D8F80C20 		ldr	r2, [r8, #12]
 7107              		.loc 1 1490 0
 7108 008c 411A     		subs	r1, r0, r1
 7109 008e 3160     		str	r1, [r6, #0]
 7110              		.loc 1 1491 0
 7111 0090 A267     		str	r2, [r4, #120]
 7112              		.loc 1 1492 0
 7113 0092 A180     		strh	r1, [r4, #4]	@ movhi
 7114              		.loc 1 1495 0
 7115 0094 002B     		cmp	r3, #0
 7116 0096 43D0     		beq	.L647
 7117              		.loc 1 1497 0
 7118 0098 A08B     		ldrh	r0, [r4, #28]
 7119 009a 03B2     		sxth	r3, r0
 7120 009c 002B     		cmp	r3, #0
 7121 009e C0F29081 		blt	.L648
 7122              		.loc 1 1499 0
 7123 00a2 B3F5006F 		cmp	r3, #2048
 7124 00a6 C0F23081 		blt	.L669
 7125              	.LVL556:
 7126              	.LBB237:
 7127              	.LBB238:
 7128              		.loc 1 1001 0
 7129 00aa 5FFA80FA 		uxtb	sl, r0
 7130 00ae BAF1070F 		cmp	sl, #7
 7131 00b2 40F23D81 		bls	.L670
 7132              	.LVL557:
 7133              	.L650:
 7134              	.LBE238:
 7135              	.LBE237:
 7136              		.loc 1 1507 0
 7137 00b6 4946     		mov	r1, r9
 7138 00b8 2046     		mov	r0, r4
 7139 00ba FFF7FEFF 		bl	SmartMotorCurrent
 7140              	.LVL558:
 7141              	.LBB240:
 7142              	.LBB241:
 7143              		.loc 1 1237 0
 7144 00be 206D     		ldr	r0, [r4, #80]	@ float
 7145 00c0 D4F864A0 		ldr	sl, [r4, #100]	@ float
 7146              	.LVL559:
 7147 00c4 0146     		mov	r1, r0
 7148 00c6 FFF7FEFF 		bl	__aeabi_fmul
 7149              	.LVL560:
 7150 00ca A16E     		ldr	r1, [r4, #104]	@ float
 7151 00cc FFF7FEFF 		bl	__aeabi_fmul
 7152 00d0 216F     		ldr	r1, [r4, #112]	@ float
 7153 00d2 8346     		mov	fp, r0
 7154 00d4 5046     		mov	r0, sl
 7155 00d6 FFF7FEFF 		bl	__aeabi_fsub
 7156 00da 0146     		mov	r1, r0
ARM GAS  /tmp/ccdUEzgz.s 			page 127


 7157 00dc 5846     		mov	r0, fp
 7158 00de FFF7FEFF 		bl	__aeabi_fsub
 7159 00e2 E16E     		ldr	r1, [r4, #108]	@ float
 7160 00e4 FFF7FEFF 		bl	__aeabi_fmul
 7161 00e8 8346     		mov	fp, r0
 7162              		.loc 1 1239 0
 7163 00ea 3068     		ldr	r0, [r6, #0]
 7164              	.LVL561:
 7165 00ec FFF7FEFF 		bl	__aeabi_i2f
 7166              	.LVL562:
 7167 00f0 0146     		mov	r1, r0
 7168 00f2 5846     		mov	r0, fp
 7169 00f4 FFF7FEFF 		bl	__aeabi_fmul
 7170 00f8 0146     		mov	r1, r0
 7171 00fa 5046     		mov	r0, sl
 7172 00fc FFF7FEFF 		bl	__aeabi_fadd
 7173              	.LBE241:
 7174              	.LBE240:
 7175              		.loc 1 1509 0
 7176 0100 0299     		ldr	r1, [sp, #8]
 7177              	.LBB243:
 7178              	.LBB242:
 7179              		.loc 1 1239 0
 7180 0102 6066     		str	r0, [r4, #100]	@ float
 7181              	.LBE242:
 7182              	.LBE243:
 7183              		.loc 1 1509 0
 7184 0104 B1F90020 		ldrsh	r2, [r1, #0]
 7185 0108 002A     		cmp	r2, #0
 7186 010a 40F0F980 		bne	.L671
 7187              	.L651:
 7188              		.loc 1 1511 0
 7189 010e 40F2000C 		movw	ip, #:lower16:.LANCHOR1
 7190 0112 C0F2000C 		movt	ip, #:upper16:.LANCHOR1
 7191 0116 BCF90000 		ldrsh	r0, [ip, #0]
 7192 011a 0028     		cmp	r0, #0
 7193 011c 40F0EB80 		bne	.L672
 7194              	.LVL563:
 7195              	.L647:
 7196              		.loc 1 1520 0
 7197 0120 0135     		adds	r5, r5, #1
 7198              	.LVL564:
 7199 0122 0A2D     		cmp	r5, #10
 7200 0124 93D1     		bne	.L652
 7201              	.LBB244:
 7202              	.LBB245:
 7203              		.loc 1 1529 0
 7204 0126 40F20004 		movw	r4, #:lower16:.LANCHOR3
 7205              	.LVL565:
 7206 012a C0F20004 		movt	r4, #:upper16:.LANCHOR3
 7207              	.LVL566:
 7208              		.loc 1 1531 0
 7209 012e 2046     		mov	r0, r4
 7210 0130 FFF7FEFF 		bl	SmartMotorControllerCurrent
 7211              	.LVL567:
 7212              	.LBB246:
 7213              	.LBB247:
ARM GAS  /tmp/ccdUEzgz.s 			page 128


 7214              		.loc 1 1258 0
 7215 0134 6069     		ldr	r0, [r4, #20]	@ float
 7216 0136 256A     		ldr	r5, [r4, #32]	@ float
 7217              	.LVL568:
 7218 0138 0146     		mov	r1, r0
 7219 013a FFF7FEFF 		bl	__aeabi_fmul
 7220              	.LVL569:
 7221 013e 616A     		ldr	r1, [r4, #36]	@ float
 7222 0140 FFF7FEFF 		bl	__aeabi_fmul
 7223 0144 E16A     		ldr	r1, [r4, #44]	@ float
 7224 0146 8246     		mov	sl, r0
 7225 0148 2846     		mov	r0, r5
 7226 014a FFF7FEFF 		bl	__aeabi_fsub
 7227 014e 0146     		mov	r1, r0
 7228 0150 5046     		mov	r0, sl
 7229 0152 FFF7FEFF 		bl	__aeabi_fsub
 7230 0156 A16A     		ldr	r1, [r4, #40]	@ float
 7231 0158 FFF7FEFF 		bl	__aeabi_fmul
 7232 015c 8246     		mov	sl, r0
 7233              		.loc 1 1260 0
 7234 015e 3068     		ldr	r0, [r6, #0]
 7235              	.LVL570:
 7236 0160 FFF7FEFF 		bl	__aeabi_i2f
 7237              	.LVL571:
 7238 0164 0146     		mov	r1, r0
 7239 0166 5046     		mov	r0, sl
 7240 0168 FFF7FEFF 		bl	__aeabi_fmul
 7241 016c 0146     		mov	r1, r0
 7242 016e 2846     		mov	r0, r5
 7243 0170 FFF7FEFF 		bl	__aeabi_fadd
 7244              	.LBE247:
 7245              	.LBE246:
 7246              		.loc 1 1534 0
 7247 0174 029B     		ldr	r3, [sp, #8]
 7248              	.LBB253:
 7249              	.LBB248:
 7250              		.loc 1 1260 0
 7251 0176 2062     		str	r0, [r4, #32]	@ float
 7252              	.LBE248:
 7253              	.LBE253:
 7254              		.loc 1 1534 0
 7255 0178 B3F90050 		ldrsh	r5, [r3, #0]
 7256 017c 002D     		cmp	r5, #0
 7257 017e 40F01B81 		bne	.L673
 7258              	.L653:
 7259              		.loc 1 1540 0
 7260 0182 94F93200 		ldrsb	r0, [r4, #50]
 7261 0186 0028     		cmp	r0, #0
 7262 0188 02DB     		blt	.L654
 7263              		.loc 1 1541 0
 7264 018a 0121     		movs	r1, #1
 7265 018c FFF7FEFF 		bl	vexDigitalPinSet
 7266              	.L654:
 7267              	.LVL572:
 7268              		.loc 1 1531 0
 7269 0190 6548     		ldr	r0, .L676+16
 7270 0192 FFF7FEFF 		bl	SmartMotorControllerCurrent
ARM GAS  /tmp/ccdUEzgz.s 			page 129


 7271              	.LVL573:
 7272              	.LBB254:
 7273              	.LBB249:
 7274              		.loc 1 1258 0
 7275 0196 A06C     		ldr	r0, [r4, #72]	@ float
 7276 0198 656D     		ldr	r5, [r4, #84]	@ float
 7277              	.LVL574:
 7278 019a 0146     		mov	r1, r0
 7279 019c FFF7FEFF 		bl	__aeabi_fmul
 7280              	.LVL575:
 7281 01a0 A16D     		ldr	r1, [r4, #88]	@ float
 7282 01a2 FFF7FEFF 		bl	__aeabi_fmul
 7283 01a6 216E     		ldr	r1, [r4, #96]	@ float
 7284 01a8 8246     		mov	sl, r0
 7285 01aa 2846     		mov	r0, r5
 7286 01ac FFF7FEFF 		bl	__aeabi_fsub
 7287 01b0 0146     		mov	r1, r0
 7288 01b2 5046     		mov	r0, sl
 7289 01b4 FFF7FEFF 		bl	__aeabi_fsub
 7290 01b8 E16D     		ldr	r1, [r4, #92]	@ float
 7291 01ba FFF7FEFF 		bl	__aeabi_fmul
 7292 01be 8246     		mov	sl, r0
 7293              		.loc 1 1260 0
 7294 01c0 3068     		ldr	r0, [r6, #0]
 7295              	.LVL576:
 7296 01c2 FFF7FEFF 		bl	__aeabi_i2f
 7297              	.LVL577:
 7298 01c6 0146     		mov	r1, r0
 7299 01c8 5046     		mov	r0, sl
 7300 01ca FFF7FEFF 		bl	__aeabi_fmul
 7301 01ce 0146     		mov	r1, r0
 7302 01d0 2846     		mov	r0, r5
 7303 01d2 FFF7FEFF 		bl	__aeabi_fadd
 7304              	.LBE249:
 7305              	.LBE254:
 7306              		.loc 1 1534 0
 7307 01d6 0299     		ldr	r1, [sp, #8]
 7308              	.LBB255:
 7309              	.LBB250:
 7310              		.loc 1 1260 0
 7311 01d8 6065     		str	r0, [r4, #84]	@ float
 7312              	.LBE250:
 7313              	.LBE255:
 7314              		.loc 1 1534 0
 7315 01da B1F90020 		ldrsh	r2, [r1, #0]
 7316 01de 002A     		cmp	r2, #0
 7317 01e0 40F0E580 		bne	.L674
 7318              	.L655:
 7319              		.loc 1 1540 0
 7320 01e4 94F96600 		ldrsb	r0, [r4, #102]
 7321 01e8 0028     		cmp	r0, #0
 7322 01ea 02DB     		blt	.L656
 7323              		.loc 1 1541 0
 7324 01ec 0121     		movs	r1, #1
 7325 01ee FFF7FEFF 		bl	vexDigitalPinSet
 7326              	.L656:
 7327              	.LVL578:
ARM GAS  /tmp/ccdUEzgz.s 			page 130


 7328              		.loc 1 1531 0
 7329 01f2 4E48     		ldr	r0, .L676+20
 7330 01f4 FFF7FEFF 		bl	SmartMotorControllerCurrent
 7331              	.LVL579:
 7332              	.LBB256:
 7333              	.LBB251:
 7334              		.loc 1 1258 0
 7335 01f8 E06F     		ldr	r0, [r4, #124]	@ float
 7336 01fa D4F88850 		ldr	r5, [r4, #136]	@ float
 7337              	.LVL580:
 7338 01fe 0146     		mov	r1, r0
 7339 0200 FFF7FEFF 		bl	__aeabi_fmul
 7340              	.LVL581:
 7341 0204 D4F88C10 		ldr	r1, [r4, #140]	@ float
 7342 0208 FFF7FEFF 		bl	__aeabi_fmul
 7343 020c D4F89410 		ldr	r1, [r4, #148]	@ float
 7344 0210 8246     		mov	sl, r0
 7345 0212 2846     		mov	r0, r5
 7346 0214 FFF7FEFF 		bl	__aeabi_fsub
 7347 0218 0146     		mov	r1, r0
 7348 021a 5046     		mov	r0, sl
 7349 021c FFF7FEFF 		bl	__aeabi_fsub
 7350 0220 D4F89010 		ldr	r1, [r4, #144]	@ float
 7351 0224 FFF7FEFF 		bl	__aeabi_fmul
 7352 0228 8246     		mov	sl, r0
 7353              		.loc 1 1260 0
 7354 022a 3068     		ldr	r0, [r6, #0]
 7355              	.LVL582:
 7356 022c FFF7FEFF 		bl	__aeabi_i2f
 7357              	.LVL583:
 7358 0230 0146     		mov	r1, r0
 7359 0232 5046     		mov	r0, sl
 7360 0234 FFF7FEFF 		bl	__aeabi_fmul
 7361 0238 0146     		mov	r1, r0
 7362 023a 2846     		mov	r0, r5
 7363 023c FFF7FEFF 		bl	__aeabi_fadd
 7364              	.LBE251:
 7365              	.LBE256:
 7366              		.loc 1 1534 0
 7367 0240 029A     		ldr	r2, [sp, #8]
 7368              	.LBB257:
 7369              	.LBB252:
 7370              		.loc 1 1260 0
 7371 0242 C4F88800 		str	r0, [r4, #136]	@ float
 7372              	.LBE252:
 7373              	.LBE257:
 7374              		.loc 1 1534 0
 7375 0246 B2F90030 		ldrsh	r3, [r2, #0]
 7376 024a 002B     		cmp	r3, #0
 7377 024c 40F0AA80 		bne	.L675
 7378              	.L657:
 7379              		.loc 1 1540 0
 7380 0250 94F99A00 		ldrsb	r0, [r4, #154]
 7381 0254 0028     		cmp	r0, #0
 7382 0256 02DB     		blt	.L658
 7383              		.loc 1 1541 0
 7384 0258 0121     		movs	r1, #1
ARM GAS  /tmp/ccdUEzgz.s 			page 131


 7385 025a FFF7FEFF 		bl	vexDigitalPinSet
 7386              	.L658:
 7387              	.LVL584:
 7388              	.LBE245:
 7389              	.LBB258:
 7390              		.loc 1 1548 0
 7391 025e 94F93200 		ldrsb	r0, [r4, #50]
 7392 0262 0028     		cmp	r0, #0
 7393 0264 05DB     		blt	.L659
 7394              		.loc 1 1549 0
 7395 0266 40F20000 		movw	r0, #:lower16:.LANCHOR3
 7396 026a C0F20000 		movt	r0, #:upper16:.LANCHOR3
 7397 026e FFF7FEFF 		bl	SmartMotorControllerSetLed
 7398              	.L659:
 7399              	.LVL585:
 7400              		.loc 1 1548 0
 7401 0272 94F96610 		ldrsb	r1, [r4, #102]
 7402 0276 0029     		cmp	r1, #0
 7403 0278 02DB     		blt	.L660
 7404              		.loc 1 1549 0
 7405 027a 2B48     		ldr	r0, .L676+16
 7406 027c FFF7FEFF 		bl	SmartMotorControllerSetLed
 7407              	.L660:
 7408              	.LVL586:
 7409              		.loc 1 1548 0
 7410 0280 94F99AE0 		ldrsb	lr, [r4, #154]
 7411 0284 BEF1000F 		cmp	lr, #0
 7412 0288 02DB     		blt	.L661
 7413              		.loc 1 1549 0
 7414 028a 2848     		ldr	r0, .L676+20
 7415 028c FFF7FEFF 		bl	SmartMotorControllerSetLed
 7416              	.L661:
 7417              	.LVL587:
 7418              	.LBE258:
 7419              		.loc 1 1554 0
 7420 0290 94F99B00 		ldrsb	r0, [r4, #155]
 7421              		.loc 1 1522 0
 7422 0294 0025     		movs	r5, #0
 7423              		.loc 1 1554 0
 7424 0296 40F20004 		movw	r4, #:lower16:.LANCHOR3
 7425 029a 0028     		cmp	r0, #0
 7426 029c C0F20004 		movt	r4, #:upper16:.LANCHOR3
 7427 02a0 FFF6D5AE 		blt	.L652
 7428              	.LBB259:
 7429              		.loc 1 1557 0
 7430 02a4 FFF7FEFF 		bl	vexAdcGet
 7431 02a8 FFF7FEFF 		bl	__aeabi_i2d
 7432 02ac 1CA3     		adr	r3, .L676+8
 7433 02ae D3E90023 		ldrd	r2, [r3]
 7434 02b2 FFF7FEFF 		bl	__aeabi_ddiv
 7435 02b6 FFF7FEFF 		bl	__aeabi_d2f
 7436              		.loc 1 1559 0
 7437 02ba 0021     		movs	r1, #0
 7438 02bc C4F24001 		movt	r1, 16448
 7439 02c0 FFF7FEFF 		bl	__aeabi_fcmplt
 7440              		.loc 1 1522 0
 7441 02c4 0546     		mov	r5, r0
ARM GAS  /tmp/ccdUEzgz.s 			page 132


 7442              		.loc 1 1559 0
 7443 02c6 0028     		cmp	r0, #0
 7444 02c8 3FF4C1AE 		beq	.L652
 7445              		.loc 1 1562 0
 7446 02cc 0022     		movs	r2, #0
 7447              		.loc 1 1564 0
 7448 02ce 0023     		movs	r3, #0
 7449              		.loc 1 1562 0
 7450 02d0 C4F2DC22 		movt	r2, 17116
 7451              	.LBE259:
 7452              	.LBE244:
 7453              		.loc 1 1574 0
 7454 02d4 0A20     		movs	r0, #10
 7455              	.LBB263:
 7456              	.LBB260:
 7457              		.loc 1 1564 0
 7458 02d6 C4F88430 		str	r3, [r4, #132]	@ float
 7459              		.loc 1 1562 0
 7460 02da C4F88820 		str	r2, [r4, #136]	@ float
 7461              	.LBE260:
 7462              	.LBE263:
 7463              		.loc 1 1574 0
 7464 02de FFF7FEFF 		bl	vexSleep
 7465              	.LBE267:
 7466              		.loc 1 1478 0
 7467 02e2 B969     		ldr	r1, [r7, #24]
 7468              	.LBB268:
 7469              	.LBB264:
 7470              	.LBB261:
 7471              		.loc 1 1522 0
 7472 02e4 0025     		movs	r5, #0
 7473              	.LVL588:
 7474              	.LBE261:
 7475              	.LBE264:
 7476              	.LBE268:
 7477              		.loc 1 1478 0
 7478 02e6 487F     		ldrb	r0, [r1, #29]	@ zero_extendqisi2
 7479 02e8 4307     		lsls	r3, r0, #29
 7480 02ea 7FF5B8AE 		bpl	.L663
 7481              	.LVL589:
 7482              	.L646:
 7483              		.loc 1 1578 0
 7484 02ee 0020     		movs	r0, #0
 7485 02f0 07B0     		add	sp, sp, #28
 7486 02f2 BDE8F08F 		pop	{r4, r5, r6, r7, r8, r9, sl, fp, pc}
 7487              	.LVL590:
 7488              	.L672:
 7489              	.LBB269:
 7490              		.loc 1 1512 0
 7491 02f6 2046     		mov	r0, r4
 7492 02f8 4946     		mov	r1, r9
 7493 02fa FFF7FEFF 		bl	SmartMotorMonitorCurrent
 7494 02fe 0FE7     		b	.L647
 7495              	.L671:
 7496              		.loc 1 1510 0
 7497 0300 2046     		mov	r0, r4
 7498 0302 4946     		mov	r1, r9
ARM GAS  /tmp/ccdUEzgz.s 			page 133


 7499 0304 FFF7FEFF 		bl	SmartMotorMonitorPtc
 7500 0308 01E7     		b	.L651
 7501              	.LVL591:
 7502              	.L669:
 7503              		.loc 1 1500 0
 7504 030a 2046     		mov	r0, r4
 7505 030c FFF7FEFF 		bl	SmartMotorSpeed
 7506 0310 D1E6     		b	.L650
 7507              	.L677:
 7508 0312 00BFAFF3 		.align	3
 7508      0080
 7509              	.L676:
 7510 0318 00000000 		.word	0
 7511 031c 00408F40 		.word	1083129856
 7512 0320 00000000 		.word	0
 7513 0324 00E07040 		.word	1081139200
 7514 0328 34000000 		.word	.LANCHOR3+52
 7515 032c 68000000 		.word	.LANCHOR3+104
 7516              	.LVL592:
 7517              	.L670:
 7518              	.LBB265:
 7519              	.LBB239:
 7520              		.loc 1 1005 0
 7521 0330 40B2     		sxtb	r0, r0
 7522 0332 0191     		str	r1, [sp, #4]
 7523 0334 FFF7FEFF 		bl	vexAdcGet
 7524              	.LVL593:
 7525              		.loc 1 1008 0
 7526 0338 A36A     		ldr	r3, [r4, #40]
 7527              		.loc 1 1005 0
 7528 033a 8246     		mov	sl, r0
 7529              	.LVL594:
 7530 033c 6062     		str	r0, [r4, #36]
 7531              		.loc 1 1008 0
 7532 033e C01A     		subs	r0, r0, r3
 7533 0340 FFF7FEFF 		bl	__aeabi_i2f
 7534              		.loc 1 1012 0
 7535 0344 0199     		ldr	r1, [sp, #4]
 7536              		.loc 1 1008 0
 7537 0346 8346     		mov	fp, r0
 7538 0348 C4F82CB0 		str	fp, [r4, #44]	@ float
 7539              		.loc 1 1009 0
 7540 034c C4F828A0 		str	sl, [r4, #40]
 7541              		.loc 1 1012 0
 7542 0350 0846     		mov	r0, r1
 7543 0352 FFF7FEFF 		bl	__aeabi_i2d
 7544 0356 0246     		mov	r2, r0
 7545 0358 0B46     		mov	r3, r1
 7546 035a 1DA1     		adr	r1, .L678
 7547 035c D1E90001 		ldrd	r0, [r1]
 7548 0360 FFF7FEFF 		bl	__aeabi_ddiv
 7549 0364 CDE90401 		strd	r0, [sp, #16]
 7550 0368 5846     		mov	r0, fp
 7551 036a FFF7FEFF 		bl	__aeabi_f2d
 7552 036e 0246     		mov	r2, r0
 7553 0370 0B46     		mov	r3, r1
 7554 0372 DDE90401 		ldrd	r0, [sp, #16]
ARM GAS  /tmp/ccdUEzgz.s 			page 134


 7555 0376 FFF7FEFF 		bl	__aeabi_dmul
 7556 037a 0023     		movs	r3, #0
 7557 037c 0022     		movs	r2, #0
 7558 037e C4F24E03 		movt	r3, 16462
 7559 0382 FFF7FEFF 		bl	__aeabi_dmul
 7560 0386 8246     		mov	sl, r0
 7561 0388 206A     		ldr	r0, [r4, #32]	@ float
 7562 038a 8B46     		mov	fp, r1
 7563 038c FFF7FEFF 		bl	__aeabi_f2d
 7564 0390 0246     		mov	r2, r0
 7565 0392 0B46     		mov	r3, r1
 7566 0394 5046     		mov	r0, sl
 7567 0396 5946     		mov	r1, fp
 7568 0398 FFF7FEFF 		bl	__aeabi_ddiv
 7569 039c FFF7FEFF 		bl	__aeabi_d2f
 7570 03a0 2063     		str	r0, [r4, #48]	@ float
 7571 03a2 88E6     		b	.L650
 7572              	.LVL595:
 7573              	.L675:
 7574              	.LBE239:
 7575              	.LBE265:
 7576              	.LBB266:
 7577              	.LBB262:
 7578              		.loc 1 1535 0
 7579 03a4 0C48     		ldr	r0, .L678+8
 7580 03a6 4946     		mov	r1, r9
 7581 03a8 FFF7FEFF 		bl	SmartMotorControllerMonitorPtc
 7582 03ac 50E7     		b	.L657
 7583              	.LVL596:
 7584              	.L674:
 7585 03ae 0B48     		ldr	r0, .L678+12
 7586 03b0 4946     		mov	r1, r9
 7587 03b2 FFF7FEFF 		bl	SmartMotorControllerMonitorPtc
 7588 03b6 15E7     		b	.L655
 7589              	.LVL597:
 7590              	.L673:
 7591 03b8 2046     		mov	r0, r4
 7592 03ba 4946     		mov	r1, r9
 7593 03bc FFF7FEFF 		bl	SmartMotorControllerMonitorPtc
 7594 03c0 DFE6     		b	.L653
 7595              	.LVL598:
 7596              	.L648:
 7597              	.LBE262:
 7598              	.LBE266:
 7599              		.loc 1 1505 0
 7600 03c2 2046     		mov	r0, r4
 7601 03c4 FFF7FEFF 		bl	SmartMotorSimulateSpeed
 7602 03c8 75E6     		b	.L650
 7603              	.L679:
 7604 03ca 00BFAFF3 		.align	3
 7604      0080
 7605              	.L678:
 7606 03d0 00000000 		.word	0
 7607 03d4 00408F40 		.word	1083129856
 7608 03d8 68000000 		.word	.LANCHOR3+104
 7609 03dc 34000000 		.word	.LANCHOR3+52
 7610              	.LBE269:
ARM GAS  /tmp/ccdUEzgz.s 			page 135


 7611              		.cfi_endproc
 7612              	.LFE107:
 7613              		.size	SmartMotorTask, .-SmartMotorTask
 7614              		.section	.data.delayTimeMs.8667,"aw",%progbits
 7615              		.align	2
 7616              		.set	.LANCHOR5,. + 0
 7617              		.type	delayTimeMs.8667, %object
 7618              		.size	delayTimeMs.8667, 4
 7619              	delayTimeMs.8667:
 7620 0000 64000000 		.word	100
 7621              		.section	.bss.sMotors,"aw",%nobits
 7622              		.align	2
 7623              		.set	.LANCHOR0,. + 0
 7624              		.type	sMotors, %object
 7625              		.size	sMotors, 1240
 7626              	sMotors:
 7627 0000 00000000 		.space	1240
 7627      00000000 
 7627      00000000 
 7627      00000000 
 7627      00000000 
 7628              		.section	.bss.PtcLimitEnabled,"aw",%nobits
 7629              		.align	1
 7630              		.set	.LANCHOR2,. + 0
 7631              		.type	PtcLimitEnabled, %object
 7632              		.size	PtcLimitEnabled, 2
 7633              	PtcLimitEnabled:
 7634 0000 0000     		.space	2
 7635              		.section	.bss.CurrentLimitEnabled,"aw",%nobits
 7636              		.align	1
 7637              		.set	.LANCHOR1,. + 0
 7638              		.type	CurrentLimitEnabled, %object
 7639              		.size	CurrentLimitEnabled, 2
 7640              	CurrentLimitEnabled:
 7641 0000 0000     		.space	2
 7642              		.section	.rodata.str1.4,"aMS",%progbits,1
 7643              		.align	2
 7644              	.LC0:
 7645 0000 736C6577 		.ascii	"slewMotor\000"
 7645      4D6F746F 
 7645      7200
 7646 000a 0000     		.space	2
 7647              	.LC1:
 7648 000c 436F7274 		.ascii	"Cortex ports 1 - 5  - \000"
 7648      65782070 
 7648      6F727473 
 7648      2031202D 
 7648      20352020 
 7649 0023 00       		.space	1
 7650              	.LC2:
 7651 0024 43757272 		.ascii	"Current:%5.2f \000"
 7651      656E743A 
 7651      25352E32 
 7651      662000
 7652 0033 00       		.space	1
 7653              	.LC3:
 7654 0034 54656D70 		.ascii	"Temp:%6.2f \000"
ARM GAS  /tmp/ccdUEzgz.s 			page 136


 7654      3A25362E 
 7654      32662000 
 7655              	.LC4:
 7656 0040 53746174 		.ascii	"Status:%2d \000"
 7656      75733A25 
 7656      32642000 
 7657              	.LC5:
 7658 004c 0D0A00   		.ascii	"\015\012\000"
 7659 004f 00       		.space	1
 7660              	.LC6:
 7661 0050 20202020 		.ascii	"      Motor Port: %d - \000"
 7661      20204D6F 
 7661      746F7220 
 7661      506F7274 
 7661      3A202564 
 7662              	.LC7:
 7663 0068 436F7274 		.ascii	"Cortex ports 6 - 10 - \000"
 7663      65782070 
 7663      6F727473 
 7663      2036202D 
 7663      20313020 
 7664 007f 00       		.space	1
 7665              	.LC8:
 7666 0080 506F7765 		.ascii	"Power Expander      - \000"
 7666      72204578 
 7666      70616E64 
 7666      65722020 
 7666      20202020 
 7667 0097 00       		.space	1
 7668              	.LC9:
 7669 0098 736D6172 		.ascii	"smartMotor\000"
 7669      744D6F74 
 7669      6F7200
 7670 00a3 00       		.section	.rodata.spd_table.8582,"a",%progbits
 7671              		.align	2
 7672              		.set	.LANCHOR4,. + 0
 7673              		.type	spd_table.8582, %object
 7674              		.size	spd_table.8582, 20
 7675              	spd_table.8582:
 7676 0000 0000     		.short	0
 7677 0002 1A00     		.short	26
 7678 0004 3A00     		.short	58
 7679 0006 4D00     		.short	77
 7680 0008 5500     		.short	85
 7681 000a 5C00     		.short	92
 7682 000c 5F00     		.short	95
 7683 000e 6200     		.short	98
 7684 0010 6400     		.short	100
 7685 0012 6400     		.short	100
 7686              		.section	.bss.sPorts,"aw",%nobits
 7687              		.align	2
 7688              		.set	.LANCHOR3,. + 0
 7689              		.type	sPorts, %object
 7690              		.size	sPorts, 156
 7691              	sPorts:
 7692 0000 00000000 		.space	156
 7692      00000000 
ARM GAS  /tmp/ccdUEzgz.s 			page 137


 7692      00000000 
 7692      00000000 
 7692      00000000 
 7693              		.text
 7694              	.Letext0:
 7695              		.file 3 "/opt/pros/toolchain/bin/../lib/gcc/arm-none-eabi/4.6.3/../../../../arm-none-eabi/include/
 7696              		.file 4 "../ChibiOS_2.6.2/os/ports/GCC/ARMCMx/chtypes.h"
 7697              		.file 5 "../ChibiOS_2.6.2/os/kernel/include/chlists.h"
 7698              		.file 6 "../ChibiOS_2.6.2/os/kernel/include/chthreads.h"
 7699              		.file 7 "../ChibiOS_2.6.2/os/ports/GCC/ARMCMx/chcore_v7m.h"
 7700              		.file 8 "../ChibiOS_2.6.2/os/kernel/include/chvt.h"
 7701              		.file 9 "../ChibiOS_2.6.2/os/kernel/include/chschd.h"
 7702              		.file 10 "../ChibiOS_2.6.2/os/kernel/include/chmtx.h"
 7703              		.file 11 "../convex/cortex/fw/vexanalog.h"
 7704              		.file 12 "../convex/cortex/fw/vexdigital.h"
 7705              		.file 13 "../convex/cortex/fw/vexmotor.h"
 7706              		.file 14 "../convex/cortex/fw/vexime.h"
 7707              		.file 15 "../convex/cortex/opt/smartmotor.h"
 7708              		.file 16 "../ChibiOS_2.6.2/os/ports/common/ARMCMx/CMSIS/include/core_cm3.h"
 7709              		.section	.debug_info,"",%progbits
 7710              	.Ldebug_info0:
 7711 0000 67190000 		.4byte	0x1967
 7712 0004 0200     		.2byte	0x2
 7713 0006 00000000 		.4byte	.Ldebug_abbrev0
 7714 000a 04       		.byte	0x4
 7715 000b 01       		.uleb128 0x1
 7716 000c 870A0000 		.4byte	.LASF253
 7717 0010 01       		.byte	0x1
 7718 0011 EE000000 		.4byte	.LASF254
 7719 0015 9C080000 		.4byte	.LASF255
 7720 0019 00000000 		.4byte	0
 7721 001d 00000000 		.4byte	0
 7722 0021 F0040000 		.4byte	.Ldebug_ranges0+0x4f0
 7723 0025 00000000 		.4byte	.Ldebug_line0
 7724 0029 02       		.uleb128 0x2
 7725 002a 04       		.byte	0x4
 7726 002b 07       		.byte	0x7
 7727 002c BB000000 		.4byte	.LASF0
 7728 0030 02       		.uleb128 0x2
 7729 0031 01       		.byte	0x1
 7730 0032 06       		.byte	0x6
 7731 0033 B50B0000 		.4byte	.LASF1
 7732 0037 02       		.uleb128 0x2
 7733 0038 01       		.byte	0x1
 7734 0039 08       		.byte	0x8
 7735 003a 790A0000 		.4byte	.LASF2
 7736 003e 02       		.uleb128 0x2
 7737 003f 02       		.byte	0x2
 7738 0040 05       		.byte	0x5
 7739 0041 BF080000 		.4byte	.LASF3
 7740 0045 02       		.uleb128 0x2
 7741 0046 02       		.byte	0x2
 7742 0047 07       		.byte	0x7
 7743 0048 CF0B0000 		.4byte	.LASF4
 7744 004c 03       		.uleb128 0x3
 7745 004d 04       		.byte	0x4
 7746 004e 05       		.byte	0x5
ARM GAS  /tmp/ccdUEzgz.s 			page 138


 7747 004f 696E7400 		.ascii	"int\000"
 7748 0053 02       		.uleb128 0x2
 7749 0054 08       		.byte	0x8
 7750 0055 05       		.byte	0x5
 7751 0056 80050000 		.4byte	.LASF5
 7752 005a 02       		.uleb128 0x2
 7753 005b 08       		.byte	0x8
 7754 005c 07       		.byte	0x7
 7755 005d B0010000 		.4byte	.LASF6
 7756 0061 02       		.uleb128 0x2
 7757 0062 04       		.byte	0x4
 7758 0063 05       		.byte	0x5
 7759 0064 E8080000 		.4byte	.LASF7
 7760 0068 04       		.uleb128 0x4
 7761 0069 04       		.byte	0x4
 7762 006a 02       		.uleb128 0x2
 7763 006b 04       		.byte	0x4
 7764 006c 07       		.byte	0x7
 7765 006d E6090000 		.4byte	.LASF8
 7766 0071 02       		.uleb128 0x2
 7767 0072 01       		.byte	0x1
 7768 0073 08       		.byte	0x8
 7769 0074 1E040000 		.4byte	.LASF9
 7770 0078 05       		.uleb128 0x5
 7771 0079 04       		.byte	0x4
 7772 007a 7E000000 		.4byte	0x7e
 7773 007e 06       		.uleb128 0x6
 7774 007f 71000000 		.4byte	0x71
 7775 0083 02       		.uleb128 0x2
 7776 0084 08       		.byte	0x8
 7777 0085 04       		.byte	0x4
 7778 0086 2D0C0000 		.4byte	.LASF10
 7779 008a 02       		.uleb128 0x2
 7780 008b 04       		.byte	0x4
 7781 008c 04       		.byte	0x4
 7782 008d C7010000 		.4byte	.LASF11
 7783 0091 02       		.uleb128 0x2
 7784 0092 08       		.byte	0x8
 7785 0093 04       		.byte	0x4
 7786 0094 C8070000 		.4byte	.LASF12
 7787 0098 07       		.uleb128 0x7
 7788 0099 80040000 		.4byte	.LASF13
 7789 009d 03       		.byte	0x3
 7790 009e 2A       		.byte	0x2a
 7791 009f 37000000 		.4byte	0x37
 7792 00a3 07       		.uleb128 0x7
 7793 00a4 300A0000 		.4byte	.LASF14
 7794 00a8 03       		.byte	0x3
 7795 00a9 4F       		.byte	0x4f
 7796 00aa 61000000 		.4byte	0x61
 7797 00ae 07       		.uleb128 0x7
 7798 00af 8D010000 		.4byte	.LASF15
 7799 00b3 03       		.byte	0x3
 7800 00b4 50       		.byte	0x50
 7801 00b5 6A000000 		.4byte	0x6a
 7802 00b9 07       		.uleb128 0x7
 7803 00ba 2C030000 		.4byte	.LASF16
ARM GAS  /tmp/ccdUEzgz.s 			page 139


 7804 00be 04       		.byte	0x4
 7805 00bf 2B       		.byte	0x2b
 7806 00c0 C4000000 		.4byte	0xc4
 7807 00c4 02       		.uleb128 0x2
 7808 00c5 01       		.byte	0x1
 7809 00c6 02       		.byte	0x2
 7810 00c7 4F030000 		.4byte	.LASF17
 7811 00cb 07       		.uleb128 0x7
 7812 00cc A1070000 		.4byte	.LASF18
 7813 00d0 04       		.byte	0x4
 7814 00d1 2C       		.byte	0x2c
 7815 00d2 98000000 		.4byte	0x98
 7816 00d6 07       		.uleb128 0x7
 7817 00d7 4A0A0000 		.4byte	.LASF19
 7818 00db 04       		.byte	0x4
 7819 00dc 2D       		.byte	0x2d
 7820 00dd 98000000 		.4byte	0x98
 7821 00e1 07       		.uleb128 0x7
 7822 00e2 DE090000 		.4byte	.LASF20
 7823 00e6 04       		.byte	0x4
 7824 00e7 2E       		.byte	0x2e
 7825 00e8 98000000 		.4byte	0x98
 7826 00ec 07       		.uleb128 0x7
 7827 00ed C2060000 		.4byte	.LASF21
 7828 00f1 04       		.byte	0x4
 7829 00f2 2F       		.byte	0x2f
 7830 00f3 98000000 		.4byte	0x98
 7831 00f7 07       		.uleb128 0x7
 7832 00f8 F2010000 		.4byte	.LASF22
 7833 00fc 04       		.byte	0x4
 7834 00fd 30       		.byte	0x30
 7835 00fe AE000000 		.4byte	0xae
 7836 0102 07       		.uleb128 0x7
 7837 0103 11060000 		.4byte	.LASF23
 7838 0107 04       		.byte	0x4
 7839 0108 31       		.byte	0x31
 7840 0109 A3000000 		.4byte	0xa3
 7841 010d 07       		.uleb128 0x7
 7842 010e 96010000 		.4byte	.LASF24
 7843 0112 04       		.byte	0x4
 7844 0113 33       		.byte	0x33
 7845 0114 AE000000 		.4byte	0xae
 7846 0118 07       		.uleb128 0x7
 7847 0119 7A000000 		.4byte	.LASF25
 7848 011d 04       		.byte	0x4
 7849 011e 35       		.byte	0x35
 7850 011f AE000000 		.4byte	0xae
 7851 0123 07       		.uleb128 0x7
 7852 0124 30040000 		.4byte	.LASF26
 7853 0128 05       		.byte	0x5
 7854 0129 2A       		.byte	0x2a
 7855 012a 2E010000 		.4byte	0x12e
 7856 012e 08       		.uleb128 0x8
 7857 012f 30040000 		.4byte	.LASF26
 7858 0133 48       		.byte	0x48
 7859 0134 06       		.byte	0x6
 7860 0135 5E       		.byte	0x5e
ARM GAS  /tmp/ccdUEzgz.s 			page 140


 7861 0136 53020000 		.4byte	0x253
 7862 013a 09       		.uleb128 0x9
 7863 013b 3F090000 		.4byte	.LASF27
 7864 013f 06       		.byte	0x6
 7865 0140 5F       		.byte	0x5f
 7866 0141 78020000 		.4byte	0x278
 7867 0145 02       		.byte	0x2
 7868 0146 23       		.byte	0x23
 7869 0147 00       		.uleb128 0
 7870 0148 09       		.uleb128 0x9
 7871 0149 D7090000 		.4byte	.LASF28
 7872 014d 06       		.byte	0x6
 7873 014e 61       		.byte	0x61
 7874 014f 78020000 		.4byte	0x278
 7875 0153 02       		.byte	0x2
 7876 0154 23       		.byte	0x23
 7877 0155 04       		.uleb128 0x4
 7878 0156 09       		.uleb128 0x9
 7879 0157 52000000 		.4byte	.LASF29
 7880 015b 06       		.byte	0x6
 7881 015c 63       		.byte	0x63
 7882 015d F7000000 		.4byte	0xf7
 7883 0161 02       		.byte	0x2
 7884 0162 23       		.byte	0x23
 7885 0163 08       		.uleb128 0x8
 7886 0164 09       		.uleb128 0x9
 7887 0165 5C090000 		.4byte	.LASF30
 7888 0169 06       		.byte	0x6
 7889 016a 64       		.byte	0x64
 7890 016b 44030000 		.4byte	0x344
 7891 016f 02       		.byte	0x2
 7892 0170 23       		.byte	0x23
 7893 0171 0C       		.uleb128 0xc
 7894 0172 09       		.uleb128 0x9
 7895 0173 D7020000 		.4byte	.LASF31
 7896 0177 06       		.byte	0x6
 7897 0178 66       		.byte	0x66
 7898 0179 78020000 		.4byte	0x278
 7899 017d 02       		.byte	0x2
 7900 017e 23       		.byte	0x23
 7901 017f 10       		.uleb128 0x10
 7902 0180 09       		.uleb128 0x9
 7903 0181 66040000 		.4byte	.LASF32
 7904 0185 06       		.byte	0x6
 7905 0186 67       		.byte	0x67
 7906 0187 78020000 		.4byte	0x278
 7907 018b 02       		.byte	0x2
 7908 018c 23       		.byte	0x23
 7909 018d 14       		.uleb128 0x14
 7910 018e 09       		.uleb128 0x9
 7911 018f C8030000 		.4byte	.LASF33
 7912 0193 06       		.byte	0x6
 7913 0194 6E       		.byte	0x6e
 7914 0195 78000000 		.4byte	0x78
 7915 0199 02       		.byte	0x2
 7916 019a 23       		.byte	0x23
 7917 019b 18       		.uleb128 0x18
ARM GAS  /tmp/ccdUEzgz.s 			page 141


 7918 019c 09       		.uleb128 0x9
 7919 019d 6E040000 		.4byte	.LASF34
 7920 01a1 06       		.byte	0x6
 7921 01a2 79       		.byte	0x79
 7922 01a3 D6000000 		.4byte	0xd6
 7923 01a7 02       		.byte	0x2
 7924 01a8 23       		.byte	0x23
 7925 01a9 1C       		.uleb128 0x1c
 7926 01aa 09       		.uleb128 0x9
 7927 01ab 37060000 		.4byte	.LASF35
 7928 01af 06       		.byte	0x6
 7929 01b0 7D       		.byte	0x7d
 7930 01b1 CB000000 		.4byte	0xcb
 7931 01b5 02       		.byte	0x2
 7932 01b6 23       		.byte	0x23
 7933 01b7 1D       		.uleb128 0x1d
 7934 01b8 09       		.uleb128 0x9
 7935 01b9 A40A0000 		.4byte	.LASF36
 7936 01bd 06       		.byte	0x6
 7937 01be 82       		.byte	0x82
 7938 01bf E1000000 		.4byte	0xe1
 7939 01c3 02       		.byte	0x2
 7940 01c4 23       		.byte	0x23
 7941 01c5 1E       		.uleb128 0x1e
 7942 01c6 09       		.uleb128 0x9
 7943 01c7 E40A0000 		.4byte	.LASF37
 7944 01cb 06       		.byte	0x6
 7945 01cc 88       		.byte	0x88
 7946 01cd EC000000 		.4byte	0xec
 7947 01d1 02       		.byte	0x2
 7948 01d2 23       		.byte	0x23
 7949 01d3 1F       		.uleb128 0x1f
 7950 01d4 09       		.uleb128 0x9
 7951 01d5 28000000 		.4byte	.LASF38
 7952 01d9 06       		.byte	0x6
 7953 01da 8F       		.byte	0x8f
 7954 01db 29040000 		.4byte	0x429
 7955 01df 02       		.byte	0x2
 7956 01e0 23       		.byte	0x23
 7957 01e1 20       		.uleb128 0x20
 7958 01e2 0A       		.uleb128 0xa
 7959 01e3 705F7500 		.ascii	"p_u\000"
 7960 01e7 06       		.byte	0x6
 7961 01e8 B4       		.byte	0xb4
 7962 01e9 E9040000 		.4byte	0x4e9
 7963 01ed 02       		.byte	0x2
 7964 01ee 23       		.byte	0x23
 7965 01ef 24       		.uleb128 0x24
 7966 01f0 09       		.uleb128 0x9
 7967 01f1 E4000000 		.4byte	.LASF39
 7968 01f5 06       		.byte	0x6
 7969 01f6 B9       		.byte	0xb9
 7970 01f7 A0020000 		.4byte	0x2a0
 7971 01fb 02       		.byte	0x2
 7972 01fc 23       		.byte	0x23
 7973 01fd 28       		.uleb128 0x28
 7974 01fe 09       		.uleb128 0x9
ARM GAS  /tmp/ccdUEzgz.s 			page 142


 7975 01ff F8090000 		.4byte	.LASF40
 7976 0203 06       		.byte	0x6
 7977 0204 BF       		.byte	0xbf
 7978 0205 7E020000 		.4byte	0x27e
 7979 0209 02       		.byte	0x2
 7980 020a 23       		.byte	0x23
 7981 020b 2C       		.uleb128 0x2c
 7982 020c 09       		.uleb128 0x9
 7983 020d 84070000 		.4byte	.LASF41
 7984 0211 06       		.byte	0x6
 7985 0212 C3       		.byte	0xc3
 7986 0213 02010000 		.4byte	0x102
 7987 0217 02       		.byte	0x2
 7988 0218 23       		.byte	0x23
 7989 0219 34       		.uleb128 0x34
 7990 021a 09       		.uleb128 0x9
 7991 021b D0080000 		.4byte	.LASF42
 7992 021f 06       		.byte	0x6
 7993 0220 C9       		.byte	0xc9
 7994 0221 0D010000 		.4byte	0x10d
 7995 0225 02       		.byte	0x2
 7996 0226 23       		.byte	0x23
 7997 0227 38       		.uleb128 0x38
 7998 0228 09       		.uleb128 0x9
 7999 0229 A2040000 		.4byte	.LASF43
 8000 022d 06       		.byte	0x6
 8001 022e D0       		.byte	0xd0
 8002 022f 1E050000 		.4byte	0x51e
 8003 0233 02       		.byte	0x2
 8004 0234 23       		.byte	0x23
 8005 0235 3C       		.uleb128 0x3c
 8006 0236 09       		.uleb128 0x9
 8007 0237 A9070000 		.4byte	.LASF44
 8008 023b 06       		.byte	0x6
 8009 023c D4       		.byte	0xd4
 8010 023d F7000000 		.4byte	0xf7
 8011 0241 02       		.byte	0x2
 8012 0242 23       		.byte	0x23
 8013 0243 40       		.uleb128 0x40
 8014 0244 09       		.uleb128 0x9
 8015 0245 9A040000 		.4byte	.LASF45
 8016 0249 06       		.byte	0x6
 8017 024a DA       		.byte	0xda
 8018 024b 68000000 		.4byte	0x68
 8019 024f 02       		.byte	0x2
 8020 0250 23       		.byte	0x23
 8021 0251 44       		.uleb128 0x44
 8022 0252 00       		.byte	0
 8023 0253 0B       		.uleb128 0xb
 8024 0254 08       		.byte	0x8
 8025 0255 05       		.byte	0x5
 8026 0256 61       		.byte	0x61
 8027 0257 78020000 		.4byte	0x278
 8028 025b 09       		.uleb128 0x9
 8029 025c 3F090000 		.4byte	.LASF27
 8030 0260 05       		.byte	0x5
 8031 0261 62       		.byte	0x62
ARM GAS  /tmp/ccdUEzgz.s 			page 143


 8032 0262 78020000 		.4byte	0x278
 8033 0266 02       		.byte	0x2
 8034 0267 23       		.byte	0x23
 8035 0268 00       		.uleb128 0
 8036 0269 09       		.uleb128 0x9
 8037 026a D7090000 		.4byte	.LASF28
 8038 026e 05       		.byte	0x5
 8039 026f 64       		.byte	0x64
 8040 0270 78020000 		.4byte	0x278
 8041 0274 02       		.byte	0x2
 8042 0275 23       		.byte	0x23
 8043 0276 04       		.uleb128 0x4
 8044 0277 00       		.byte	0
 8045 0278 05       		.uleb128 0x5
 8046 0279 04       		.byte	0x4
 8047 027a 23010000 		.4byte	0x123
 8048 027e 07       		.uleb128 0x7
 8049 027f EB030000 		.4byte	.LASF46
 8050 0283 05       		.byte	0x5
 8051 0284 66       		.byte	0x66
 8052 0285 53020000 		.4byte	0x253
 8053 0289 0B       		.uleb128 0xb
 8054 028a 04       		.byte	0x4
 8055 028b 05       		.byte	0x5
 8056 028c 6B       		.byte	0x6b
 8057 028d A0020000 		.4byte	0x2a0
 8058 0291 09       		.uleb128 0x9
 8059 0292 3F090000 		.4byte	.LASF27
 8060 0296 05       		.byte	0x5
 8061 0297 6D       		.byte	0x6d
 8062 0298 78020000 		.4byte	0x278
 8063 029c 02       		.byte	0x2
 8064 029d 23       		.byte	0x23
 8065 029e 00       		.uleb128 0
 8066 029f 00       		.byte	0
 8067 02a0 07       		.uleb128 0x7
 8068 02a1 00000000 		.4byte	.LASF47
 8069 02a5 05       		.byte	0x5
 8070 02a6 70       		.byte	0x70
 8071 02a7 89020000 		.4byte	0x289
 8072 02ab 07       		.uleb128 0x7
 8073 02ac 49000000 		.4byte	.LASF48
 8074 02b0 07       		.byte	0x7
 8075 02b1 E5       		.byte	0xe5
 8076 02b2 68000000 		.4byte	0x68
 8077 02b6 0C       		.uleb128 0xc
 8078 02b7 00080000 		.4byte	.LASF49
 8079 02bb 24       		.byte	0x24
 8080 02bc 07       		.byte	0x7
 8081 02bd 0C01     		.2byte	0x10c
 8082 02bf 44030000 		.4byte	0x344
 8083 02c3 0D       		.uleb128 0xd
 8084 02c4 723400   		.ascii	"r4\000"
 8085 02c7 07       		.byte	0x7
 8086 02c8 1F01     		.2byte	0x11f
 8087 02ca AB020000 		.4byte	0x2ab
 8088 02ce 02       		.byte	0x2
ARM GAS  /tmp/ccdUEzgz.s 			page 144


 8089 02cf 23       		.byte	0x23
 8090 02d0 00       		.uleb128 0
 8091 02d1 0D       		.uleb128 0xd
 8092 02d2 723500   		.ascii	"r5\000"
 8093 02d5 07       		.byte	0x7
 8094 02d6 2001     		.2byte	0x120
 8095 02d8 AB020000 		.4byte	0x2ab
 8096 02dc 02       		.byte	0x2
 8097 02dd 23       		.byte	0x23
 8098 02de 04       		.uleb128 0x4
 8099 02df 0D       		.uleb128 0xd
 8100 02e0 723600   		.ascii	"r6\000"
 8101 02e3 07       		.byte	0x7
 8102 02e4 2101     		.2byte	0x121
 8103 02e6 AB020000 		.4byte	0x2ab
 8104 02ea 02       		.byte	0x2
 8105 02eb 23       		.byte	0x23
 8106 02ec 08       		.uleb128 0x8
 8107 02ed 0D       		.uleb128 0xd
 8108 02ee 723700   		.ascii	"r7\000"
 8109 02f1 07       		.byte	0x7
 8110 02f2 2201     		.2byte	0x122
 8111 02f4 AB020000 		.4byte	0x2ab
 8112 02f8 02       		.byte	0x2
 8113 02f9 23       		.byte	0x23
 8114 02fa 0C       		.uleb128 0xc
 8115 02fb 0D       		.uleb128 0xd
 8116 02fc 723800   		.ascii	"r8\000"
 8117 02ff 07       		.byte	0x7
 8118 0300 2301     		.2byte	0x123
 8119 0302 AB020000 		.4byte	0x2ab
 8120 0306 02       		.byte	0x2
 8121 0307 23       		.byte	0x23
 8122 0308 10       		.uleb128 0x10
 8123 0309 0D       		.uleb128 0xd
 8124 030a 723900   		.ascii	"r9\000"
 8125 030d 07       		.byte	0x7
 8126 030e 2401     		.2byte	0x124
 8127 0310 AB020000 		.4byte	0x2ab
 8128 0314 02       		.byte	0x2
 8129 0315 23       		.byte	0x23
 8130 0316 14       		.uleb128 0x14
 8131 0317 0D       		.uleb128 0xd
 8132 0318 72313000 		.ascii	"r10\000"
 8133 031c 07       		.byte	0x7
 8134 031d 2501     		.2byte	0x125
 8135 031f AB020000 		.4byte	0x2ab
 8136 0323 02       		.byte	0x2
 8137 0324 23       		.byte	0x23
 8138 0325 18       		.uleb128 0x18
 8139 0326 0D       		.uleb128 0xd
 8140 0327 72313100 		.ascii	"r11\000"
 8141 032b 07       		.byte	0x7
 8142 032c 2601     		.2byte	0x126
 8143 032e AB020000 		.4byte	0x2ab
 8144 0332 02       		.byte	0x2
 8145 0333 23       		.byte	0x23
ARM GAS  /tmp/ccdUEzgz.s 			page 145


 8146 0334 1C       		.uleb128 0x1c
 8147 0335 0D       		.uleb128 0xd
 8148 0336 6C7200   		.ascii	"lr\000"
 8149 0339 07       		.byte	0x7
 8150 033a 2701     		.2byte	0x127
 8151 033c AB020000 		.4byte	0x2ab
 8152 0340 02       		.byte	0x2
 8153 0341 23       		.byte	0x23
 8154 0342 20       		.uleb128 0x20
 8155 0343 00       		.byte	0
 8156 0344 0C       		.uleb128 0xc
 8157 0345 7C070000 		.4byte	.LASF50
 8158 0349 04       		.byte	0x4
 8159 034a 07       		.byte	0x7
 8160 034b 3101     		.2byte	0x131
 8161 034d 61030000 		.4byte	0x361
 8162 0351 0D       		.uleb128 0xd
 8163 0352 72313300 		.ascii	"r13\000"
 8164 0356 07       		.byte	0x7
 8165 0357 3201     		.2byte	0x132
 8166 0359 61030000 		.4byte	0x361
 8167 035d 02       		.byte	0x2
 8168 035e 23       		.byte	0x23
 8169 035f 00       		.uleb128 0
 8170 0360 00       		.byte	0
 8171 0361 05       		.uleb128 0x5
 8172 0362 04       		.byte	0x4
 8173 0363 B6020000 		.4byte	0x2b6
 8174 0367 07       		.uleb128 0x7
 8175 0368 0C000000 		.4byte	.LASF51
 8176 036c 08       		.byte	0x8
 8177 036d 58       		.byte	0x58
 8178 036e 72030000 		.4byte	0x372
 8179 0372 05       		.uleb128 0x5
 8180 0373 04       		.byte	0x4
 8181 0374 78030000 		.4byte	0x378
 8182 0378 0E       		.uleb128 0xe
 8183 0379 01       		.byte	0x1
 8184 037a 84030000 		.4byte	0x384
 8185 037e 0F       		.uleb128 0xf
 8186 037f 68000000 		.4byte	0x68
 8187 0383 00       		.byte	0
 8188 0384 07       		.uleb128 0x7
 8189 0385 81090000 		.4byte	.LASF52
 8190 0389 08       		.byte	0x8
 8191 038a 5D       		.byte	0x5d
 8192 038b 8F030000 		.4byte	0x38f
 8193 038f 08       		.uleb128 0x8
 8194 0390 81090000 		.4byte	.LASF52
 8195 0394 14       		.byte	0x14
 8196 0395 08       		.byte	0x8
 8197 0396 64       		.byte	0x64
 8198 0397 E2030000 		.4byte	0x3e2
 8199 039b 09       		.uleb128 0x9
 8200 039c 1E0B0000 		.4byte	.LASF53
 8201 03a0 08       		.byte	0x8
 8202 03a1 65       		.byte	0x65
ARM GAS  /tmp/ccdUEzgz.s 			page 146


 8203 03a2 E2030000 		.4byte	0x3e2
 8204 03a6 02       		.byte	0x2
 8205 03a7 23       		.byte	0x23
 8206 03a8 00       		.uleb128 0
 8207 03a9 09       		.uleb128 0x9
 8208 03aa 3C0C0000 		.4byte	.LASF54
 8209 03ae 08       		.byte	0x8
 8210 03af 67       		.byte	0x67
 8211 03b0 E2030000 		.4byte	0x3e2
 8212 03b4 02       		.byte	0x2
 8213 03b5 23       		.byte	0x23
 8214 03b6 04       		.uleb128 0x4
 8215 03b7 09       		.uleb128 0x9
 8216 03b8 85010000 		.4byte	.LASF55
 8217 03bc 08       		.byte	0x8
 8218 03bd 69       		.byte	0x69
 8219 03be 18010000 		.4byte	0x118
 8220 03c2 02       		.byte	0x2
 8221 03c3 23       		.byte	0x23
 8222 03c4 08       		.uleb128 0x8
 8223 03c5 09       		.uleb128 0x9
 8224 03c6 250C0000 		.4byte	.LASF56
 8225 03ca 08       		.byte	0x8
 8226 03cb 6A       		.byte	0x6a
 8227 03cc 67030000 		.4byte	0x367
 8228 03d0 02       		.byte	0x2
 8229 03d1 23       		.byte	0x23
 8230 03d2 0C       		.uleb128 0xc
 8231 03d3 09       		.uleb128 0x9
 8232 03d4 A9010000 		.4byte	.LASF57
 8233 03d8 08       		.byte	0x8
 8234 03d9 6C       		.byte	0x6c
 8235 03da 68000000 		.4byte	0x68
 8236 03de 02       		.byte	0x2
 8237 03df 23       		.byte	0x23
 8238 03e0 10       		.uleb128 0x10
 8239 03e1 00       		.byte	0
 8240 03e2 05       		.uleb128 0x5
 8241 03e3 04       		.byte	0x4
 8242 03e4 84030000 		.4byte	0x384
 8243 03e8 0B       		.uleb128 0xb
 8244 03e9 10       		.byte	0x10
 8245 03ea 08       		.byte	0x8
 8246 03eb 76       		.byte	0x76
 8247 03ec 29040000 		.4byte	0x429
 8248 03f0 09       		.uleb128 0x9
 8249 03f1 1E0B0000 		.4byte	.LASF53
 8250 03f5 08       		.byte	0x8
 8251 03f6 77       		.byte	0x77
 8252 03f7 E2030000 		.4byte	0x3e2
 8253 03fb 02       		.byte	0x2
 8254 03fc 23       		.byte	0x23
 8255 03fd 00       		.uleb128 0
 8256 03fe 09       		.uleb128 0x9
 8257 03ff 3C0C0000 		.4byte	.LASF54
 8258 0403 08       		.byte	0x8
 8259 0404 79       		.byte	0x79
ARM GAS  /tmp/ccdUEzgz.s 			page 147


 8260 0405 E2030000 		.4byte	0x3e2
 8261 0409 02       		.byte	0x2
 8262 040a 23       		.byte	0x23
 8263 040b 04       		.uleb128 0x4
 8264 040c 09       		.uleb128 0x9
 8265 040d 85010000 		.4byte	.LASF55
 8266 0411 08       		.byte	0x8
 8267 0412 7B       		.byte	0x7b
 8268 0413 18010000 		.4byte	0x118
 8269 0417 02       		.byte	0x2
 8270 0418 23       		.byte	0x23
 8271 0419 08       		.uleb128 0x8
 8272 041a 09       		.uleb128 0x9
 8273 041b A0000000 		.4byte	.LASF58
 8274 041f 08       		.byte	0x8
 8275 0420 7C       		.byte	0x7c
 8276 0421 29040000 		.4byte	0x429
 8277 0425 02       		.byte	0x2
 8278 0426 23       		.byte	0x23
 8279 0427 0C       		.uleb128 0xc
 8280 0428 00       		.byte	0
 8281 0429 10       		.uleb128 0x10
 8282 042a 18010000 		.4byte	0x118
 8283 042e 07       		.uleb128 0x7
 8284 042f 5F040000 		.4byte	.LASF59
 8285 0433 08       		.byte	0x8
 8286 0434 7D       		.byte	0x7d
 8287 0435 E8030000 		.4byte	0x3e8
 8288 0439 0B       		.uleb128 0xb
 8289 043a 1C       		.byte	0x1c
 8290 043b 09       		.byte	0x9
 8291 043c 5E       		.byte	0x5e
 8292 043d 96040000 		.4byte	0x496
 8293 0441 09       		.uleb128 0x9
 8294 0442 D5050000 		.4byte	.LASF60
 8295 0446 09       		.byte	0x9
 8296 0447 5F       		.byte	0x5f
 8297 0448 7E020000 		.4byte	0x27e
 8298 044c 02       		.byte	0x2
 8299 044d 23       		.byte	0x23
 8300 044e 00       		.uleb128 0
 8301 044f 09       		.uleb128 0x9
 8302 0450 A2010000 		.4byte	.LASF61
 8303 0454 09       		.byte	0x9
 8304 0455 60       		.byte	0x60
 8305 0456 F7000000 		.4byte	0xf7
 8306 045a 02       		.byte	0x2
 8307 045b 23       		.byte	0x23
 8308 045c 08       		.uleb128 0x8
 8309 045d 09       		.uleb128 0x9
 8310 045e E20B0000 		.4byte	.LASF62
 8311 0462 09       		.byte	0x9
 8312 0463 62       		.byte	0x62
 8313 0464 44030000 		.4byte	0x344
 8314 0468 02       		.byte	0x2
 8315 0469 23       		.byte	0x23
 8316 046a 0C       		.uleb128 0xc
ARM GAS  /tmp/ccdUEzgz.s 			page 148


 8317 046b 09       		.uleb128 0x9
 8318 046c 28040000 		.4byte	.LASF63
 8319 0470 09       		.byte	0x9
 8320 0471 65       		.byte	0x65
 8321 0472 78020000 		.4byte	0x278
 8322 0476 02       		.byte	0x2
 8323 0477 23       		.byte	0x23
 8324 0478 10       		.uleb128 0x10
 8325 0479 09       		.uleb128 0x9
 8326 047a CC060000 		.4byte	.LASF64
 8327 047e 09       		.byte	0x9
 8328 047f 66       		.byte	0x66
 8329 0480 78020000 		.4byte	0x278
 8330 0484 02       		.byte	0x2
 8331 0485 23       		.byte	0x23
 8332 0486 14       		.uleb128 0x14
 8333 0487 09       		.uleb128 0x9
 8334 0488 BE030000 		.4byte	.LASF65
 8335 048c 09       		.byte	0x9
 8336 048d 69       		.byte	0x69
 8337 048e 78020000 		.4byte	0x278
 8338 0492 02       		.byte	0x2
 8339 0493 23       		.byte	0x23
 8340 0494 18       		.uleb128 0x18
 8341 0495 00       		.byte	0
 8342 0496 07       		.uleb128 0x7
 8343 0497 AB0A0000 		.4byte	.LASF66
 8344 049b 09       		.byte	0x9
 8345 049c 6B       		.byte	0x6b
 8346 049d 39040000 		.4byte	0x439
 8347 04a1 08       		.uleb128 0x8
 8348 04a2 A7030000 		.4byte	.LASF67
 8349 04a6 10       		.byte	0x10
 8350 04a7 0A       		.byte	0xa
 8351 04a8 2C       		.byte	0x2c
 8352 04a9 D8040000 		.4byte	0x4d8
 8353 04ad 09       		.uleb128 0x9
 8354 04ae 6E010000 		.4byte	.LASF68
 8355 04b2 0A       		.byte	0xa
 8356 04b3 2D       		.byte	0x2d
 8357 04b4 7E020000 		.4byte	0x27e
 8358 04b8 02       		.byte	0x2
 8359 04b9 23       		.byte	0x23
 8360 04ba 00       		.uleb128 0
 8361 04bb 09       		.uleb128 0x9
 8362 04bc 8E000000 		.4byte	.LASF69
 8363 04c0 0A       		.byte	0xa
 8364 04c1 2F       		.byte	0x2f
 8365 04c2 78020000 		.4byte	0x278
 8366 04c6 02       		.byte	0x2
 8367 04c7 23       		.byte	0x23
 8368 04c8 08       		.uleb128 0x8
 8369 04c9 09       		.uleb128 0x9
 8370 04ca 8A0B0000 		.4byte	.LASF70
 8371 04ce 0A       		.byte	0xa
 8372 04cf 31       		.byte	0x31
 8373 04d0 D8040000 		.4byte	0x4d8
ARM GAS  /tmp/ccdUEzgz.s 			page 149


 8374 04d4 02       		.byte	0x2
 8375 04d5 23       		.byte	0x23
 8376 04d6 0C       		.uleb128 0xc
 8377 04d7 00       		.byte	0
 8378 04d8 05       		.uleb128 0x5
 8379 04d9 04       		.byte	0x4
 8380 04da A1040000 		.4byte	0x4a1
 8381 04de 07       		.uleb128 0x7
 8382 04df A7030000 		.4byte	.LASF67
 8383 04e3 0A       		.byte	0xa
 8384 04e4 33       		.byte	0x33
 8385 04e5 A1040000 		.4byte	0x4a1
 8386 04e9 11       		.uleb128 0x11
 8387 04ea 04       		.byte	0x4
 8388 04eb 06       		.byte	0x6
 8389 04ec 96       		.byte	0x96
 8390 04ed 1E050000 		.4byte	0x51e
 8391 04f1 12       		.uleb128 0x12
 8392 04f2 25030000 		.4byte	.LASF71
 8393 04f6 06       		.byte	0x6
 8394 04f7 9D       		.byte	0x9d
 8395 04f8 02010000 		.4byte	0x102
 8396 04fc 12       		.uleb128 0x12
 8397 04fd 7E0C0000 		.4byte	.LASF72
 8398 0501 06       		.byte	0x6
 8399 0502 A4       		.byte	0xa4
 8400 0503 02010000 		.4byte	0x102
 8401 0507 12       		.uleb128 0x12
 8402 0508 36010000 		.4byte	.LASF73
 8403 050c 06       		.byte	0x6
 8404 050d AB       		.byte	0xab
 8405 050e 68000000 		.4byte	0x68
 8406 0512 12       		.uleb128 0x12
 8407 0513 4C010000 		.4byte	.LASF74
 8408 0517 06       		.byte	0x6
 8409 0518 B2       		.byte	0xb2
 8410 0519 0D010000 		.4byte	0x10d
 8411 051d 00       		.byte	0
 8412 051e 05       		.uleb128 0x5
 8413 051f 04       		.byte	0x4
 8414 0520 DE040000 		.4byte	0x4de
 8415 0524 10       		.uleb128 0x10
 8416 0525 A3000000 		.4byte	0xa3
 8417 0529 13       		.uleb128 0x13
 8418 052a 01       		.byte	0x1
 8419 052b 0B       		.byte	0xb
 8420 052c 3C       		.byte	0x3c
 8421 052d 6E050000 		.4byte	0x56e
 8422 0531 14       		.uleb128 0x14
 8423 0532 74060000 		.4byte	.LASF75
 8424 0536 7F       		.sleb128 -1
 8425 0537 14       		.uleb128 0x14
 8426 0538 18050000 		.4byte	.LASF76
 8427 053c 00       		.sleb128 0
 8428 053d 14       		.uleb128 0x14
 8429 053e 25050000 		.4byte	.LASF77
 8430 0542 01       		.sleb128 1
ARM GAS  /tmp/ccdUEzgz.s 			page 150


 8431 0543 14       		.uleb128 0x14
 8432 0544 32050000 		.4byte	.LASF78
 8433 0548 02       		.sleb128 2
 8434 0549 14       		.uleb128 0x14
 8435 054a 3F050000 		.4byte	.LASF79
 8436 054e 03       		.sleb128 3
 8437 054f 14       		.uleb128 0x14
 8438 0550 4C050000 		.4byte	.LASF80
 8439 0554 04       		.sleb128 4
 8440 0555 14       		.uleb128 0x14
 8441 0556 59050000 		.4byte	.LASF81
 8442 055a 05       		.sleb128 5
 8443 055b 14       		.uleb128 0x14
 8444 055c 66050000 		.4byte	.LASF82
 8445 0560 06       		.sleb128 6
 8446 0561 14       		.uleb128 0x14
 8447 0562 73050000 		.4byte	.LASF83
 8448 0566 07       		.sleb128 7
 8449 0567 14       		.uleb128 0x14
 8450 0568 A60B0000 		.4byte	.LASF84
 8451 056c 08       		.sleb128 8
 8452 056d 00       		.byte	0
 8453 056e 07       		.uleb128 0x7
 8454 056f AF020000 		.4byte	.LASF85
 8455 0573 0B       		.byte	0xb
 8456 0574 48       		.byte	0x48
 8457 0575 29050000 		.4byte	0x529
 8458 0579 13       		.uleb128 0x13
 8459 057a 01       		.byte	0x1
 8460 057b 0C       		.byte	0xc
 8461 057c 8D       		.byte	0x8d
 8462 057d D6050000 		.4byte	0x5d6
 8463 0581 14       		.uleb128 0x14
 8464 0582 A0090000 		.4byte	.LASF86
 8465 0586 7F       		.sleb128 -1
 8466 0587 14       		.uleb128 0x14
 8467 0588 FE060000 		.4byte	.LASF87
 8468 058c 00       		.sleb128 0
 8469 058d 14       		.uleb128 0x14
 8470 058e 0C070000 		.4byte	.LASF88
 8471 0592 01       		.sleb128 1
 8472 0593 14       		.uleb128 0x14
 8473 0594 1A070000 		.4byte	.LASF89
 8474 0598 02       		.sleb128 2
 8475 0599 14       		.uleb128 0x14
 8476 059a 28070000 		.4byte	.LASF90
 8477 059e 03       		.sleb128 3
 8478 059f 14       		.uleb128 0x14
 8479 05a0 36070000 		.4byte	.LASF91
 8480 05a4 04       		.sleb128 4
 8481 05a5 14       		.uleb128 0x14
 8482 05a6 44070000 		.4byte	.LASF92
 8483 05aa 05       		.sleb128 5
 8484 05ab 14       		.uleb128 0x14
 8485 05ac 52070000 		.4byte	.LASF93
 8486 05b0 06       		.sleb128 6
 8487 05b1 14       		.uleb128 0x14
ARM GAS  /tmp/ccdUEzgz.s 			page 151


 8488 05b2 60070000 		.4byte	.LASF94
 8489 05b6 07       		.sleb128 7
 8490 05b7 14       		.uleb128 0x14
 8491 05b8 6E070000 		.4byte	.LASF95
 8492 05bc 08       		.sleb128 8
 8493 05bd 14       		.uleb128 0x14
 8494 05be F3050000 		.4byte	.LASF96
 8495 05c2 09       		.sleb128 9
 8496 05c3 14       		.uleb128 0x14
 8497 05c4 02060000 		.4byte	.LASF97
 8498 05c8 0A       		.sleb128 10
 8499 05c9 14       		.uleb128 0x14
 8500 05ca 76010000 		.4byte	.LASF98
 8501 05ce 0B       		.sleb128 11
 8502 05cf 14       		.uleb128 0x14
 8503 05d0 E2010000 		.4byte	.LASF99
 8504 05d4 0C       		.sleb128 12
 8505 05d5 00       		.byte	0
 8506 05d6 07       		.uleb128 0x7
 8507 05d7 5F010000 		.4byte	.LASF100
 8508 05db 0C       		.byte	0xc
 8509 05dc 9D       		.byte	0x9d
 8510 05dd 79050000 		.4byte	0x579
 8511 05e1 13       		.uleb128 0x13
 8512 05e2 01       		.byte	0x1
 8513 05e3 0C       		.byte	0xc
 8514 05e4 A2       		.byte	0xa2
 8515 05e5 F6050000 		.4byte	0x5f6
 8516 05e9 14       		.uleb128 0x14
 8517 05ea E80B0000 		.4byte	.LASF101
 8518 05ee 00       		.sleb128 0
 8519 05ef 14       		.uleb128 0x14
 8520 05f0 CF030000 		.4byte	.LASF102
 8521 05f4 01       		.sleb128 1
 8522 05f5 00       		.byte	0
 8523 05f6 13       		.uleb128 0x13
 8524 05f7 01       		.byte	0x1
 8525 05f8 0D       		.byte	0xd
 8526 05f9 63       		.byte	0x63
 8527 05fa 17060000 		.4byte	0x617
 8528 05fe 14       		.uleb128 0x14
 8529 05ff 9C020000 		.4byte	.LASF103
 8530 0603 00       		.sleb128 0
 8531 0604 14       		.uleb128 0x14
 8532 0605 3D0A0000 		.4byte	.LASF104
 8533 0609 01       		.sleb128 1
 8534 060a 14       		.uleb128 0x14
 8535 060b 41030000 		.4byte	.LASF105
 8536 060f 02       		.sleb128 2
 8537 0610 14       		.uleb128 0x14
 8538 0611 33030000 		.4byte	.LASF106
 8539 0615 03       		.sleb128 3
 8540 0616 00       		.byte	0
 8541 0617 07       		.uleb128 0x7
 8542 0618 2F020000 		.4byte	.LASF107
 8543 061c 0D       		.byte	0xd
 8544 061d 68       		.byte	0x68
ARM GAS  /tmp/ccdUEzgz.s 			page 152


 8545 061e F6050000 		.4byte	0x5f6
 8546 0622 13       		.uleb128 0x13
 8547 0623 01       		.byte	0x1
 8548 0624 0D       		.byte	0xd
 8549 0625 6D       		.byte	0x6d
 8550 0626 73060000 		.4byte	0x673
 8551 062a 14       		.uleb128 0x14
 8552 062b 65000000 		.4byte	.LASF108
 8553 062f 7F       		.sleb128 -1
 8554 0630 14       		.uleb128 0x14
 8555 0631 AC040000 		.4byte	.LASF109
 8556 0635 00       		.sleb128 0
 8557 0636 14       		.uleb128 0x14
 8558 0637 B8040000 		.4byte	.LASF110
 8559 063b 01       		.sleb128 1
 8560 063c 14       		.uleb128 0x14
 8561 063d C4040000 		.4byte	.LASF111
 8562 0641 02       		.sleb128 2
 8563 0642 14       		.uleb128 0x14
 8564 0643 D0040000 		.4byte	.LASF112
 8565 0647 03       		.sleb128 3
 8566 0648 14       		.uleb128 0x14
 8567 0649 DC040000 		.4byte	.LASF113
 8568 064d 04       		.sleb128 4
 8569 064e 14       		.uleb128 0x14
 8570 064f E8040000 		.4byte	.LASF114
 8571 0653 05       		.sleb128 5
 8572 0654 14       		.uleb128 0x14
 8573 0655 F4040000 		.4byte	.LASF115
 8574 0659 06       		.sleb128 6
 8575 065a 14       		.uleb128 0x14
 8576 065b 00050000 		.4byte	.LASF116
 8577 065f 07       		.sleb128 7
 8578 0660 14       		.uleb128 0x14
 8579 0661 0C050000 		.4byte	.LASF117
 8580 0665 08       		.sleb128 8
 8581 0666 14       		.uleb128 0x14
 8582 0667 07020000 		.4byte	.LASF118
 8583 066b 09       		.sleb128 9
 8584 066c 14       		.uleb128 0x14
 8585 066d 21010000 		.4byte	.LASF119
 8586 0671 0A       		.sleb128 10
 8587 0672 00       		.byte	0
 8588 0673 07       		.uleb128 0x7
 8589 0674 17010000 		.4byte	.LASF120
 8590 0678 0D       		.byte	0xd
 8591 0679 7B       		.byte	0x7b
 8592 067a 22060000 		.4byte	0x622
 8593 067e 13       		.uleb128 0x13
 8594 067f 01       		.byte	0x1
 8595 0680 0E       		.byte	0xe
 8596 0681 46       		.byte	0x46
 8597 0682 C4060000 		.4byte	0x6c4
 8598 0686 14       		.uleb128 0x14
 8599 0687 2C080000 		.4byte	.LASF121
 8600 068b 00       		.sleb128 0
 8601 068c 14       		.uleb128 0x14
ARM GAS  /tmp/ccdUEzgz.s 			page 153


 8602 068d 3A080000 		.4byte	.LASF122
 8603 0691 01       		.sleb128 1
 8604 0692 14       		.uleb128 0x14
 8605 0693 48080000 		.4byte	.LASF123
 8606 0697 02       		.sleb128 2
 8607 0698 14       		.uleb128 0x14
 8608 0699 56080000 		.4byte	.LASF124
 8609 069d 03       		.sleb128 3
 8610 069e 14       		.uleb128 0x14
 8611 069f 64080000 		.4byte	.LASF125
 8612 06a3 04       		.sleb128 4
 8613 06a4 14       		.uleb128 0x14
 8614 06a5 72080000 		.4byte	.LASF126
 8615 06a9 05       		.sleb128 5
 8616 06aa 14       		.uleb128 0x14
 8617 06ab 80080000 		.4byte	.LASF127
 8618 06af 06       		.sleb128 6
 8619 06b0 14       		.uleb128 0x14
 8620 06b1 8E080000 		.4byte	.LASF128
 8621 06b5 07       		.sleb128 7
 8622 06b6 14       		.uleb128 0x14
 8623 06b7 E1030000 		.4byte	.LASF129
 8624 06bb 08       		.sleb128 8
 8625 06bc 14       		.uleb128 0x14
 8626 06bd F1080000 		.4byte	.LASF130
 8627 06c1 E300     		.sleb128 99
 8628 06c3 00       		.byte	0
 8629 06c4 0B       		.uleb128 0xb
 8630 06c5 7C       		.byte	0x7c
 8631 06c6 0F       		.byte	0xf
 8632 06c7 9C       		.byte	0x9c
 8633 06c8 B7080000 		.4byte	0x8b7
 8634 06cc 09       		.uleb128 0x9
 8635 06cd 380A0000 		.4byte	.LASF131
 8636 06d1 0F       		.byte	0xf
 8637 06d2 9E       		.byte	0x9e
 8638 06d3 73060000 		.4byte	0x673
 8639 06d7 02       		.byte	0x2
 8640 06d8 23       		.byte	0x23
 8641 06d9 00       		.uleb128 0
 8642 06da 09       		.uleb128 0x9
 8643 06db AA0C0000 		.4byte	.LASF132
 8644 06df 0F       		.byte	0xf
 8645 06e0 A1       		.byte	0xa1
 8646 06e1 73060000 		.4byte	0x673
 8647 06e5 02       		.byte	0x2
 8648 06e6 23       		.byte	0x23
 8649 06e7 01       		.uleb128 0x1
 8650 06e8 09       		.uleb128 0x9
 8651 06e9 740A0000 		.4byte	.LASF133
 8652 06ed 0F       		.byte	0xf
 8653 06ee A4       		.byte	0xa4
 8654 06ef 17060000 		.4byte	0x617
 8655 06f3 02       		.byte	0x2
 8656 06f4 23       		.byte	0x23
 8657 06f5 02       		.uleb128 0x2
 8658 06f6 09       		.uleb128 0x9
ARM GAS  /tmp/ccdUEzgz.s 			page 154


 8659 06f7 E7050000 		.4byte	.LASF134
 8660 06fb 0F       		.byte	0xf
 8661 06fc A8       		.byte	0xa8
 8662 06fd 3E000000 		.4byte	0x3e
 8663 0701 02       		.byte	0x2
 8664 0702 23       		.byte	0x23
 8665 0703 04       		.uleb128 0x4
 8666 0704 09       		.uleb128 0x9
 8667 0705 850B0000 		.4byte	.LASF135
 8668 0709 0F       		.byte	0xf
 8669 070a AB       		.byte	0xab
 8670 070b 6A090000 		.4byte	0x96a
 8671 070f 02       		.byte	0x2
 8672 0710 23       		.byte	0x23
 8673 0711 08       		.uleb128 0x8
 8674 0712 09       		.uleb128 0x9
 8675 0713 84000000 		.4byte	.LASF136
 8676 0717 0F       		.byte	0xf
 8677 0718 B0       		.byte	0xb0
 8678 0719 3E000000 		.4byte	0x3e
 8679 071d 02       		.byte	0x2
 8680 071e 23       		.byte	0x23
 8681 071f 0C       		.uleb128 0xc
 8682 0720 09       		.uleb128 0x9
 8683 0721 E5020000 		.4byte	.LASF137
 8684 0725 0F       		.byte	0xf
 8685 0726 B1       		.byte	0xb1
 8686 0727 3E000000 		.4byte	0x3e
 8687 072b 02       		.byte	0x2
 8688 072c 23       		.byte	0x23
 8689 072d 0E       		.uleb128 0xe
 8690 072e 09       		.uleb128 0x9
 8691 072f 530A0000 		.4byte	.LASF138
 8692 0733 0F       		.byte	0xf
 8693 0734 B2       		.byte	0xb2
 8694 0735 3E000000 		.4byte	0x3e
 8695 0739 02       		.byte	0x2
 8696 073a 23       		.byte	0x23
 8697 073b 10       		.uleb128 0x10
 8698 073c 09       		.uleb128 0x9
 8699 073d 4B020000 		.4byte	.LASF139
 8700 0741 0F       		.byte	0xf
 8701 0742 B5       		.byte	0xb5
 8702 0743 3E000000 		.4byte	0x3e
 8703 0747 02       		.byte	0x2
 8704 0748 23       		.byte	0x23
 8705 0749 12       		.uleb128 0x12
 8706 074a 09       		.uleb128 0x9
 8707 074b 92030000 		.4byte	.LASF140
 8708 074f 0F       		.byte	0xf
 8709 0750 B6       		.byte	0xb6
 8710 0751 3E000000 		.4byte	0x3e
 8711 0755 02       		.byte	0x2
 8712 0756 23       		.byte	0x23
 8713 0757 14       		.uleb128 0x14
 8714 0758 09       		.uleb128 0x9
 8715 0759 59020000 		.4byte	.LASF141
ARM GAS  /tmp/ccdUEzgz.s 			page 155


 8716 075d 0F       		.byte	0xf
 8717 075e B7       		.byte	0xb7
 8718 075f 8A000000 		.4byte	0x8a
 8719 0763 02       		.byte	0x2
 8720 0764 23       		.byte	0x23
 8721 0765 18       		.uleb128 0x18
 8722 0766 09       		.uleb128 0x9
 8723 0767 6A030000 		.4byte	.LASF142
 8724 076b 0F       		.byte	0xf
 8725 076c BA       		.byte	0xba
 8726 076d 3E000000 		.4byte	0x3e
 8727 0771 02       		.byte	0x2
 8728 0772 23       		.byte	0x23
 8729 0773 1C       		.uleb128 0x1c
 8730 0774 09       		.uleb128 0x9
 8731 0775 4B0B0000 		.4byte	.LASF143
 8732 0779 0F       		.byte	0xf
 8733 077a BC       		.byte	0xbc
 8734 077b 8A000000 		.4byte	0x8a
 8735 077f 02       		.byte	0x2
 8736 0780 23       		.byte	0x23
 8737 0781 20       		.uleb128 0x20
 8738 0782 0A       		.uleb128 0xa
 8739 0783 656E6300 		.ascii	"enc\000"
 8740 0787 0F       		.byte	0xf
 8741 0788 BF       		.byte	0xbf
 8742 0789 61000000 		.4byte	0x61
 8743 078d 02       		.byte	0x2
 8744 078e 23       		.byte	0x23
 8745 078f 24       		.uleb128 0x24
 8746 0790 09       		.uleb128 0x9
 8747 0791 10010000 		.4byte	.LASF144
 8748 0795 0F       		.byte	0xf
 8749 0796 C0       		.byte	0xc0
 8750 0797 61000000 		.4byte	0x61
 8751 079b 02       		.byte	0x2
 8752 079c 23       		.byte	0x23
 8753 079d 28       		.uleb128 0x28
 8754 079e 09       		.uleb128 0x9
 8755 079f C10B0000 		.4byte	.LASF145
 8756 07a3 0F       		.byte	0xf
 8757 07a4 C1       		.byte	0xc1
 8758 07a5 8A000000 		.4byte	0x8a
 8759 07a9 02       		.byte	0x2
 8760 07aa 23       		.byte	0x23
 8761 07ab 2C       		.uleb128 0x2c
 8762 07ac 0A       		.uleb128 0xa
 8763 07ad 72706D00 		.ascii	"rpm\000"
 8764 07b1 0F       		.byte	0xf
 8765 07b2 C2       		.byte	0xc2
 8766 07b3 8A000000 		.4byte	0x8a
 8767 07b7 02       		.byte	0x2
 8768 07b8 23       		.byte	0x23
 8769 07b9 30       		.uleb128 0x30
 8770 07ba 09       		.uleb128 0x9
 8771 07bb 8E090000 		.4byte	.LASF146
 8772 07bf 0F       		.byte	0xf
ARM GAS  /tmp/ccdUEzgz.s 			page 156


 8773 07c0 C5       		.byte	0xc5
 8774 07c1 8A000000 		.4byte	0x8a
 8775 07c5 02       		.byte	0x2
 8776 07c6 23       		.byte	0x23
 8777 07c7 34       		.uleb128 0x34
 8778 07c8 09       		.uleb128 0x9
 8779 07c9 CE000000 		.4byte	.LASF147
 8780 07cd 0F       		.byte	0xf
 8781 07ce C6       		.byte	0xc6
 8782 07cf 8A000000 		.4byte	0x8a
 8783 07d3 02       		.byte	0x2
 8784 07d4 23       		.byte	0x23
 8785 07d5 38       		.uleb128 0x38
 8786 07d6 09       		.uleb128 0x9
 8787 07d7 0E090000 		.4byte	.LASF148
 8788 07db 0F       		.byte	0xf
 8789 07dc C7       		.byte	0xc7
 8790 07dd 8A000000 		.4byte	0x8a
 8791 07e1 02       		.byte	0x2
 8792 07e2 23       		.byte	0x23
 8793 07e3 3C       		.uleb128 0x3c
 8794 07e4 09       		.uleb128 0x9
 8795 07e5 C0070000 		.4byte	.LASF149
 8796 07e9 0F       		.byte	0xf
 8797 07ea C8       		.byte	0xc8
 8798 07eb 8A000000 		.4byte	0x8a
 8799 07ef 02       		.byte	0x2
 8800 07f0 23       		.byte	0x23
 8801 07f1 40       		.uleb128 0x40
 8802 07f2 09       		.uleb128 0x9
 8803 07f3 F7070000 		.4byte	.LASF150
 8804 07f7 0F       		.byte	0xf
 8805 07f8 C9       		.byte	0xc9
 8806 07f9 8A000000 		.4byte	0x8a
 8807 07fd 02       		.byte	0x2
 8808 07fe 23       		.byte	0x23
 8809 07ff 44       		.uleb128 0x44
 8810 0800 09       		.uleb128 0x9
 8811 0801 CB0C0000 		.4byte	.LASF151
 8812 0805 0F       		.byte	0xf
 8813 0806 CA       		.byte	0xca
 8814 0807 8A000000 		.4byte	0x8a
 8815 080b 02       		.byte	0x2
 8816 080c 23       		.byte	0x23
 8817 080d 48       		.uleb128 0x48
 8818 080e 09       		.uleb128 0x9
 8819 080f 9C030000 		.4byte	.LASF152
 8820 0813 0F       		.byte	0xf
 8821 0814 CB       		.byte	0xcb
 8822 0815 8A000000 		.4byte	0x8a
 8823 0819 02       		.byte	0x2
 8824 081a 23       		.byte	0x23
 8825 081b 4C       		.uleb128 0x4c
 8826 081c 09       		.uleb128 0x9
 8827 081d B50A0000 		.4byte	.LASF153
 8828 0821 0F       		.byte	0xf
 8829 0822 CE       		.byte	0xce
ARM GAS  /tmp/ccdUEzgz.s 			page 157


 8830 0823 8A000000 		.4byte	0x8a
 8831 0827 02       		.byte	0x2
 8832 0828 23       		.byte	0x23
 8833 0829 50       		.uleb128 0x50
 8834 082a 09       		.uleb128 0x9
 8835 082b 930A0000 		.4byte	.LASF154
 8836 082f 0F       		.byte	0xf
 8837 0830 D0       		.byte	0xd0
 8838 0831 8A000000 		.4byte	0x8a
 8839 0835 02       		.byte	0x2
 8840 0836 23       		.byte	0x23
 8841 0837 54       		.uleb128 0x54
 8842 0838 09       		.uleb128 0x9
 8843 0839 8A070000 		.4byte	.LASF155
 8844 083d 0F       		.byte	0xf
 8845 083e D2       		.byte	0xd2
 8846 083f 8A000000 		.4byte	0x8a
 8847 0843 02       		.byte	0x2
 8848 0844 23       		.byte	0x23
 8849 0845 58       		.uleb128 0x58
 8850 0846 09       		.uleb128 0x9
 8851 0847 DB080000 		.4byte	.LASF156
 8852 084b 0F       		.byte	0xf
 8853 084c D5       		.byte	0xd5
 8854 084d 8A000000 		.4byte	0x8a
 8855 0851 02       		.byte	0x2
 8856 0852 23       		.byte	0x23
 8857 0853 5C       		.uleb128 0x5c
 8858 0854 09       		.uleb128 0x9
 8859 0855 D4070000 		.4byte	.LASF157
 8860 0859 0F       		.byte	0xf
 8861 085a D7       		.byte	0xd7
 8862 085b 8A000000 		.4byte	0x8a
 8863 085f 02       		.byte	0x2
 8864 0860 23       		.byte	0x23
 8865 0861 60       		.uleb128 0x60
 8866 0862 09       		.uleb128 0x9
 8867 0863 59000000 		.4byte	.LASF158
 8868 0867 0F       		.byte	0xf
 8869 0868 DA       		.byte	0xda
 8870 0869 8A000000 		.4byte	0x8a
 8871 086d 02       		.byte	0x2
 8872 086e 23       		.byte	0x23
 8873 086f 64       		.uleb128 0x64
 8874 0870 09       		.uleb128 0x9
 8875 0871 A00C0000 		.4byte	.LASF159
 8876 0875 0F       		.byte	0xf
 8877 0876 DB       		.byte	0xdb
 8878 0877 8A000000 		.4byte	0x8a
 8879 087b 02       		.byte	0x2
 8880 087c 23       		.byte	0x23
 8881 087d 68       		.uleb128 0x68
 8882 087e 09       		.uleb128 0x9
 8883 087f DD050000 		.4byte	.LASF160
 8884 0883 0F       		.byte	0xf
 8885 0884 DC       		.byte	0xdc
 8886 0885 8A000000 		.4byte	0x8a
ARM GAS  /tmp/ccdUEzgz.s 			page 158


 8887 0889 02       		.byte	0x2
 8888 088a 23       		.byte	0x23
 8889 088b 6C       		.uleb128 0x6c
 8890 088c 09       		.uleb128 0x9
 8891 088d 52090000 		.4byte	.LASF161
 8892 0891 0F       		.byte	0xf
 8893 0892 DD       		.byte	0xdd
 8894 0893 8A000000 		.4byte	0x8a
 8895 0897 02       		.byte	0x2
 8896 0898 23       		.byte	0x23
 8897 0899 70       		.uleb128 0x70
 8898 089a 09       		.uleb128 0x9
 8899 089b 46090000 		.4byte	.LASF162
 8900 089f 0F       		.byte	0xf
 8901 08a0 DE       		.byte	0xde
 8902 08a1 3E000000 		.4byte	0x3e
 8903 08a5 02       		.byte	0x2
 8904 08a6 23       		.byte	0x23
 8905 08a7 74       		.uleb128 0x74
 8906 08a8 09       		.uleb128 0x9
 8907 08a9 B4070000 		.4byte	.LASF163
 8908 08ad 0F       		.byte	0xf
 8909 08ae E1       		.byte	0xe1
 8910 08af 61000000 		.4byte	0x61
 8911 08b3 02       		.byte	0x2
 8912 08b4 23       		.byte	0x23
 8913 08b5 78       		.uleb128 0x78
 8914 08b6 00       		.byte	0
 8915 08b7 0C       		.uleb128 0xc
 8916 08b8 AD030000 		.4byte	.LASF164
 8917 08bc 34       		.byte	0x34
 8918 08bd 0F       		.byte	0xf
 8919 08be 0401     		.2byte	0x104
 8920 08c0 6A090000 		.4byte	0x96a
 8921 08c4 15       		.uleb128 0x15
 8922 08c5 75030000 		.4byte	.LASF165
 8923 08c9 0F       		.byte	0xf
 8924 08ca 0601     		.2byte	0x106
 8925 08cc 7B090000 		.4byte	0x97b
 8926 08d0 02       		.byte	0x2
 8927 08d1 23       		.byte	0x23
 8928 08d2 00       		.uleb128 0
 8929 08d3 15       		.uleb128 0x15
 8930 08d4 B50A0000 		.4byte	.LASF153
 8931 08d8 0F       		.byte	0xf
 8932 08d9 0901     		.2byte	0x109
 8933 08db 8A000000 		.4byte	0x8a
 8934 08df 02       		.byte	0x2
 8935 08e0 23       		.byte	0x23
 8936 08e1 14       		.uleb128 0x14
 8937 08e2 15       		.uleb128 0x15
 8938 08e3 8A070000 		.4byte	.LASF155
 8939 08e7 0F       		.byte	0xf
 8940 08e8 0B01     		.2byte	0x10b
 8941 08ea 8A000000 		.4byte	0x8a
 8942 08ee 02       		.byte	0x2
 8943 08ef 23       		.byte	0x23
ARM GAS  /tmp/ccdUEzgz.s 			page 159


 8944 08f0 18       		.uleb128 0x18
 8945 08f1 15       		.uleb128 0x15
 8946 08f2 DB080000 		.4byte	.LASF156
 8947 08f6 0F       		.byte	0xf
 8948 08f7 0D01     		.2byte	0x10d
 8949 08f9 8A000000 		.4byte	0x8a
 8950 08fd 02       		.byte	0x2
 8951 08fe 23       		.byte	0x23
 8952 08ff 1C       		.uleb128 0x1c
 8953 0900 15       		.uleb128 0x15
 8954 0901 59000000 		.4byte	.LASF158
 8955 0905 0F       		.byte	0xf
 8956 0906 1001     		.2byte	0x110
 8957 0908 8A000000 		.4byte	0x8a
 8958 090c 02       		.byte	0x2
 8959 090d 23       		.byte	0x23
 8960 090e 20       		.uleb128 0x20
 8961 090f 15       		.uleb128 0x15
 8962 0910 A00C0000 		.4byte	.LASF159
 8963 0914 0F       		.byte	0xf
 8964 0915 1101     		.2byte	0x111
 8965 0917 8A000000 		.4byte	0x8a
 8966 091b 02       		.byte	0x2
 8967 091c 23       		.byte	0x23
 8968 091d 24       		.uleb128 0x24
 8969 091e 15       		.uleb128 0x15
 8970 091f DD050000 		.4byte	.LASF160
 8971 0923 0F       		.byte	0xf
 8972 0924 1201     		.2byte	0x112
 8973 0926 8A000000 		.4byte	0x8a
 8974 092a 02       		.byte	0x2
 8975 092b 23       		.byte	0x23
 8976 092c 28       		.uleb128 0x28
 8977 092d 15       		.uleb128 0x15
 8978 092e 52090000 		.4byte	.LASF161
 8979 0932 0F       		.byte	0xf
 8980 0933 1301     		.2byte	0x113
 8981 0935 8A000000 		.4byte	0x8a
 8982 0939 02       		.byte	0x2
 8983 093a 23       		.byte	0x23
 8984 093b 2C       		.uleb128 0x2c
 8985 093c 15       		.uleb128 0x15
 8986 093d 46090000 		.4byte	.LASF162
 8987 0941 0F       		.byte	0xf
 8988 0942 1601     		.2byte	0x116
 8989 0944 3E000000 		.4byte	0x3e
 8990 0948 02       		.byte	0x2
 8991 0949 23       		.byte	0x23
 8992 094a 30       		.uleb128 0x30
 8993 094b 15       		.uleb128 0x15
 8994 094c F40A0000 		.4byte	.LASF166
 8995 0950 0F       		.byte	0xf
 8996 0951 1901     		.2byte	0x119
 8997 0953 D6050000 		.4byte	0x5d6
 8998 0957 02       		.byte	0x2
 8999 0958 23       		.byte	0x23
 9000 0959 32       		.uleb128 0x32
ARM GAS  /tmp/ccdUEzgz.s 			page 160


 9001 095a 15       		.uleb128 0x15
 9002 095b 2F000000 		.4byte	.LASF167
 9003 095f 0F       		.byte	0xf
 9004 0960 1C01     		.2byte	0x11c
 9005 0962 6E050000 		.4byte	0x56e
 9006 0966 02       		.byte	0x2
 9007 0967 23       		.byte	0x23
 9008 0968 33       		.uleb128 0x33
 9009 0969 00       		.byte	0
 9010 096a 05       		.uleb128 0x5
 9011 096b 04       		.byte	0x4
 9012 096c B7080000 		.4byte	0x8b7
 9013 0970 07       		.uleb128 0x7
 9014 0971 88040000 		.4byte	.LASF168
 9015 0975 0F       		.byte	0xf
 9016 0976 E2       		.byte	0xe2
 9017 0977 C4060000 		.4byte	0x6c4
 9018 097b 16       		.uleb128 0x16
 9019 097c 8B090000 		.4byte	0x98b
 9020 0980 8B090000 		.4byte	0x98b
 9021 0984 17       		.uleb128 0x17
 9022 0985 29000000 		.4byte	0x29
 9023 0989 04       		.byte	0x4
 9024 098a 00       		.byte	0
 9025 098b 05       		.uleb128 0x5
 9026 098c 04       		.byte	0x4
 9027 098d 70090000 		.4byte	0x970
 9028 0991 18       		.uleb128 0x18
 9029 0992 C7090000 		.4byte	.LASF169
 9030 0996 0F       		.byte	0xf
 9031 0997 1D01     		.2byte	0x11d
 9032 0999 B7080000 		.4byte	0x8b7
 9033 099d 19       		.uleb128 0x19
 9034 099e 6E020000 		.4byte	.LASF172
 9035 09a2 02       		.byte	0x2
 9036 09a3 3B       		.byte	0x3b
 9037 09a4 01       		.byte	0x1
 9038 09a5 8A000000 		.4byte	0x8a
 9039 09a9 03       		.byte	0x3
 9040 09aa 040A0000 		.4byte	0xa04
 9041 09ae 1A       		.uleb128 0x1a
 9042 09af 7000     		.ascii	"p\000"
 9043 09b1 02       		.byte	0x2
 9044 09b2 3B       		.byte	0x3b
 9045 09b3 8A000000 		.4byte	0x8a
 9046 09b7 1B       		.uleb128 0x1b
 9047 09b8 67020000 		.4byte	.LASF170
 9048 09bc 02       		.byte	0x2
 9049 09bd 3D       		.byte	0x3d
 9050 09be 8A000000 		.4byte	0x8a
 9051 09c2 1B       		.uleb128 0x1b
 9052 09c3 EE0A0000 		.4byte	.LASF171
 9053 09c7 02       		.byte	0x2
 9054 09c8 3E       		.byte	0x3e
 9055 09c9 8A000000 		.4byte	0x8a
 9056 09cd 1C       		.uleb128 0x1c
 9057 09ce 7700     		.ascii	"w\000"
ARM GAS  /tmp/ccdUEzgz.s 			page 161


 9058 09d0 02       		.byte	0x2
 9059 09d1 3F       		.byte	0x3f
 9060 09d2 4C000000 		.4byte	0x4c
 9061 09d6 1C       		.uleb128 0x1c
 9062 09d7 7A00     		.ascii	"z\000"
 9063 09d9 02       		.byte	0x2
 9064 09da 40       		.byte	0x40
 9065 09db 8A000000 		.4byte	0x8a
 9066 09df 11       		.uleb128 0x11
 9067 09e0 04       		.byte	0x4
 9068 09e1 02       		.byte	0x2
 9069 09e2 41       		.byte	0x41
 9070 09e3 FA090000 		.4byte	0x9fa
 9071 09e7 1D       		.uleb128 0x1d
 9072 09e8 6900     		.ascii	"i\000"
 9073 09ea 02       		.byte	0x2
 9074 09eb 41       		.byte	0x41
 9075 09ec AE000000 		.4byte	0xae
 9076 09f0 1D       		.uleb128 0x1d
 9077 09f1 6600     		.ascii	"f\000"
 9078 09f3 02       		.byte	0x2
 9079 09f4 41       		.byte	0x41
 9080 09f5 8A000000 		.4byte	0x8a
 9081 09f9 00       		.byte	0
 9082 09fa 1C       		.uleb128 0x1c
 9083 09fb 7600     		.ascii	"v\000"
 9084 09fd 02       		.byte	0x2
 9085 09fe 41       		.byte	0x41
 9086 09ff DF090000 		.4byte	0x9df
 9087 0a03 00       		.byte	0
 9088 0a04 19       		.uleb128 0x19
 9089 0a05 590B0000 		.4byte	.LASF173
 9090 0a09 02       		.byte	0x2
 9091 0a0a 47       		.byte	0x47
 9092 0a0b 01       		.byte	0x1
 9093 0a0c 8A000000 		.4byte	0x8a
 9094 0a10 03       		.byte	0x3
 9095 0a11 720A0000 		.4byte	0xa72
 9096 0a15 1A       		.uleb128 0x1a
 9097 0a16 7800     		.ascii	"x\000"
 9098 0a18 02       		.byte	0x2
 9099 0a19 47       		.byte	0x47
 9100 0a1a 8A000000 		.4byte	0x8a
 9101 0a1e 11       		.uleb128 0x11
 9102 0a1f 04       		.byte	0x4
 9103 0a20 02       		.byte	0x2
 9104 0a21 49       		.byte	0x49
 9105 0a22 390A0000 		.4byte	0xa39
 9106 0a26 1D       		.uleb128 0x1d
 9107 0a27 6600     		.ascii	"f\000"
 9108 0a29 02       		.byte	0x2
 9109 0a2a 49       		.byte	0x49
 9110 0a2b 8A000000 		.4byte	0x8a
 9111 0a2f 1D       		.uleb128 0x1d
 9112 0a30 6900     		.ascii	"i\000"
 9113 0a32 02       		.byte	0x2
 9114 0a33 49       		.byte	0x49
ARM GAS  /tmp/ccdUEzgz.s 			page 162


 9115 0a34 AE000000 		.4byte	0xae
 9116 0a38 00       		.byte	0
 9117 0a39 1C       		.uleb128 0x1c
 9118 0a3a 767800   		.ascii	"vx\000"
 9119 0a3d 02       		.byte	0x2
 9120 0a3e 49       		.byte	0x49
 9121 0a3f 1E0A0000 		.4byte	0xa1e
 9122 0a43 11       		.uleb128 0x11
 9123 0a44 04       		.byte	0x4
 9124 0a45 02       		.byte	0x2
 9125 0a46 4A       		.byte	0x4a
 9126 0a47 5E0A0000 		.4byte	0xa5e
 9127 0a4b 1D       		.uleb128 0x1d
 9128 0a4c 6900     		.ascii	"i\000"
 9129 0a4e 02       		.byte	0x2
 9130 0a4f 4A       		.byte	0x4a
 9131 0a50 AE000000 		.4byte	0xae
 9132 0a54 1D       		.uleb128 0x1d
 9133 0a55 6600     		.ascii	"f\000"
 9134 0a57 02       		.byte	0x2
 9135 0a58 4A       		.byte	0x4a
 9136 0a59 8A000000 		.4byte	0x8a
 9137 0a5d 00       		.byte	0
 9138 0a5e 1C       		.uleb128 0x1c
 9139 0a5f 6D7800   		.ascii	"mx\000"
 9140 0a62 02       		.byte	0x2
 9141 0a63 4A       		.byte	0x4a
 9142 0a64 430A0000 		.4byte	0xa43
 9143 0a68 1C       		.uleb128 0x1c
 9144 0a69 7900     		.ascii	"y\000"
 9145 0a6b 02       		.byte	0x2
 9146 0a6c 4B       		.byte	0x4b
 9147 0a6d 8A000000 		.4byte	0x8a
 9148 0a71 00       		.byte	0
 9149 0a72 1E       		.uleb128 0x1e
 9150 0a73 73676E00 		.ascii	"sgn\000"
 9151 0a77 01       		.byte	0x1
 9152 0a78 8C       		.byte	0x8c
 9153 0a79 01       		.byte	0x1
 9154 0a7a 8A000000 		.4byte	0x8a
 9155 0a7e 03       		.byte	0x3
 9156 0a7f 8D0A0000 		.4byte	0xa8d
 9157 0a83 1A       		.uleb128 0x1a
 9158 0a84 7800     		.ascii	"x\000"
 9159 0a86 01       		.byte	0x1
 9160 0a87 8C       		.byte	0x8c
 9161 0a88 8A000000 		.4byte	0x8a
 9162 0a8c 00       		.byte	0
 9163 0a8d 1F       		.uleb128 0x1f
 9164 0a8e 01       		.byte	0x1
 9165 0a8f F8030000 		.4byte	.LASF174
 9166 0a93 01       		.byte	0x1
 9167 0a94 9F01     		.2byte	0x19f
 9168 0a96 01       		.byte	0x1
 9169 0a97 01       		.byte	0x1
 9170 0a98 1F       		.uleb128 0x1f
 9171 0a99 01       		.byte	0x1
ARM GAS  /tmp/ccdUEzgz.s 			page 163


 9172 0a9a FE0A0000 		.4byte	.LASF175
 9173 0a9e 01       		.byte	0x1
 9174 0a9f B401     		.2byte	0x1b4
 9175 0aa1 01       		.byte	0x1
 9176 0aa2 01       		.byte	0x1
 9177 0aa3 19       		.uleb128 0x19
 9178 0aa4 44010000 		.4byte	.LASF176
 9179 0aa8 02       		.byte	0x2
 9180 0aa9 61       		.byte	0x61
 9181 0aaa 01       		.byte	0x1
 9182 0aab 8A000000 		.4byte	0x8a
 9183 0aaf 03       		.byte	0x3
 9184 0ab0 BE0A0000 		.4byte	0xabe
 9185 0ab4 1A       		.uleb128 0x1a
 9186 0ab5 7800     		.ascii	"x\000"
 9187 0ab7 02       		.byte	0x2
 9188 0ab8 61       		.byte	0x61
 9189 0ab9 8A000000 		.4byte	0x8a
 9190 0abd 00       		.byte	0
 9191 0abe 20       		.uleb128 0x20
 9192 0abf 5E0A0000 		.4byte	.LASF256
 9193 0ac3 01       		.byte	0x1
 9194 0ac4 E303     		.2byte	0x3e3
 9195 0ac6 01       		.byte	0x1
 9196 0ac7 01       		.byte	0x1
 9197 0ac8 EF0A0000 		.4byte	0xaef
 9198 0acc 21       		.uleb128 0x21
 9199 0acd 6D00     		.ascii	"m\000"
 9200 0acf 01       		.byte	0x1
 9201 0ad0 E303     		.2byte	0x3e3
 9202 0ad2 8B090000 		.4byte	0x98b
 9203 0ad6 22       		.uleb128 0x22
 9204 0ad7 14040000 		.4byte	.LASF177
 9205 0adb 01       		.byte	0x1
 9206 0adc E303     		.2byte	0x3e3
 9207 0ade 4C000000 		.4byte	0x4c
 9208 0ae2 23       		.uleb128 0x23
 9209 0ae3 380A0000 		.4byte	.LASF131
 9210 0ae7 01       		.byte	0x1
 9211 0ae8 E503     		.2byte	0x3e5
 9212 0aea 6E050000 		.4byte	0x56e
 9213 0aee 00       		.byte	0
 9214 0aef 24       		.uleb128 0x24
 9215 0af0 01       		.byte	0x1
 9216 0af1 77020000 		.4byte	.LASF179
 9217 0af5 01       		.byte	0x1
 9218 0af6 D104     		.2byte	0x4d1
 9219 0af8 01       		.byte	0x1
 9220 0af9 8A000000 		.4byte	0x8a
 9221 0afd 01       		.byte	0x1
 9222 0afe 250B0000 		.4byte	0xb25
 9223 0b02 21       		.uleb128 0x21
 9224 0b03 6D00     		.ascii	"m\000"
 9225 0b05 01       		.byte	0x1
 9226 0b06 D104     		.2byte	0x4d1
 9227 0b08 8B090000 		.4byte	0x98b
 9228 0b0c 22       		.uleb128 0x22
ARM GAS  /tmp/ccdUEzgz.s 			page 164


 9229 0b0d 14040000 		.4byte	.LASF177
 9230 0b11 01       		.byte	0x1
 9231 0b12 D104     		.2byte	0x4d1
 9232 0b14 4C000000 		.4byte	0x4c
 9233 0b18 23       		.uleb128 0x23
 9234 0b19 23040000 		.4byte	.LASF178
 9235 0b1d 01       		.byte	0x1
 9236 0b1e D304     		.2byte	0x4d3
 9237 0b20 8A000000 		.4byte	0x8a
 9238 0b24 00       		.byte	0
 9239 0b25 24       		.uleb128 0x24
 9240 0b26 01       		.byte	0x1
 9241 0b27 1F090000 		.4byte	.LASF180
 9242 0b2b 01       		.byte	0x1
 9243 0b2c E604     		.2byte	0x4e6
 9244 0b2e 01       		.byte	0x1
 9245 0b2f 8A000000 		.4byte	0x8a
 9246 0b33 01       		.byte	0x1
 9247 0b34 5B0B0000 		.4byte	0xb5b
 9248 0b38 21       		.uleb128 0x21
 9249 0b39 7300     		.ascii	"s\000"
 9250 0b3b 01       		.byte	0x1
 9251 0b3c E604     		.2byte	0x4e6
 9252 0b3e 5B0B0000 		.4byte	0xb5b
 9253 0b42 22       		.uleb128 0x22
 9254 0b43 14040000 		.4byte	.LASF177
 9255 0b47 01       		.byte	0x1
 9256 0b48 E604     		.2byte	0x4e6
 9257 0b4a 4C000000 		.4byte	0x4c
 9258 0b4e 23       		.uleb128 0x23
 9259 0b4f 23040000 		.4byte	.LASF178
 9260 0b53 01       		.byte	0x1
 9261 0b54 E804     		.2byte	0x4e8
 9262 0b56 8A000000 		.4byte	0x8a
 9263 0b5a 00       		.byte	0
 9264 0b5b 05       		.uleb128 0x5
 9265 0b5c 04       		.byte	0x4
 9266 0b5d 91090000 		.4byte	0x991
 9267 0b61 25       		.uleb128 0x25
 9268 0b62 01       		.byte	0x1
 9269 0b63 0E030000 		.4byte	.LASF183
 9270 0b67 01       		.byte	0x1
 9271 0b68 3706     		.2byte	0x637
 9272 0b6a 01       		.byte	0x1
 9273 0b6b 02010000 		.4byte	0x102
 9274 0b6f 00000000 		.4byte	.LFB108
 9275 0b73 9C0C0000 		.4byte	.LFE108
 9276 0b77 00000000 		.4byte	.LLST0
 9277 0b7b 030C0000 		.4byte	0xc03
 9278 0b7f 26       		.uleb128 0x26
 9279 0b80 61726700 		.ascii	"arg\000"
 9280 0b84 01       		.byte	0x1
 9281 0b85 3706     		.2byte	0x637
 9282 0b87 68000000 		.4byte	0x68
 9283 0b8b 2D000000 		.4byte	.LLST1
 9284 0b8f 27       		.uleb128 0x27
 9285 0b90 E7050000 		.4byte	.LASF134
ARM GAS  /tmp/ccdUEzgz.s 			page 165


 9286 0b94 01       		.byte	0x1
 9287 0b95 3906     		.2byte	0x639
 9288 0b97 030C0000 		.4byte	0xc03
 9289 0b9b 0F       		.byte	0xf
 9290 0b9c 28       		.uleb128 0x28
 9291 0b9d 37040000 		.4byte	.LASF181
 9292 0ba1 01       		.byte	0x1
 9293 0ba2 3A06     		.2byte	0x63a
 9294 0ba4 4C000000 		.4byte	0x4c
 9295 0ba8 40000000 		.4byte	.LLST2
 9296 0bac 28       		.uleb128 0x28
 9297 0bad 0A0A0000 		.4byte	.LASF182
 9298 0bb1 01       		.byte	0x1
 9299 0bb2 3B06     		.2byte	0x63b
 9300 0bb4 4C000000 		.4byte	0x4c
 9301 0bb8 A8030000 		.4byte	.LLST3
 9302 0bbc 29       		.uleb128 0x29
 9303 0bbd 6D00     		.ascii	"m\000"
 9304 0bbf 01       		.byte	0x1
 9305 0bc0 3C06     		.2byte	0x63c
 9306 0bc2 8B090000 		.4byte	0x98b
 9307 0bc6 2E060000 		.4byte	.LLST4
 9308 0bca 2A       		.uleb128 0x2a
 9309 0bcb 720A0000 		.4byte	0xa72
 9310 0bcf 92040000 		.4byte	.LBB39
 9311 0bd3 00000000 		.4byte	.Ldebug_ranges0+0
 9312 0bd7 01       		.byte	0x1
 9313 0bd8 6006     		.2byte	0x660
 9314 0bda E80B0000 		.4byte	0xbe8
 9315 0bde 2B       		.uleb128 0x2b
 9316 0bdf 830A0000 		.4byte	0xa83
 9317 0be3 6F0A0000 		.4byte	.LLST5
 9318 0be7 00       		.byte	0
 9319 0be8 2C       		.uleb128 0x2c
 9320 0be9 720A0000 		.4byte	0xa72
 9321 0bed AA040000 		.4byte	.LBB66
 9322 0bf1 D0000000 		.4byte	.Ldebug_ranges0+0xd0
 9323 0bf5 01       		.byte	0x1
 9324 0bf6 6006     		.2byte	0x660
 9325 0bf8 2B       		.uleb128 0x2b
 9326 0bf9 830A0000 		.4byte	0xa83
 9327 0bfd 690B0000 		.4byte	.LLST6
 9328 0c01 00       		.byte	0
 9329 0c02 00       		.byte	0
 9330 0c03 06       		.uleb128 0x6
 9331 0c04 4C000000 		.4byte	0x4c
 9332 0c08 2D       		.uleb128 0x2d
 9333 0c09 01       		.byte	0x1
 9334 0c0a BD0A0000 		.4byte	.LASF184
 9335 0c0e 01       		.byte	0x1
 9336 0c0f A6       		.byte	0xa6
 9337 0c10 01       		.byte	0x1
 9338 0c11 8B090000 		.4byte	0x98b
 9339 0c15 00000000 		.4byte	.LFB69
 9340 0c19 1C000000 		.4byte	.LFE69
 9341 0c1d 02       		.byte	0x2
 9342 0c1e 7D       		.byte	0x7d
ARM GAS  /tmp/ccdUEzgz.s 			page 166


 9343 0c1f 00       		.sleb128 0
 9344 0c20 340C0000 		.4byte	0xc34
 9345 0c24 2E       		.uleb128 0x2e
 9346 0c25 01020000 		.4byte	.LASF185
 9347 0c29 01       		.byte	0x1
 9348 0c2a A6       		.byte	0xa6
 9349 0c2b 73060000 		.4byte	0x673
 9350 0c2f 870C0000 		.4byte	.LLST7
 9351 0c33 00       		.byte	0
 9352 0c34 2D       		.uleb128 0x2d
 9353 0c35 01       		.byte	0x1
 9354 0c36 D4060000 		.4byte	.LASF186
 9355 0c3a 01       		.byte	0x1
 9356 0c3b B6       		.byte	0xb6
 9357 0c3c 01       		.byte	0x1
 9358 0c3d 5B0B0000 		.4byte	0xb5b
 9359 0c41 00000000 		.4byte	.LFB70
 9360 0c45 1A000000 		.4byte	.LFE70
 9361 0c49 02       		.byte	0x2
 9362 0c4a 7D       		.byte	0x7d
 9363 0c4b 00       		.sleb128 0
 9364 0c4c 600C0000 		.4byte	0xc60
 9365 0c50 2E       		.uleb128 0x2e
 9366 0c51 01020000 		.4byte	.LASF185
 9367 0c55 01       		.byte	0x1
 9368 0c56 B6       		.byte	0xb6
 9369 0c57 3E000000 		.4byte	0x3e
 9370 0c5b A50C0000 		.4byte	.LLST8
 9371 0c5f 00       		.byte	0
 9372 0c60 2D       		.uleb128 0x2d
 9373 0c61 01       		.byte	0x1
 9374 0c62 15000000 		.4byte	.LASF187
 9375 0c66 01       		.byte	0x1
 9376 0c67 C6       		.byte	0xc6
 9377 0c68 01       		.byte	0x1
 9378 0c69 8A000000 		.4byte	0x8a
 9379 0c6d 00000000 		.4byte	.LFB71
 9380 0c71 1E000000 		.4byte	.LFE71
 9381 0c75 02       		.byte	0x2
 9382 0c76 7D       		.byte	0x7d
 9383 0c77 00       		.sleb128 0
 9384 0c78 8C0C0000 		.4byte	0xc8c
 9385 0c7c 2E       		.uleb128 0x2e
 9386 0c7d 01020000 		.4byte	.LASF185
 9387 0c81 01       		.byte	0x1
 9388 0c82 C6       		.byte	0xc6
 9389 0c83 73060000 		.4byte	0x673
 9390 0c87 C30C0000 		.4byte	.LLST9
 9391 0c8b 00       		.byte	0
 9392 0c8c 2F       		.uleb128 0x2f
 9393 0c8d 01       		.byte	0x1
 9394 0c8e 0F0C0000 		.4byte	.LASF188
 9395 0c92 01       		.byte	0x1
 9396 0c93 D8       		.byte	0xd8
 9397 0c94 01       		.byte	0x1
 9398 0c95 8A000000 		.4byte	0x8a
 9399 0c99 00000000 		.4byte	.LFB72
ARM GAS  /tmp/ccdUEzgz.s 			page 167


 9400 0c9d 3E000000 		.4byte	.LFE72
 9401 0ca1 EC0C0000 		.4byte	.LLST10
 9402 0ca5 C60C0000 		.4byte	0xcc6
 9403 0ca9 2E       		.uleb128 0x2e
 9404 0caa 01020000 		.4byte	.LASF185
 9405 0cae 01       		.byte	0x1
 9406 0caf D8       		.byte	0xd8
 9407 0cb0 73060000 		.4byte	0x673
 9408 0cb4 0C0D0000 		.4byte	.LLST11
 9409 0cb8 30       		.uleb128 0x30
 9410 0cb9 7300     		.ascii	"s\000"
 9411 0cbb 01       		.byte	0x1
 9412 0cbc D8       		.byte	0xd8
 9413 0cbd 4C000000 		.4byte	0x4c
 9414 0cc1 02       		.byte	0x2
 9415 0cc2 91       		.byte	0x91
 9416 0cc3 74       		.sleb128 -12
 9417 0cc4 31       		.uleb128 0x31
 9418 0cc5 00       		.byte	0
 9419 0cc6 2D       		.uleb128 0x2d
 9420 0cc7 01       		.byte	0x1
 9421 0cc8 6C0B0000 		.4byte	.LASF189
 9422 0ccc 01       		.byte	0x1
 9423 0ccd EC       		.byte	0xec
 9424 0cce 01       		.byte	0x1
 9425 0ccf 8A000000 		.4byte	0x8a
 9426 0cd3 00000000 		.4byte	.LFB73
 9427 0cd7 1E000000 		.4byte	.LFE73
 9428 0cdb 02       		.byte	0x2
 9429 0cdc 7D       		.byte	0x7d
 9430 0cdd 00       		.sleb128 0
 9431 0cde F20C0000 		.4byte	0xcf2
 9432 0ce2 2E       		.uleb128 0x2e
 9433 0ce3 01020000 		.4byte	.LASF185
 9434 0ce7 01       		.byte	0x1
 9435 0ce8 EC       		.byte	0xec
 9436 0ce9 73060000 		.4byte	0x673
 9437 0ced 400D0000 		.4byte	.LLST12
 9438 0cf1 00       		.byte	0
 9439 0cf2 2D       		.uleb128 0x2d
 9440 0cf3 01       		.byte	0x1
 9441 0cf4 B1090000 		.4byte	.LASF190
 9442 0cf8 01       		.byte	0x1
 9443 0cf9 FC       		.byte	0xfc
 9444 0cfa 01       		.byte	0x1
 9445 0cfb 4C000000 		.4byte	0x4c
 9446 0cff 00000000 		.4byte	.LFB74
 9447 0d03 20000000 		.4byte	.LFE74
 9448 0d07 02       		.byte	0x2
 9449 0d08 7D       		.byte	0x7d
 9450 0d09 00       		.sleb128 0
 9451 0d0a 1E0D0000 		.4byte	0xd1e
 9452 0d0e 2E       		.uleb128 0x2e
 9453 0d0f 01020000 		.4byte	.LASF185
 9454 0d13 01       		.byte	0x1
 9455 0d14 FC       		.byte	0xfc
 9456 0d15 73060000 		.4byte	0x673
ARM GAS  /tmp/ccdUEzgz.s 			page 168


 9457 0d19 690D0000 		.4byte	.LLST13
 9458 0d1d 00       		.byte	0
 9459 0d1e 32       		.uleb128 0x32
 9460 0d1f 01       		.byte	0x1
 9461 0d20 BD020000 		.4byte	.LASF191
 9462 0d24 01       		.byte	0x1
 9463 0d25 1001     		.2byte	0x110
 9464 0d27 01       		.byte	0x1
 9465 0d28 00000000 		.4byte	.LFB75
 9466 0d2c 20000000 		.4byte	.LFE75
 9467 0d30 920D0000 		.4byte	.LLST14
 9468 0d34 590D0000 		.4byte	0xd59
 9469 0d38 33       		.uleb128 0x33
 9470 0d39 01020000 		.4byte	.LASF185
 9471 0d3d 01       		.byte	0x1
 9472 0d3e 1001     		.2byte	0x110
 9473 0d40 73060000 		.4byte	0x673
 9474 0d44 B20D0000 		.4byte	.LLST15
 9475 0d48 34       		.uleb128 0x34
 9476 0d49 B50A0000 		.4byte	.LASF153
 9477 0d4d 01       		.byte	0x1
 9478 0d4e 1001     		.2byte	0x110
 9479 0d50 8A000000 		.4byte	0x8a
 9480 0d54 02       		.byte	0x2
 9481 0d55 91       		.byte	0x91
 9482 0d56 74       		.sleb128 -12
 9483 0d57 31       		.uleb128 0x31
 9484 0d58 00       		.byte	0
 9485 0d59 32       		.uleb128 0x32
 9486 0d5a 01       		.byte	0x1
 9487 0d5b 910B0000 		.4byte	.LASF192
 9488 0d5f 01       		.byte	0x1
 9489 0d60 2001     		.2byte	0x120
 9490 0d62 01       		.byte	0x1
 9491 0d63 00000000 		.4byte	.LFB76
 9492 0d67 78000000 		.4byte	.LFE76
 9493 0d6b C50D0000 		.4byte	.LLST16
 9494 0d6f A20D0000 		.4byte	0xda2
 9495 0d73 33       		.uleb128 0x33
 9496 0d74 01020000 		.4byte	.LASF185
 9497 0d78 01       		.byte	0x1
 9498 0d79 2001     		.2byte	0x120
 9499 0d7b 73060000 		.4byte	0x673
 9500 0d7f E50D0000 		.4byte	.LLST17
 9501 0d83 33       		.uleb128 0x33
 9502 0d84 AA050000 		.4byte	.LASF193
 9503 0d88 01       		.byte	0x1
 9504 0d89 2001     		.2byte	0x120
 9505 0d8b 3E000000 		.4byte	0x3e
 9506 0d8f F80D0000 		.4byte	.LLST18
 9507 0d93 29       		.uleb128 0x29
 9508 0d94 6D00     		.ascii	"m\000"
 9509 0d96 01       		.byte	0x1
 9510 0d97 2601     		.2byte	0x126
 9511 0d99 8B090000 		.4byte	0x98b
 9512 0d9d 0B0E0000 		.4byte	.LLST19
 9513 0da1 00       		.byte	0
ARM GAS  /tmp/ccdUEzgz.s 			page 169


 9514 0da2 35       		.uleb128 0x35
 9515 0da3 01       		.byte	0x1
 9516 0da4 F90B0000 		.4byte	.LASF194
 9517 0da8 01       		.byte	0x1
 9518 0da9 3A01     		.2byte	0x13a
 9519 0dab 01       		.byte	0x1
 9520 0dac 00000000 		.4byte	.LFB77
 9521 0db0 1E000000 		.4byte	.LFE77
 9522 0db4 02       		.byte	0x2
 9523 0db5 7D       		.byte	0x7d
 9524 0db6 00       		.sleb128 0
 9525 0db7 DA0D0000 		.4byte	0xdda
 9526 0dbb 33       		.uleb128 0x33
 9527 0dbc 01020000 		.4byte	.LASF185
 9528 0dc0 01       		.byte	0x1
 9529 0dc1 3A01     		.2byte	0x13a
 9530 0dc3 73060000 		.4byte	0x673
 9531 0dc7 1E0E0000 		.4byte	.LLST20
 9532 0dcb 34       		.uleb128 0x34
 9533 0dcc 76040000 		.4byte	.LASF195
 9534 0dd0 01       		.byte	0x1
 9535 0dd1 3A01     		.2byte	0x13a
 9536 0dd3 4C000000 		.4byte	0x4c
 9537 0dd7 01       		.byte	0x1
 9538 0dd8 51       		.byte	0x51
 9539 0dd9 00       		.byte	0
 9540 0dda 36       		.uleb128 0x36
 9541 0ddb 01       		.byte	0x1
 9542 0ddc 2C0B0000 		.4byte	.LASF196
 9543 0de0 01       		.byte	0x1
 9544 0de1 4E01     		.2byte	0x14e
 9545 0de3 01       		.byte	0x1
 9546 0de4 8A000000 		.4byte	0x8a
 9547 0de8 00000000 		.4byte	.LFB78
 9548 0dec 1C000000 		.4byte	.LFE78
 9549 0df0 02       		.byte	0x2
 9550 0df1 7D       		.byte	0x7d
 9551 0df2 00       		.sleb128 0
 9552 0df3 080E0000 		.4byte	0xe08
 9553 0df7 33       		.uleb128 0x33
 9554 0df8 01020000 		.4byte	.LASF185
 9555 0dfc 01       		.byte	0x1
 9556 0dfd 4E01     		.2byte	0x14e
 9557 0dff 3E000000 		.4byte	0x3e
 9558 0e03 310E0000 		.4byte	.LLST21
 9559 0e07 00       		.byte	0
 9560 0e08 36       		.uleb128 0x36
 9561 0e09 01       		.byte	0x1
 9562 0e0a B2050000 		.4byte	.LASF197
 9563 0e0e 01       		.byte	0x1
 9564 0e0f 5D01     		.2byte	0x15d
 9565 0e11 01       		.byte	0x1
 9566 0e12 8A000000 		.4byte	0x8a
 9567 0e16 00000000 		.4byte	.LFB79
 9568 0e1a 1C000000 		.4byte	.LFE79
 9569 0e1e 02       		.byte	0x2
 9570 0e1f 7D       		.byte	0x7d
ARM GAS  /tmp/ccdUEzgz.s 			page 170


 9571 0e20 00       		.sleb128 0
 9572 0e21 360E0000 		.4byte	0xe36
 9573 0e25 33       		.uleb128 0x33
 9574 0e26 01020000 		.4byte	.LASF185
 9575 0e2a 01       		.byte	0x1
 9576 0e2b 5D01     		.2byte	0x15d
 9577 0e2d 3E000000 		.4byte	0x3e
 9578 0e31 4F0E0000 		.4byte	.LLST22
 9579 0e35 00       		.byte	0
 9580 0e36 35       		.uleb128 0x35
 9581 0e37 01       		.byte	0x1
 9582 0e38 97060000 		.4byte	.LASF198
 9583 0e3c 01       		.byte	0x1
 9584 0e3d 7101     		.2byte	0x171
 9585 0e3f 01       		.byte	0x1
 9586 0e40 00000000 		.4byte	.LFB80
 9587 0e44 1E000000 		.4byte	.LFE80
 9588 0e48 02       		.byte	0x2
 9589 0e49 7D       		.byte	0x7d
 9590 0e4a 00       		.sleb128 0
 9591 0e4b 6E0E0000 		.4byte	0xe6e
 9592 0e4f 33       		.uleb128 0x33
 9593 0e50 01020000 		.4byte	.LASF185
 9594 0e54 01       		.byte	0x1
 9595 0e55 7101     		.2byte	0x171
 9596 0e57 4C000000 		.4byte	0x4c
 9597 0e5b 6D0E0000 		.4byte	.LLST23
 9598 0e5f 34       		.uleb128 0x34
 9599 0e60 380A0000 		.4byte	.LASF131
 9600 0e64 01       		.byte	0x1
 9601 0e65 7101     		.2byte	0x171
 9602 0e67 D6050000 		.4byte	0x5d6
 9603 0e6b 01       		.byte	0x1
 9604 0e6c 51       		.byte	0x51
 9605 0e6d 00       		.byte	0
 9606 0e6e 35       		.uleb128 0x35
 9607 0e6f 01       		.byte	0x1
 9608 0e70 07080000 		.4byte	.LASF199
 9609 0e74 01       		.byte	0x1
 9610 0e75 8701     		.2byte	0x187
 9611 0e77 01       		.byte	0x1
 9612 0e78 00000000 		.4byte	.LFB81
 9613 0e7c 14000000 		.4byte	.LFE81
 9614 0e80 02       		.byte	0x2
 9615 0e81 7D       		.byte	0x7d
 9616 0e82 00       		.sleb128 0
 9617 0e83 960E0000 		.4byte	0xe96
 9618 0e87 34       		.uleb128 0x34
 9619 0e88 380A0000 		.4byte	.LASF131
 9620 0e8c 01       		.byte	0x1
 9621 0e8d 8701     		.2byte	0x187
 9622 0e8f 6E050000 		.4byte	0x56e
 9623 0e93 01       		.byte	0x1
 9624 0e94 50       		.byte	0x50
 9625 0e95 00       		.byte	0
 9626 0e96 37       		.uleb128 0x37
 9627 0e97 01       		.byte	0x1
ARM GAS  /tmp/ccdUEzgz.s 			page 171


 9628 0e98 B00C0000 		.4byte	.LASF200
 9629 0e9c 01       		.byte	0x1
 9630 0e9d 9401     		.2byte	0x194
 9631 0e9f 01       		.byte	0x1
 9632 0ea0 00000000 		.4byte	.LFB82
 9633 0ea4 1A000000 		.4byte	.LFE82
 9634 0ea8 02       		.byte	0x2
 9635 0ea9 7D       		.byte	0x7d
 9636 0eaa 00       		.sleb128 0
 9637 0eab 38       		.uleb128 0x38
 9638 0eac 8D0A0000 		.4byte	0xa8d
 9639 0eb0 00000000 		.4byte	.LFB83
 9640 0eb4 0E000000 		.4byte	.LFE83
 9641 0eb8 02       		.byte	0x2
 9642 0eb9 7D       		.byte	0x7d
 9643 0eba 00       		.sleb128 0
 9644 0ebb 37       		.uleb128 0x37
 9645 0ebc 01       		.byte	0x1
 9646 0ebd EF020000 		.4byte	.LASF201
 9647 0ec1 01       		.byte	0x1
 9648 0ec2 A901     		.2byte	0x1a9
 9649 0ec4 01       		.byte	0x1
 9650 0ec5 00000000 		.4byte	.LFB84
 9651 0ec9 1A000000 		.4byte	.LFE84
 9652 0ecd 02       		.byte	0x2
 9653 0ece 7D       		.byte	0x7d
 9654 0ecf 00       		.sleb128 0
 9655 0ed0 38       		.uleb128 0x38
 9656 0ed1 980A0000 		.4byte	0xa98
 9657 0ed5 00000000 		.4byte	.LFB85
 9658 0ed9 0E000000 		.4byte	.LFE85
 9659 0edd 02       		.byte	0x2
 9660 0ede 7D       		.byte	0x7d
 9661 0edf 00       		.sleb128 0
 9662 0ee0 39       		.uleb128 0x39
 9663 0ee1 01       		.byte	0x1
 9664 0ee2 D6000000 		.4byte	.LASF202
 9665 0ee6 01       		.byte	0x1
 9666 0ee7 BF01     		.2byte	0x1bf
 9667 0ee9 01       		.byte	0x1
 9668 0eea 00000000 		.4byte	.LFB86
 9669 0eee 26000000 		.4byte	.LFE86
 9670 0ef2 800E0000 		.4byte	.LLST24
 9671 0ef6 32       		.uleb128 0x32
 9672 0ef7 01       		.byte	0x1
 9673 0ef8 8D020000 		.4byte	.LASF203
 9674 0efc 01       		.byte	0x1
 9675 0efd CC01     		.2byte	0x1cc
 9676 0eff 01       		.byte	0x1
 9677 0f00 00000000 		.4byte	.LFB87
 9678 0f04 34000000 		.4byte	.LFE87
 9679 0f08 A00E0000 		.4byte	.LLST25
 9680 0f0c 310F0000 		.4byte	0xf31
 9681 0f10 3A       		.uleb128 0x3a
 9682 0f11 8D0A0000 		.4byte	0xa8d
 9683 0f15 02000000 		.4byte	.LBB129
 9684 0f19 78010000 		.4byte	.Ldebug_ranges0+0x178
ARM GAS  /tmp/ccdUEzgz.s 			page 172


 9685 0f1d 01       		.byte	0x1
 9686 0f1e CE01     		.2byte	0x1ce
 9687 0f20 3A       		.uleb128 0x3a
 9688 0f21 980A0000 		.4byte	0xa98
 9689 0f25 06000000 		.4byte	.LBB133
 9690 0f29 98010000 		.4byte	.Ldebug_ranges0+0x198
 9691 0f2d 01       		.byte	0x1
 9692 0f2e CF01     		.2byte	0x1cf
 9693 0f30 00       		.byte	0
 9694 0f31 32       		.uleb128 0x32
 9695 0f32 01       		.byte	0x1
 9696 0f33 CE0A0000 		.4byte	.LASF204
 9697 0f37 01       		.byte	0x1
 9698 0f38 DA01     		.2byte	0x1da
 9699 0f3a 01       		.byte	0x1
 9700 0f3b 00000000 		.4byte	.LFB88
 9701 0f3f 0C070000 		.4byte	.LFE88
 9702 0f43 C00E0000 		.4byte	.LLST26
 9703 0f47 840F0000 		.4byte	0xf84
 9704 0f4b 29       		.uleb128 0x29
 9705 0f4c 6900     		.ascii	"i\000"
 9706 0f4e 01       		.byte	0x1
 9707 0f4f DC01     		.2byte	0x1dc
 9708 0f51 3E000000 		.4byte	0x3e
 9709 0f55 E00E0000 		.4byte	.LLST27
 9710 0f59 29       		.uleb128 0x29
 9711 0f5a 6A00     		.ascii	"j\000"
 9712 0f5c 01       		.byte	0x1
 9713 0f5d DC01     		.2byte	0x1dc
 9714 0f5f 3E000000 		.4byte	0x3e
 9715 0f63 C00F0000 		.4byte	.LLST28
 9716 0f67 29       		.uleb128 0x29
 9717 0f68 6D00     		.ascii	"m\000"
 9718 0f6a 01       		.byte	0x1
 9719 0f6b DD01     		.2byte	0x1dd
 9720 0f6d 8B090000 		.4byte	0x98b
 9721 0f71 EC0F0000 		.4byte	.LLST29
 9722 0f75 29       		.uleb128 0x29
 9723 0f76 7300     		.ascii	"s\000"
 9724 0f78 01       		.byte	0x1
 9725 0f79 DE01     		.2byte	0x1de
 9726 0f7b 5B0B0000 		.4byte	0xb5b
 9727 0f7f 54110000 		.4byte	.LLST30
 9728 0f83 00       		.byte	0
 9729 0f84 32       		.uleb128 0x32
 9730 0f85 01       		.byte	0x1
 9731 0f86 97070000 		.4byte	.LASF205
 9732 0f8a 01       		.byte	0x1
 9733 0f8b 1302     		.2byte	0x213
 9734 0f8d 01       		.byte	0x1
 9735 0f8e 00000000 		.4byte	.LFB89
 9736 0f92 5C000000 		.4byte	.LFE89
 9737 0f96 8C110000 		.4byte	.LLST31
 9738 0f9a DD0F0000 		.4byte	0xfdd
 9739 0f9e 33       		.uleb128 0x33
 9740 0f9f 01020000 		.4byte	.LASF185
 9741 0fa3 01       		.byte	0x1
ARM GAS  /tmp/ccdUEzgz.s 			page 173


 9742 0fa4 1302     		.2byte	0x213
 9743 0fa6 4C000000 		.4byte	0x4c
 9744 0faa B8110000 		.4byte	.LLST32
 9745 0fae 33       		.uleb128 0x33
 9746 0faf DF020000 		.4byte	.LASF206
 9747 0fb3 01       		.byte	0x1
 9748 0fb4 1302     		.2byte	0x213
 9749 0fb6 4C000000 		.4byte	0x4c
 9750 0fba D6110000 		.4byte	.LLST33
 9751 0fbe 34       		.uleb128 0x34
 9752 0fbf B8060000 		.4byte	.LASF207
 9753 0fc3 01       		.byte	0x1
 9754 0fc4 1302     		.2byte	0x213
 9755 0fc6 B9000000 		.4byte	0xb9
 9756 0fca 02       		.byte	0x2
 9757 0fcb 91       		.byte	0x91
 9758 0fcc 78       		.sleb128 -8
 9759 0fcd 31       		.uleb128 0x31
 9760 0fce 29       		.uleb128 0x29
 9761 0fcf 6D00     		.ascii	"m\000"
 9762 0fd1 01       		.byte	0x1
 9763 0fd2 1502     		.2byte	0x215
 9764 0fd4 8B090000 		.4byte	0x98b
 9765 0fd8 F4110000 		.4byte	.LLST34
 9766 0fdc 00       		.byte	0
 9767 0fdd 32       		.uleb128 0x32
 9768 0fde 01       		.byte	0x1
 9769 0fdf 71090000 		.4byte	.LASF208
 9770 0fe3 01       		.byte	0x1
 9771 0fe4 3C02     		.2byte	0x23c
 9772 0fe6 01       		.byte	0x1
 9773 0fe7 00000000 		.4byte	.LFB90
 9774 0feb E4020000 		.4byte	.LFE90
 9775 0fef 12120000 		.4byte	.LLST35
 9776 0ff3 22100000 		.4byte	0x1022
 9777 0ff7 29       		.uleb128 0x29
 9778 0ff8 6900     		.ascii	"i\000"
 9779 0ffa 01       		.byte	0x1
 9780 0ffb 3E02     		.2byte	0x23e
 9781 0ffd 4C000000 		.4byte	0x4c
 9782 1001 32120000 		.4byte	.LLST36
 9783 1005 29       		.uleb128 0x29
 9784 1006 6A00     		.ascii	"j\000"
 9785 1008 01       		.byte	0x1
 9786 1009 3E02     		.2byte	0x23e
 9787 100b 4C000000 		.4byte	0x4c
 9788 100f 1C130000 		.4byte	.LLST37
 9789 1013 29       		.uleb128 0x29
 9790 1014 6D00     		.ascii	"m\000"
 9791 1016 01       		.byte	0x1
 9792 1017 3F02     		.2byte	0x23f
 9793 1019 8B090000 		.4byte	0x98b
 9794 101d 54130000 		.4byte	.LLST38
 9795 1021 00       		.byte	0
 9796 1022 32       		.uleb128 0x32
 9797 1023 01       		.byte	0x1
 9798 1024 CD010000 		.4byte	.LASF209
ARM GAS  /tmp/ccdUEzgz.s 			page 174


 9799 1028 01       		.byte	0x1
 9800 1029 EA02     		.2byte	0x2ea
 9801 102b 01       		.byte	0x1
 9802 102c 00000000 		.4byte	.LFB91
 9803 1030 48000000 		.4byte	.LFE91
 9804 1034 72130000 		.4byte	.LLST39
 9805 1038 79100000 		.4byte	0x1079
 9806 103c 33       		.uleb128 0x33
 9807 103d 030A0000 		.4byte	.LASF210
 9808 1041 01       		.byte	0x1
 9809 1042 EA02     		.2byte	0x2ea
 9810 1044 73060000 		.4byte	0x673
 9811 1048 92130000 		.4byte	.LLST40
 9812 104c 33       		.uleb128 0x33
 9813 104d 74000000 		.4byte	.LASF211
 9814 1051 01       		.byte	0x1
 9815 1052 EA02     		.2byte	0x2ea
 9816 1054 73060000 		.4byte	0x673
 9817 1058 B0130000 		.4byte	.LLST41
 9818 105c 29       		.uleb128 0x29
 9819 105d 6D00     		.ascii	"m\000"
 9820 105f 01       		.byte	0x1
 9821 1060 F502     		.2byte	0x2f5
 9822 1062 8B090000 		.4byte	0x98b
 9823 1066 C3130000 		.4byte	.LLST42
 9824 106a 29       		.uleb128 0x29
 9825 106b 7300     		.ascii	"s\000"
 9826 106d 01       		.byte	0x1
 9827 106e F602     		.2byte	0x2f6
 9828 1070 8B090000 		.4byte	0x98b
 9829 1074 D6130000 		.4byte	.LLST43
 9830 1078 00       		.byte	0
 9831 1079 32       		.uleb128 0x32
 9832 107a 01       		.byte	0x1
 9833 107b 130A0000 		.4byte	.LASF212
 9834 107f 01       		.byte	0x1
 9835 1080 1303     		.2byte	0x313
 9836 1082 01       		.byte	0x1
 9837 1083 00000000 		.4byte	.LFB92
 9838 1087 28000000 		.4byte	.LFE92
 9839 108b F8130000 		.4byte	.LLST44
 9840 108f C2100000 		.4byte	0x10c2
 9841 1093 33       		.uleb128 0x33
 9842 1094 01020000 		.4byte	.LASF185
 9843 1098 01       		.byte	0x1
 9844 1099 1303     		.2byte	0x313
 9845 109b 73060000 		.4byte	0x673
 9846 109f 18140000 		.4byte	.LLST45
 9847 10a3 33       		.uleb128 0x33
 9848 10a4 C8000000 		.4byte	.LASF213
 9849 10a8 01       		.byte	0x1
 9850 10a9 1303     		.2byte	0x313
 9851 10ab 8A000000 		.4byte	0x8a
 9852 10af 2B140000 		.4byte	.LLST46
 9853 10b3 29       		.uleb128 0x29
 9854 10b4 6D00     		.ascii	"m\000"
 9855 10b6 01       		.byte	0x1
ARM GAS  /tmp/ccdUEzgz.s 			page 175


 9856 10b7 1903     		.2byte	0x319
 9857 10b9 8B090000 		.4byte	0x98b
 9858 10bd 3E140000 		.4byte	.LLST47
 9859 10c1 00       		.byte	0
 9860 10c2 32       		.uleb128 0x32
 9861 10c3 01       		.byte	0x1
 9862 10c4 42040000 		.4byte	.LASF214
 9863 10c8 01       		.byte	0x1
 9864 10c9 3B03     		.2byte	0x33b
 9865 10cb 01       		.byte	0x1
 9866 10cc 00000000 		.4byte	.LFB93
 9867 10d0 52040000 		.4byte	.LFE93
 9868 10d4 51140000 		.4byte	.LLST48
 9869 10d8 43110000 		.4byte	0x1143
 9870 10dc 26       		.uleb128 0x26
 9871 10dd 703000   		.ascii	"p0\000"
 9872 10e0 01       		.byte	0x1
 9873 10e1 3B03     		.2byte	0x33b
 9874 10e3 4C000000 		.4byte	0x4c
 9875 10e7 7D140000 		.4byte	.LLST49
 9876 10eb 26       		.uleb128 0x26
 9877 10ec 703100   		.ascii	"p1\000"
 9878 10ef 01       		.byte	0x1
 9879 10f0 3B03     		.2byte	0x33b
 9880 10f2 4C000000 		.4byte	0x4c
 9881 10f6 A8140000 		.4byte	.LLST50
 9882 10fa 26       		.uleb128 0x26
 9883 10fb 703200   		.ascii	"p2\000"
 9884 10fe 01       		.byte	0x1
 9885 10ff 3B03     		.2byte	0x33b
 9886 1101 4C000000 		.4byte	0x4c
 9887 1105 C6140000 		.4byte	.LLST51
 9888 1109 3B       		.uleb128 0x3b
 9889 110a 703300   		.ascii	"p3\000"
 9890 110d 01       		.byte	0x1
 9891 110e 3B03     		.2byte	0x33b
 9892 1110 4C000000 		.4byte	0x4c
 9893 1114 02       		.byte	0x2
 9894 1115 91       		.byte	0x91
 9895 1116 7C       		.sleb128 -4
 9896 1117 31       		.uleb128 0x31
 9897 1118 29       		.uleb128 0x29
 9898 1119 6900     		.ascii	"i\000"
 9899 111b 01       		.byte	0x1
 9900 111c 3D03     		.2byte	0x33d
 9901 111e 4C000000 		.4byte	0x4c
 9902 1122 F1140000 		.4byte	.LLST52
 9903 1126 29       		.uleb128 0x29
 9904 1127 7000     		.ascii	"p\000"
 9905 1129 01       		.byte	0x1
 9906 112a 3E03     		.2byte	0x33e
 9907 112c 4C000000 		.4byte	0x4c
 9908 1130 DD150000 		.4byte	.LLST53
 9909 1134 29       		.uleb128 0x29
 9910 1135 6D00     		.ascii	"m\000"
 9911 1137 01       		.byte	0x1
 9912 1138 3F03     		.2byte	0x33f
ARM GAS  /tmp/ccdUEzgz.s 			page 176


 9913 113a 8B090000 		.4byte	0x98b
 9914 113e 39160000 		.4byte	.LLST54
 9915 1142 00       		.byte	0
 9916 1143 32       		.uleb128 0x32
 9917 1144 01       		.byte	0x1
 9918 1145 4E0C0000 		.4byte	.LASF215
 9919 1149 01       		.byte	0x1
 9920 114a 7703     		.2byte	0x377
 9921 114c 01       		.byte	0x1
 9922 114d 00000000 		.4byte	.LFB94
 9923 1151 40000000 		.4byte	.LFE94
 9924 1155 92160000 		.4byte	.LLST55
 9925 1159 AC110000 		.4byte	0x11ac
 9926 115d 33       		.uleb128 0x33
 9927 115e 01020000 		.4byte	.LASF185
 9928 1162 01       		.byte	0x1
 9929 1163 7703     		.2byte	0x377
 9930 1165 73060000 		.4byte	0x673
 9931 1169 BE160000 		.4byte	.LLST56
 9932 116d 33       		.uleb128 0x33
 9933 116e 380A0000 		.4byte	.LASF131
 9934 1172 01       		.byte	0x1
 9935 1173 7703     		.2byte	0x377
 9936 1175 6E050000 		.4byte	0x56e
 9937 1179 D1160000 		.4byte	.LLST57
 9938 117d 33       		.uleb128 0x33
 9939 117e 4B0B0000 		.4byte	.LASF143
 9940 1182 01       		.byte	0x1
 9941 1183 7703     		.2byte	0x377
 9942 1185 8A000000 		.4byte	0x8a
 9943 1189 E4160000 		.4byte	.LLST58
 9944 118d 34       		.uleb128 0x34
 9945 118e 8E060000 		.4byte	.LASF216
 9946 1192 01       		.byte	0x1
 9947 1193 7703     		.2byte	0x377
 9948 1195 B9000000 		.4byte	0xb9
 9949 1199 02       		.byte	0x2
 9950 119a 91       		.byte	0x91
 9951 119b 7C       		.sleb128 -4
 9952 119c 31       		.uleb128 0x31
 9953 119d 29       		.uleb128 0x29
 9954 119e 6D00     		.ascii	"m\000"
 9955 11a0 01       		.byte	0x1
 9956 11a1 7D03     		.2byte	0x37d
 9957 11a3 8B090000 		.4byte	0x98b
 9958 11a7 03170000 		.4byte	.LLST59
 9959 11ab 00       		.byte	0
 9960 11ac 32       		.uleb128 0x32
 9961 11ad 01       		.byte	0x1
 9962 11ae 5E060000 		.4byte	.LASF217
 9963 11b2 01       		.byte	0x1
 9964 11b3 A103     		.2byte	0x3a1
 9965 11b5 01       		.byte	0x1
 9966 11b6 00000000 		.4byte	.LFB95
 9967 11ba 80000000 		.4byte	.LFE95
 9968 11be 25170000 		.4byte	.LLST60
 9969 11c2 E5110000 		.4byte	0x11e5
ARM GAS  /tmp/ccdUEzgz.s 			page 177


 9970 11c6 26       		.uleb128 0x26
 9971 11c7 6D00     		.ascii	"m\000"
 9972 11c9 01       		.byte	0x1
 9973 11ca A103     		.2byte	0x3a1
 9974 11cc 8B090000 		.4byte	0x98b
 9975 11d0 45170000 		.4byte	.LLST61
 9976 11d4 33       		.uleb128 0x33
 9977 11d5 14040000 		.4byte	.LASF177
 9978 11d9 01       		.byte	0x1
 9979 11da A103     		.2byte	0x3a1
 9980 11dc 4C000000 		.4byte	0x4c
 9981 11e0 63170000 		.4byte	.LLST62
 9982 11e4 00       		.byte	0
 9983 11e5 32       		.uleb128 0x32
 9984 11e6 01       		.byte	0x1
 9985 11e7 660C0000 		.4byte	.LASF218
 9986 11eb 01       		.byte	0x1
 9987 11ec C303     		.2byte	0x3c3
 9988 11ee 01       		.byte	0x1
 9989 11ef 00000000 		.4byte	.LFB96
 9990 11f3 D8000000 		.4byte	.LFE96
 9991 11f7 81170000 		.4byte	.LLST63
 9992 11fb 86120000 		.4byte	0x1286
 9993 11ff 26       		.uleb128 0x26
 9994 1200 6D00     		.ascii	"m\000"
 9995 1202 01       		.byte	0x1
 9996 1203 C303     		.2byte	0x3c3
 9997 1205 8B090000 		.4byte	0x98b
 9998 1209 A1170000 		.4byte	.LLST64
 9999 120d 3C       		.uleb128 0x3c
 10000 120e 84060000 		.4byte	.LASF219
 10001 1212 01       		.byte	0x1
 10002 1213 C503     		.2byte	0x3c5
 10003 1215 96120000 		.4byte	0x1296
 10004 1219 05       		.byte	0x5
 10005 121a 03       		.byte	0x3
 10006 121b 00000000 		.4byte	spd_table.8582
 10007 121f 29       		.uleb128 0x29
 10008 1220 636D6400 		.ascii	"cmd\000"
 10009 1224 01       		.byte	0x1
 10010 1225 C603     		.2byte	0x3c6
 10011 1227 3E000000 		.4byte	0x3e
 10012 122b BF170000 		.4byte	.LLST65
 10013 122f 3C       		.uleb128 0x3c
 10014 1230 01020000 		.4byte	.LASF185
 10015 1234 01       		.byte	0x1
 10016 1235 C703     		.2byte	0x3c7
 10017 1237 3E000000 		.4byte	0x3e
 10018 123b 05       		.byte	0x5
 10019 123c 77       		.byte	0x77
 10020 123d 00       		.sleb128 0
 10021 123e 34       		.byte	0x34
 10022 123f 26       		.byte	0x26
 10023 1240 9F       		.byte	0x9f
 10024 1241 3D       		.uleb128 0x3d
 10025 1242 6600     		.ascii	"f\000"
 10026 1244 01       		.byte	0x1
ARM GAS  /tmp/ccdUEzgz.s 			page 178


 10027 1245 C803     		.2byte	0x3c8
 10028 1247 8A000000 		.4byte	0x8a
 10029 124b 28       		.uleb128 0x28
 10030 124c 6E060000 		.4byte	.LASF220
 10031 1250 01       		.byte	0x1
 10032 1251 C803     		.2byte	0x3c8
 10033 1253 8A000000 		.4byte	0x8a
 10034 1257 DD170000 		.4byte	.LLST66
 10035 125b 28       		.uleb128 0x28
 10036 125c 59010000 		.4byte	.LASF221
 10037 1260 01       		.byte	0x1
 10038 1261 C803     		.2byte	0x3c8
 10039 1263 8A000000 		.4byte	0x8a
 10040 1267 FB170000 		.4byte	.LLST67
 10041 126b 2C       		.uleb128 0x2c
 10042 126c 720A0000 		.4byte	0xa72
 10043 1270 94000000 		.4byte	.LBB141
 10044 1274 B8010000 		.4byte	.Ldebug_ranges0+0x1b8
 10045 1278 01       		.byte	0x1
 10046 1279 D803     		.2byte	0x3d8
 10047 127b 2B       		.uleb128 0x2b
 10048 127c 830A0000 		.4byte	0xa83
 10049 1280 19180000 		.4byte	.LLST68
 10050 1284 00       		.byte	0
 10051 1285 00       		.byte	0
 10052 1286 16       		.uleb128 0x16
 10053 1287 3E000000 		.4byte	0x3e
 10054 128b 96120000 		.4byte	0x1296
 10055 128f 17       		.uleb128 0x17
 10056 1290 29000000 		.4byte	0x29
 10057 1294 09       		.byte	0x9
 10058 1295 00       		.byte	0
 10059 1296 06       		.uleb128 0x6
 10060 1297 86120000 		.4byte	0x1286
 10061 129b 19       		.uleb128 0x19
 10062 129c 340C0000 		.4byte	.LASF222
 10063 12a0 02       		.byte	0x2
 10064 12a1 54       		.byte	0x54
 10065 12a2 01       		.byte	0x1
 10066 12a3 8A000000 		.4byte	0x8a
 10067 12a7 03       		.byte	0x3
 10068 12a8 B6120000 		.4byte	0x12b6
 10069 12ac 1A       		.uleb128 0x1a
 10070 12ad 7000     		.ascii	"p\000"
 10071 12af 02       		.byte	0x2
 10072 12b0 54       		.byte	0x54
 10073 12b1 8A000000 		.4byte	0x8a
 10074 12b5 00       		.byte	0
 10075 12b6 25       		.uleb128 0x25
 10076 12b7 01       		.byte	0x1
 10077 12b8 25060000 		.4byte	.LASF223
 10078 12bc 01       		.byte	0x1
 10079 12bd 0A04     		.2byte	0x40a
 10080 12bf 01       		.byte	0x1
 10081 12c0 8A000000 		.4byte	0x8a
 10082 12c4 00000000 		.4byte	.LFB98
 10083 12c8 40050000 		.4byte	.LFE98
ARM GAS  /tmp/ccdUEzgz.s 			page 179


 10084 12cc 42180000 		.4byte	.LLST69
 10085 12d0 35150000 		.4byte	0x1535
 10086 12d4 26       		.uleb128 0x26
 10087 12d5 6D00     		.ascii	"m\000"
 10088 12d7 01       		.byte	0x1
 10089 12d8 0A04     		.2byte	0x40a
 10090 12da 8B090000 		.4byte	0x98b
 10091 12de 6F180000 		.4byte	.LLST70
 10092 12e2 33       		.uleb128 0x33
 10093 12e3 440C0000 		.4byte	.LASF224
 10094 12e7 01       		.byte	0x1
 10095 12e8 0A04     		.2byte	0x40a
 10096 12ea 8A000000 		.4byte	0x8a
 10097 12ee 8D180000 		.4byte	.LLST71
 10098 12f2 28       		.uleb128 0x28
 10099 12f3 C9080000 		.4byte	.LASF225
 10100 12f7 01       		.byte	0x1
 10101 12f8 0C04     		.2byte	0x40c
 10102 12fa 8A000000 		.4byte	0x8a
 10103 12fe AC180000 		.4byte	.LLST72
 10104 1302 3E       		.uleb128 0x3e
 10105 1303 633100   		.ascii	"c1\000"
 10106 1306 01       		.byte	0x1
 10107 1307 0D04     		.2byte	0x40d
 10108 1309 8A000000 		.4byte	0x8a
 10109 130d 01       		.byte	0x1
 10110 130e 5A       		.byte	0x5a
 10111 130f 3E       		.uleb128 0x3e
 10112 1310 633200   		.ascii	"c2\000"
 10113 1313 01       		.byte	0x1
 10114 1314 0D04     		.2byte	0x40d
 10115 1316 8A000000 		.4byte	0x8a
 10116 131a 01       		.byte	0x1
 10117 131b 57       		.byte	0x57
 10118 131c 28       		.uleb128 0x28
 10119 131d 53010000 		.4byte	.LASF226
 10120 1321 01       		.byte	0x1
 10121 1322 0E04     		.2byte	0x40e
 10122 1324 8A000000 		.4byte	0x8a
 10123 1328 D5180000 		.4byte	.LLST73
 10124 132c 28       		.uleb128 0x28
 10125 132d 1D060000 		.4byte	.LASF227
 10126 1331 01       		.byte	0x1
 10127 1332 1004     		.2byte	0x410
 10128 1334 8A000000 		.4byte	0x8a
 10129 1338 0C190000 		.4byte	.LLST74
 10130 133c 28       		.uleb128 0x28
 10131 133d 16090000 		.4byte	.LASF228
 10132 1341 01       		.byte	0x1
 10133 1342 1004     		.2byte	0x410
 10134 1344 8A000000 		.4byte	0x8a
 10135 1348 35190000 		.4byte	.LLST75
 10136 134c 28       		.uleb128 0x28
 10137 134d 260B0000 		.4byte	.LASF229
 10138 1351 01       		.byte	0x1
 10139 1352 1204     		.2byte	0x412
 10140 1354 8A000000 		.4byte	0x8a
ARM GAS  /tmp/ccdUEzgz.s 			page 180


 10141 1358 49190000 		.4byte	.LLST76
 10142 135c 28       		.uleb128 0x28
 10143 135d 17060000 		.4byte	.LASF230
 10144 1361 01       		.byte	0x1
 10145 1362 1204     		.2byte	0x412
 10146 1364 8A000000 		.4byte	0x8a
 10147 1368 5C190000 		.4byte	.LLST77
 10148 136c 29       		.uleb128 0x29
 10149 136d 695F3000 		.ascii	"i_0\000"
 10150 1371 01       		.byte	0x1
 10151 1372 1204     		.2byte	0x412
 10152 1374 8A000000 		.4byte	0x8a
 10153 1378 7A190000 		.4byte	.LLST78
 10154 137c 28       		.uleb128 0x28
 10155 137d C70B0000 		.4byte	.LASF231
 10156 1381 01       		.byte	0x1
 10157 1382 1304     		.2byte	0x413
 10158 1384 8A000000 		.4byte	0x8a
 10159 1388 92190000 		.4byte	.LLST79
 10160 138c 28       		.uleb128 0x28
 10161 138d 62090000 		.4byte	.LASF232
 10162 1391 01       		.byte	0x1
 10163 1392 1304     		.2byte	0x413
 10164 1394 8A000000 		.4byte	0x8a
 10165 1398 B0190000 		.4byte	.LLST80
 10166 139c 3D       		.uleb128 0x3d
 10167 139d 64697200 		.ascii	"dir\000"
 10168 13a1 01       		.byte	0x1
 10169 13a2 1504     		.2byte	0x415
 10170 13a4 4C000000 		.4byte	0x4c
 10171 13a8 29       		.uleb128 0x29
 10172 13a9 636D6400 		.ascii	"cmd\000"
 10173 13ad 01       		.byte	0x1
 10174 13ae 1804     		.2byte	0x418
 10175 13b0 4C000000 		.4byte	0x4c
 10176 13b4 CE190000 		.4byte	.LLST81
 10177 13b8 2A       		.uleb128 0x2a
 10178 13b9 720A0000 		.4byte	0xa72
 10179 13bd 70000000 		.4byte	.LBB167
 10180 13c1 D8010000 		.4byte	.Ldebug_ranges0+0x1d8
 10181 13c5 01       		.byte	0x1
 10182 13c6 2604     		.2byte	0x426
 10183 13c8 D6130000 		.4byte	0x13d6
 10184 13cc 2B       		.uleb128 0x2b
 10185 13cd 830A0000 		.4byte	0xa83
 10186 13d1 0F1A0000 		.4byte	.LLST82
 10187 13d5 00       		.byte	0
 10188 13d6 2A       		.uleb128 0x2a
 10189 13d7 9B120000 		.4byte	0x129b
 10190 13db B6000000 		.4byte	.LBB176
 10191 13df 18020000 		.4byte	.Ldebug_ranges0+0x218
 10192 13e3 01       		.byte	0x1
 10193 13e4 2F04     		.2byte	0x42f
 10194 13e6 36140000 		.4byte	0x1436
 10195 13ea 3F       		.uleb128 0x3f
 10196 13eb AC120000 		.4byte	0x12ac
 10197 13ef 40       		.uleb128 0x40
ARM GAS  /tmp/ccdUEzgz.s 			page 181


 10198 13f0 9D090000 		.4byte	0x99d
 10199 13f4 C2000000 		.4byte	.LBB178
 10200 13f8 38020000 		.4byte	.Ldebug_ranges0+0x238
 10201 13fc 02       		.byte	0x2
 10202 13fd 56       		.byte	0x56
 10203 13fe 2B       		.uleb128 0x2b
 10204 13ff AE090000 		.4byte	0x9ae
 10205 1403 641A0000 		.4byte	.LLST83
 10206 1407 41       		.uleb128 0x41
 10207 1408 58020000 		.4byte	.Ldebug_ranges0+0x258
 10208 140c 42       		.uleb128 0x42
 10209 140d B7090000 		.4byte	0x9b7
 10210 1411 AE1A0000 		.4byte	.LLST84
 10211 1415 43       		.uleb128 0x43
 10212 1416 C2090000 		.4byte	0x9c2
 10213 141a 01       		.byte	0x1
 10214 141b 54       		.byte	0x54
 10215 141c 44       		.uleb128 0x44
 10216 141d CD090000 		.4byte	0x9cd
 10217 1421 42       		.uleb128 0x42
 10218 1422 D6090000 		.4byte	0x9d6
 10219 1426 CC1A0000 		.4byte	.LLST85
 10220 142a 42       		.uleb128 0x42
 10221 142b FA090000 		.4byte	0x9fa
 10222 142f 001B0000 		.4byte	.LLST86
 10223 1433 00       		.byte	0
 10224 1434 00       		.byte	0
 10225 1435 00       		.byte	0
 10226 1436 2A       		.uleb128 0x2a
 10227 1437 9B120000 		.4byte	0x129b
 10228 143b 64010000 		.4byte	.LBB186
 10229 143f 78020000 		.4byte	.Ldebug_ranges0+0x278
 10230 1443 01       		.byte	0x1
 10231 1444 3004     		.2byte	0x430
 10232 1446 96140000 		.4byte	0x1496
 10233 144a 3F       		.uleb128 0x3f
 10234 144b AC120000 		.4byte	0x12ac
 10235 144f 40       		.uleb128 0x40
 10236 1450 9D090000 		.4byte	0x99d
 10237 1454 70010000 		.4byte	.LBB188
 10238 1458 98020000 		.4byte	.Ldebug_ranges0+0x298
 10239 145c 02       		.byte	0x2
 10240 145d 56       		.byte	0x56
 10241 145e 2B       		.uleb128 0x2b
 10242 145f AE090000 		.4byte	0x9ae
 10243 1463 641A0000 		.4byte	.LLST83
 10244 1467 41       		.uleb128 0x41
 10245 1468 B8020000 		.4byte	.Ldebug_ranges0+0x2b8
 10246 146c 42       		.uleb128 0x42
 10247 146d B7090000 		.4byte	0x9b7
 10248 1471 3C1B0000 		.4byte	.LLST87
 10249 1475 43       		.uleb128 0x43
 10250 1476 C2090000 		.4byte	0x9c2
 10251 147a 01       		.byte	0x1
 10252 147b 54       		.byte	0x54
 10253 147c 44       		.uleb128 0x44
 10254 147d CD090000 		.4byte	0x9cd
ARM GAS  /tmp/ccdUEzgz.s 			page 182


 10255 1481 42       		.uleb128 0x42
 10256 1482 D6090000 		.4byte	0x9d6
 10257 1486 5A1B0000 		.4byte	.LLST88
 10258 148a 42       		.uleb128 0x42
 10259 148b FA090000 		.4byte	0x9fa
 10260 148f 831B0000 		.4byte	.LLST89
 10261 1493 00       		.byte	0
 10262 1494 00       		.byte	0
 10263 1495 00       		.byte	0
 10264 1496 2A       		.uleb128 0x2a
 10265 1497 720A0000 		.4byte	0xa72
 10266 149b 24020000 		.4byte	.LBB196
 10267 149f D8020000 		.4byte	.Ldebug_ranges0+0x2d8
 10268 14a3 01       		.byte	0x1
 10269 14a4 3704     		.2byte	0x437
 10270 14a6 B4140000 		.4byte	0x14b4
 10271 14aa 2B       		.uleb128 0x2b
 10272 14ab 830A0000 		.4byte	0xa83
 10273 14af B21B0000 		.4byte	.LLST90
 10274 14b3 00       		.byte	0
 10275 14b4 45       		.uleb128 0x45
 10276 14b5 A30A0000 		.4byte	0xaa3
 10277 14b9 34030000 		.4byte	.LBB199
 10278 14bd A2030000 		.4byte	.LBE199
 10279 14c1 01       		.byte	0x1
 10280 14c2 4C04     		.2byte	0x44c
 10281 14c4 FC140000 		.4byte	0x14fc
 10282 14c8 3F       		.uleb128 0x3f
 10283 14c9 B40A0000 		.4byte	0xab4
 10284 14cd 40       		.uleb128 0x40
 10285 14ce 040A0000 		.4byte	0xa04
 10286 14d2 34030000 		.4byte	.LBB201
 10287 14d6 F0020000 		.4byte	.Ldebug_ranges0+0x2f0
 10288 14da 02       		.byte	0x2
 10289 14db 63       		.byte	0x63
 10290 14dc 3F       		.uleb128 0x3f
 10291 14dd 150A0000 		.4byte	0xa15
 10292 14e1 41       		.uleb128 0x41
 10293 14e2 08030000 		.4byte	.Ldebug_ranges0+0x308
 10294 14e6 44       		.uleb128 0x44
 10295 14e7 390A0000 		.4byte	0xa39
 10296 14eb 42       		.uleb128 0x42
 10297 14ec 5E0A0000 		.4byte	0xa5e
 10298 14f0 D01B0000 		.4byte	.LLST91
 10299 14f4 44       		.uleb128 0x44
 10300 14f5 680A0000 		.4byte	0xa68
 10301 14f9 00       		.byte	0
 10302 14fa 00       		.byte	0
 10303 14fb 00       		.byte	0
 10304 14fc 2A       		.uleb128 0x2a
 10305 14fd 720A0000 		.4byte	0xa72
 10306 1501 20040000 		.4byte	.LBB206
 10307 1505 20030000 		.4byte	.Ldebug_ranges0+0x320
 10308 1509 01       		.byte	0x1
 10309 150a 2104     		.2byte	0x421
 10310 150c 1A150000 		.4byte	0x151a
 10311 1510 2B       		.uleb128 0x2b
ARM GAS  /tmp/ccdUEzgz.s 			page 183


 10312 1511 830A0000 		.4byte	0xa83
 10313 1515 E51B0000 		.4byte	.LLST92
 10314 1519 00       		.byte	0
 10315 151a 2C       		.uleb128 0x2c
 10316 151b 720A0000 		.4byte	0xa72
 10317 151f 38040000 		.4byte	.LBB215
 10318 1523 60030000 		.4byte	.Ldebug_ranges0+0x360
 10319 1527 01       		.byte	0x1
 10320 1528 2804     		.2byte	0x428
 10321 152a 2B       		.uleb128 0x2b
 10322 152b 830A0000 		.4byte	0xa83
 10323 152f 191C0000 		.4byte	.LLST93
 10324 1533 00       		.byte	0
 10325 1534 00       		.byte	0
 10326 1535 25       		.uleb128 0x25
 10327 1536 01       		.byte	0x1
 10328 1537 8E050000 		.4byte	.LASF233
 10329 153b 01       		.byte	0x1
 10330 153c 7004     		.2byte	0x470
 10331 153e 01       		.byte	0x1
 10332 153f 8A000000 		.4byte	0x8a
 10333 1543 00000000 		.4byte	.LFB99
 10334 1547 9E000000 		.4byte	.LFE99
 10335 154b 4E1C0000 		.4byte	.LLST94
 10336 154f 70150000 		.4byte	0x1570
 10337 1553 26       		.uleb128 0x26
 10338 1554 7300     		.ascii	"s\000"
 10339 1556 01       		.byte	0x1
 10340 1557 7004     		.2byte	0x470
 10341 1559 5B0B0000 		.4byte	0xb5b
 10342 155d 6E1C0000 		.4byte	.LLST95
 10343 1561 29       		.uleb128 0x29
 10344 1562 6900     		.ascii	"i\000"
 10345 1564 01       		.byte	0x1
 10346 1565 7204     		.2byte	0x472
 10347 1567 4C000000 		.4byte	0x4c
 10348 156b 8C1C0000 		.4byte	.LLST96
 10349 156f 00       		.byte	0
 10350 1570 25       		.uleb128 0x25
 10351 1571 01       		.byte	0x1
 10352 1572 7C030000 		.4byte	.LASF234
 10353 1576 01       		.byte	0x1
 10354 1577 9E04     		.2byte	0x49e
 10355 1579 01       		.byte	0x1
 10356 157a 4C000000 		.4byte	0x4c
 10357 157e 00000000 		.4byte	.LFB100
 10358 1582 90010000 		.4byte	.LFE100
 10359 1586 181D0000 		.4byte	.LLST97
 10360 158a BD150000 		.4byte	0x15bd
 10361 158e 26       		.uleb128 0x26
 10362 158f 6D00     		.ascii	"m\000"
 10363 1591 01       		.byte	0x1
 10364 1592 9E04     		.2byte	0x49e
 10365 1594 8B090000 		.4byte	0x98b
 10366 1598 381D0000 		.4byte	.LLST98
 10367 159c 33       		.uleb128 0x33
 10368 159d 440C0000 		.4byte	.LASF224
ARM GAS  /tmp/ccdUEzgz.s 			page 184


 10369 15a1 01       		.byte	0x1
 10370 15a2 9E04     		.2byte	0x49e
 10371 15a4 8A000000 		.4byte	0x8a
 10372 15a8 561D0000 		.4byte	.LLST99
 10373 15ac 29       		.uleb128 0x29
 10374 15ad 636D6400 		.ascii	"cmd\000"
 10375 15b1 01       		.byte	0x1
 10376 15b2 A104     		.2byte	0x4a1
 10377 15b4 4C000000 		.4byte	0x4c
 10378 15b8 951D0000 		.4byte	.LLST100
 10379 15bc 00       		.byte	0
 10380 15bd 46       		.uleb128 0x46
 10381 15be EF0A0000 		.4byte	0xaef
 10382 15c2 00000000 		.4byte	.LFB101
 10383 15c6 4A000000 		.4byte	.LFE101
 10384 15ca B91D0000 		.4byte	.LLST101
 10385 15ce EA150000 		.4byte	0x15ea
 10386 15d2 2B       		.uleb128 0x2b
 10387 15d3 020B0000 		.4byte	0xb02
 10388 15d7 D91D0000 		.4byte	.LLST102
 10389 15db 2B       		.uleb128 0x2b
 10390 15dc 0C0B0000 		.4byte	0xb0c
 10391 15e0 F71D0000 		.4byte	.LLST103
 10392 15e4 44       		.uleb128 0x44
 10393 15e5 180B0000 		.4byte	0xb18
 10394 15e9 00       		.byte	0
 10395 15ea 46       		.uleb128 0x46
 10396 15eb 250B0000 		.4byte	0xb25
 10397 15ef 00000000 		.4byte	.LFB102
 10398 15f3 4A000000 		.4byte	.LFE102
 10399 15f7 0A1E0000 		.4byte	.LLST104
 10400 15fb 17160000 		.4byte	0x1617
 10401 15ff 2B       		.uleb128 0x2b
 10402 1600 380B0000 		.4byte	0xb38
 10403 1604 2A1E0000 		.4byte	.LLST105
 10404 1608 2B       		.uleb128 0x2b
 10405 1609 420B0000 		.4byte	0xb42
 10406 160d 481E0000 		.4byte	.LLST106
 10407 1611 44       		.uleb128 0x44
 10408 1612 4E0B0000 		.4byte	0xb4e
 10409 1616 00       		.byte	0
 10410 1617 32       		.uleb128 0x32
 10411 1618 01       		.byte	0x1
 10412 1619 55030000 		.4byte	.LASF235
 10413 161d 01       		.byte	0x1
 10414 161e FD04     		.2byte	0x4fd
 10415 1620 01       		.byte	0x1
 10416 1621 00000000 		.4byte	.LFB103
 10417 1625 5C000000 		.4byte	.LFE103
 10418 1629 5B1E0000 		.4byte	.LLST107
 10419 162d 50160000 		.4byte	0x1650
 10420 1631 26       		.uleb128 0x26
 10421 1632 6D00     		.ascii	"m\000"
 10422 1634 01       		.byte	0x1
 10423 1635 FD04     		.2byte	0x4fd
 10424 1637 8B090000 		.4byte	0x98b
 10425 163b 7B1E0000 		.4byte	.LLST108
ARM GAS  /tmp/ccdUEzgz.s 			page 185


 10426 163f 33       		.uleb128 0x33
 10427 1640 440C0000 		.4byte	.LASF224
 10428 1644 01       		.byte	0x1
 10429 1645 FD04     		.2byte	0x4fd
 10430 1647 8A000000 		.4byte	0x8a
 10431 164b 991E0000 		.4byte	.LLST109
 10432 164f 00       		.byte	0
 10433 1650 32       		.uleb128 0x32
 10434 1651 01       		.byte	0x1
 10435 1652 3F060000 		.4byte	.LASF236
 10436 1656 01       		.byte	0x1
 10437 1657 2E05     		.2byte	0x52e
 10438 1659 01       		.byte	0x1
 10439 165a 00000000 		.4byte	.LFB104
 10440 165e E8010000 		.4byte	.LFE104
 10441 1662 B71E0000 		.4byte	.LLST110
 10442 1666 CB160000 		.4byte	0x16cb
 10443 166a 26       		.uleb128 0x26
 10444 166b 7300     		.ascii	"s\000"
 10445 166d 01       		.byte	0x1
 10446 166e 2E05     		.2byte	0x52e
 10447 1670 5B0B0000 		.4byte	0xb5b
 10448 1674 D71E0000 		.4byte	.LLST111
 10449 1678 33       		.uleb128 0x33
 10450 1679 440C0000 		.4byte	.LASF224
 10451 167d 01       		.byte	0x1
 10452 167e 2E05     		.2byte	0x52e
 10453 1680 8A000000 		.4byte	0x8a
 10454 1684 001F0000 		.4byte	.LLST112
 10455 1688 29       		.uleb128 0x29
 10456 1689 6D00     		.ascii	"m\000"
 10457 168b 01       		.byte	0x1
 10458 168c 3005     		.2byte	0x530
 10459 168e 8B090000 		.4byte	0x98b
 10460 1692 1E1F0000 		.4byte	.LLST113
 10461 1696 29       		.uleb128 0x29
 10462 1697 6900     		.ascii	"i\000"
 10463 1699 01       		.byte	0x1
 10464 169a 3105     		.2byte	0x531
 10465 169c 4C000000 		.4byte	0x4c
 10466 16a0 E81F0000 		.4byte	.LLST114
 10467 16a4 41       		.uleb128 0x41
 10468 16a5 80030000 		.4byte	.Ldebug_ranges0+0x380
 10469 16a9 28       		.uleb128 0x28
 10470 16aa 3D020000 		.4byte	.LASF237
 10471 16ae 01       		.byte	0x1
 10472 16af 4405     		.2byte	0x544
 10473 16b1 4C000000 		.4byte	0x4c
 10474 16b5 E0200000 		.4byte	.LLST115
 10475 16b9 28       		.uleb128 0x28
 10476 16ba 3A000000 		.4byte	.LASF238
 10477 16be 01       		.byte	0x1
 10478 16bf 5405     		.2byte	0x554
 10479 16c1 8A000000 		.4byte	0x8a
 10480 16c5 0A210000 		.4byte	.LLST116
 10481 16c9 00       		.byte	0
 10482 16ca 00       		.byte	0
ARM GAS  /tmp/ccdUEzgz.s 			page 186


 10483 16cb 32       		.uleb128 0x32
 10484 16cc 01       		.byte	0x1
 10485 16cd 870C0000 		.4byte	.LASF239
 10486 16d1 01       		.byte	0x1
 10487 16d2 7105     		.2byte	0x571
 10488 16d4 01       		.byte	0x1
 10489 16d5 00000000 		.4byte	.LFB105
 10490 16d9 78000000 		.4byte	.LFE105
 10491 16dd 49210000 		.4byte	.LLST117
 10492 16e1 04170000 		.4byte	0x1704
 10493 16e5 26       		.uleb128 0x26
 10494 16e6 6D00     		.ascii	"m\000"
 10495 16e8 01       		.byte	0x1
 10496 16e9 7105     		.2byte	0x571
 10497 16eb 8B090000 		.4byte	0x98b
 10498 16ef 69210000 		.4byte	.LLST118
 10499 16f3 33       		.uleb128 0x33
 10500 16f4 440C0000 		.4byte	.LASF224
 10501 16f8 01       		.byte	0x1
 10502 16f9 7105     		.2byte	0x571
 10503 16fb 8A000000 		.4byte	0x8a
 10504 16ff 87210000 		.4byte	.LLST119
 10505 1703 00       		.byte	0
 10506 1704 32       		.uleb128 0x32
 10507 1705 01       		.byte	0x1
 10508 1706 14020000 		.4byte	.LASF240
 10509 170a 01       		.byte	0x1
 10510 170b 9805     		.2byte	0x598
 10511 170d 01       		.byte	0x1
 10512 170e 00000000 		.4byte	.LFB106
 10513 1712 78000000 		.4byte	.LFE106
 10514 1716 A5210000 		.4byte	.LLST120
 10515 171a 59170000 		.4byte	0x1759
 10516 171e 26       		.uleb128 0x26
 10517 171f 7300     		.ascii	"s\000"
 10518 1721 01       		.byte	0x1
 10519 1722 9805     		.2byte	0x598
 10520 1724 5B0B0000 		.4byte	0xb5b
 10521 1728 C5210000 		.4byte	.LLST121
 10522 172c 29       		.uleb128 0x29
 10523 172d 6900     		.ascii	"i\000"
 10524 172f 01       		.byte	0x1
 10525 1730 9A05     		.2byte	0x59a
 10526 1732 4C000000 		.4byte	0x4c
 10527 1736 D8210000 		.4byte	.LLST122
 10528 173a 29       		.uleb128 0x29
 10529 173b 6D00     		.ascii	"m\000"
 10530 173d 01       		.byte	0x1
 10531 173e 9B05     		.2byte	0x59b
 10532 1740 8B090000 		.4byte	0x98b
 10533 1744 34220000 		.4byte	.LLST123
 10534 1748 28       		.uleb128 0x28
 10535 1749 93040000 		.4byte	.LASF241
 10536 174d 01       		.byte	0x1
 10537 174e 9C05     		.2byte	0x59c
 10538 1750 4C000000 		.4byte	0x4c
 10539 1754 78220000 		.4byte	.LLST124
ARM GAS  /tmp/ccdUEzgz.s 			page 187


 10540 1758 00       		.byte	0
 10541 1759 25       		.uleb128 0x25
 10542 175a 01       		.byte	0x1
 10543 175b EF060000 		.4byte	.LASF242
 10544 175f 01       		.byte	0x1
 10545 1760 B905     		.2byte	0x5b9
 10546 1762 01       		.byte	0x1
 10547 1763 02010000 		.4byte	0x102
 10548 1767 00000000 		.4byte	.LFB107
 10549 176b E0030000 		.4byte	.LFE107
 10550 176f 96220000 		.4byte	.LLST125
 10551 1773 D9180000 		.4byte	0x18d9
 10552 1777 26       		.uleb128 0x26
 10553 1778 61726700 		.ascii	"arg\000"
 10554 177c 01       		.byte	0x1
 10555 177d B905     		.2byte	0x5b9
 10556 177f 68000000 		.4byte	0x68
 10557 1783 C3220000 		.4byte	.LLST126
 10558 1787 27       		.uleb128 0x27
 10559 1788 620B0000 		.4byte	.LASF243
 10560 178c 01       		.byte	0x1
 10561 178d BB05     		.2byte	0x5bb
 10562 178f D9180000 		.4byte	0x18d9
 10563 1793 0A       		.byte	0xa
 10564 1794 3C       		.uleb128 0x3c
 10565 1795 E7050000 		.4byte	.LASF134
 10566 1799 01       		.byte	0x1
 10567 179a BC05     		.2byte	0x5bc
 10568 179c 4C000000 		.4byte	0x4c
 10569 17a0 05       		.byte	0x5
 10570 17a1 03       		.byte	0x3
 10571 17a2 00000000 		.4byte	delayTimeMs.8667
 10572 17a6 29       		.uleb128 0x29
 10573 17a7 6900     		.ascii	"i\000"
 10574 17a9 01       		.byte	0x1
 10575 17aa BD05     		.2byte	0x5bd
 10576 17ac 4C000000 		.4byte	0x4c
 10577 17b0 D6220000 		.4byte	.LLST127
 10578 17b4 28       		.uleb128 0x28
 10579 17b5 96000000 		.4byte	.LASF244
 10580 17b9 01       		.byte	0x1
 10581 17ba BE05     		.2byte	0x5be
 10582 17bc 4C000000 		.4byte	0x4c
 10583 17c0 3E230000 		.4byte	.LLST128
 10584 17c4 28       		.uleb128 0x28
 10585 17c5 440C0000 		.4byte	.LASF224
 10586 17c9 01       		.byte	0x1
 10587 17ca BF05     		.2byte	0x5bf
 10588 17cc 8A000000 		.4byte	0x8a
 10589 17d0 73230000 		.4byte	.LLST129
 10590 17d4 41       		.uleb128 0x41
 10591 17d5 98030000 		.4byte	.Ldebug_ranges0+0x398
 10592 17d9 29       		.uleb128 0x29
 10593 17da 6D00     		.ascii	"m\000"
 10594 17dc 01       		.byte	0x1
 10595 17dd CF05     		.2byte	0x5cf
 10596 17df 8B090000 		.4byte	0x98b
ARM GAS  /tmp/ccdUEzgz.s 			page 188


 10597 17e3 A7230000 		.4byte	.LLST130
 10598 17e7 2A       		.uleb128 0x2a
 10599 17e8 BE0A0000 		.4byte	0xabe
 10600 17ec AA000000 		.4byte	.LBB237
 10601 17f0 C0030000 		.4byte	.Ldebug_ranges0+0x3c0
 10602 17f4 01       		.byte	0x1
 10603 17f5 DE05     		.2byte	0x5de
 10604 17f7 1D180000 		.4byte	0x181d
 10605 17fb 2B       		.uleb128 0x2b
 10606 17fc D60A0000 		.4byte	0xad6
 10607 1800 D0230000 		.4byte	.LLST131
 10608 1804 2B       		.uleb128 0x2b
 10609 1805 CC0A0000 		.4byte	0xacc
 10610 1809 EE230000 		.4byte	.LLST132
 10611 180d 41       		.uleb128 0x41
 10612 180e D8030000 		.4byte	.Ldebug_ranges0+0x3d8
 10613 1812 42       		.uleb128 0x42
 10614 1813 E20A0000 		.4byte	0xae2
 10615 1817 0C240000 		.4byte	.LLST133
 10616 181b 00       		.byte	0
 10617 181c 00       		.byte	0
 10618 181d 2A       		.uleb128 0x2a
 10619 181e EF0A0000 		.4byte	0xaef
 10620 1822 BE000000 		.4byte	.LBB240
 10621 1826 F0030000 		.4byte	.Ldebug_ranges0+0x3f0
 10622 182a 01       		.byte	0x1
 10623 182b E405     		.2byte	0x5e4
 10624 182d 4F180000 		.4byte	0x184f
 10625 1831 2B       		.uleb128 0x2b
 10626 1832 0C0B0000 		.4byte	0xb0c
 10627 1836 35240000 		.4byte	.LLST134
 10628 183a 2B       		.uleb128 0x2b
 10629 183b 020B0000 		.4byte	0xb02
 10630 183f 57240000 		.4byte	.LLST135
 10631 1843 41       		.uleb128 0x41
 10632 1844 08040000 		.4byte	.Ldebug_ranges0+0x408
 10633 1848 44       		.uleb128 0x44
 10634 1849 180B0000 		.4byte	0xb18
 10635 184d 00       		.byte	0
 10636 184e 00       		.byte	0
 10637 184f 41       		.uleb128 0x41
 10638 1850 20040000 		.4byte	.Ldebug_ranges0+0x420
 10639 1854 29       		.uleb128 0x29
 10640 1855 7300     		.ascii	"s\000"
 10641 1857 01       		.byte	0x1
 10642 1858 1106     		.2byte	0x611
 10643 185a 5B0B0000 		.4byte	0xb5b
 10644 185e 75240000 		.4byte	.LLST136
 10645 1862 47       		.uleb128 0x47
 10646 1863 48040000 		.4byte	.Ldebug_ranges0+0x448
 10647 1867 A8180000 		.4byte	0x18a8
 10648 186b 29       		.uleb128 0x29
 10649 186c 7300     		.ascii	"s\000"
 10650 186e 01       		.byte	0x1
 10651 186f F905     		.2byte	0x5f9
 10652 1871 5B0B0000 		.4byte	0xb5b
 10653 1875 8D240000 		.4byte	.LLST137
ARM GAS  /tmp/ccdUEzgz.s 			page 189


 10654 1879 2C       		.uleb128 0x2c
 10655 187a 250B0000 		.4byte	0xb25
 10656 187e 34010000 		.4byte	.LBB246
 10657 1882 60040000 		.4byte	.Ldebug_ranges0+0x460
 10658 1886 01       		.byte	0x1
 10659 1887 FC05     		.2byte	0x5fc
 10660 1889 2B       		.uleb128 0x2b
 10661 188a 420B0000 		.4byte	0xb42
 10662 188e B5240000 		.4byte	.LLST138
 10663 1892 2B       		.uleb128 0x2b
 10664 1893 380B0000 		.4byte	0xb38
 10665 1897 0B250000 		.4byte	.LLST139
 10666 189b 41       		.uleb128 0x41
 10667 189c 98040000 		.4byte	.Ldebug_ranges0+0x498
 10668 18a0 44       		.uleb128 0x44
 10669 18a1 4E0B0000 		.4byte	0xb4e
 10670 18a5 00       		.byte	0
 10671 18a6 00       		.byte	0
 10672 18a7 00       		.byte	0
 10673 18a8 48       		.uleb128 0x48
 10674 18a9 5E020000 		.4byte	.LBB258
 10675 18ad 90020000 		.4byte	.LBE258
 10676 18b1 C4180000 		.4byte	0x18c4
 10677 18b5 29       		.uleb128 0x29
 10678 18b6 7300     		.ascii	"s\000"
 10679 18b8 01       		.byte	0x1
 10680 18b9 0B06     		.2byte	0x60b
 10681 18bb 5B0B0000 		.4byte	0xb5b
 10682 18bf 33250000 		.4byte	.LLST140
 10683 18c3 00       		.byte	0
 10684 18c4 41       		.uleb128 0x41
 10685 18c5 D0040000 		.4byte	.Ldebug_ranges0+0x4d0
 10686 18c9 23       		.uleb128 0x23
 10687 18ca 95090000 		.4byte	.LASF245
 10688 18ce 01       		.byte	0x1
 10689 18cf 1506     		.2byte	0x615
 10690 18d1 8A000000 		.4byte	0x8a
 10691 18d5 00       		.byte	0
 10692 18d6 00       		.byte	0
 10693 18d7 00       		.byte	0
 10694 18d8 00       		.byte	0
 10695 18d9 06       		.uleb128 0x6
 10696 18da 4C000000 		.4byte	0x4c
 10697 18de 16       		.uleb128 0x16
 10698 18df 70090000 		.4byte	0x970
 10699 18e3 EE180000 		.4byte	0x18ee
 10700 18e7 17       		.uleb128 0x17
 10701 18e8 29000000 		.4byte	0x29
 10702 18ec 09       		.byte	0x9
 10703 18ed 00       		.byte	0
 10704 18ee 49       		.uleb128 0x49
 10705 18ef 2E010000 		.4byte	.LASF246
 10706 18f3 01       		.byte	0x1
 10707 18f4 7C       		.byte	0x7c
 10708 18f5 DE180000 		.4byte	0x18de
 10709 18f9 05       		.byte	0x5
 10710 18fa 03       		.byte	0x3
ARM GAS  /tmp/ccdUEzgz.s 			page 190


 10711 18fb 00000000 		.4byte	sMotors
 10712 18ff 16       		.uleb128 0x16
 10713 1900 91090000 		.4byte	0x991
 10714 1904 0F190000 		.4byte	0x190f
 10715 1908 17       		.uleb128 0x17
 10716 1909 29000000 		.4byte	0x29
 10717 190d 02       		.byte	0x2
 10718 190e 00       		.byte	0
 10719 190f 49       		.uleb128 0x49
 10720 1910 FA010000 		.4byte	.LASF247
 10721 1914 01       		.byte	0x1
 10722 1915 7D       		.byte	0x7d
 10723 1916 FF180000 		.4byte	0x18ff
 10724 191a 05       		.byte	0x5
 10725 191b 03       		.byte	0x3
 10726 191c 00000000 		.4byte	sPorts
 10727 1920 49       		.uleb128 0x49
 10728 1921 AB000000 		.4byte	.LASF248
 10729 1925 01       		.byte	0x1
 10730 1926 85       		.byte	0x85
 10731 1927 3E000000 		.4byte	0x3e
 10732 192b 05       		.byte	0x5
 10733 192c 03       		.byte	0x3
 10734 192d 00000000 		.4byte	PtcLimitEnabled
 10735 1931 49       		.uleb128 0x49
 10736 1932 E3070000 		.4byte	.LASF249
 10737 1936 01       		.byte	0x1
 10738 1937 89       		.byte	0x89
 10739 1938 3E000000 		.4byte	0x3e
 10740 193c 05       		.byte	0x5
 10741 193d 03       		.byte	0x3
 10742 193e 00000000 		.4byte	CurrentLimitEnabled
 10743 1942 4A       		.uleb128 0x4a
 10744 1943 3D010000 		.4byte	.LASF250
 10745 1947 08       		.byte	0x8
 10746 1948 F5       		.byte	0xf5
 10747 1949 2E040000 		.4byte	0x42e
 10748 194d 01       		.byte	0x1
 10749 194e 01       		.byte	0x1
 10750 194f 4A       		.uleb128 0x4a
 10751 1950 6B090000 		.4byte	.LASF251
 10752 1954 09       		.byte	0x9
 10753 1955 6F       		.byte	0x6f
 10754 1956 96040000 		.4byte	0x496
 10755 195a 01       		.byte	0x1
 10756 195b 01       		.byte	0x1
 10757 195c 4B       		.uleb128 0x4b
 10758 195d 01090000 		.4byte	.LASF252
 10759 1961 10       		.byte	0x10
 10760 1962 0706     		.2byte	0x607
 10761 1964 24050000 		.4byte	0x524
 10762 1968 01       		.byte	0x1
 10763 1969 01       		.byte	0x1
 10764 196a 00       		.byte	0
 10765              		.section	.debug_abbrev,"",%progbits
 10766              	.Ldebug_abbrev0:
 10767 0000 01       		.uleb128 0x1
ARM GAS  /tmp/ccdUEzgz.s 			page 191


 10768 0001 11       		.uleb128 0x11
 10769 0002 01       		.byte	0x1
 10770 0003 25       		.uleb128 0x25
 10771 0004 0E       		.uleb128 0xe
 10772 0005 13       		.uleb128 0x13
 10773 0006 0B       		.uleb128 0xb
 10774 0007 03       		.uleb128 0x3
 10775 0008 0E       		.uleb128 0xe
 10776 0009 1B       		.uleb128 0x1b
 10777 000a 0E       		.uleb128 0xe
 10778 000b 11       		.uleb128 0x11
 10779 000c 01       		.uleb128 0x1
 10780 000d 52       		.uleb128 0x52
 10781 000e 01       		.uleb128 0x1
 10782 000f 55       		.uleb128 0x55
 10783 0010 06       		.uleb128 0x6
 10784 0011 10       		.uleb128 0x10
 10785 0012 06       		.uleb128 0x6
 10786 0013 00       		.byte	0
 10787 0014 00       		.byte	0
 10788 0015 02       		.uleb128 0x2
 10789 0016 24       		.uleb128 0x24
 10790 0017 00       		.byte	0
 10791 0018 0B       		.uleb128 0xb
 10792 0019 0B       		.uleb128 0xb
 10793 001a 3E       		.uleb128 0x3e
 10794 001b 0B       		.uleb128 0xb
 10795 001c 03       		.uleb128 0x3
 10796 001d 0E       		.uleb128 0xe
 10797 001e 00       		.byte	0
 10798 001f 00       		.byte	0
 10799 0020 03       		.uleb128 0x3
 10800 0021 24       		.uleb128 0x24
 10801 0022 00       		.byte	0
 10802 0023 0B       		.uleb128 0xb
 10803 0024 0B       		.uleb128 0xb
 10804 0025 3E       		.uleb128 0x3e
 10805 0026 0B       		.uleb128 0xb
 10806 0027 03       		.uleb128 0x3
 10807 0028 08       		.uleb128 0x8
 10808 0029 00       		.byte	0
 10809 002a 00       		.byte	0
 10810 002b 04       		.uleb128 0x4
 10811 002c 0F       		.uleb128 0xf
 10812 002d 00       		.byte	0
 10813 002e 0B       		.uleb128 0xb
 10814 002f 0B       		.uleb128 0xb
 10815 0030 00       		.byte	0
 10816 0031 00       		.byte	0
 10817 0032 05       		.uleb128 0x5
 10818 0033 0F       		.uleb128 0xf
 10819 0034 00       		.byte	0
 10820 0035 0B       		.uleb128 0xb
 10821 0036 0B       		.uleb128 0xb
 10822 0037 49       		.uleb128 0x49
 10823 0038 13       		.uleb128 0x13
 10824 0039 00       		.byte	0
ARM GAS  /tmp/ccdUEzgz.s 			page 192


 10825 003a 00       		.byte	0
 10826 003b 06       		.uleb128 0x6
 10827 003c 26       		.uleb128 0x26
 10828 003d 00       		.byte	0
 10829 003e 49       		.uleb128 0x49
 10830 003f 13       		.uleb128 0x13
 10831 0040 00       		.byte	0
 10832 0041 00       		.byte	0
 10833 0042 07       		.uleb128 0x7
 10834 0043 16       		.uleb128 0x16
 10835 0044 00       		.byte	0
 10836 0045 03       		.uleb128 0x3
 10837 0046 0E       		.uleb128 0xe
 10838 0047 3A       		.uleb128 0x3a
 10839 0048 0B       		.uleb128 0xb
 10840 0049 3B       		.uleb128 0x3b
 10841 004a 0B       		.uleb128 0xb
 10842 004b 49       		.uleb128 0x49
 10843 004c 13       		.uleb128 0x13
 10844 004d 00       		.byte	0
 10845 004e 00       		.byte	0
 10846 004f 08       		.uleb128 0x8
 10847 0050 13       		.uleb128 0x13
 10848 0051 01       		.byte	0x1
 10849 0052 03       		.uleb128 0x3
 10850 0053 0E       		.uleb128 0xe
 10851 0054 0B       		.uleb128 0xb
 10852 0055 0B       		.uleb128 0xb
 10853 0056 3A       		.uleb128 0x3a
 10854 0057 0B       		.uleb128 0xb
 10855 0058 3B       		.uleb128 0x3b
 10856 0059 0B       		.uleb128 0xb
 10857 005a 01       		.uleb128 0x1
 10858 005b 13       		.uleb128 0x13
 10859 005c 00       		.byte	0
 10860 005d 00       		.byte	0
 10861 005e 09       		.uleb128 0x9
 10862 005f 0D       		.uleb128 0xd
 10863 0060 00       		.byte	0
 10864 0061 03       		.uleb128 0x3
 10865 0062 0E       		.uleb128 0xe
 10866 0063 3A       		.uleb128 0x3a
 10867 0064 0B       		.uleb128 0xb
 10868 0065 3B       		.uleb128 0x3b
 10869 0066 0B       		.uleb128 0xb
 10870 0067 49       		.uleb128 0x49
 10871 0068 13       		.uleb128 0x13
 10872 0069 38       		.uleb128 0x38
 10873 006a 0A       		.uleb128 0xa
 10874 006b 00       		.byte	0
 10875 006c 00       		.byte	0
 10876 006d 0A       		.uleb128 0xa
 10877 006e 0D       		.uleb128 0xd
 10878 006f 00       		.byte	0
 10879 0070 03       		.uleb128 0x3
 10880 0071 08       		.uleb128 0x8
 10881 0072 3A       		.uleb128 0x3a
ARM GAS  /tmp/ccdUEzgz.s 			page 193


 10882 0073 0B       		.uleb128 0xb
 10883 0074 3B       		.uleb128 0x3b
 10884 0075 0B       		.uleb128 0xb
 10885 0076 49       		.uleb128 0x49
 10886 0077 13       		.uleb128 0x13
 10887 0078 38       		.uleb128 0x38
 10888 0079 0A       		.uleb128 0xa
 10889 007a 00       		.byte	0
 10890 007b 00       		.byte	0
 10891 007c 0B       		.uleb128 0xb
 10892 007d 13       		.uleb128 0x13
 10893 007e 01       		.byte	0x1
 10894 007f 0B       		.uleb128 0xb
 10895 0080 0B       		.uleb128 0xb
 10896 0081 3A       		.uleb128 0x3a
 10897 0082 0B       		.uleb128 0xb
 10898 0083 3B       		.uleb128 0x3b
 10899 0084 0B       		.uleb128 0xb
 10900 0085 01       		.uleb128 0x1
 10901 0086 13       		.uleb128 0x13
 10902 0087 00       		.byte	0
 10903 0088 00       		.byte	0
 10904 0089 0C       		.uleb128 0xc
 10905 008a 13       		.uleb128 0x13
 10906 008b 01       		.byte	0x1
 10907 008c 03       		.uleb128 0x3
 10908 008d 0E       		.uleb128 0xe
 10909 008e 0B       		.uleb128 0xb
 10910 008f 0B       		.uleb128 0xb
 10911 0090 3A       		.uleb128 0x3a
 10912 0091 0B       		.uleb128 0xb
 10913 0092 3B       		.uleb128 0x3b
 10914 0093 05       		.uleb128 0x5
 10915 0094 01       		.uleb128 0x1
 10916 0095 13       		.uleb128 0x13
 10917 0096 00       		.byte	0
 10918 0097 00       		.byte	0
 10919 0098 0D       		.uleb128 0xd
 10920 0099 0D       		.uleb128 0xd
 10921 009a 00       		.byte	0
 10922 009b 03       		.uleb128 0x3
 10923 009c 08       		.uleb128 0x8
 10924 009d 3A       		.uleb128 0x3a
 10925 009e 0B       		.uleb128 0xb
 10926 009f 3B       		.uleb128 0x3b
 10927 00a0 05       		.uleb128 0x5
 10928 00a1 49       		.uleb128 0x49
 10929 00a2 13       		.uleb128 0x13
 10930 00a3 38       		.uleb128 0x38
 10931 00a4 0A       		.uleb128 0xa
 10932 00a5 00       		.byte	0
 10933 00a6 00       		.byte	0
 10934 00a7 0E       		.uleb128 0xe
 10935 00a8 15       		.uleb128 0x15
 10936 00a9 01       		.byte	0x1
 10937 00aa 27       		.uleb128 0x27
 10938 00ab 0C       		.uleb128 0xc
ARM GAS  /tmp/ccdUEzgz.s 			page 194


 10939 00ac 01       		.uleb128 0x1
 10940 00ad 13       		.uleb128 0x13
 10941 00ae 00       		.byte	0
 10942 00af 00       		.byte	0
 10943 00b0 0F       		.uleb128 0xf
 10944 00b1 05       		.uleb128 0x5
 10945 00b2 00       		.byte	0
 10946 00b3 49       		.uleb128 0x49
 10947 00b4 13       		.uleb128 0x13
 10948 00b5 00       		.byte	0
 10949 00b6 00       		.byte	0
 10950 00b7 10       		.uleb128 0x10
 10951 00b8 35       		.uleb128 0x35
 10952 00b9 00       		.byte	0
 10953 00ba 49       		.uleb128 0x49
 10954 00bb 13       		.uleb128 0x13
 10955 00bc 00       		.byte	0
 10956 00bd 00       		.byte	0
 10957 00be 11       		.uleb128 0x11
 10958 00bf 17       		.uleb128 0x17
 10959 00c0 01       		.byte	0x1
 10960 00c1 0B       		.uleb128 0xb
 10961 00c2 0B       		.uleb128 0xb
 10962 00c3 3A       		.uleb128 0x3a
 10963 00c4 0B       		.uleb128 0xb
 10964 00c5 3B       		.uleb128 0x3b
 10965 00c6 0B       		.uleb128 0xb
 10966 00c7 01       		.uleb128 0x1
 10967 00c8 13       		.uleb128 0x13
 10968 00c9 00       		.byte	0
 10969 00ca 00       		.byte	0
 10970 00cb 12       		.uleb128 0x12
 10971 00cc 0D       		.uleb128 0xd
 10972 00cd 00       		.byte	0
 10973 00ce 03       		.uleb128 0x3
 10974 00cf 0E       		.uleb128 0xe
 10975 00d0 3A       		.uleb128 0x3a
 10976 00d1 0B       		.uleb128 0xb
 10977 00d2 3B       		.uleb128 0x3b
 10978 00d3 0B       		.uleb128 0xb
 10979 00d4 49       		.uleb128 0x49
 10980 00d5 13       		.uleb128 0x13
 10981 00d6 00       		.byte	0
 10982 00d7 00       		.byte	0
 10983 00d8 13       		.uleb128 0x13
 10984 00d9 04       		.uleb128 0x4
 10985 00da 01       		.byte	0x1
 10986 00db 0B       		.uleb128 0xb
 10987 00dc 0B       		.uleb128 0xb
 10988 00dd 3A       		.uleb128 0x3a
 10989 00de 0B       		.uleb128 0xb
 10990 00df 3B       		.uleb128 0x3b
 10991 00e0 0B       		.uleb128 0xb
 10992 00e1 01       		.uleb128 0x1
 10993 00e2 13       		.uleb128 0x13
 10994 00e3 00       		.byte	0
 10995 00e4 00       		.byte	0
ARM GAS  /tmp/ccdUEzgz.s 			page 195


 10996 00e5 14       		.uleb128 0x14
 10997 00e6 28       		.uleb128 0x28
 10998 00e7 00       		.byte	0
 10999 00e8 03       		.uleb128 0x3
 11000 00e9 0E       		.uleb128 0xe
 11001 00ea 1C       		.uleb128 0x1c
 11002 00eb 0D       		.uleb128 0xd
 11003 00ec 00       		.byte	0
 11004 00ed 00       		.byte	0
 11005 00ee 15       		.uleb128 0x15
 11006 00ef 0D       		.uleb128 0xd
 11007 00f0 00       		.byte	0
 11008 00f1 03       		.uleb128 0x3
 11009 00f2 0E       		.uleb128 0xe
 11010 00f3 3A       		.uleb128 0x3a
 11011 00f4 0B       		.uleb128 0xb
 11012 00f5 3B       		.uleb128 0x3b
 11013 00f6 05       		.uleb128 0x5
 11014 00f7 49       		.uleb128 0x49
 11015 00f8 13       		.uleb128 0x13
 11016 00f9 38       		.uleb128 0x38
 11017 00fa 0A       		.uleb128 0xa
 11018 00fb 00       		.byte	0
 11019 00fc 00       		.byte	0
 11020 00fd 16       		.uleb128 0x16
 11021 00fe 01       		.uleb128 0x1
 11022 00ff 01       		.byte	0x1
 11023 0100 49       		.uleb128 0x49
 11024 0101 13       		.uleb128 0x13
 11025 0102 01       		.uleb128 0x1
 11026 0103 13       		.uleb128 0x13
 11027 0104 00       		.byte	0
 11028 0105 00       		.byte	0
 11029 0106 17       		.uleb128 0x17
 11030 0107 21       		.uleb128 0x21
 11031 0108 00       		.byte	0
 11032 0109 49       		.uleb128 0x49
 11033 010a 13       		.uleb128 0x13
 11034 010b 2F       		.uleb128 0x2f
 11035 010c 0B       		.uleb128 0xb
 11036 010d 00       		.byte	0
 11037 010e 00       		.byte	0
 11038 010f 18       		.uleb128 0x18
 11039 0110 16       		.uleb128 0x16
 11040 0111 00       		.byte	0
 11041 0112 03       		.uleb128 0x3
 11042 0113 0E       		.uleb128 0xe
 11043 0114 3A       		.uleb128 0x3a
 11044 0115 0B       		.uleb128 0xb
 11045 0116 3B       		.uleb128 0x3b
 11046 0117 05       		.uleb128 0x5
 11047 0118 49       		.uleb128 0x49
 11048 0119 13       		.uleb128 0x13
 11049 011a 00       		.byte	0
 11050 011b 00       		.byte	0
 11051 011c 19       		.uleb128 0x19
 11052 011d 2E       		.uleb128 0x2e
ARM GAS  /tmp/ccdUEzgz.s 			page 196


 11053 011e 01       		.byte	0x1
 11054 011f 03       		.uleb128 0x3
 11055 0120 0E       		.uleb128 0xe
 11056 0121 3A       		.uleb128 0x3a
 11057 0122 0B       		.uleb128 0xb
 11058 0123 3B       		.uleb128 0x3b
 11059 0124 0B       		.uleb128 0xb
 11060 0125 27       		.uleb128 0x27
 11061 0126 0C       		.uleb128 0xc
 11062 0127 49       		.uleb128 0x49
 11063 0128 13       		.uleb128 0x13
 11064 0129 20       		.uleb128 0x20
 11065 012a 0B       		.uleb128 0xb
 11066 012b 01       		.uleb128 0x1
 11067 012c 13       		.uleb128 0x13
 11068 012d 00       		.byte	0
 11069 012e 00       		.byte	0
 11070 012f 1A       		.uleb128 0x1a
 11071 0130 05       		.uleb128 0x5
 11072 0131 00       		.byte	0
 11073 0132 03       		.uleb128 0x3
 11074 0133 08       		.uleb128 0x8
 11075 0134 3A       		.uleb128 0x3a
 11076 0135 0B       		.uleb128 0xb
 11077 0136 3B       		.uleb128 0x3b
 11078 0137 0B       		.uleb128 0xb
 11079 0138 49       		.uleb128 0x49
 11080 0139 13       		.uleb128 0x13
 11081 013a 00       		.byte	0
 11082 013b 00       		.byte	0
 11083 013c 1B       		.uleb128 0x1b
 11084 013d 34       		.uleb128 0x34
 11085 013e 00       		.byte	0
 11086 013f 03       		.uleb128 0x3
 11087 0140 0E       		.uleb128 0xe
 11088 0141 3A       		.uleb128 0x3a
 11089 0142 0B       		.uleb128 0xb
 11090 0143 3B       		.uleb128 0x3b
 11091 0144 0B       		.uleb128 0xb
 11092 0145 49       		.uleb128 0x49
 11093 0146 13       		.uleb128 0x13
 11094 0147 00       		.byte	0
 11095 0148 00       		.byte	0
 11096 0149 1C       		.uleb128 0x1c
 11097 014a 34       		.uleb128 0x34
 11098 014b 00       		.byte	0
 11099 014c 03       		.uleb128 0x3
 11100 014d 08       		.uleb128 0x8
 11101 014e 3A       		.uleb128 0x3a
 11102 014f 0B       		.uleb128 0xb
 11103 0150 3B       		.uleb128 0x3b
 11104 0151 0B       		.uleb128 0xb
 11105 0152 49       		.uleb128 0x49
 11106 0153 13       		.uleb128 0x13
 11107 0154 00       		.byte	0
 11108 0155 00       		.byte	0
 11109 0156 1D       		.uleb128 0x1d
ARM GAS  /tmp/ccdUEzgz.s 			page 197


 11110 0157 0D       		.uleb128 0xd
 11111 0158 00       		.byte	0
 11112 0159 03       		.uleb128 0x3
 11113 015a 08       		.uleb128 0x8
 11114 015b 3A       		.uleb128 0x3a
 11115 015c 0B       		.uleb128 0xb
 11116 015d 3B       		.uleb128 0x3b
 11117 015e 0B       		.uleb128 0xb
 11118 015f 49       		.uleb128 0x49
 11119 0160 13       		.uleb128 0x13
 11120 0161 00       		.byte	0
 11121 0162 00       		.byte	0
 11122 0163 1E       		.uleb128 0x1e
 11123 0164 2E       		.uleb128 0x2e
 11124 0165 01       		.byte	0x1
 11125 0166 03       		.uleb128 0x3
 11126 0167 08       		.uleb128 0x8
 11127 0168 3A       		.uleb128 0x3a
 11128 0169 0B       		.uleb128 0xb
 11129 016a 3B       		.uleb128 0x3b
 11130 016b 0B       		.uleb128 0xb
 11131 016c 27       		.uleb128 0x27
 11132 016d 0C       		.uleb128 0xc
 11133 016e 49       		.uleb128 0x49
 11134 016f 13       		.uleb128 0x13
 11135 0170 20       		.uleb128 0x20
 11136 0171 0B       		.uleb128 0xb
 11137 0172 01       		.uleb128 0x1
 11138 0173 13       		.uleb128 0x13
 11139 0174 00       		.byte	0
 11140 0175 00       		.byte	0
 11141 0176 1F       		.uleb128 0x1f
 11142 0177 2E       		.uleb128 0x2e
 11143 0178 00       		.byte	0
 11144 0179 3F       		.uleb128 0x3f
 11145 017a 0C       		.uleb128 0xc
 11146 017b 03       		.uleb128 0x3
 11147 017c 0E       		.uleb128 0xe
 11148 017d 3A       		.uleb128 0x3a
 11149 017e 0B       		.uleb128 0xb
 11150 017f 3B       		.uleb128 0x3b
 11151 0180 05       		.uleb128 0x5
 11152 0181 27       		.uleb128 0x27
 11153 0182 0C       		.uleb128 0xc
 11154 0183 20       		.uleb128 0x20
 11155 0184 0B       		.uleb128 0xb
 11156 0185 00       		.byte	0
 11157 0186 00       		.byte	0
 11158 0187 20       		.uleb128 0x20
 11159 0188 2E       		.uleb128 0x2e
 11160 0189 01       		.byte	0x1
 11161 018a 03       		.uleb128 0x3
 11162 018b 0E       		.uleb128 0xe
 11163 018c 3A       		.uleb128 0x3a
 11164 018d 0B       		.uleb128 0xb
 11165 018e 3B       		.uleb128 0x3b
 11166 018f 05       		.uleb128 0x5
ARM GAS  /tmp/ccdUEzgz.s 			page 198


 11167 0190 27       		.uleb128 0x27
 11168 0191 0C       		.uleb128 0xc
 11169 0192 20       		.uleb128 0x20
 11170 0193 0B       		.uleb128 0xb
 11171 0194 01       		.uleb128 0x1
 11172 0195 13       		.uleb128 0x13
 11173 0196 00       		.byte	0
 11174 0197 00       		.byte	0
 11175 0198 21       		.uleb128 0x21
 11176 0199 05       		.uleb128 0x5
 11177 019a 00       		.byte	0
 11178 019b 03       		.uleb128 0x3
 11179 019c 08       		.uleb128 0x8
 11180 019d 3A       		.uleb128 0x3a
 11181 019e 0B       		.uleb128 0xb
 11182 019f 3B       		.uleb128 0x3b
 11183 01a0 05       		.uleb128 0x5
 11184 01a1 49       		.uleb128 0x49
 11185 01a2 13       		.uleb128 0x13
 11186 01a3 00       		.byte	0
 11187 01a4 00       		.byte	0
 11188 01a5 22       		.uleb128 0x22
 11189 01a6 05       		.uleb128 0x5
 11190 01a7 00       		.byte	0
 11191 01a8 03       		.uleb128 0x3
 11192 01a9 0E       		.uleb128 0xe
 11193 01aa 3A       		.uleb128 0x3a
 11194 01ab 0B       		.uleb128 0xb
 11195 01ac 3B       		.uleb128 0x3b
 11196 01ad 05       		.uleb128 0x5
 11197 01ae 49       		.uleb128 0x49
 11198 01af 13       		.uleb128 0x13
 11199 01b0 00       		.byte	0
 11200 01b1 00       		.byte	0
 11201 01b2 23       		.uleb128 0x23
 11202 01b3 34       		.uleb128 0x34
 11203 01b4 00       		.byte	0
 11204 01b5 03       		.uleb128 0x3
 11205 01b6 0E       		.uleb128 0xe
 11206 01b7 3A       		.uleb128 0x3a
 11207 01b8 0B       		.uleb128 0xb
 11208 01b9 3B       		.uleb128 0x3b
 11209 01ba 05       		.uleb128 0x5
 11210 01bb 49       		.uleb128 0x49
 11211 01bc 13       		.uleb128 0x13
 11212 01bd 00       		.byte	0
 11213 01be 00       		.byte	0
 11214 01bf 24       		.uleb128 0x24
 11215 01c0 2E       		.uleb128 0x2e
 11216 01c1 01       		.byte	0x1
 11217 01c2 3F       		.uleb128 0x3f
 11218 01c3 0C       		.uleb128 0xc
 11219 01c4 03       		.uleb128 0x3
 11220 01c5 0E       		.uleb128 0xe
 11221 01c6 3A       		.uleb128 0x3a
 11222 01c7 0B       		.uleb128 0xb
 11223 01c8 3B       		.uleb128 0x3b
ARM GAS  /tmp/ccdUEzgz.s 			page 199


 11224 01c9 05       		.uleb128 0x5
 11225 01ca 27       		.uleb128 0x27
 11226 01cb 0C       		.uleb128 0xc
 11227 01cc 49       		.uleb128 0x49
 11228 01cd 13       		.uleb128 0x13
 11229 01ce 20       		.uleb128 0x20
 11230 01cf 0B       		.uleb128 0xb
 11231 01d0 01       		.uleb128 0x1
 11232 01d1 13       		.uleb128 0x13
 11233 01d2 00       		.byte	0
 11234 01d3 00       		.byte	0
 11235 01d4 25       		.uleb128 0x25
 11236 01d5 2E       		.uleb128 0x2e
 11237 01d6 01       		.byte	0x1
 11238 01d7 3F       		.uleb128 0x3f
 11239 01d8 0C       		.uleb128 0xc
 11240 01d9 03       		.uleb128 0x3
 11241 01da 0E       		.uleb128 0xe
 11242 01db 3A       		.uleb128 0x3a
 11243 01dc 0B       		.uleb128 0xb
 11244 01dd 3B       		.uleb128 0x3b
 11245 01de 05       		.uleb128 0x5
 11246 01df 27       		.uleb128 0x27
 11247 01e0 0C       		.uleb128 0xc
 11248 01e1 49       		.uleb128 0x49
 11249 01e2 13       		.uleb128 0x13
 11250 01e3 11       		.uleb128 0x11
 11251 01e4 01       		.uleb128 0x1
 11252 01e5 12       		.uleb128 0x12
 11253 01e6 01       		.uleb128 0x1
 11254 01e7 40       		.uleb128 0x40
 11255 01e8 06       		.uleb128 0x6
 11256 01e9 01       		.uleb128 0x1
 11257 01ea 13       		.uleb128 0x13
 11258 01eb 00       		.byte	0
 11259 01ec 00       		.byte	0
 11260 01ed 26       		.uleb128 0x26
 11261 01ee 05       		.uleb128 0x5
 11262 01ef 00       		.byte	0
 11263 01f0 03       		.uleb128 0x3
 11264 01f1 08       		.uleb128 0x8
 11265 01f2 3A       		.uleb128 0x3a
 11266 01f3 0B       		.uleb128 0xb
 11267 01f4 3B       		.uleb128 0x3b
 11268 01f5 05       		.uleb128 0x5
 11269 01f6 49       		.uleb128 0x49
 11270 01f7 13       		.uleb128 0x13
 11271 01f8 02       		.uleb128 0x2
 11272 01f9 06       		.uleb128 0x6
 11273 01fa 00       		.byte	0
 11274 01fb 00       		.byte	0
 11275 01fc 27       		.uleb128 0x27
 11276 01fd 34       		.uleb128 0x34
 11277 01fe 00       		.byte	0
 11278 01ff 03       		.uleb128 0x3
 11279 0200 0E       		.uleb128 0xe
 11280 0201 3A       		.uleb128 0x3a
ARM GAS  /tmp/ccdUEzgz.s 			page 200


 11281 0202 0B       		.uleb128 0xb
 11282 0203 3B       		.uleb128 0x3b
 11283 0204 05       		.uleb128 0x5
 11284 0205 49       		.uleb128 0x49
 11285 0206 13       		.uleb128 0x13
 11286 0207 1C       		.uleb128 0x1c
 11287 0208 0B       		.uleb128 0xb
 11288 0209 00       		.byte	0
 11289 020a 00       		.byte	0
 11290 020b 28       		.uleb128 0x28
 11291 020c 34       		.uleb128 0x34
 11292 020d 00       		.byte	0
 11293 020e 03       		.uleb128 0x3
 11294 020f 0E       		.uleb128 0xe
 11295 0210 3A       		.uleb128 0x3a
 11296 0211 0B       		.uleb128 0xb
 11297 0212 3B       		.uleb128 0x3b
 11298 0213 05       		.uleb128 0x5
 11299 0214 49       		.uleb128 0x49
 11300 0215 13       		.uleb128 0x13
 11301 0216 02       		.uleb128 0x2
 11302 0217 06       		.uleb128 0x6
 11303 0218 00       		.byte	0
 11304 0219 00       		.byte	0
 11305 021a 29       		.uleb128 0x29
 11306 021b 34       		.uleb128 0x34
 11307 021c 00       		.byte	0
 11308 021d 03       		.uleb128 0x3
 11309 021e 08       		.uleb128 0x8
 11310 021f 3A       		.uleb128 0x3a
 11311 0220 0B       		.uleb128 0xb
 11312 0221 3B       		.uleb128 0x3b
 11313 0222 05       		.uleb128 0x5
 11314 0223 49       		.uleb128 0x49
 11315 0224 13       		.uleb128 0x13
 11316 0225 02       		.uleb128 0x2
 11317 0226 06       		.uleb128 0x6
 11318 0227 00       		.byte	0
 11319 0228 00       		.byte	0
 11320 0229 2A       		.uleb128 0x2a
 11321 022a 1D       		.uleb128 0x1d
 11322 022b 01       		.byte	0x1
 11323 022c 31       		.uleb128 0x31
 11324 022d 13       		.uleb128 0x13
 11325 022e 52       		.uleb128 0x52
 11326 022f 01       		.uleb128 0x1
 11327 0230 55       		.uleb128 0x55
 11328 0231 06       		.uleb128 0x6
 11329 0232 58       		.uleb128 0x58
 11330 0233 0B       		.uleb128 0xb
 11331 0234 59       		.uleb128 0x59
 11332 0235 05       		.uleb128 0x5
 11333 0236 01       		.uleb128 0x1
 11334 0237 13       		.uleb128 0x13
 11335 0238 00       		.byte	0
 11336 0239 00       		.byte	0
 11337 023a 2B       		.uleb128 0x2b
ARM GAS  /tmp/ccdUEzgz.s 			page 201


 11338 023b 05       		.uleb128 0x5
 11339 023c 00       		.byte	0
 11340 023d 31       		.uleb128 0x31
 11341 023e 13       		.uleb128 0x13
 11342 023f 02       		.uleb128 0x2
 11343 0240 06       		.uleb128 0x6
 11344 0241 00       		.byte	0
 11345 0242 00       		.byte	0
 11346 0243 2C       		.uleb128 0x2c
 11347 0244 1D       		.uleb128 0x1d
 11348 0245 01       		.byte	0x1
 11349 0246 31       		.uleb128 0x31
 11350 0247 13       		.uleb128 0x13
 11351 0248 52       		.uleb128 0x52
 11352 0249 01       		.uleb128 0x1
 11353 024a 55       		.uleb128 0x55
 11354 024b 06       		.uleb128 0x6
 11355 024c 58       		.uleb128 0x58
 11356 024d 0B       		.uleb128 0xb
 11357 024e 59       		.uleb128 0x59
 11358 024f 05       		.uleb128 0x5
 11359 0250 00       		.byte	0
 11360 0251 00       		.byte	0
 11361 0252 2D       		.uleb128 0x2d
 11362 0253 2E       		.uleb128 0x2e
 11363 0254 01       		.byte	0x1
 11364 0255 3F       		.uleb128 0x3f
 11365 0256 0C       		.uleb128 0xc
 11366 0257 03       		.uleb128 0x3
 11367 0258 0E       		.uleb128 0xe
 11368 0259 3A       		.uleb128 0x3a
 11369 025a 0B       		.uleb128 0xb
 11370 025b 3B       		.uleb128 0x3b
 11371 025c 0B       		.uleb128 0xb
 11372 025d 27       		.uleb128 0x27
 11373 025e 0C       		.uleb128 0xc
 11374 025f 49       		.uleb128 0x49
 11375 0260 13       		.uleb128 0x13
 11376 0261 11       		.uleb128 0x11
 11377 0262 01       		.uleb128 0x1
 11378 0263 12       		.uleb128 0x12
 11379 0264 01       		.uleb128 0x1
 11380 0265 40       		.uleb128 0x40
 11381 0266 0A       		.uleb128 0xa
 11382 0267 01       		.uleb128 0x1
 11383 0268 13       		.uleb128 0x13
 11384 0269 00       		.byte	0
 11385 026a 00       		.byte	0
 11386 026b 2E       		.uleb128 0x2e
 11387 026c 05       		.uleb128 0x5
 11388 026d 00       		.byte	0
 11389 026e 03       		.uleb128 0x3
 11390 026f 0E       		.uleb128 0xe
 11391 0270 3A       		.uleb128 0x3a
 11392 0271 0B       		.uleb128 0xb
 11393 0272 3B       		.uleb128 0x3b
 11394 0273 0B       		.uleb128 0xb
ARM GAS  /tmp/ccdUEzgz.s 			page 202


 11395 0274 49       		.uleb128 0x49
 11396 0275 13       		.uleb128 0x13
 11397 0276 02       		.uleb128 0x2
 11398 0277 06       		.uleb128 0x6
 11399 0278 00       		.byte	0
 11400 0279 00       		.byte	0
 11401 027a 2F       		.uleb128 0x2f
 11402 027b 2E       		.uleb128 0x2e
 11403 027c 01       		.byte	0x1
 11404 027d 3F       		.uleb128 0x3f
 11405 027e 0C       		.uleb128 0xc
 11406 027f 03       		.uleb128 0x3
 11407 0280 0E       		.uleb128 0xe
 11408 0281 3A       		.uleb128 0x3a
 11409 0282 0B       		.uleb128 0xb
 11410 0283 3B       		.uleb128 0x3b
 11411 0284 0B       		.uleb128 0xb
 11412 0285 27       		.uleb128 0x27
 11413 0286 0C       		.uleb128 0xc
 11414 0287 49       		.uleb128 0x49
 11415 0288 13       		.uleb128 0x13
 11416 0289 11       		.uleb128 0x11
 11417 028a 01       		.uleb128 0x1
 11418 028b 12       		.uleb128 0x12
 11419 028c 01       		.uleb128 0x1
 11420 028d 40       		.uleb128 0x40
 11421 028e 06       		.uleb128 0x6
 11422 028f 01       		.uleb128 0x1
 11423 0290 13       		.uleb128 0x13
 11424 0291 00       		.byte	0
 11425 0292 00       		.byte	0
 11426 0293 30       		.uleb128 0x30
 11427 0294 05       		.uleb128 0x5
 11428 0295 00       		.byte	0
 11429 0296 03       		.uleb128 0x3
 11430 0297 08       		.uleb128 0x8
 11431 0298 3A       		.uleb128 0x3a
 11432 0299 0B       		.uleb128 0xb
 11433 029a 3B       		.uleb128 0x3b
 11434 029b 0B       		.uleb128 0xb
 11435 029c 49       		.uleb128 0x49
 11436 029d 13       		.uleb128 0x13
 11437 029e 02       		.uleb128 0x2
 11438 029f 0A       		.uleb128 0xa
 11439 02a0 00       		.byte	0
 11440 02a1 00       		.byte	0
 11441 02a2 31       		.uleb128 0x31
 11442 02a3 18       		.uleb128 0x18
 11443 02a4 00       		.byte	0
 11444 02a5 00       		.byte	0
 11445 02a6 00       		.byte	0
 11446 02a7 32       		.uleb128 0x32
 11447 02a8 2E       		.uleb128 0x2e
 11448 02a9 01       		.byte	0x1
 11449 02aa 3F       		.uleb128 0x3f
 11450 02ab 0C       		.uleb128 0xc
 11451 02ac 03       		.uleb128 0x3
ARM GAS  /tmp/ccdUEzgz.s 			page 203


 11452 02ad 0E       		.uleb128 0xe
 11453 02ae 3A       		.uleb128 0x3a
 11454 02af 0B       		.uleb128 0xb
 11455 02b0 3B       		.uleb128 0x3b
 11456 02b1 05       		.uleb128 0x5
 11457 02b2 27       		.uleb128 0x27
 11458 02b3 0C       		.uleb128 0xc
 11459 02b4 11       		.uleb128 0x11
 11460 02b5 01       		.uleb128 0x1
 11461 02b6 12       		.uleb128 0x12
 11462 02b7 01       		.uleb128 0x1
 11463 02b8 40       		.uleb128 0x40
 11464 02b9 06       		.uleb128 0x6
 11465 02ba 01       		.uleb128 0x1
 11466 02bb 13       		.uleb128 0x13
 11467 02bc 00       		.byte	0
 11468 02bd 00       		.byte	0
 11469 02be 33       		.uleb128 0x33
 11470 02bf 05       		.uleb128 0x5
 11471 02c0 00       		.byte	0
 11472 02c1 03       		.uleb128 0x3
 11473 02c2 0E       		.uleb128 0xe
 11474 02c3 3A       		.uleb128 0x3a
 11475 02c4 0B       		.uleb128 0xb
 11476 02c5 3B       		.uleb128 0x3b
 11477 02c6 05       		.uleb128 0x5
 11478 02c7 49       		.uleb128 0x49
 11479 02c8 13       		.uleb128 0x13
 11480 02c9 02       		.uleb128 0x2
 11481 02ca 06       		.uleb128 0x6
 11482 02cb 00       		.byte	0
 11483 02cc 00       		.byte	0
 11484 02cd 34       		.uleb128 0x34
 11485 02ce 05       		.uleb128 0x5
 11486 02cf 00       		.byte	0
 11487 02d0 03       		.uleb128 0x3
 11488 02d1 0E       		.uleb128 0xe
 11489 02d2 3A       		.uleb128 0x3a
 11490 02d3 0B       		.uleb128 0xb
 11491 02d4 3B       		.uleb128 0x3b
 11492 02d5 05       		.uleb128 0x5
 11493 02d6 49       		.uleb128 0x49
 11494 02d7 13       		.uleb128 0x13
 11495 02d8 02       		.uleb128 0x2
 11496 02d9 0A       		.uleb128 0xa
 11497 02da 00       		.byte	0
 11498 02db 00       		.byte	0
 11499 02dc 35       		.uleb128 0x35
 11500 02dd 2E       		.uleb128 0x2e
 11501 02de 01       		.byte	0x1
 11502 02df 3F       		.uleb128 0x3f
 11503 02e0 0C       		.uleb128 0xc
 11504 02e1 03       		.uleb128 0x3
 11505 02e2 0E       		.uleb128 0xe
 11506 02e3 3A       		.uleb128 0x3a
 11507 02e4 0B       		.uleb128 0xb
 11508 02e5 3B       		.uleb128 0x3b
ARM GAS  /tmp/ccdUEzgz.s 			page 204


 11509 02e6 05       		.uleb128 0x5
 11510 02e7 27       		.uleb128 0x27
 11511 02e8 0C       		.uleb128 0xc
 11512 02e9 11       		.uleb128 0x11
 11513 02ea 01       		.uleb128 0x1
 11514 02eb 12       		.uleb128 0x12
 11515 02ec 01       		.uleb128 0x1
 11516 02ed 40       		.uleb128 0x40
 11517 02ee 0A       		.uleb128 0xa
 11518 02ef 01       		.uleb128 0x1
 11519 02f0 13       		.uleb128 0x13
 11520 02f1 00       		.byte	0
 11521 02f2 00       		.byte	0
 11522 02f3 36       		.uleb128 0x36
 11523 02f4 2E       		.uleb128 0x2e
 11524 02f5 01       		.byte	0x1
 11525 02f6 3F       		.uleb128 0x3f
 11526 02f7 0C       		.uleb128 0xc
 11527 02f8 03       		.uleb128 0x3
 11528 02f9 0E       		.uleb128 0xe
 11529 02fa 3A       		.uleb128 0x3a
 11530 02fb 0B       		.uleb128 0xb
 11531 02fc 3B       		.uleb128 0x3b
 11532 02fd 05       		.uleb128 0x5
 11533 02fe 27       		.uleb128 0x27
 11534 02ff 0C       		.uleb128 0xc
 11535 0300 49       		.uleb128 0x49
 11536 0301 13       		.uleb128 0x13
 11537 0302 11       		.uleb128 0x11
 11538 0303 01       		.uleb128 0x1
 11539 0304 12       		.uleb128 0x12
 11540 0305 01       		.uleb128 0x1
 11541 0306 40       		.uleb128 0x40
 11542 0307 0A       		.uleb128 0xa
 11543 0308 01       		.uleb128 0x1
 11544 0309 13       		.uleb128 0x13
 11545 030a 00       		.byte	0
 11546 030b 00       		.byte	0
 11547 030c 37       		.uleb128 0x37
 11548 030d 2E       		.uleb128 0x2e
 11549 030e 00       		.byte	0
 11550 030f 3F       		.uleb128 0x3f
 11551 0310 0C       		.uleb128 0xc
 11552 0311 03       		.uleb128 0x3
 11553 0312 0E       		.uleb128 0xe
 11554 0313 3A       		.uleb128 0x3a
 11555 0314 0B       		.uleb128 0xb
 11556 0315 3B       		.uleb128 0x3b
 11557 0316 05       		.uleb128 0x5
 11558 0317 27       		.uleb128 0x27
 11559 0318 0C       		.uleb128 0xc
 11560 0319 11       		.uleb128 0x11
 11561 031a 01       		.uleb128 0x1
 11562 031b 12       		.uleb128 0x12
 11563 031c 01       		.uleb128 0x1
 11564 031d 40       		.uleb128 0x40
 11565 031e 0A       		.uleb128 0xa
ARM GAS  /tmp/ccdUEzgz.s 			page 205


 11566 031f 00       		.byte	0
 11567 0320 00       		.byte	0
 11568 0321 38       		.uleb128 0x38
 11569 0322 2E       		.uleb128 0x2e
 11570 0323 00       		.byte	0
 11571 0324 31       		.uleb128 0x31
 11572 0325 13       		.uleb128 0x13
 11573 0326 11       		.uleb128 0x11
 11574 0327 01       		.uleb128 0x1
 11575 0328 12       		.uleb128 0x12
 11576 0329 01       		.uleb128 0x1
 11577 032a 40       		.uleb128 0x40
 11578 032b 0A       		.uleb128 0xa
 11579 032c 00       		.byte	0
 11580 032d 00       		.byte	0
 11581 032e 39       		.uleb128 0x39
 11582 032f 2E       		.uleb128 0x2e
 11583 0330 00       		.byte	0
 11584 0331 3F       		.uleb128 0x3f
 11585 0332 0C       		.uleb128 0xc
 11586 0333 03       		.uleb128 0x3
 11587 0334 0E       		.uleb128 0xe
 11588 0335 3A       		.uleb128 0x3a
 11589 0336 0B       		.uleb128 0xb
 11590 0337 3B       		.uleb128 0x3b
 11591 0338 05       		.uleb128 0x5
 11592 0339 27       		.uleb128 0x27
 11593 033a 0C       		.uleb128 0xc
 11594 033b 11       		.uleb128 0x11
 11595 033c 01       		.uleb128 0x1
 11596 033d 12       		.uleb128 0x12
 11597 033e 01       		.uleb128 0x1
 11598 033f 40       		.uleb128 0x40
 11599 0340 06       		.uleb128 0x6
 11600 0341 00       		.byte	0
 11601 0342 00       		.byte	0
 11602 0343 3A       		.uleb128 0x3a
 11603 0344 1D       		.uleb128 0x1d
 11604 0345 00       		.byte	0
 11605 0346 31       		.uleb128 0x31
 11606 0347 13       		.uleb128 0x13
 11607 0348 52       		.uleb128 0x52
 11608 0349 01       		.uleb128 0x1
 11609 034a 55       		.uleb128 0x55
 11610 034b 06       		.uleb128 0x6
 11611 034c 58       		.uleb128 0x58
 11612 034d 0B       		.uleb128 0xb
 11613 034e 59       		.uleb128 0x59
 11614 034f 05       		.uleb128 0x5
 11615 0350 00       		.byte	0
 11616 0351 00       		.byte	0
 11617 0352 3B       		.uleb128 0x3b
 11618 0353 05       		.uleb128 0x5
 11619 0354 00       		.byte	0
 11620 0355 03       		.uleb128 0x3
 11621 0356 08       		.uleb128 0x8
 11622 0357 3A       		.uleb128 0x3a
ARM GAS  /tmp/ccdUEzgz.s 			page 206


 11623 0358 0B       		.uleb128 0xb
 11624 0359 3B       		.uleb128 0x3b
 11625 035a 05       		.uleb128 0x5
 11626 035b 49       		.uleb128 0x49
 11627 035c 13       		.uleb128 0x13
 11628 035d 02       		.uleb128 0x2
 11629 035e 0A       		.uleb128 0xa
 11630 035f 00       		.byte	0
 11631 0360 00       		.byte	0
 11632 0361 3C       		.uleb128 0x3c
 11633 0362 34       		.uleb128 0x34
 11634 0363 00       		.byte	0
 11635 0364 03       		.uleb128 0x3
 11636 0365 0E       		.uleb128 0xe
 11637 0366 3A       		.uleb128 0x3a
 11638 0367 0B       		.uleb128 0xb
 11639 0368 3B       		.uleb128 0x3b
 11640 0369 05       		.uleb128 0x5
 11641 036a 49       		.uleb128 0x49
 11642 036b 13       		.uleb128 0x13
 11643 036c 02       		.uleb128 0x2
 11644 036d 0A       		.uleb128 0xa
 11645 036e 00       		.byte	0
 11646 036f 00       		.byte	0
 11647 0370 3D       		.uleb128 0x3d
 11648 0371 34       		.uleb128 0x34
 11649 0372 00       		.byte	0
 11650 0373 03       		.uleb128 0x3
 11651 0374 08       		.uleb128 0x8
 11652 0375 3A       		.uleb128 0x3a
 11653 0376 0B       		.uleb128 0xb
 11654 0377 3B       		.uleb128 0x3b
 11655 0378 05       		.uleb128 0x5
 11656 0379 49       		.uleb128 0x49
 11657 037a 13       		.uleb128 0x13
 11658 037b 00       		.byte	0
 11659 037c 00       		.byte	0
 11660 037d 3E       		.uleb128 0x3e
 11661 037e 34       		.uleb128 0x34
 11662 037f 00       		.byte	0
 11663 0380 03       		.uleb128 0x3
 11664 0381 08       		.uleb128 0x8
 11665 0382 3A       		.uleb128 0x3a
 11666 0383 0B       		.uleb128 0xb
 11667 0384 3B       		.uleb128 0x3b
 11668 0385 05       		.uleb128 0x5
 11669 0386 49       		.uleb128 0x49
 11670 0387 13       		.uleb128 0x13
 11671 0388 02       		.uleb128 0x2
 11672 0389 0A       		.uleb128 0xa
 11673 038a 00       		.byte	0
 11674 038b 00       		.byte	0
 11675 038c 3F       		.uleb128 0x3f
 11676 038d 05       		.uleb128 0x5
 11677 038e 00       		.byte	0
 11678 038f 31       		.uleb128 0x31
 11679 0390 13       		.uleb128 0x13
ARM GAS  /tmp/ccdUEzgz.s 			page 207


 11680 0391 00       		.byte	0
 11681 0392 00       		.byte	0
 11682 0393 40       		.uleb128 0x40
 11683 0394 1D       		.uleb128 0x1d
 11684 0395 01       		.byte	0x1
 11685 0396 31       		.uleb128 0x31
 11686 0397 13       		.uleb128 0x13
 11687 0398 52       		.uleb128 0x52
 11688 0399 01       		.uleb128 0x1
 11689 039a 55       		.uleb128 0x55
 11690 039b 06       		.uleb128 0x6
 11691 039c 58       		.uleb128 0x58
 11692 039d 0B       		.uleb128 0xb
 11693 039e 59       		.uleb128 0x59
 11694 039f 0B       		.uleb128 0xb
 11695 03a0 00       		.byte	0
 11696 03a1 00       		.byte	0
 11697 03a2 41       		.uleb128 0x41
 11698 03a3 0B       		.uleb128 0xb
 11699 03a4 01       		.byte	0x1
 11700 03a5 55       		.uleb128 0x55
 11701 03a6 06       		.uleb128 0x6
 11702 03a7 00       		.byte	0
 11703 03a8 00       		.byte	0
 11704 03a9 42       		.uleb128 0x42
 11705 03aa 34       		.uleb128 0x34
 11706 03ab 00       		.byte	0
 11707 03ac 31       		.uleb128 0x31
 11708 03ad 13       		.uleb128 0x13
 11709 03ae 02       		.uleb128 0x2
 11710 03af 06       		.uleb128 0x6
 11711 03b0 00       		.byte	0
 11712 03b1 00       		.byte	0
 11713 03b2 43       		.uleb128 0x43
 11714 03b3 34       		.uleb128 0x34
 11715 03b4 00       		.byte	0
 11716 03b5 31       		.uleb128 0x31
 11717 03b6 13       		.uleb128 0x13
 11718 03b7 02       		.uleb128 0x2
 11719 03b8 0A       		.uleb128 0xa
 11720 03b9 00       		.byte	0
 11721 03ba 00       		.byte	0
 11722 03bb 44       		.uleb128 0x44
 11723 03bc 34       		.uleb128 0x34
 11724 03bd 00       		.byte	0
 11725 03be 31       		.uleb128 0x31
 11726 03bf 13       		.uleb128 0x13
 11727 03c0 00       		.byte	0
 11728 03c1 00       		.byte	0
 11729 03c2 45       		.uleb128 0x45
 11730 03c3 1D       		.uleb128 0x1d
 11731 03c4 01       		.byte	0x1
 11732 03c5 31       		.uleb128 0x31
 11733 03c6 13       		.uleb128 0x13
 11734 03c7 11       		.uleb128 0x11
 11735 03c8 01       		.uleb128 0x1
 11736 03c9 12       		.uleb128 0x12
ARM GAS  /tmp/ccdUEzgz.s 			page 208


 11737 03ca 01       		.uleb128 0x1
 11738 03cb 58       		.uleb128 0x58
 11739 03cc 0B       		.uleb128 0xb
 11740 03cd 59       		.uleb128 0x59
 11741 03ce 05       		.uleb128 0x5
 11742 03cf 01       		.uleb128 0x1
 11743 03d0 13       		.uleb128 0x13
 11744 03d1 00       		.byte	0
 11745 03d2 00       		.byte	0
 11746 03d3 46       		.uleb128 0x46
 11747 03d4 2E       		.uleb128 0x2e
 11748 03d5 01       		.byte	0x1
 11749 03d6 31       		.uleb128 0x31
 11750 03d7 13       		.uleb128 0x13
 11751 03d8 11       		.uleb128 0x11
 11752 03d9 01       		.uleb128 0x1
 11753 03da 12       		.uleb128 0x12
 11754 03db 01       		.uleb128 0x1
 11755 03dc 40       		.uleb128 0x40
 11756 03dd 06       		.uleb128 0x6
 11757 03de 01       		.uleb128 0x1
 11758 03df 13       		.uleb128 0x13
 11759 03e0 00       		.byte	0
 11760 03e1 00       		.byte	0
 11761 03e2 47       		.uleb128 0x47
 11762 03e3 0B       		.uleb128 0xb
 11763 03e4 01       		.byte	0x1
 11764 03e5 55       		.uleb128 0x55
 11765 03e6 06       		.uleb128 0x6
 11766 03e7 01       		.uleb128 0x1
 11767 03e8 13       		.uleb128 0x13
 11768 03e9 00       		.byte	0
 11769 03ea 00       		.byte	0
 11770 03eb 48       		.uleb128 0x48
 11771 03ec 0B       		.uleb128 0xb
 11772 03ed 01       		.byte	0x1
 11773 03ee 11       		.uleb128 0x11
 11774 03ef 01       		.uleb128 0x1
 11775 03f0 12       		.uleb128 0x12
 11776 03f1 01       		.uleb128 0x1
 11777 03f2 01       		.uleb128 0x1
 11778 03f3 13       		.uleb128 0x13
 11779 03f4 00       		.byte	0
 11780 03f5 00       		.byte	0
 11781 03f6 49       		.uleb128 0x49
 11782 03f7 34       		.uleb128 0x34
 11783 03f8 00       		.byte	0
 11784 03f9 03       		.uleb128 0x3
 11785 03fa 0E       		.uleb128 0xe
 11786 03fb 3A       		.uleb128 0x3a
 11787 03fc 0B       		.uleb128 0xb
 11788 03fd 3B       		.uleb128 0x3b
 11789 03fe 0B       		.uleb128 0xb
 11790 03ff 49       		.uleb128 0x49
 11791 0400 13       		.uleb128 0x13
 11792 0401 02       		.uleb128 0x2
 11793 0402 0A       		.uleb128 0xa
ARM GAS  /tmp/ccdUEzgz.s 			page 209


 11794 0403 00       		.byte	0
 11795 0404 00       		.byte	0
 11796 0405 4A       		.uleb128 0x4a
 11797 0406 34       		.uleb128 0x34
 11798 0407 00       		.byte	0
 11799 0408 03       		.uleb128 0x3
 11800 0409 0E       		.uleb128 0xe
 11801 040a 3A       		.uleb128 0x3a
 11802 040b 0B       		.uleb128 0xb
 11803 040c 3B       		.uleb128 0x3b
 11804 040d 0B       		.uleb128 0xb
 11805 040e 49       		.uleb128 0x49
 11806 040f 13       		.uleb128 0x13
 11807 0410 3F       		.uleb128 0x3f
 11808 0411 0C       		.uleb128 0xc
 11809 0412 3C       		.uleb128 0x3c
 11810 0413 0C       		.uleb128 0xc
 11811 0414 00       		.byte	0
 11812 0415 00       		.byte	0
 11813 0416 4B       		.uleb128 0x4b
 11814 0417 34       		.uleb128 0x34
 11815 0418 00       		.byte	0
 11816 0419 03       		.uleb128 0x3
 11817 041a 0E       		.uleb128 0xe
 11818 041b 3A       		.uleb128 0x3a
 11819 041c 0B       		.uleb128 0xb
 11820 041d 3B       		.uleb128 0x3b
 11821 041e 05       		.uleb128 0x5
 11822 041f 49       		.uleb128 0x49
 11823 0420 13       		.uleb128 0x13
 11824 0421 3F       		.uleb128 0x3f
 11825 0422 0C       		.uleb128 0xc
 11826 0423 3C       		.uleb128 0x3c
 11827 0424 0C       		.uleb128 0xc
 11828 0425 00       		.byte	0
 11829 0426 00       		.byte	0
 11830 0427 00       		.byte	0
 11831              		.section	.debug_loc,"",%progbits
 11832              	.Ldebug_loc0:
 11833              	.LLST0:
 11834 0000 00000000 		.4byte	.LFB108
 11835 0004 04000000 		.4byte	.LCFI0
 11836 0008 0200     		.2byte	0x2
 11837 000a 7D       		.byte	0x7d
 11838 000b 00       		.sleb128 0
 11839 000c 04000000 		.4byte	.LCFI0
 11840 0010 0E000000 		.4byte	.LCFI1
 11841 0014 0200     		.2byte	0x2
 11842 0016 7D       		.byte	0x7d
 11843 0017 24       		.sleb128 36
 11844 0018 0E000000 		.4byte	.LCFI1
 11845 001c 9C0C0000 		.4byte	.LFE108
 11846 0020 0300     		.2byte	0x3
 11847 0022 7D       		.byte	0x7d
 11848 0023 C000     		.sleb128 64
 11849 0025 00000000 		.4byte	0
 11850 0029 00000000 		.4byte	0
ARM GAS  /tmp/ccdUEzgz.s 			page 210


 11851              	.LLST1:
 11852 002d 00000000 		.4byte	.LVL0
 11853 0031 08000000 		.4byte	.LVL1
 11854 0035 0100     		.2byte	0x1
 11855 0037 50       		.byte	0x50
 11856 0038 00000000 		.4byte	0
 11857 003c 00000000 		.4byte	0
 11858              	.LLST2:
 11859 0040 26000000 		.4byte	.LVL2
 11860 0044 CC000000 		.4byte	.LVL3
 11861 0048 0200     		.2byte	0x2
 11862 004a 30       		.byte	0x30
 11863 004b 9F       		.byte	0x9f
 11864 004c CC000000 		.4byte	.LVL3
 11865 0050 D2000000 		.4byte	.LVL4
 11866 0054 0200     		.2byte	0x2
 11867 0056 39       		.byte	0x39
 11868 0057 9F       		.byte	0x9f
 11869 0058 D2000000 		.4byte	.LVL4
 11870 005c EC000000 		.4byte	.LVL6
 11871 0060 0200     		.2byte	0x2
 11872 0062 3A       		.byte	0x3a
 11873 0063 9F       		.byte	0x9f
 11874 0064 EC000000 		.4byte	.LVL6
 11875 0068 22010000 		.4byte	.LVL10
 11876 006c 0200     		.2byte	0x2
 11877 006e 30       		.byte	0x30
 11878 006f 9F       		.byte	0x9f
 11879 0070 22010000 		.4byte	.LVL10
 11880 0074 76010000 		.4byte	.LVL15
 11881 0078 0200     		.2byte	0x2
 11882 007a 31       		.byte	0x31
 11883 007b 9F       		.byte	0x9f
 11884 007c 76010000 		.4byte	.LVL15
 11885 0080 CA010000 		.4byte	.LVL20
 11886 0084 0200     		.2byte	0x2
 11887 0086 32       		.byte	0x32
 11888 0087 9F       		.byte	0x9f
 11889 0088 CA010000 		.4byte	.LVL20
 11890 008c 1E020000 		.4byte	.LVL25
 11891 0090 0200     		.2byte	0x2
 11892 0092 33       		.byte	0x33
 11893 0093 9F       		.byte	0x9f
 11894 0094 1E020000 		.4byte	.LVL25
 11895 0098 72020000 		.4byte	.LVL30
 11896 009c 0200     		.2byte	0x2
 11897 009e 34       		.byte	0x34
 11898 009f 9F       		.byte	0x9f
 11899 00a0 72020000 		.4byte	.LVL30
 11900 00a4 C6020000 		.4byte	.LVL35
 11901 00a8 0200     		.2byte	0x2
 11902 00aa 35       		.byte	0x35
 11903 00ab 9F       		.byte	0x9f
 11904 00ac C6020000 		.4byte	.LVL35
 11905 00b0 1A030000 		.4byte	.LVL40
 11906 00b4 0200     		.2byte	0x2
 11907 00b6 36       		.byte	0x36
ARM GAS  /tmp/ccdUEzgz.s 			page 211


 11908 00b7 9F       		.byte	0x9f
 11909 00b8 1A030000 		.4byte	.LVL40
 11910 00bc 6E030000 		.4byte	.LVL45
 11911 00c0 0200     		.2byte	0x2
 11912 00c2 37       		.byte	0x37
 11913 00c3 9F       		.byte	0x9f
 11914 00c4 6E030000 		.4byte	.LVL45
 11915 00c8 E4030000 		.4byte	.LVL50
 11916 00cc 0200     		.2byte	0x2
 11917 00ce 38       		.byte	0x38
 11918 00cf 9F       		.byte	0x9f
 11919 00d0 E4030000 		.4byte	.LVL50
 11920 00d4 36040000 		.4byte	.LVL55
 11921 00d8 0200     		.2byte	0x2
 11922 00da 39       		.byte	0x39
 11923 00db 9F       		.byte	0x9f
 11924 00dc 36040000 		.4byte	.LVL55
 11925 00e0 48040000 		.4byte	.LVL56
 11926 00e4 0200     		.2byte	0x2
 11927 00e6 3A       		.byte	0x3a
 11928 00e7 9F       		.byte	0x9f
 11929 00e8 48040000 		.4byte	.LVL56
 11930 00ec DE040000 		.4byte	.LVL63
 11931 00f0 0200     		.2byte	0x2
 11932 00f2 30       		.byte	0x30
 11933 00f3 9F       		.byte	0x9f
 11934 00f4 DE040000 		.4byte	.LVL63
 11935 00f8 16050000 		.4byte	.LVL64
 11936 00fc 0200     		.2byte	0x2
 11937 00fe 37       		.byte	0x37
 11938 00ff 9F       		.byte	0x9f
 11939 0100 16050000 		.4byte	.LVL64
 11940 0104 4E050000 		.4byte	.LVL65
 11941 0108 0200     		.2byte	0x2
 11942 010a 38       		.byte	0x38
 11943 010b 9F       		.byte	0x9f
 11944 010c 4E050000 		.4byte	.LVL65
 11945 0110 E2050000 		.4byte	.LVL70
 11946 0114 0200     		.2byte	0x2
 11947 0116 39       		.byte	0x39
 11948 0117 9F       		.byte	0x9f
 11949 0118 E2050000 		.4byte	.LVL70
 11950 011c 1A060000 		.4byte	.LVL71
 11951 0120 0200     		.2byte	0x2
 11952 0122 33       		.byte	0x33
 11953 0123 9F       		.byte	0x9f
 11954 0124 1A060000 		.4byte	.LVL71
 11955 0128 52060000 		.4byte	.LVL72
 11956 012c 0200     		.2byte	0x2
 11957 012e 31       		.byte	0x31
 11958 012f 9F       		.byte	0x9f
 11959 0130 52060000 		.4byte	.LVL72
 11960 0134 8A060000 		.4byte	.LVL73
 11961 0138 0200     		.2byte	0x2
 11962 013a 35       		.byte	0x35
 11963 013b 9F       		.byte	0x9f
 11964 013c 8A060000 		.4byte	.LVL73
ARM GAS  /tmp/ccdUEzgz.s 			page 212


 11965 0140 C2060000 		.4byte	.LVL74
 11966 0144 0200     		.2byte	0x2
 11967 0146 32       		.byte	0x32
 11968 0147 9F       		.byte	0x9f
 11969 0148 C2060000 		.4byte	.LVL74
 11970 014c FA060000 		.4byte	.LVL75
 11971 0150 0200     		.2byte	0x2
 11972 0152 34       		.byte	0x34
 11973 0153 9F       		.byte	0x9f
 11974 0154 FA060000 		.4byte	.LVL75
 11975 0158 32070000 		.4byte	.LVL76
 11976 015c 0200     		.2byte	0x2
 11977 015e 36       		.byte	0x36
 11978 015f 9F       		.byte	0x9f
 11979 0160 32070000 		.4byte	.LVL76
 11980 0164 38070000 		.4byte	.LVL77
 11981 0168 0200     		.2byte	0x2
 11982 016a 30       		.byte	0x30
 11983 016b 9F       		.byte	0x9f
 11984 016c 38070000 		.4byte	.LVL77
 11985 0170 4E070000 		.4byte	.LVL79
 11986 0174 0200     		.2byte	0x2
 11987 0176 38       		.byte	0x38
 11988 0177 9F       		.byte	0x9f
 11989 0178 4E070000 		.4byte	.LVL79
 11990 017c 64070000 		.4byte	.LVL81
 11991 0180 0200     		.2byte	0x2
 11992 0182 39       		.byte	0x39
 11993 0183 9F       		.byte	0x9f
 11994 0184 64070000 		.4byte	.LVL81
 11995 0188 78070000 		.4byte	.LVL83
 11996 018c 0200     		.2byte	0x2
 11997 018e 30       		.byte	0x30
 11998 018f 9F       		.byte	0x9f
 11999 0190 78070000 		.4byte	.LVL83
 12000 0194 8E070000 		.4byte	.LVL85
 12001 0198 0200     		.2byte	0x2
 12002 019a 31       		.byte	0x31
 12003 019b 9F       		.byte	0x9f
 12004 019c 8E070000 		.4byte	.LVL85
 12005 01a0 A4070000 		.4byte	.LVL87
 12006 01a4 0200     		.2byte	0x2
 12007 01a6 32       		.byte	0x32
 12008 01a7 9F       		.byte	0x9f
 12009 01a8 A4070000 		.4byte	.LVL87
 12010 01ac BA070000 		.4byte	.LVL89
 12011 01b0 0200     		.2byte	0x2
 12012 01b2 33       		.byte	0x33
 12013 01b3 9F       		.byte	0x9f
 12014 01b4 BA070000 		.4byte	.LVL89
 12015 01b8 D0070000 		.4byte	.LVL91
 12016 01bc 0200     		.2byte	0x2
 12017 01be 34       		.byte	0x34
 12018 01bf 9F       		.byte	0x9f
 12019 01c0 D0070000 		.4byte	.LVL91
 12020 01c4 E6070000 		.4byte	.LVL93
 12021 01c8 0200     		.2byte	0x2
ARM GAS  /tmp/ccdUEzgz.s 			page 213


 12022 01ca 35       		.byte	0x35
 12023 01cb 9F       		.byte	0x9f
 12024 01cc E6070000 		.4byte	.LVL93
 12025 01d0 1C080000 		.4byte	.LVL95
 12026 01d4 0200     		.2byte	0x2
 12027 01d6 36       		.byte	0x36
 12028 01d7 9F       		.byte	0x9f
 12029 01d8 1C080000 		.4byte	.LVL95
 12030 01dc 32080000 		.4byte	.LVL97
 12031 01e0 0200     		.2byte	0x2
 12032 01e2 37       		.byte	0x37
 12033 01e3 9F       		.byte	0x9f
 12034 01e4 32080000 		.4byte	.LVL97
 12035 01e8 84080000 		.4byte	.LVL102
 12036 01ec 0200     		.2byte	0x2
 12037 01ee 31       		.byte	0x31
 12038 01ef 9F       		.byte	0x9f
 12039 01f0 84080000 		.4byte	.LVL102
 12040 01f4 D6080000 		.4byte	.LVL107
 12041 01f8 0200     		.2byte	0x2
 12042 01fa 34       		.byte	0x34
 12043 01fb 9F       		.byte	0x9f
 12044 01fc D6080000 		.4byte	.LVL107
 12045 0200 28090000 		.4byte	.LVL112
 12046 0204 0200     		.2byte	0x2
 12047 0206 32       		.byte	0x32
 12048 0207 9F       		.byte	0x9f
 12049 0208 28090000 		.4byte	.LVL112
 12050 020c 7A090000 		.4byte	.LVL117
 12051 0210 0200     		.2byte	0x2
 12052 0212 33       		.byte	0x33
 12053 0213 9F       		.byte	0x9f
 12054 0214 7A090000 		.4byte	.LVL117
 12055 0218 82090000 		.4byte	.LVL118
 12056 021c 0200     		.2byte	0x2
 12057 021e 39       		.byte	0x39
 12058 021f 9F       		.byte	0x9f
 12059 0220 82090000 		.4byte	.LVL118
 12060 0224 D4090000 		.4byte	.LVL123
 12061 0228 0200     		.2byte	0x2
 12062 022a 35       		.byte	0x35
 12063 022b 9F       		.byte	0x9f
 12064 022c D4090000 		.4byte	.LVL123
 12065 0230 260A0000 		.4byte	.LVL128
 12066 0234 0200     		.2byte	0x2
 12067 0236 38       		.byte	0x38
 12068 0237 9F       		.byte	0x9f
 12069 0238 260A0000 		.4byte	.LVL128
 12070 023c 760A0000 		.4byte	.LVL133
 12071 0240 0200     		.2byte	0x2
 12072 0242 36       		.byte	0x36
 12073 0243 9F       		.byte	0x9f
 12074 0244 760A0000 		.4byte	.LVL133
 12075 0248 FA0A0000 		.4byte	.LVL139
 12076 024c 0200     		.2byte	0x2
 12077 024e 37       		.byte	0x37
 12078 024f 9F       		.byte	0x9f
ARM GAS  /tmp/ccdUEzgz.s 			page 214


 12079 0250 FA0A0000 		.4byte	.LVL139
 12080 0254 100B0000 		.4byte	.LVL140
 12081 0258 0200     		.2byte	0x2
 12082 025a 38       		.byte	0x38
 12083 025b 9F       		.byte	0x9f
 12084 025c 100B0000 		.4byte	.LVL140
 12085 0260 260B0000 		.4byte	.LVL141
 12086 0264 0200     		.2byte	0x2
 12087 0266 36       		.byte	0x36
 12088 0267 9F       		.byte	0x9f
 12089 0268 260B0000 		.4byte	.LVL141
 12090 026c 3C0B0000 		.4byte	.LVL142
 12091 0270 0200     		.2byte	0x2
 12092 0272 35       		.byte	0x35
 12093 0273 9F       		.byte	0x9f
 12094 0274 3C0B0000 		.4byte	.LVL142
 12095 0278 480B0000 		.4byte	.LVL143
 12096 027c 0200     		.2byte	0x2
 12097 027e 37       		.byte	0x37
 12098 027f 9F       		.byte	0x9f
 12099 0280 480B0000 		.4byte	.LVL143
 12100 0284 5C0B0000 		.4byte	.LVL144
 12101 0288 0200     		.2byte	0x2
 12102 028a 33       		.byte	0x33
 12103 028b 9F       		.byte	0x9f
 12104 028c 5C0B0000 		.4byte	.LVL144
 12105 0290 680B0000 		.4byte	.LVL145
 12106 0294 0200     		.2byte	0x2
 12107 0296 32       		.byte	0x32
 12108 0297 9F       		.byte	0x9f
 12109 0298 680B0000 		.4byte	.LVL145
 12110 029c 700B0000 		.4byte	.LVL146
 12111 02a0 0200     		.2byte	0x2
 12112 02a2 39       		.byte	0x39
 12113 02a3 9F       		.byte	0x9f
 12114 02a4 700B0000 		.4byte	.LVL146
 12115 02a8 7C0B0000 		.4byte	.LVL147
 12116 02ac 0200     		.2byte	0x2
 12117 02ae 34       		.byte	0x34
 12118 02af 9F       		.byte	0x9f
 12119 02b0 7C0B0000 		.4byte	.LVL147
 12120 02b4 900B0000 		.4byte	.LVL148
 12121 02b8 0200     		.2byte	0x2
 12122 02ba 32       		.byte	0x32
 12123 02bb 9F       		.byte	0x9f
 12124 02bc 900B0000 		.4byte	.LVL148
 12125 02c0 A40B0000 		.4byte	.LVL149
 12126 02c4 0200     		.2byte	0x2
 12127 02c6 34       		.byte	0x34
 12128 02c7 9F       		.byte	0x9f
 12129 02c8 A40B0000 		.4byte	.LVL149
 12130 02cc AA0B0000 		.4byte	.LVL150
 12131 02d0 0200     		.2byte	0x2
 12132 02d2 39       		.byte	0x39
 12133 02d3 9F       		.byte	0x9f
 12134 02d4 AA0B0000 		.4byte	.LVL150
 12135 02d8 CA0B0000 		.4byte	.LVL152
ARM GAS  /tmp/ccdUEzgz.s 			page 215


 12136 02dc 0200     		.2byte	0x2
 12137 02de 31       		.byte	0x31
 12138 02df 9F       		.byte	0x9f
 12139 02e0 CA0B0000 		.4byte	.LVL152
 12140 02e4 DE0B0000 		.4byte	.LVL153
 12141 02e8 0200     		.2byte	0x2
 12142 02ea 30       		.byte	0x30
 12143 02eb 9F       		.byte	0x9f
 12144 02ec DE0B0000 		.4byte	.LVL153
 12145 02f0 EA0B0000 		.4byte	.LVL154
 12146 02f4 0200     		.2byte	0x2
 12147 02f6 38       		.byte	0x38
 12148 02f7 9F       		.byte	0x9f
 12149 02f8 EA0B0000 		.4byte	.LVL154
 12150 02fc F60B0000 		.4byte	.LVL155
 12151 0300 0200     		.2byte	0x2
 12152 0302 35       		.byte	0x35
 12153 0303 9F       		.byte	0x9f
 12154 0304 F60B0000 		.4byte	.LVL155
 12155 0308 020C0000 		.4byte	.LVL156
 12156 030c 0200     		.2byte	0x2
 12157 030e 33       		.byte	0x33
 12158 030f 9F       		.byte	0x9f
 12159 0310 020C0000 		.4byte	.LVL156
 12160 0314 0E0C0000 		.4byte	.LVL157
 12161 0318 0200     		.2byte	0x2
 12162 031a 36       		.byte	0x36
 12163 031b 9F       		.byte	0x9f
 12164 031c 0E0C0000 		.4byte	.LVL157
 12165 0320 160C0000 		.4byte	.LVL158
 12166 0324 0200     		.2byte	0x2
 12167 0326 3A       		.byte	0x3a
 12168 0327 9F       		.byte	0x9f
 12169 0328 160C0000 		.4byte	.LVL158
 12170 032c 200C0000 		.4byte	.LVL159
 12171 0330 0200     		.2byte	0x2
 12172 0332 31       		.byte	0x31
 12173 0333 9F       		.byte	0x9f
 12174 0334 200C0000 		.4byte	.LVL159
 12175 0338 2A0C0000 		.4byte	.LVL160
 12176 033c 0200     		.2byte	0x2
 12177 033e 30       		.byte	0x30
 12178 033f 9F       		.byte	0x9f
 12179 0340 2A0C0000 		.4byte	.LVL160
 12180 0344 340C0000 		.4byte	.LVL161
 12181 0348 0200     		.2byte	0x2
 12182 034a 37       		.byte	0x37
 12183 034b 9F       		.byte	0x9f
 12184 034c 340C0000 		.4byte	.LVL161
 12185 0350 3E0C0000 		.4byte	.LVL162
 12186 0354 0200     		.2byte	0x2
 12187 0356 36       		.byte	0x36
 12188 0357 9F       		.byte	0x9f
 12189 0358 3E0C0000 		.4byte	.LVL162
 12190 035c 480C0000 		.4byte	.LVL163
 12191 0360 0200     		.2byte	0x2
 12192 0362 38       		.byte	0x38
ARM GAS  /tmp/ccdUEzgz.s 			page 216


 12193 0363 9F       		.byte	0x9f
 12194 0364 480C0000 		.4byte	.LVL163
 12195 0368 520C0000 		.4byte	.LVL164
 12196 036c 0200     		.2byte	0x2
 12197 036e 35       		.byte	0x35
 12198 036f 9F       		.byte	0x9f
 12199 0370 520C0000 		.4byte	.LVL164
 12200 0374 5C0C0000 		.4byte	.LVL165
 12201 0378 0200     		.2byte	0x2
 12202 037a 33       		.byte	0x33
 12203 037b 9F       		.byte	0x9f
 12204 037c 5C0C0000 		.4byte	.LVL165
 12205 0380 660C0000 		.4byte	.LVL166
 12206 0384 0200     		.2byte	0x2
 12207 0386 32       		.byte	0x32
 12208 0387 9F       		.byte	0x9f
 12209 0388 660C0000 		.4byte	.LVL166
 12210 038c 700C0000 		.4byte	.LVL167
 12211 0390 0200     		.2byte	0x2
 12212 0392 39       		.byte	0x39
 12213 0393 9F       		.byte	0x9f
 12214 0394 700C0000 		.4byte	.LVL167
 12215 0398 9C0C0000 		.4byte	.LFE108
 12216 039c 0200     		.2byte	0x2
 12217 039e 34       		.byte	0x34
 12218 039f 9F       		.byte	0x9f
 12219 03a0 00000000 		.4byte	0
 12220 03a4 00000000 		.4byte	0
 12221              	.LLST3:
 12222 03a8 EC000000 		.4byte	.LVL6
 12223 03ac FE000000 		.4byte	.LVL7
 12224 03b0 0100     		.2byte	0x1
 12225 03b2 50       		.byte	0x50
 12226 03b3 FE000000 		.4byte	.LVL7
 12227 03b7 0E010000 		.4byte	.LVL8
 12228 03bb 0100     		.2byte	0x1
 12229 03bd 56       		.byte	0x56
 12230 03be 0E010000 		.4byte	.LVL8
 12231 03c2 16010000 		.4byte	.LVL9
 12232 03c6 0100     		.2byte	0x1
 12233 03c8 50       		.byte	0x50
 12234 03c9 16010000 		.4byte	.LVL9
 12235 03cd 34010000 		.4byte	.LVL11
 12236 03d1 0100     		.2byte	0x1
 12237 03d3 59       		.byte	0x59
 12238 03d4 34010000 		.4byte	.LVL11
 12239 03d8 3C010000 		.4byte	.LVL12
 12240 03dc 0100     		.2byte	0x1
 12241 03de 50       		.byte	0x50
 12242 03df 3C010000 		.4byte	.LVL12
 12243 03e3 60010000 		.4byte	.LVL13
 12244 03e7 0100     		.2byte	0x1
 12245 03e9 56       		.byte	0x56
 12246 03ea 60010000 		.4byte	.LVL13
 12247 03ee 68010000 		.4byte	.LVL14
 12248 03f2 0100     		.2byte	0x1
 12249 03f4 50       		.byte	0x50
ARM GAS  /tmp/ccdUEzgz.s 			page 217


 12250 03f5 68010000 		.4byte	.LVL14
 12251 03f9 88010000 		.4byte	.LVL16
 12252 03fd 0100     		.2byte	0x1
 12253 03ff 59       		.byte	0x59
 12254 0400 88010000 		.4byte	.LVL16
 12255 0404 90010000 		.4byte	.LVL17
 12256 0408 0100     		.2byte	0x1
 12257 040a 50       		.byte	0x50
 12258 040b 90010000 		.4byte	.LVL17
 12259 040f B4010000 		.4byte	.LVL18
 12260 0413 0100     		.2byte	0x1
 12261 0415 56       		.byte	0x56
 12262 0416 B4010000 		.4byte	.LVL18
 12263 041a BC010000 		.4byte	.LVL19
 12264 041e 0100     		.2byte	0x1
 12265 0420 50       		.byte	0x50
 12266 0421 BC010000 		.4byte	.LVL19
 12267 0425 DC010000 		.4byte	.LVL21
 12268 0429 0100     		.2byte	0x1
 12269 042b 59       		.byte	0x59
 12270 042c DC010000 		.4byte	.LVL21
 12271 0430 E4010000 		.4byte	.LVL22
 12272 0434 0100     		.2byte	0x1
 12273 0436 50       		.byte	0x50
 12274 0437 E4010000 		.4byte	.LVL22
 12275 043b 08020000 		.4byte	.LVL23
 12276 043f 0100     		.2byte	0x1
 12277 0441 56       		.byte	0x56
 12278 0442 08020000 		.4byte	.LVL23
 12279 0446 10020000 		.4byte	.LVL24
 12280 044a 0100     		.2byte	0x1
 12281 044c 50       		.byte	0x50
 12282 044d 10020000 		.4byte	.LVL24
 12283 0451 30020000 		.4byte	.LVL26
 12284 0455 0100     		.2byte	0x1
 12285 0457 59       		.byte	0x59
 12286 0458 30020000 		.4byte	.LVL26
 12287 045c 38020000 		.4byte	.LVL27
 12288 0460 0100     		.2byte	0x1
 12289 0462 50       		.byte	0x50
 12290 0463 38020000 		.4byte	.LVL27
 12291 0467 5C020000 		.4byte	.LVL28
 12292 046b 0100     		.2byte	0x1
 12293 046d 56       		.byte	0x56
 12294 046e 5C020000 		.4byte	.LVL28
 12295 0472 64020000 		.4byte	.LVL29
 12296 0476 0100     		.2byte	0x1
 12297 0478 50       		.byte	0x50
 12298 0479 64020000 		.4byte	.LVL29
 12299 047d 84020000 		.4byte	.LVL31
 12300 0481 0100     		.2byte	0x1
 12301 0483 59       		.byte	0x59
 12302 0484 84020000 		.4byte	.LVL31
 12303 0488 8C020000 		.4byte	.LVL32
 12304 048c 0100     		.2byte	0x1
 12305 048e 50       		.byte	0x50
 12306 048f 8C020000 		.4byte	.LVL32
ARM GAS  /tmp/ccdUEzgz.s 			page 218


 12307 0493 B0020000 		.4byte	.LVL33
 12308 0497 0100     		.2byte	0x1
 12309 0499 56       		.byte	0x56
 12310 049a B0020000 		.4byte	.LVL33
 12311 049e B8020000 		.4byte	.LVL34
 12312 04a2 0100     		.2byte	0x1
 12313 04a4 50       		.byte	0x50
 12314 04a5 B8020000 		.4byte	.LVL34
 12315 04a9 D8020000 		.4byte	.LVL36
 12316 04ad 0100     		.2byte	0x1
 12317 04af 59       		.byte	0x59
 12318 04b0 D8020000 		.4byte	.LVL36
 12319 04b4 E0020000 		.4byte	.LVL37
 12320 04b8 0100     		.2byte	0x1
 12321 04ba 50       		.byte	0x50
 12322 04bb E0020000 		.4byte	.LVL37
 12323 04bf 04030000 		.4byte	.LVL38
 12324 04c3 0100     		.2byte	0x1
 12325 04c5 56       		.byte	0x56
 12326 04c6 04030000 		.4byte	.LVL38
 12327 04ca 0C030000 		.4byte	.LVL39
 12328 04ce 0100     		.2byte	0x1
 12329 04d0 50       		.byte	0x50
 12330 04d1 0C030000 		.4byte	.LVL39
 12331 04d5 2C030000 		.4byte	.LVL41
 12332 04d9 0100     		.2byte	0x1
 12333 04db 59       		.byte	0x59
 12334 04dc 2C030000 		.4byte	.LVL41
 12335 04e0 34030000 		.4byte	.LVL42
 12336 04e4 0100     		.2byte	0x1
 12337 04e6 50       		.byte	0x50
 12338 04e7 34030000 		.4byte	.LVL42
 12339 04eb 58030000 		.4byte	.LVL43
 12340 04ef 0100     		.2byte	0x1
 12341 04f1 56       		.byte	0x56
 12342 04f2 58030000 		.4byte	.LVL43
 12343 04f6 60030000 		.4byte	.LVL44
 12344 04fa 0100     		.2byte	0x1
 12345 04fc 50       		.byte	0x50
 12346 04fd 60030000 		.4byte	.LVL44
 12347 0501 80030000 		.4byte	.LVL46
 12348 0505 0100     		.2byte	0x1
 12349 0507 59       		.byte	0x59
 12350 0508 80030000 		.4byte	.LVL46
 12351 050c 88030000 		.4byte	.LVL47
 12352 0510 0100     		.2byte	0x1
 12353 0512 50       		.byte	0x50
 12354 0513 88030000 		.4byte	.LVL47
 12355 0517 AC030000 		.4byte	.LVL48
 12356 051b 0100     		.2byte	0x1
 12357 051d 56       		.byte	0x56
 12358 051e AC030000 		.4byte	.LVL48
 12359 0522 B4030000 		.4byte	.LVL49
 12360 0526 0100     		.2byte	0x1
 12361 0528 50       		.byte	0x50
 12362 0529 B4030000 		.4byte	.LVL49
 12363 052d F6030000 		.4byte	.LVL51
ARM GAS  /tmp/ccdUEzgz.s 			page 219


 12364 0531 0100     		.2byte	0x1
 12365 0533 59       		.byte	0x59
 12366 0534 F6030000 		.4byte	.LVL51
 12367 0538 FE030000 		.4byte	.LVL52
 12368 053c 0100     		.2byte	0x1
 12369 053e 50       		.byte	0x50
 12370 053f FE030000 		.4byte	.LVL52
 12371 0543 28040000 		.4byte	.LVL54
 12372 0547 0100     		.2byte	0x1
 12373 0549 56       		.byte	0x56
 12374 054a 28040000 		.4byte	.LVL54
 12375 054e 48040000 		.4byte	.LVL56
 12376 0552 0100     		.2byte	0x1
 12377 0554 59       		.byte	0x59
 12378 0555 58040000 		.4byte	.LVL57
 12379 0559 8E040000 		.4byte	.LVL58
 12380 055d 0100     		.2byte	0x1
 12381 055f 50       		.byte	0x50
 12382 0560 8E040000 		.4byte	.LVL58
 12383 0564 44070000 		.4byte	.LVL78
 12384 0568 0100     		.2byte	0x1
 12385 056a 56       		.byte	0x56
 12386 056b 44070000 		.4byte	.LVL78
 12387 056f 4E070000 		.4byte	.LVL79
 12388 0573 0100     		.2byte	0x1
 12389 0575 52       		.byte	0x52
 12390 0576 4E070000 		.4byte	.LVL79
 12391 057a 84070000 		.4byte	.LVL84
 12392 057e 0100     		.2byte	0x1
 12393 0580 56       		.byte	0x56
 12394 0581 84070000 		.4byte	.LVL84
 12395 0585 8E070000 		.4byte	.LVL85
 12396 0589 0100     		.2byte	0x1
 12397 058b 52       		.byte	0x52
 12398 058c 8E070000 		.4byte	.LVL85
 12399 0590 9A070000 		.4byte	.LVL86
 12400 0594 0100     		.2byte	0x1
 12401 0596 56       		.byte	0x56
 12402 0597 9A070000 		.4byte	.LVL86
 12403 059b A4070000 		.4byte	.LVL87
 12404 059f 0100     		.2byte	0x1
 12405 05a1 52       		.byte	0x52
 12406 05a2 A4070000 		.4byte	.LVL87
 12407 05a6 B0070000 		.4byte	.LVL88
 12408 05aa 0100     		.2byte	0x1
 12409 05ac 56       		.byte	0x56
 12410 05ad B0070000 		.4byte	.LVL88
 12411 05b1 BA070000 		.4byte	.LVL89
 12412 05b5 0100     		.2byte	0x1
 12413 05b7 52       		.byte	0x52
 12414 05b8 BA070000 		.4byte	.LVL89
 12415 05bc C6070000 		.4byte	.LVL90
 12416 05c0 0100     		.2byte	0x1
 12417 05c2 56       		.byte	0x56
 12418 05c3 C6070000 		.4byte	.LVL90
 12419 05c7 D0070000 		.4byte	.LVL91
 12420 05cb 0100     		.2byte	0x1
ARM GAS  /tmp/ccdUEzgz.s 			page 220


 12421 05cd 52       		.byte	0x52
 12422 05ce D0070000 		.4byte	.LVL91
 12423 05d2 DC070000 		.4byte	.LVL92
 12424 05d6 0100     		.2byte	0x1
 12425 05d8 56       		.byte	0x56
 12426 05d9 DC070000 		.4byte	.LVL92
 12427 05dd E6070000 		.4byte	.LVL93
 12428 05e1 0100     		.2byte	0x1
 12429 05e3 52       		.byte	0x52
 12430 05e4 E6070000 		.4byte	.LVL93
 12431 05e8 F2070000 		.4byte	.LVL94
 12432 05ec 0100     		.2byte	0x1
 12433 05ee 56       		.byte	0x56
 12434 05ef F2070000 		.4byte	.LVL94
 12435 05f3 1C080000 		.4byte	.LVL95
 12436 05f7 0100     		.2byte	0x1
 12437 05f9 52       		.byte	0x52
 12438 05fa 1C080000 		.4byte	.LVL95
 12439 05fe 28080000 		.4byte	.LVL96
 12440 0602 0100     		.2byte	0x1
 12441 0604 56       		.byte	0x56
 12442 0605 28080000 		.4byte	.LVL96
 12443 0609 32080000 		.4byte	.LVL97
 12444 060d 0100     		.2byte	0x1
 12445 060f 52       		.byte	0x52
 12446 0610 32080000 		.4byte	.LVL97
 12447 0614 0E0C0000 		.4byte	.LVL157
 12448 0618 0100     		.2byte	0x1
 12449 061a 56       		.byte	0x56
 12450 061b 160C0000 		.4byte	.LVL158
 12451 061f 9C0C0000 		.4byte	.LFE108
 12452 0623 0100     		.2byte	0x1
 12453 0625 56       		.byte	0x56
 12454 0626 00000000 		.4byte	0
 12455 062a 00000000 		.4byte	0
 12456              	.LLST4:
 12457 062e 26000000 		.4byte	.LVL2
 12458 0632 CC000000 		.4byte	.LVL3
 12459 0636 0600     		.2byte	0x6
 12460 0638 03       		.byte	0x3
 12461 0639 00000000 		.4byte	.LANCHOR0
 12462 063d 9F       		.byte	0x9f
 12463 063e CC000000 		.4byte	.LVL3
 12464 0642 D2000000 		.4byte	.LVL4
 12465 0646 0600     		.2byte	0x6
 12466 0648 03       		.byte	0x3
 12467 0649 E0030000 		.4byte	.LANCHOR0+992
 12468 064d 9F       		.byte	0x9f
 12469 064e D2000000 		.4byte	.LVL4
 12470 0652 D4000000 		.4byte	.LVL5
 12471 0656 0100     		.2byte	0x1
 12472 0658 52       		.byte	0x52
 12473 0659 D4000000 		.4byte	.LVL5
 12474 065d EC000000 		.4byte	.LVL6
 12475 0661 0200     		.2byte	0x2
 12476 0663 91       		.byte	0x91
 12477 0664 48       		.sleb128 -56
ARM GAS  /tmp/ccdUEzgz.s 			page 221


 12478 0665 EC000000 		.4byte	.LVL6
 12479 0669 22010000 		.4byte	.LVL10
 12480 066d 0100     		.2byte	0x1
 12481 066f 55       		.byte	0x55
 12482 0670 22010000 		.4byte	.LVL10
 12483 0674 76010000 		.4byte	.LVL15
 12484 0678 0600     		.2byte	0x6
 12485 067a 03       		.byte	0x3
 12486 067b 7C000000 		.4byte	.LANCHOR0+124
 12487 067f 9F       		.byte	0x9f
 12488 0680 76010000 		.4byte	.LVL15
 12489 0684 CA010000 		.4byte	.LVL20
 12490 0688 0600     		.2byte	0x6
 12491 068a 03       		.byte	0x3
 12492 068b F8000000 		.4byte	.LANCHOR0+248
 12493 068f 9F       		.byte	0x9f
 12494 0690 CA010000 		.4byte	.LVL20
 12495 0694 1E020000 		.4byte	.LVL25
 12496 0698 0600     		.2byte	0x6
 12497 069a 03       		.byte	0x3
 12498 069b 74010000 		.4byte	.LANCHOR0+372
 12499 069f 9F       		.byte	0x9f
 12500 06a0 1E020000 		.4byte	.LVL25
 12501 06a4 72020000 		.4byte	.LVL30
 12502 06a8 0600     		.2byte	0x6
 12503 06aa 03       		.byte	0x3
 12504 06ab F0010000 		.4byte	.LANCHOR0+496
 12505 06af 9F       		.byte	0x9f
 12506 06b0 72020000 		.4byte	.LVL30
 12507 06b4 C6020000 		.4byte	.LVL35
 12508 06b8 0600     		.2byte	0x6
 12509 06ba 03       		.byte	0x3
 12510 06bb 6C020000 		.4byte	.LANCHOR0+620
 12511 06bf 9F       		.byte	0x9f
 12512 06c0 C6020000 		.4byte	.LVL35
 12513 06c4 1A030000 		.4byte	.LVL40
 12514 06c8 0600     		.2byte	0x6
 12515 06ca 03       		.byte	0x3
 12516 06cb E8020000 		.4byte	.LANCHOR0+744
 12517 06cf 9F       		.byte	0x9f
 12518 06d0 1A030000 		.4byte	.LVL40
 12519 06d4 6E030000 		.4byte	.LVL45
 12520 06d8 0600     		.2byte	0x6
 12521 06da 03       		.byte	0x3
 12522 06db 64030000 		.4byte	.LANCHOR0+868
 12523 06df 9F       		.byte	0x9f
 12524 06e0 6E030000 		.4byte	.LVL45
 12525 06e4 E4030000 		.4byte	.LVL50
 12526 06e8 0600     		.2byte	0x6
 12527 06ea 03       		.byte	0x3
 12528 06eb E0030000 		.4byte	.LANCHOR0+992
 12529 06ef 9F       		.byte	0x9f
 12530 06f0 E4030000 		.4byte	.LVL50
 12531 06f4 48040000 		.4byte	.LVL56
 12532 06f8 0200     		.2byte	0x2
 12533 06fa 91       		.byte	0x91
 12534 06fb 48       		.sleb128 -56
ARM GAS  /tmp/ccdUEzgz.s 			page 222


 12535 06fc 48040000 		.4byte	.LVL56
 12536 0700 DE040000 		.4byte	.LVL63
 12537 0704 0100     		.2byte	0x1
 12538 0706 55       		.byte	0x55
 12539 0707 DE040000 		.4byte	.LVL63
 12540 070b 16050000 		.4byte	.LVL64
 12541 070f 0600     		.2byte	0x6
 12542 0711 03       		.byte	0x3
 12543 0712 64030000 		.4byte	.LANCHOR0+868
 12544 0716 9F       		.byte	0x9f
 12545 0717 16050000 		.4byte	.LVL64
 12546 071b 4E050000 		.4byte	.LVL65
 12547 071f 0600     		.2byte	0x6
 12548 0721 03       		.byte	0x3
 12549 0722 E0030000 		.4byte	.LANCHOR0+992
 12550 0726 9F       		.byte	0x9f
 12551 0727 4E050000 		.4byte	.LVL65
 12552 072b E2050000 		.4byte	.LVL70
 12553 072f 0200     		.2byte	0x2
 12554 0731 91       		.byte	0x91
 12555 0732 48       		.sleb128 -56
 12556 0733 E2050000 		.4byte	.LVL70
 12557 0737 1A060000 		.4byte	.LVL71
 12558 073b 0600     		.2byte	0x6
 12559 073d 03       		.byte	0x3
 12560 073e 74010000 		.4byte	.LANCHOR0+372
 12561 0742 9F       		.byte	0x9f
 12562 0743 1A060000 		.4byte	.LVL71
 12563 0747 52060000 		.4byte	.LVL72
 12564 074b 0600     		.2byte	0x6
 12565 074d 03       		.byte	0x3
 12566 074e 7C000000 		.4byte	.LANCHOR0+124
 12567 0752 9F       		.byte	0x9f
 12568 0753 52060000 		.4byte	.LVL72
 12569 0757 8A060000 		.4byte	.LVL73
 12570 075b 0600     		.2byte	0x6
 12571 075d 03       		.byte	0x3
 12572 075e 6C020000 		.4byte	.LANCHOR0+620
 12573 0762 9F       		.byte	0x9f
 12574 0763 8A060000 		.4byte	.LVL73
 12575 0767 C2060000 		.4byte	.LVL74
 12576 076b 0600     		.2byte	0x6
 12577 076d 03       		.byte	0x3
 12578 076e F8000000 		.4byte	.LANCHOR0+248
 12579 0772 9F       		.byte	0x9f
 12580 0773 C2060000 		.4byte	.LVL74
 12581 0777 FA060000 		.4byte	.LVL75
 12582 077b 0600     		.2byte	0x6
 12583 077d 03       		.byte	0x3
 12584 077e F0010000 		.4byte	.LANCHOR0+496
 12585 0782 9F       		.byte	0x9f
 12586 0783 FA060000 		.4byte	.LVL75
 12587 0787 32070000 		.4byte	.LVL76
 12588 078b 0600     		.2byte	0x6
 12589 078d 03       		.byte	0x3
 12590 078e E8020000 		.4byte	.LANCHOR0+744
 12591 0792 9F       		.byte	0x9f
ARM GAS  /tmp/ccdUEzgz.s 			page 223


 12592 0793 32070000 		.4byte	.LVL76
 12593 0797 38070000 		.4byte	.LVL77
 12594 079b 0100     		.2byte	0x1
 12595 079d 55       		.byte	0x55
 12596 079e 38070000 		.4byte	.LVL77
 12597 07a2 4E070000 		.4byte	.LVL79
 12598 07a6 0600     		.2byte	0x6
 12599 07a8 03       		.byte	0x3
 12600 07a9 E0030000 		.4byte	.LANCHOR0+992
 12601 07ad 9F       		.byte	0x9f
 12602 07ae 4E070000 		.4byte	.LVL79
 12603 07b2 64070000 		.4byte	.LVL81
 12604 07b6 0200     		.2byte	0x2
 12605 07b8 91       		.byte	0x91
 12606 07b9 48       		.sleb128 -56
 12607 07ba 64070000 		.4byte	.LVL81
 12608 07be 78070000 		.4byte	.LVL83
 12609 07c2 0100     		.2byte	0x1
 12610 07c4 55       		.byte	0x55
 12611 07c5 78070000 		.4byte	.LVL83
 12612 07c9 8E070000 		.4byte	.LVL85
 12613 07cd 0600     		.2byte	0x6
 12614 07cf 03       		.byte	0x3
 12615 07d0 7C000000 		.4byte	.LANCHOR0+124
 12616 07d4 9F       		.byte	0x9f
 12617 07d5 8E070000 		.4byte	.LVL85
 12618 07d9 A4070000 		.4byte	.LVL87
 12619 07dd 0600     		.2byte	0x6
 12620 07df 03       		.byte	0x3
 12621 07e0 F8000000 		.4byte	.LANCHOR0+248
 12622 07e4 9F       		.byte	0x9f
 12623 07e5 A4070000 		.4byte	.LVL87
 12624 07e9 BA070000 		.4byte	.LVL89
 12625 07ed 0600     		.2byte	0x6
 12626 07ef 03       		.byte	0x3
 12627 07f0 74010000 		.4byte	.LANCHOR0+372
 12628 07f4 9F       		.byte	0x9f
 12629 07f5 BA070000 		.4byte	.LVL89
 12630 07f9 D0070000 		.4byte	.LVL91
 12631 07fd 0600     		.2byte	0x6
 12632 07ff 03       		.byte	0x3
 12633 0800 F0010000 		.4byte	.LANCHOR0+496
 12634 0804 9F       		.byte	0x9f
 12635 0805 D0070000 		.4byte	.LVL91
 12636 0809 E6070000 		.4byte	.LVL93
 12637 080d 0600     		.2byte	0x6
 12638 080f 03       		.byte	0x3
 12639 0810 6C020000 		.4byte	.LANCHOR0+620
 12640 0814 9F       		.byte	0x9f
 12641 0815 E6070000 		.4byte	.LVL93
 12642 0819 1C080000 		.4byte	.LVL95
 12643 081d 0600     		.2byte	0x6
 12644 081f 03       		.byte	0x3
 12645 0820 E8020000 		.4byte	.LANCHOR0+744
 12646 0824 9F       		.byte	0x9f
 12647 0825 1C080000 		.4byte	.LVL95
 12648 0829 32080000 		.4byte	.LVL97
ARM GAS  /tmp/ccdUEzgz.s 			page 224


 12649 082d 0600     		.2byte	0x6
 12650 082f 03       		.byte	0x3
 12651 0830 64030000 		.4byte	.LANCHOR0+868
 12652 0834 9F       		.byte	0x9f
 12653 0835 32080000 		.4byte	.LVL97
 12654 0839 84080000 		.4byte	.LVL102
 12655 083d 0600     		.2byte	0x6
 12656 083f 03       		.byte	0x3
 12657 0840 7C000000 		.4byte	.LANCHOR0+124
 12658 0844 9F       		.byte	0x9f
 12659 0845 84080000 		.4byte	.LVL102
 12660 0849 D6080000 		.4byte	.LVL107
 12661 084d 0600     		.2byte	0x6
 12662 084f 03       		.byte	0x3
 12663 0850 F0010000 		.4byte	.LANCHOR0+496
 12664 0854 9F       		.byte	0x9f
 12665 0855 D6080000 		.4byte	.LVL107
 12666 0859 28090000 		.4byte	.LVL112
 12667 085d 0600     		.2byte	0x6
 12668 085f 03       		.byte	0x3
 12669 0860 F8000000 		.4byte	.LANCHOR0+248
 12670 0864 9F       		.byte	0x9f
 12671 0865 28090000 		.4byte	.LVL112
 12672 0869 7A090000 		.4byte	.LVL117
 12673 086d 0600     		.2byte	0x6
 12674 086f 03       		.byte	0x3
 12675 0870 74010000 		.4byte	.LANCHOR0+372
 12676 0874 9F       		.byte	0x9f
 12677 0875 7A090000 		.4byte	.LVL117
 12678 0879 82090000 		.4byte	.LVL118
 12679 087d 0200     		.2byte	0x2
 12680 087f 91       		.byte	0x91
 12681 0880 48       		.sleb128 -56
 12682 0881 82090000 		.4byte	.LVL118
 12683 0885 D4090000 		.4byte	.LVL123
 12684 0889 0600     		.2byte	0x6
 12685 088b 03       		.byte	0x3
 12686 088c 6C020000 		.4byte	.LANCHOR0+620
 12687 0890 9F       		.byte	0x9f
 12688 0891 D4090000 		.4byte	.LVL123
 12689 0895 260A0000 		.4byte	.LVL128
 12690 0899 0600     		.2byte	0x6
 12691 089b 03       		.byte	0x3
 12692 089c E0030000 		.4byte	.LANCHOR0+992
 12693 08a0 9F       		.byte	0x9f
 12694 08a1 260A0000 		.4byte	.LVL128
 12695 08a5 760A0000 		.4byte	.LVL133
 12696 08a9 0600     		.2byte	0x6
 12697 08ab 03       		.byte	0x3
 12698 08ac E8020000 		.4byte	.LANCHOR0+744
 12699 08b0 9F       		.byte	0x9f
 12700 08b1 760A0000 		.4byte	.LVL133
 12701 08b5 FA0A0000 		.4byte	.LVL139
 12702 08b9 0600     		.2byte	0x6
 12703 08bb 03       		.byte	0x3
 12704 08bc 64030000 		.4byte	.LANCHOR0+868
 12705 08c0 9F       		.byte	0x9f
ARM GAS  /tmp/ccdUEzgz.s 			page 225


 12706 08c1 FA0A0000 		.4byte	.LVL139
 12707 08c5 100B0000 		.4byte	.LVL140
 12708 08c9 0600     		.2byte	0x6
 12709 08cb 03       		.byte	0x3
 12710 08cc E0030000 		.4byte	.LANCHOR0+992
 12711 08d0 9F       		.byte	0x9f
 12712 08d1 100B0000 		.4byte	.LVL140
 12713 08d5 260B0000 		.4byte	.LVL141
 12714 08d9 0600     		.2byte	0x6
 12715 08db 03       		.byte	0x3
 12716 08dc E8020000 		.4byte	.LANCHOR0+744
 12717 08e0 9F       		.byte	0x9f
 12718 08e1 260B0000 		.4byte	.LVL141
 12719 08e5 3C0B0000 		.4byte	.LVL142
 12720 08e9 0600     		.2byte	0x6
 12721 08eb 03       		.byte	0x3
 12722 08ec 6C020000 		.4byte	.LANCHOR0+620
 12723 08f0 9F       		.byte	0x9f
 12724 08f1 3C0B0000 		.4byte	.LVL142
 12725 08f5 480B0000 		.4byte	.LVL143
 12726 08f9 0600     		.2byte	0x6
 12727 08fb 03       		.byte	0x3
 12728 08fc 64030000 		.4byte	.LANCHOR0+868
 12729 0900 9F       		.byte	0x9f
 12730 0901 480B0000 		.4byte	.LVL143
 12731 0905 5C0B0000 		.4byte	.LVL144
 12732 0909 0600     		.2byte	0x6
 12733 090b 03       		.byte	0x3
 12734 090c 74010000 		.4byte	.LANCHOR0+372
 12735 0910 9F       		.byte	0x9f
 12736 0911 5C0B0000 		.4byte	.LVL144
 12737 0915 680B0000 		.4byte	.LVL145
 12738 0919 0600     		.2byte	0x6
 12739 091b 03       		.byte	0x3
 12740 091c F8000000 		.4byte	.LANCHOR0+248
 12741 0920 9F       		.byte	0x9f
 12742 0921 680B0000 		.4byte	.LVL145
 12743 0925 700B0000 		.4byte	.LVL146
 12744 0929 0200     		.2byte	0x2
 12745 092b 91       		.byte	0x91
 12746 092c 48       		.sleb128 -56
 12747 092d 700B0000 		.4byte	.LVL146
 12748 0931 7C0B0000 		.4byte	.LVL147
 12749 0935 0600     		.2byte	0x6
 12750 0937 03       		.byte	0x3
 12751 0938 F0010000 		.4byte	.LANCHOR0+496
 12752 093c 9F       		.byte	0x9f
 12753 093d 7C0B0000 		.4byte	.LVL147
 12754 0941 900B0000 		.4byte	.LVL148
 12755 0945 0600     		.2byte	0x6
 12756 0947 03       		.byte	0x3
 12757 0948 F8000000 		.4byte	.LANCHOR0+248
 12758 094c 9F       		.byte	0x9f
 12759 094d 900B0000 		.4byte	.LVL148
 12760 0951 A40B0000 		.4byte	.LVL149
 12761 0955 0600     		.2byte	0x6
 12762 0957 03       		.byte	0x3
ARM GAS  /tmp/ccdUEzgz.s 			page 226


 12763 0958 F0010000 		.4byte	.LANCHOR0+496
 12764 095c 9F       		.byte	0x9f
 12765 095d A40B0000 		.4byte	.LVL149
 12766 0961 AA0B0000 		.4byte	.LVL150
 12767 0965 0200     		.2byte	0x2
 12768 0967 91       		.byte	0x91
 12769 0968 48       		.sleb128 -56
 12770 0969 AA0B0000 		.4byte	.LVL150
 12771 096d CA0B0000 		.4byte	.LVL152
 12772 0971 0600     		.2byte	0x6
 12773 0973 03       		.byte	0x3
 12774 0974 7C000000 		.4byte	.LANCHOR0+124
 12775 0978 9F       		.byte	0x9f
 12776 0979 CA0B0000 		.4byte	.LVL152
 12777 097d DE0B0000 		.4byte	.LVL153
 12778 0981 0100     		.2byte	0x1
 12779 0983 55       		.byte	0x55
 12780 0984 DE0B0000 		.4byte	.LVL153
 12781 0988 EA0B0000 		.4byte	.LVL154
 12782 098c 0600     		.2byte	0x6
 12783 098e 03       		.byte	0x3
 12784 098f E0030000 		.4byte	.LANCHOR0+992
 12785 0993 9F       		.byte	0x9f
 12786 0994 EA0B0000 		.4byte	.LVL154
 12787 0998 F60B0000 		.4byte	.LVL155
 12788 099c 0600     		.2byte	0x6
 12789 099e 03       		.byte	0x3
 12790 099f 6C020000 		.4byte	.LANCHOR0+620
 12791 09a3 9F       		.byte	0x9f
 12792 09a4 F60B0000 		.4byte	.LVL155
 12793 09a8 020C0000 		.4byte	.LVL156
 12794 09ac 0600     		.2byte	0x6
 12795 09ae 03       		.byte	0x3
 12796 09af 74010000 		.4byte	.LANCHOR0+372
 12797 09b3 9F       		.byte	0x9f
 12798 09b4 020C0000 		.4byte	.LVL156
 12799 09b8 0E0C0000 		.4byte	.LVL157
 12800 09bc 0600     		.2byte	0x6
 12801 09be 03       		.byte	0x3
 12802 09bf E8020000 		.4byte	.LANCHOR0+744
 12803 09c3 9F       		.byte	0x9f
 12804 09c4 0E0C0000 		.4byte	.LVL157
 12805 09c8 160C0000 		.4byte	.LVL158
 12806 09cc 0200     		.2byte	0x2
 12807 09ce 91       		.byte	0x91
 12808 09cf 48       		.sleb128 -56
 12809 09d0 160C0000 		.4byte	.LVL158
 12810 09d4 200C0000 		.4byte	.LVL159
 12811 09d8 0600     		.2byte	0x6
 12812 09da 03       		.byte	0x3
 12813 09db 7C000000 		.4byte	.LANCHOR0+124
 12814 09df 9F       		.byte	0x9f
 12815 09e0 200C0000 		.4byte	.LVL159
 12816 09e4 2A0C0000 		.4byte	.LVL160
 12817 09e8 0100     		.2byte	0x1
 12818 09ea 55       		.byte	0x55
 12819 09eb 2A0C0000 		.4byte	.LVL160
ARM GAS  /tmp/ccdUEzgz.s 			page 227


 12820 09ef 340C0000 		.4byte	.LVL161
 12821 09f3 0600     		.2byte	0x6
 12822 09f5 03       		.byte	0x3
 12823 09f6 64030000 		.4byte	.LANCHOR0+868
 12824 09fa 9F       		.byte	0x9f
 12825 09fb 340C0000 		.4byte	.LVL161
 12826 09ff 3E0C0000 		.4byte	.LVL162
 12827 0a03 0600     		.2byte	0x6
 12828 0a05 03       		.byte	0x3
 12829 0a06 E8020000 		.4byte	.LANCHOR0+744
 12830 0a0a 9F       		.byte	0x9f
 12831 0a0b 3E0C0000 		.4byte	.LVL162
 12832 0a0f 480C0000 		.4byte	.LVL163
 12833 0a13 0600     		.2byte	0x6
 12834 0a15 03       		.byte	0x3
 12835 0a16 E0030000 		.4byte	.LANCHOR0+992
 12836 0a1a 9F       		.byte	0x9f
 12837 0a1b 480C0000 		.4byte	.LVL163
 12838 0a1f 520C0000 		.4byte	.LVL164
 12839 0a23 0600     		.2byte	0x6
 12840 0a25 03       		.byte	0x3
 12841 0a26 6C020000 		.4byte	.LANCHOR0+620
 12842 0a2a 9F       		.byte	0x9f
 12843 0a2b 520C0000 		.4byte	.LVL164
 12844 0a2f 5C0C0000 		.4byte	.LVL165
 12845 0a33 0600     		.2byte	0x6
 12846 0a35 03       		.byte	0x3
 12847 0a36 74010000 		.4byte	.LANCHOR0+372
 12848 0a3a 9F       		.byte	0x9f
 12849 0a3b 5C0C0000 		.4byte	.LVL165
 12850 0a3f 660C0000 		.4byte	.LVL166
 12851 0a43 0600     		.2byte	0x6
 12852 0a45 03       		.byte	0x3
 12853 0a46 F8000000 		.4byte	.LANCHOR0+248
 12854 0a4a 9F       		.byte	0x9f
 12855 0a4b 660C0000 		.4byte	.LVL166
 12856 0a4f 700C0000 		.4byte	.LVL167
 12857 0a53 0200     		.2byte	0x2
 12858 0a55 91       		.byte	0x91
 12859 0a56 48       		.sleb128 -56
 12860 0a57 700C0000 		.4byte	.LVL167
 12861 0a5b 9C0C0000 		.4byte	.LFE108
 12862 0a5f 0600     		.2byte	0x6
 12863 0a61 03       		.byte	0x3
 12864 0a62 F0010000 		.4byte	.LANCHOR0+496
 12865 0a66 9F       		.byte	0x9f
 12866 0a67 00000000 		.4byte	0
 12867 0a6b 00000000 		.4byte	0
 12868              	.LLST5:
 12869 0a6f 96040000 		.4byte	.LVL59
 12870 0a73 99040000 		.4byte	.LVL60-1
 12871 0a77 0100     		.2byte	0x1
 12872 0a79 50       		.byte	0x50
 12873 0a7a 99040000 		.4byte	.LVL60-1
 12874 0a7e DE040000 		.4byte	.LVL63
 12875 0a82 0200     		.2byte	0x2
 12876 0a84 91       		.byte	0x91
ARM GAS  /tmp/ccdUEzgz.s 			page 228


 12877 0a85 44       		.sleb128 -60
 12878 0a86 88050000 		.4byte	.LVL66
 12879 0a8a 8B050000 		.4byte	.LVL67-1
 12880 0a8e 0100     		.2byte	0x1
 12881 0a90 50       		.byte	0x50
 12882 0a91 8B050000 		.4byte	.LVL67-1
 12883 0a95 E2050000 		.4byte	.LVL70
 12884 0a99 0200     		.2byte	0x2
 12885 0a9b 91       		.byte	0x91
 12886 0a9c 44       		.sleb128 -60
 12887 0a9d 3C080000 		.4byte	.LVL98
 12888 0aa1 3F080000 		.4byte	.LVL99-1
 12889 0aa5 0100     		.2byte	0x1
 12890 0aa7 50       		.byte	0x50
 12891 0aa8 3F080000 		.4byte	.LVL99-1
 12892 0aac 84080000 		.4byte	.LVL102
 12893 0ab0 0200     		.2byte	0x2
 12894 0ab2 91       		.byte	0x91
 12895 0ab3 44       		.sleb128 -60
 12896 0ab4 8E080000 		.4byte	.LVL103
 12897 0ab8 91080000 		.4byte	.LVL104-1
 12898 0abc 0100     		.2byte	0x1
 12899 0abe 50       		.byte	0x50
 12900 0abf 91080000 		.4byte	.LVL104-1
 12901 0ac3 D6080000 		.4byte	.LVL107
 12902 0ac7 0200     		.2byte	0x2
 12903 0ac9 91       		.byte	0x91
 12904 0aca 44       		.sleb128 -60
 12905 0acb E0080000 		.4byte	.LVL108
 12906 0acf E3080000 		.4byte	.LVL109-1
 12907 0ad3 0100     		.2byte	0x1
 12908 0ad5 50       		.byte	0x50
 12909 0ad6 E3080000 		.4byte	.LVL109-1
 12910 0ada 28090000 		.4byte	.LVL112
 12911 0ade 0200     		.2byte	0x2
 12912 0ae0 91       		.byte	0x91
 12913 0ae1 44       		.sleb128 -60
 12914 0ae2 32090000 		.4byte	.LVL113
 12915 0ae6 35090000 		.4byte	.LVL114-1
 12916 0aea 0100     		.2byte	0x1
 12917 0aec 50       		.byte	0x50
 12918 0aed 35090000 		.4byte	.LVL114-1
 12919 0af1 7A090000 		.4byte	.LVL117
 12920 0af5 0200     		.2byte	0x2
 12921 0af7 91       		.byte	0x91
 12922 0af8 44       		.sleb128 -60
 12923 0af9 8C090000 		.4byte	.LVL119
 12924 0afd 8F090000 		.4byte	.LVL120-1
 12925 0b01 0100     		.2byte	0x1
 12926 0b03 50       		.byte	0x50
 12927 0b04 8F090000 		.4byte	.LVL120-1
 12928 0b08 D4090000 		.4byte	.LVL123
 12929 0b0c 0200     		.2byte	0x2
 12930 0b0e 91       		.byte	0x91
 12931 0b0f 44       		.sleb128 -60
 12932 0b10 DE090000 		.4byte	.LVL124
 12933 0b14 E1090000 		.4byte	.LVL125-1
ARM GAS  /tmp/ccdUEzgz.s 			page 229


 12934 0b18 0100     		.2byte	0x1
 12935 0b1a 50       		.byte	0x50
 12936 0b1b E1090000 		.4byte	.LVL125-1
 12937 0b1f 260A0000 		.4byte	.LVL128
 12938 0b23 0200     		.2byte	0x2
 12939 0b25 91       		.byte	0x91
 12940 0b26 44       		.sleb128 -60
 12941 0b27 300A0000 		.4byte	.LVL129
 12942 0b2b 330A0000 		.4byte	.LVL130-1
 12943 0b2f 0100     		.2byte	0x1
 12944 0b31 50       		.byte	0x50
 12945 0b32 330A0000 		.4byte	.LVL130-1
 12946 0b36 760A0000 		.4byte	.LVL133
 12947 0b3a 0200     		.2byte	0x2
 12948 0b3c 91       		.byte	0x91
 12949 0b3d 44       		.sleb128 -60
 12950 0b3e 800A0000 		.4byte	.LVL134
 12951 0b42 830A0000 		.4byte	.LVL135-1
 12952 0b46 0100     		.2byte	0x1
 12953 0b48 50       		.byte	0x50
 12954 0b49 830A0000 		.4byte	.LVL135-1
 12955 0b4d 0E0C0000 		.4byte	.LVL157
 12956 0b51 0200     		.2byte	0x2
 12957 0b53 91       		.byte	0x91
 12958 0b54 44       		.sleb128 -60
 12959 0b55 160C0000 		.4byte	.LVL158
 12960 0b59 9C0C0000 		.4byte	.LFE108
 12961 0b5d 0200     		.2byte	0x2
 12962 0b5f 91       		.byte	0x91
 12963 0b60 44       		.sleb128 -60
 12964 0b61 00000000 		.4byte	0
 12965 0b65 00000000 		.4byte	0
 12966              	.LLST6:
 12967 0b69 AE040000 		.4byte	.LVL61
 12968 0b6d B1040000 		.4byte	.LVL62-1
 12969 0b71 0100     		.2byte	0x1
 12970 0b73 50       		.byte	0x50
 12971 0b74 B1040000 		.4byte	.LVL62-1
 12972 0b78 DE040000 		.4byte	.LVL63
 12973 0b7c 0200     		.2byte	0x2
 12974 0b7e 91       		.byte	0x91
 12975 0b7f 50       		.sleb128 -48
 12976 0b80 B0050000 		.4byte	.LVL68
 12977 0b84 B3050000 		.4byte	.LVL69-1
 12978 0b88 0100     		.2byte	0x1
 12979 0b8a 50       		.byte	0x50
 12980 0b8b B3050000 		.4byte	.LVL69-1
 12981 0b8f E2050000 		.4byte	.LVL70
 12982 0b93 0200     		.2byte	0x2
 12983 0b95 91       		.byte	0x91
 12984 0b96 50       		.sleb128 -48
 12985 0b97 54080000 		.4byte	.LVL100
 12986 0b9b 57080000 		.4byte	.LVL101-1
 12987 0b9f 0100     		.2byte	0x1
 12988 0ba1 50       		.byte	0x50
 12989 0ba2 57080000 		.4byte	.LVL101-1
 12990 0ba6 84080000 		.4byte	.LVL102
ARM GAS  /tmp/ccdUEzgz.s 			page 230


 12991 0baa 0200     		.2byte	0x2
 12992 0bac 91       		.byte	0x91
 12993 0bad 50       		.sleb128 -48
 12994 0bae A6080000 		.4byte	.LVL105
 12995 0bb2 A9080000 		.4byte	.LVL106-1
 12996 0bb6 0100     		.2byte	0x1
 12997 0bb8 50       		.byte	0x50
 12998 0bb9 A9080000 		.4byte	.LVL106-1
 12999 0bbd D6080000 		.4byte	.LVL107
 13000 0bc1 0200     		.2byte	0x2
 13001 0bc3 91       		.byte	0x91
 13002 0bc4 50       		.sleb128 -48
 13003 0bc5 F8080000 		.4byte	.LVL110
 13004 0bc9 FB080000 		.4byte	.LVL111-1
 13005 0bcd 0100     		.2byte	0x1
 13006 0bcf 50       		.byte	0x50
 13007 0bd0 FB080000 		.4byte	.LVL111-1
 13008 0bd4 28090000 		.4byte	.LVL112
 13009 0bd8 0200     		.2byte	0x2
 13010 0bda 91       		.byte	0x91
 13011 0bdb 50       		.sleb128 -48
 13012 0bdc 4A090000 		.4byte	.LVL115
 13013 0be0 4D090000 		.4byte	.LVL116-1
 13014 0be4 0100     		.2byte	0x1
 13015 0be6 50       		.byte	0x50
 13016 0be7 4D090000 		.4byte	.LVL116-1
 13017 0beb 7A090000 		.4byte	.LVL117
 13018 0bef 0200     		.2byte	0x2
 13019 0bf1 91       		.byte	0x91
 13020 0bf2 50       		.sleb128 -48
 13021 0bf3 A4090000 		.4byte	.LVL121
 13022 0bf7 A7090000 		.4byte	.LVL122-1
 13023 0bfb 0100     		.2byte	0x1
 13024 0bfd 50       		.byte	0x50
 13025 0bfe A7090000 		.4byte	.LVL122-1
 13026 0c02 D4090000 		.4byte	.LVL123
 13027 0c06 0200     		.2byte	0x2
 13028 0c08 91       		.byte	0x91
 13029 0c09 50       		.sleb128 -48
 13030 0c0a F6090000 		.4byte	.LVL126
 13031 0c0e F9090000 		.4byte	.LVL127-1
 13032 0c12 0100     		.2byte	0x1
 13033 0c14 50       		.byte	0x50
 13034 0c15 F9090000 		.4byte	.LVL127-1
 13035 0c19 260A0000 		.4byte	.LVL128
 13036 0c1d 0200     		.2byte	0x2
 13037 0c1f 91       		.byte	0x91
 13038 0c20 50       		.sleb128 -48
 13039 0c21 460A0000 		.4byte	.LVL131
 13040 0c25 490A0000 		.4byte	.LVL132-1
 13041 0c29 0100     		.2byte	0x1
 13042 0c2b 50       		.byte	0x50
 13043 0c2c 490A0000 		.4byte	.LVL132-1
 13044 0c30 760A0000 		.4byte	.LVL133
 13045 0c34 0200     		.2byte	0x2
 13046 0c36 91       		.byte	0x91
 13047 0c37 50       		.sleb128 -48
ARM GAS  /tmp/ccdUEzgz.s 			page 231


 13048 0c38 940A0000 		.4byte	.LVL136
 13049 0c3c 970A0000 		.4byte	.LVL137-1
 13050 0c40 0100     		.2byte	0x1
 13051 0c42 50       		.byte	0x50
 13052 0c43 970A0000 		.4byte	.LVL137-1
 13053 0c47 E40A0000 		.4byte	.LVL138
 13054 0c4b 0200     		.2byte	0x2
 13055 0c4d 91       		.byte	0x91
 13056 0c4e 50       		.sleb128 -48
 13057 0c4f 3C0B0000 		.4byte	.LVL142
 13058 0c53 480B0000 		.4byte	.LVL143
 13059 0c57 0200     		.2byte	0x2
 13060 0c59 91       		.byte	0x91
 13061 0c5a 50       		.sleb128 -48
 13062 0c5b 5C0B0000 		.4byte	.LVL144
 13063 0c5f 7C0B0000 		.4byte	.LVL147
 13064 0c63 0200     		.2byte	0x2
 13065 0c65 91       		.byte	0x91
 13066 0c66 50       		.sleb128 -48
 13067 0c67 BE0B0000 		.4byte	.LVL151
 13068 0c6b CA0B0000 		.4byte	.LVL152
 13069 0c6f 0200     		.2byte	0x2
 13070 0c71 91       		.byte	0x91
 13071 0c72 50       		.sleb128 -48
 13072 0c73 DE0B0000 		.4byte	.LVL153
 13073 0c77 0E0C0000 		.4byte	.LVL157
 13074 0c7b 0200     		.2byte	0x2
 13075 0c7d 91       		.byte	0x91
 13076 0c7e 50       		.sleb128 -48
 13077 0c7f 00000000 		.4byte	0
 13078 0c83 00000000 		.4byte	0
 13079              	.LLST7:
 13080 0c87 00000000 		.4byte	.LVL168
 13081 0c8b 12000000 		.4byte	.LVL169
 13082 0c8f 0100     		.2byte	0x1
 13083 0c91 50       		.byte	0x50
 13084 0c92 12000000 		.4byte	.LVL169
 13085 0c96 1C000000 		.4byte	.LFE69
 13086 0c9a 0100     		.2byte	0x1
 13087 0c9c 53       		.byte	0x53
 13088 0c9d 00000000 		.4byte	0
 13089 0ca1 00000000 		.4byte	0
 13090              	.LLST8:
 13091 0ca5 00000000 		.4byte	.LVL170
 13092 0ca9 14000000 		.4byte	.LVL171
 13093 0cad 0100     		.2byte	0x1
 13094 0caf 50       		.byte	0x50
 13095 0cb0 14000000 		.4byte	.LVL171
 13096 0cb4 1A000000 		.4byte	.LFE70
 13097 0cb8 0100     		.2byte	0x1
 13098 0cba 53       		.byte	0x53
 13099 0cbb 00000000 		.4byte	0
 13100 0cbf 00000000 		.4byte	0
 13101              	.LLST9:
 13102 0cc3 00000000 		.4byte	.LVL172
 13103 0cc7 16000000 		.4byte	.LVL173
 13104 0ccb 0100     		.2byte	0x1
ARM GAS  /tmp/ccdUEzgz.s 			page 232


 13105 0ccd 50       		.byte	0x50
 13106 0cce 1A000000 		.4byte	.LVL174
 13107 0cd2 1C000000 		.4byte	.LVL175
 13108 0cd6 0100     		.2byte	0x1
 13109 0cd8 50       		.byte	0x50
 13110 0cd9 1C000000 		.4byte	.LVL175
 13111 0cdd 1E000000 		.4byte	.LFE71
 13112 0ce1 0100     		.2byte	0x1
 13113 0ce3 53       		.byte	0x53
 13114 0ce4 00000000 		.4byte	0
 13115 0ce8 00000000 		.4byte	0
 13116              	.LLST10:
 13117 0cec 00000000 		.4byte	.LFB72
 13118 0cf0 02000000 		.4byte	.LCFI2
 13119 0cf4 0200     		.2byte	0x2
 13120 0cf6 7D       		.byte	0x7d
 13121 0cf7 00       		.sleb128 0
 13122 0cf8 02000000 		.4byte	.LCFI2
 13123 0cfc 3E000000 		.4byte	.LFE72
 13124 0d00 0200     		.2byte	0x2
 13125 0d02 7D       		.byte	0x7d
 13126 0d03 0C       		.sleb128 12
 13127 0d04 00000000 		.4byte	0
 13128 0d08 00000000 		.4byte	0
 13129              	.LLST11:
 13130 0d0c 00000000 		.4byte	.LVL176
 13131 0d10 1C000000 		.4byte	.LVL177
 13132 0d14 0100     		.2byte	0x1
 13133 0d16 50       		.byte	0x50
 13134 0d17 26000000 		.4byte	.LVL178
 13135 0d1b 36000000 		.4byte	.LVL179
 13136 0d1f 0100     		.2byte	0x1
 13137 0d21 50       		.byte	0x50
 13138 0d22 3A000000 		.4byte	.LVL180
 13139 0d26 3C000000 		.4byte	.LVL181
 13140 0d2a 0100     		.2byte	0x1
 13141 0d2c 50       		.byte	0x50
 13142 0d2d 3C000000 		.4byte	.LVL181
 13143 0d31 3E000000 		.4byte	.LFE72
 13144 0d35 0100     		.2byte	0x1
 13145 0d37 53       		.byte	0x53
 13146 0d38 00000000 		.4byte	0
 13147 0d3c 00000000 		.4byte	0
 13148              	.LLST12:
 13149 0d40 00000000 		.4byte	.LVL182
 13150 0d44 16000000 		.4byte	.LVL183
 13151 0d48 0100     		.2byte	0x1
 13152 0d4a 50       		.byte	0x50
 13153 0d4b 1A000000 		.4byte	.LVL184
 13154 0d4f 1C000000 		.4byte	.LVL185
 13155 0d53 0100     		.2byte	0x1
 13156 0d55 50       		.byte	0x50
 13157 0d56 1C000000 		.4byte	.LVL185
 13158 0d5a 1E000000 		.4byte	.LFE73
 13159 0d5e 0100     		.2byte	0x1
 13160 0d60 53       		.byte	0x53
 13161 0d61 00000000 		.4byte	0
ARM GAS  /tmp/ccdUEzgz.s 			page 233


 13162 0d65 00000000 		.4byte	0
 13163              	.LLST13:
 13164 0d69 00000000 		.4byte	.LVL186
 13165 0d6d 16000000 		.4byte	.LVL187
 13166 0d71 0100     		.2byte	0x1
 13167 0d73 50       		.byte	0x50
 13168 0d74 1C000000 		.4byte	.LVL188
 13169 0d78 1E000000 		.4byte	.LVL189
 13170 0d7c 0100     		.2byte	0x1
 13171 0d7e 50       		.byte	0x50
 13172 0d7f 1E000000 		.4byte	.LVL189
 13173 0d83 20000000 		.4byte	.LFE74
 13174 0d87 0100     		.2byte	0x1
 13175 0d89 53       		.byte	0x53
 13176 0d8a 00000000 		.4byte	0
 13177 0d8e 00000000 		.4byte	0
 13178              	.LLST14:
 13179 0d92 00000000 		.4byte	.LFB75
 13180 0d96 02000000 		.4byte	.LCFI3
 13181 0d9a 0200     		.2byte	0x2
 13182 0d9c 7D       		.byte	0x7d
 13183 0d9d 00       		.sleb128 0
 13184 0d9e 02000000 		.4byte	.LCFI3
 13185 0da2 20000000 		.4byte	.LFE75
 13186 0da6 0200     		.2byte	0x2
 13187 0da8 7D       		.byte	0x7d
 13188 0da9 0C       		.sleb128 12
 13189 0daa 00000000 		.4byte	0
 13190 0dae 00000000 		.4byte	0
 13191              	.LLST15:
 13192 0db2 00000000 		.4byte	.LVL190
 13193 0db6 1A000000 		.4byte	.LVL191
 13194 0dba 0100     		.2byte	0x1
 13195 0dbc 50       		.byte	0x50
 13196 0dbd 00000000 		.4byte	0
 13197 0dc1 00000000 		.4byte	0
 13198              	.LLST16:
 13199 0dc5 00000000 		.4byte	.LFB76
 13200 0dc9 02000000 		.4byte	.LCFI4
 13201 0dcd 0200     		.2byte	0x2
 13202 0dcf 7D       		.byte	0x7d
 13203 0dd0 00       		.sleb128 0
 13204 0dd1 02000000 		.4byte	.LCFI4
 13205 0dd5 78000000 		.4byte	.LFE76
 13206 0dd9 0200     		.2byte	0x2
 13207 0ddb 7D       		.byte	0x7d
 13208 0ddc 18       		.sleb128 24
 13209 0ddd 00000000 		.4byte	0
 13210 0de1 00000000 		.4byte	0
 13211              	.LLST17:
 13212 0de5 00000000 		.4byte	.LVL192
 13213 0de9 16000000 		.4byte	.LVL193
 13214 0ded 0100     		.2byte	0x1
 13215 0def 50       		.byte	0x50
 13216 0df0 00000000 		.4byte	0
 13217 0df4 00000000 		.4byte	0
 13218              	.LLST18:
ARM GAS  /tmp/ccdUEzgz.s 			page 234


 13219 0df8 00000000 		.4byte	.LVL192
 13220 0dfc 1D000000 		.4byte	.LVL195-1
 13221 0e00 0100     		.2byte	0x1
 13222 0e02 51       		.byte	0x51
 13223 0e03 00000000 		.4byte	0
 13224 0e07 00000000 		.4byte	0
 13225              	.LLST19:
 13226 0e0b 1A000000 		.4byte	.LVL194
 13227 0e0f 6A000000 		.4byte	.LVL196
 13228 0e13 0100     		.2byte	0x1
 13229 0e15 54       		.byte	0x54
 13230 0e16 00000000 		.4byte	0
 13231 0e1a 00000000 		.4byte	0
 13232              	.LLST20:
 13233 0e1e 00000000 		.4byte	.LVL197
 13234 0e22 1A000000 		.4byte	.LVL198
 13235 0e26 0100     		.2byte	0x1
 13236 0e28 50       		.byte	0x50
 13237 0e29 00000000 		.4byte	0
 13238 0e2d 00000000 		.4byte	0
 13239              	.LLST21:
 13240 0e31 00000000 		.4byte	.LVL199
 13241 0e35 14000000 		.4byte	.LVL200
 13242 0e39 0100     		.2byte	0x1
 13243 0e3b 50       		.byte	0x50
 13244 0e3c 14000000 		.4byte	.LVL200
 13245 0e40 1C000000 		.4byte	.LFE78
 13246 0e44 0100     		.2byte	0x1
 13247 0e46 53       		.byte	0x53
 13248 0e47 00000000 		.4byte	0
 13249 0e4b 00000000 		.4byte	0
 13250              	.LLST22:
 13251 0e4f 00000000 		.4byte	.LVL201
 13252 0e53 14000000 		.4byte	.LVL202
 13253 0e57 0100     		.2byte	0x1
 13254 0e59 50       		.byte	0x50
 13255 0e5a 14000000 		.4byte	.LVL202
 13256 0e5e 1C000000 		.4byte	.LFE79
 13257 0e62 0100     		.2byte	0x1
 13258 0e64 53       		.byte	0x53
 13259 0e65 00000000 		.4byte	0
 13260 0e69 00000000 		.4byte	0
 13261              	.LLST23:
 13262 0e6d 00000000 		.4byte	.LVL203
 13263 0e71 18000000 		.4byte	.LVL204
 13264 0e75 0100     		.2byte	0x1
 13265 0e77 50       		.byte	0x50
 13266 0e78 00000000 		.4byte	0
 13267 0e7c 00000000 		.4byte	0
 13268              	.LLST24:
 13269 0e80 00000000 		.4byte	.LFB86
 13270 0e84 0A000000 		.4byte	.LCFI5
 13271 0e88 0200     		.2byte	0x2
 13272 0e8a 7D       		.byte	0x7d
 13273 0e8b 00       		.sleb128 0
 13274 0e8c 0A000000 		.4byte	.LCFI5
 13275 0e90 26000000 		.4byte	.LFE86
ARM GAS  /tmp/ccdUEzgz.s 			page 235


 13276 0e94 0200     		.2byte	0x2
 13277 0e96 7D       		.byte	0x7d
 13278 0e97 08       		.sleb128 8
 13279 0e98 00000000 		.4byte	0
 13280 0e9c 00000000 		.4byte	0
 13281              	.LLST25:
 13282 0ea0 00000000 		.4byte	.LFB87
 13283 0ea4 02000000 		.4byte	.LCFI6
 13284 0ea8 0200     		.2byte	0x2
 13285 0eaa 7D       		.byte	0x7d
 13286 0eab 00       		.sleb128 0
 13287 0eac 02000000 		.4byte	.LCFI6
 13288 0eb0 34000000 		.4byte	.LFE87
 13289 0eb4 0200     		.2byte	0x2
 13290 0eb6 7D       		.byte	0x7d
 13291 0eb7 08       		.sleb128 8
 13292 0eb8 00000000 		.4byte	0
 13293 0ebc 00000000 		.4byte	0
 13294              	.LLST26:
 13295 0ec0 00000000 		.4byte	.LFB88
 13296 0ec4 02000000 		.4byte	.LCFI7
 13297 0ec8 0200     		.2byte	0x2
 13298 0eca 7D       		.byte	0x7d
 13299 0ecb 00       		.sleb128 0
 13300 0ecc 02000000 		.4byte	.LCFI7
 13301 0ed0 0C070000 		.4byte	.LFE88
 13302 0ed4 0200     		.2byte	0x2
 13303 0ed6 7D       		.byte	0x7d
 13304 0ed7 10       		.sleb128 16
 13305 0ed8 00000000 		.4byte	0
 13306 0edc 00000000 		.4byte	0
 13307              	.LLST27:
 13308 0ee0 5E000000 		.4byte	.LVL207
 13309 0ee4 C2000000 		.4byte	.LVL210
 13310 0ee8 0200     		.2byte	0x2
 13311 0eea 30       		.byte	0x30
 13312 0eeb 9F       		.byte	0x9f
 13313 0eec C2000000 		.4byte	.LVL210
 13314 0ef0 26010000 		.4byte	.LVL214
 13315 0ef4 0200     		.2byte	0x2
 13316 0ef6 31       		.byte	0x31
 13317 0ef7 9F       		.byte	0x9f
 13318 0ef8 26010000 		.4byte	.LVL214
 13319 0efc 8A010000 		.4byte	.LVL217
 13320 0f00 0200     		.2byte	0x2
 13321 0f02 32       		.byte	0x32
 13322 0f03 9F       		.byte	0x9f
 13323 0f04 8A010000 		.4byte	.LVL217
 13324 0f08 EE010000 		.4byte	.LVL221
 13325 0f0c 0200     		.2byte	0x2
 13326 0f0e 33       		.byte	0x33
 13327 0f0f 9F       		.byte	0x9f
 13328 0f10 EE010000 		.4byte	.LVL221
 13329 0f14 52020000 		.4byte	.LVL224
 13330 0f18 0200     		.2byte	0x2
 13331 0f1a 34       		.byte	0x34
 13332 0f1b 9F       		.byte	0x9f
ARM GAS  /tmp/ccdUEzgz.s 			page 236


 13333 0f1c 52020000 		.4byte	.LVL224
 13334 0f20 B2020000 		.4byte	.LVL226
 13335 0f24 0200     		.2byte	0x2
 13336 0f26 35       		.byte	0x35
 13337 0f27 9F       		.byte	0x9f
 13338 0f28 B2020000 		.4byte	.LVL226
 13339 0f2c 16030000 		.4byte	.LVL230
 13340 0f30 0200     		.2byte	0x2
 13341 0f32 30       		.byte	0x30
 13342 0f33 9F       		.byte	0x9f
 13343 0f34 16030000 		.4byte	.LVL230
 13344 0f38 7A030000 		.4byte	.LVL233
 13345 0f3c 0200     		.2byte	0x2
 13346 0f3e 31       		.byte	0x31
 13347 0f3f 9F       		.byte	0x9f
 13348 0f40 7A030000 		.4byte	.LVL233
 13349 0f44 DE030000 		.4byte	.LVL237
 13350 0f48 0200     		.2byte	0x2
 13351 0f4a 32       		.byte	0x32
 13352 0f4b 9F       		.byte	0x9f
 13353 0f4c DE030000 		.4byte	.LVL237
 13354 0f50 42040000 		.4byte	.LVL240
 13355 0f54 0200     		.2byte	0x2
 13356 0f56 33       		.byte	0x33
 13357 0f57 9F       		.byte	0x9f
 13358 0f58 42040000 		.4byte	.LVL240
 13359 0f5c A6040000 		.4byte	.LVL244
 13360 0f60 0200     		.2byte	0x2
 13361 0f62 34       		.byte	0x34
 13362 0f63 9F       		.byte	0x9f
 13363 0f64 A6040000 		.4byte	.LVL244
 13364 0f68 08050000 		.4byte	.LVL246
 13365 0f6c 0200     		.2byte	0x2
 13366 0f6e 35       		.byte	0x35
 13367 0f6f 9F       		.byte	0x9f
 13368 0f70 08050000 		.4byte	.LVL246
 13369 0f74 6C050000 		.4byte	.LVL249
 13370 0f78 0200     		.2byte	0x2
 13371 0f7a 30       		.byte	0x30
 13372 0f7b 9F       		.byte	0x9f
 13373 0f7c 6C050000 		.4byte	.LVL249
 13374 0f80 D0050000 		.4byte	.LVL253
 13375 0f84 0200     		.2byte	0x2
 13376 0f86 31       		.byte	0x31
 13377 0f87 9F       		.byte	0x9f
 13378 0f88 D0050000 		.4byte	.LVL253
 13379 0f8c 34060000 		.4byte	.LVL256
 13380 0f90 0200     		.2byte	0x2
 13381 0f92 32       		.byte	0x32
 13382 0f93 9F       		.byte	0x9f
 13383 0f94 34060000 		.4byte	.LVL256
 13384 0f98 98060000 		.4byte	.LVL260
 13385 0f9c 0200     		.2byte	0x2
 13386 0f9e 33       		.byte	0x33
 13387 0f9f 9F       		.byte	0x9f
 13388 0fa0 98060000 		.4byte	.LVL260
 13389 0fa4 FC060000 		.4byte	.LVL263
ARM GAS  /tmp/ccdUEzgz.s 			page 237


 13390 0fa8 0200     		.2byte	0x2
 13391 0faa 34       		.byte	0x34
 13392 0fab 9F       		.byte	0x9f
 13393 0fac FC060000 		.4byte	.LVL263
 13394 0fb0 0C070000 		.4byte	.LFE88
 13395 0fb4 0200     		.2byte	0x2
 13396 0fb6 35       		.byte	0x35
 13397 0fb7 9F       		.byte	0x9f
 13398 0fb8 00000000 		.4byte	0
 13399 0fbc 00000000 		.4byte	0
 13400              	.LLST28:
 13401 0fc0 00000000 		.4byte	.LVL206
 13402 0fc4 5E020000 		.4byte	.LVL225
 13403 0fc8 0200     		.2byte	0x2
 13404 0fca 30       		.byte	0x30
 13405 0fcb 9F       		.byte	0x9f
 13406 0fcc 5E020000 		.4byte	.LVL225
 13407 0fd0 B2040000 		.4byte	.LVL245
 13408 0fd4 0200     		.2byte	0x2
 13409 0fd6 31       		.byte	0x31
 13410 0fd7 9F       		.byte	0x9f
 13411 0fd8 B2040000 		.4byte	.LVL245
 13412 0fdc 0C070000 		.4byte	.LFE88
 13413 0fe0 0200     		.2byte	0x2
 13414 0fe2 32       		.byte	0x32
 13415 0fe3 9F       		.byte	0x9f
 13416 0fe4 00000000 		.4byte	0
 13417 0fe8 00000000 		.4byte	0
 13418              	.LLST29:
 13419 0fec 62000000 		.4byte	.LVL208
 13420 0ff0 71000000 		.4byte	.LVL209-1
 13421 0ff4 0200     		.2byte	0x2
 13422 0ff6 75       		.byte	0x75
 13423 0ff7 00       		.sleb128 0
 13424 0ff8 71000000 		.4byte	.LVL209-1
 13425 0ffc C2000000 		.4byte	.LVL210
 13426 1000 0100     		.2byte	0x1
 13427 1002 54       		.byte	0x54
 13428 1003 C6000000 		.4byte	.LVL211
 13429 1007 D5000000 		.4byte	.LVL212-1
 13430 100b 0200     		.2byte	0x2
 13431 100d 75       		.byte	0x75
 13432 100e 04       		.sleb128 4
 13433 100f D5000000 		.4byte	.LVL212-1
 13434 1013 0A010000 		.4byte	.LVL213
 13435 1017 0100     		.2byte	0x1
 13436 1019 54       		.byte	0x54
 13437 101a 2A010000 		.4byte	.LVL215
 13438 101e 39010000 		.4byte	.LVL216-1
 13439 1022 0200     		.2byte	0x2
 13440 1024 75       		.byte	0x75
 13441 1025 08       		.sleb128 8
 13442 1026 39010000 		.4byte	.LVL216-1
 13443 102a 8A010000 		.4byte	.LVL217
 13444 102e 0100     		.2byte	0x1
 13445 1030 54       		.byte	0x54
 13446 1031 8E010000 		.4byte	.LVL218
ARM GAS  /tmp/ccdUEzgz.s 			page 238


 13447 1035 9D010000 		.4byte	.LVL219-1
 13448 1039 0200     		.2byte	0x2
 13449 103b 75       		.byte	0x75
 13450 103c 0C       		.sleb128 12
 13451 103d 9D010000 		.4byte	.LVL219-1
 13452 1041 D2010000 		.4byte	.LVL220
 13453 1045 0100     		.2byte	0x1
 13454 1047 54       		.byte	0x54
 13455 1048 F2010000 		.4byte	.LVL222
 13456 104c 01020000 		.4byte	.LVL223-1
 13457 1050 0200     		.2byte	0x2
 13458 1052 75       		.byte	0x75
 13459 1053 10       		.sleb128 16
 13460 1054 01020000 		.4byte	.LVL223-1
 13461 1058 52020000 		.4byte	.LVL224
 13462 105c 0100     		.2byte	0x1
 13463 105e 54       		.byte	0x54
 13464 105f B6020000 		.4byte	.LVL227
 13465 1063 C5020000 		.4byte	.LVL228-1
 13466 1067 0200     		.2byte	0x2
 13467 1069 75       		.byte	0x75
 13468 106a 34       		.sleb128 52
 13469 106b C5020000 		.4byte	.LVL228-1
 13470 106f FA020000 		.4byte	.LVL229
 13471 1073 0100     		.2byte	0x1
 13472 1075 54       		.byte	0x54
 13473 1076 1A030000 		.4byte	.LVL231
 13474 107a 29030000 		.4byte	.LVL232-1
 13475 107e 0200     		.2byte	0x2
 13476 1080 75       		.byte	0x75
 13477 1081 38       		.sleb128 56
 13478 1082 29030000 		.4byte	.LVL232-1
 13479 1086 7A030000 		.4byte	.LVL233
 13480 108a 0100     		.2byte	0x1
 13481 108c 54       		.byte	0x54
 13482 108d 7E030000 		.4byte	.LVL234
 13483 1091 8D030000 		.4byte	.LVL235-1
 13484 1095 0200     		.2byte	0x2
 13485 1097 75       		.byte	0x75
 13486 1098 3C       		.sleb128 60
 13487 1099 8D030000 		.4byte	.LVL235-1
 13488 109d C2030000 		.4byte	.LVL236
 13489 10a1 0100     		.2byte	0x1
 13490 10a3 54       		.byte	0x54
 13491 10a4 E2030000 		.4byte	.LVL238
 13492 10a8 F1030000 		.4byte	.LVL239-1
 13493 10ac 0300     		.2byte	0x3
 13494 10ae 75       		.byte	0x75
 13495 10af C000     		.sleb128 64
 13496 10b1 F1030000 		.4byte	.LVL239-1
 13497 10b5 42040000 		.4byte	.LVL240
 13498 10b9 0100     		.2byte	0x1
 13499 10bb 54       		.byte	0x54
 13500 10bc 46040000 		.4byte	.LVL241
 13501 10c0 55040000 		.4byte	.LVL242-1
 13502 10c4 0300     		.2byte	0x3
 13503 10c6 75       		.byte	0x75
ARM GAS  /tmp/ccdUEzgz.s 			page 239


 13504 10c7 C400     		.sleb128 68
 13505 10c9 55040000 		.4byte	.LVL242-1
 13506 10cd 8A040000 		.4byte	.LVL243
 13507 10d1 0100     		.2byte	0x1
 13508 10d3 54       		.byte	0x54
 13509 10d4 0C050000 		.4byte	.LVL247
 13510 10d8 1B050000 		.4byte	.LVL248-1
 13511 10dc 0300     		.2byte	0x3
 13512 10de 75       		.byte	0x75
 13513 10df E800     		.sleb128 104
 13514 10e1 1B050000 		.4byte	.LVL248-1
 13515 10e5 6C050000 		.4byte	.LVL249
 13516 10e9 0100     		.2byte	0x1
 13517 10eb 54       		.byte	0x54
 13518 10ec 70050000 		.4byte	.LVL250
 13519 10f0 7F050000 		.4byte	.LVL251-1
 13520 10f4 0300     		.2byte	0x3
 13521 10f6 75       		.byte	0x75
 13522 10f7 EC00     		.sleb128 108
 13523 10f9 7F050000 		.4byte	.LVL251-1
 13524 10fd B4050000 		.4byte	.LVL252
 13525 1101 0100     		.2byte	0x1
 13526 1103 54       		.byte	0x54
 13527 1104 D4050000 		.4byte	.LVL254
 13528 1108 E3050000 		.4byte	.LVL255-1
 13529 110c 0300     		.2byte	0x3
 13530 110e 75       		.byte	0x75
 13531 110f F000     		.sleb128 112
 13532 1111 E3050000 		.4byte	.LVL255-1
 13533 1115 34060000 		.4byte	.LVL256
 13534 1119 0100     		.2byte	0x1
 13535 111b 54       		.byte	0x54
 13536 111c 38060000 		.4byte	.LVL257
 13537 1120 47060000 		.4byte	.LVL258-1
 13538 1124 0300     		.2byte	0x3
 13539 1126 75       		.byte	0x75
 13540 1127 F400     		.sleb128 116
 13541 1129 47060000 		.4byte	.LVL258-1
 13542 112d 7C060000 		.4byte	.LVL259
 13543 1131 0100     		.2byte	0x1
 13544 1133 54       		.byte	0x54
 13545 1134 9C060000 		.4byte	.LVL261
 13546 1138 AB060000 		.4byte	.LVL262-1
 13547 113c 0300     		.2byte	0x3
 13548 113e 75       		.byte	0x75
 13549 113f F800     		.sleb128 120
 13550 1141 AB060000 		.4byte	.LVL262-1
 13551 1145 FC060000 		.4byte	.LVL263
 13552 1149 0100     		.2byte	0x1
 13553 114b 54       		.byte	0x54
 13554 114c 00000000 		.4byte	0
 13555 1150 00000000 		.4byte	0
 13556              	.LLST30:
 13557 1154 00000000 		.4byte	.LVL206
 13558 1158 5E020000 		.4byte	.LVL225
 13559 115c 0600     		.2byte	0x6
 13560 115e 03       		.byte	0x3
ARM GAS  /tmp/ccdUEzgz.s 			page 240


 13561 115f 00000000 		.4byte	sPorts
 13562 1163 9F       		.byte	0x9f
 13563 1164 5E020000 		.4byte	.LVL225
 13564 1168 B2040000 		.4byte	.LVL245
 13565 116c 0600     		.2byte	0x6
 13566 116e 03       		.byte	0x3
 13567 116f 34000000 		.4byte	sPorts+52
 13568 1173 9F       		.byte	0x9f
 13569 1174 B2040000 		.4byte	.LVL245
 13570 1178 0C070000 		.4byte	.LFE88
 13571 117c 0600     		.2byte	0x6
 13572 117e 03       		.byte	0x3
 13573 117f 68000000 		.4byte	sPorts+104
 13574 1183 9F       		.byte	0x9f
 13575 1184 00000000 		.4byte	0
 13576 1188 00000000 		.4byte	0
 13577              	.LLST31:
 13578 118c 00000000 		.4byte	.LFB89
 13579 1190 02000000 		.4byte	.LCFI8
 13580 1194 0200     		.2byte	0x2
 13581 1196 7D       		.byte	0x7d
 13582 1197 00       		.sleb128 0
 13583 1198 02000000 		.4byte	.LCFI8
 13584 119c 06000000 		.4byte	.LCFI9
 13585 11a0 0200     		.2byte	0x2
 13586 11a2 7D       		.byte	0x7d
 13587 11a3 08       		.sleb128 8
 13588 11a4 06000000 		.4byte	.LCFI9
 13589 11a8 5C000000 		.4byte	.LFE89
 13590 11ac 0200     		.2byte	0x2
 13591 11ae 7D       		.byte	0x7d
 13592 11af 10       		.sleb128 16
 13593 11b0 00000000 		.4byte	0
 13594 11b4 00000000 		.4byte	0
 13595              	.LLST32:
 13596 11b8 00000000 		.4byte	.LVL264
 13597 11bc 28000000 		.4byte	.LVL267
 13598 11c0 0100     		.2byte	0x1
 13599 11c2 50       		.byte	0x50
 13600 11c3 36000000 		.4byte	.LVL269
 13601 11c7 5C000000 		.4byte	.LFE89
 13602 11cb 0100     		.2byte	0x1
 13603 11cd 50       		.byte	0x50
 13604 11ce 00000000 		.4byte	0
 13605 11d2 00000000 		.4byte	0
 13606              	.LLST33:
 13607 11d6 00000000 		.4byte	.LVL264
 13608 11da 2A000000 		.4byte	.LVL268
 13609 11de 0100     		.2byte	0x1
 13610 11e0 51       		.byte	0x51
 13611 11e1 36000000 		.4byte	.LVL269
 13612 11e5 5C000000 		.4byte	.LFE89
 13613 11e9 0100     		.2byte	0x1
 13614 11eb 51       		.byte	0x51
 13615 11ec 00000000 		.4byte	0
 13616 11f0 00000000 		.4byte	0
 13617              	.LLST34:
ARM GAS  /tmp/ccdUEzgz.s 			page 241


 13618 11f4 1A000000 		.4byte	.LVL265
 13619 11f8 24000000 		.4byte	.LVL266
 13620 11fc 0100     		.2byte	0x1
 13621 11fe 53       		.byte	0x53
 13622 11ff 36000000 		.4byte	.LVL269
 13623 1203 5C000000 		.4byte	.LFE89
 13624 1207 0100     		.2byte	0x1
 13625 1209 53       		.byte	0x53
 13626 120a 00000000 		.4byte	0
 13627 120e 00000000 		.4byte	0
 13628              	.LLST35:
 13629 1212 00000000 		.4byte	.LFB90
 13630 1216 04000000 		.4byte	.LCFI10
 13631 121a 0200     		.2byte	0x2
 13632 121c 7D       		.byte	0x7d
 13633 121d 00       		.sleb128 0
 13634 121e 04000000 		.4byte	.LCFI10
 13635 1222 E4020000 		.4byte	.LFE90
 13636 1226 0200     		.2byte	0x2
 13637 1228 7D       		.byte	0x7d
 13638 1229 20       		.sleb128 32
 13639 122a 00000000 		.4byte	0
 13640 122e 00000000 		.4byte	0
 13641              	.LLST36:
 13642 1232 00000000 		.4byte	.LVL270
 13643 1236 62000000 		.4byte	.LVL271
 13644 123a 0200     		.2byte	0x2
 13645 123c 30       		.byte	0x30
 13646 123d 9F       		.byte	0x9f
 13647 123e 62000000 		.4byte	.LVL271
 13648 1242 64000000 		.4byte	.LVL272
 13649 1246 0200     		.2byte	0x2
 13650 1248 31       		.byte	0x31
 13651 1249 9F       		.byte	0x9f
 13652 124a 64000000 		.4byte	.LVL272
 13653 124e 66000000 		.4byte	.LVL273
 13654 1252 0200     		.2byte	0x2
 13655 1254 32       		.byte	0x32
 13656 1255 9F       		.byte	0x9f
 13657 1256 66000000 		.4byte	.LVL273
 13658 125a 68000000 		.4byte	.LVL274
 13659 125e 0200     		.2byte	0x2
 13660 1260 33       		.byte	0x33
 13661 1261 9F       		.byte	0x9f
 13662 1262 68000000 		.4byte	.LVL274
 13663 1266 6A000000 		.4byte	.LVL275
 13664 126a 0200     		.2byte	0x2
 13665 126c 34       		.byte	0x34
 13666 126d 9F       		.byte	0x9f
 13667 126e 6A000000 		.4byte	.LVL275
 13668 1272 6C000000 		.4byte	.LVL276
 13669 1276 0200     		.2byte	0x2
 13670 1278 30       		.byte	0x30
 13671 1279 9F       		.byte	0x9f
 13672 127a 6C000000 		.4byte	.LVL276
 13673 127e 6E000000 		.4byte	.LVL277
 13674 1282 0200     		.2byte	0x2
ARM GAS  /tmp/ccdUEzgz.s 			page 242


 13675 1284 31       		.byte	0x31
 13676 1285 9F       		.byte	0x9f
 13677 1286 6E000000 		.4byte	.LVL277
 13678 128a 70000000 		.4byte	.LVL278
 13679 128e 0200     		.2byte	0x2
 13680 1290 32       		.byte	0x32
 13681 1291 9F       		.byte	0x9f
 13682 1292 70000000 		.4byte	.LVL278
 13683 1296 72000000 		.4byte	.LVL279
 13684 129a 0200     		.2byte	0x2
 13685 129c 33       		.byte	0x33
 13686 129d 9F       		.byte	0x9f
 13687 129e 72000000 		.4byte	.LVL279
 13688 12a2 74000000 		.4byte	.LVL280
 13689 12a6 0200     		.2byte	0x2
 13690 12a8 34       		.byte	0x34
 13691 12a9 9F       		.byte	0x9f
 13692 12aa 74000000 		.4byte	.LVL280
 13693 12ae 76000000 		.4byte	.LVL281
 13694 12b2 0200     		.2byte	0x2
 13695 12b4 30       		.byte	0x30
 13696 12b5 9F       		.byte	0x9f
 13697 12b6 76000000 		.4byte	.LVL281
 13698 12ba 78000000 		.4byte	.LVL282
 13699 12be 0200     		.2byte	0x2
 13700 12c0 31       		.byte	0x31
 13701 12c1 9F       		.byte	0x9f
 13702 12c2 78000000 		.4byte	.LVL282
 13703 12c6 7A000000 		.4byte	.LVL283
 13704 12ca 0200     		.2byte	0x2
 13705 12cc 32       		.byte	0x32
 13706 12cd 9F       		.byte	0x9f
 13707 12ce 7A000000 		.4byte	.LVL283
 13708 12d2 7C000000 		.4byte	.LVL284
 13709 12d6 0200     		.2byte	0x2
 13710 12d8 33       		.byte	0x33
 13711 12d9 9F       		.byte	0x9f
 13712 12da 7C000000 		.4byte	.LVL284
 13713 12de 80000000 		.4byte	.LVL285
 13714 12e2 0200     		.2byte	0x2
 13715 12e4 34       		.byte	0x34
 13716 12e5 9F       		.byte	0x9f
 13717 12e6 80000000 		.4byte	.LVL285
 13718 12ea 1E010000 		.4byte	.LVL287
 13719 12ee 0200     		.2byte	0x2
 13720 12f0 35       		.byte	0x35
 13721 12f1 9F       		.byte	0x9f
 13722 12f2 1E010000 		.4byte	.LVL287
 13723 12f6 22010000 		.4byte	.LVL288
 13724 12fa 0200     		.2byte	0x2
 13725 12fc 30       		.byte	0x30
 13726 12fd 9F       		.byte	0x9f
 13727 12fe 34010000 		.4byte	.LVL289
 13728 1302 46010000 		.4byte	.LVL290
 13729 1306 0100     		.2byte	0x1
 13730 1308 55       		.byte	0x55
 13731 1309 D6010000 		.4byte	.LVL292
ARM GAS  /tmp/ccdUEzgz.s 			page 243


 13732 130d E8010000 		.4byte	.LVL293
 13733 1311 0100     		.2byte	0x1
 13734 1313 55       		.byte	0x55
 13735 1314 00000000 		.4byte	0
 13736 1318 00000000 		.4byte	0
 13737              	.LLST37:
 13738 131c 00000000 		.4byte	.LVL270
 13739 1320 6A000000 		.4byte	.LVL275
 13740 1324 0200     		.2byte	0x2
 13741 1326 30       		.byte	0x30
 13742 1327 9F       		.byte	0x9f
 13743 1328 6A000000 		.4byte	.LVL275
 13744 132c 74000000 		.4byte	.LVL280
 13745 1330 0200     		.2byte	0x2
 13746 1332 31       		.byte	0x31
 13747 1333 9F       		.byte	0x9f
 13748 1334 74000000 		.4byte	.LVL280
 13749 1338 9A000000 		.4byte	.LVL286
 13750 133c 0200     		.2byte	0x2
 13751 133e 32       		.byte	0x32
 13752 133f 9F       		.byte	0x9f
 13753 1340 9A000000 		.4byte	.LVL286
 13754 1344 E4020000 		.4byte	.LFE90
 13755 1348 0200     		.2byte	0x2
 13756 134a 33       		.byte	0x33
 13757 134b 9F       		.byte	0x9f
 13758 134c 00000000 		.4byte	0
 13759 1350 00000000 		.4byte	0
 13760              	.LLST38:
 13761 1354 22010000 		.4byte	.LVL288
 13762 1358 46010000 		.4byte	.LVL290
 13763 135c 0100     		.2byte	0x1
 13764 135e 54       		.byte	0x54
 13765 135f 4E010000 		.4byte	.LVL291
 13766 1363 E4020000 		.4byte	.LFE90
 13767 1367 0100     		.2byte	0x1
 13768 1369 54       		.byte	0x54
 13769 136a 00000000 		.4byte	0
 13770 136e 00000000 		.4byte	0
 13771              	.LLST39:
 13772 1372 00000000 		.4byte	.LFB91
 13773 1376 06000000 		.4byte	.LCFI11
 13774 137a 0200     		.2byte	0x2
 13775 137c 7D       		.byte	0x7d
 13776 137d 00       		.sleb128 0
 13777 137e 06000000 		.4byte	.LCFI11
 13778 1382 48000000 		.4byte	.LFE91
 13779 1386 0200     		.2byte	0x2
 13780 1388 7D       		.byte	0x7d
 13781 1389 0C       		.sleb128 12
 13782 138a 00000000 		.4byte	0
 13783 138e 00000000 		.4byte	0
 13784              	.LLST40:
 13785 1392 00000000 		.4byte	.LVL294
 13786 1396 12000000 		.4byte	.LVL295
 13787 139a 0100     		.2byte	0x1
 13788 139c 50       		.byte	0x50
ARM GAS  /tmp/ccdUEzgz.s 			page 244


 13789 139d 12000000 		.4byte	.LVL295
 13790 13a1 16000000 		.4byte	.LVL296
 13791 13a5 0100     		.2byte	0x1
 13792 13a7 53       		.byte	0x53
 13793 13a8 00000000 		.4byte	0
 13794 13ac 00000000 		.4byte	0
 13795              	.LLST41:
 13796 13b0 00000000 		.4byte	.LVL294
 13797 13b4 3A000000 		.4byte	.LVL299
 13798 13b8 0100     		.2byte	0x1
 13799 13ba 51       		.byte	0x51
 13800 13bb 00000000 		.4byte	0
 13801 13bf 00000000 		.4byte	0
 13802              	.LLST42:
 13803 13c3 1E000000 		.4byte	.LVL297
 13804 13c7 36000000 		.4byte	.LVL298
 13805 13cb 0100     		.2byte	0x1
 13806 13cd 52       		.byte	0x52
 13807 13ce 00000000 		.4byte	0
 13808 13d2 00000000 		.4byte	0
 13809              	.LLST43:
 13810 13d6 1E000000 		.4byte	.LVL297
 13811 13da 3A000000 		.4byte	.LVL299
 13812 13de 1000     		.2byte	0x10
 13813 13e0 71       		.byte	0x71
 13814 13e1 00       		.sleb128 0
 13815 13e2 48       		.byte	0x48
 13816 13e3 24       		.byte	0x24
 13817 13e4 48       		.byte	0x48
 13818 13e5 26       		.byte	0x26
 13819 13e6 08       		.byte	0x8
 13820 13e7 7C       		.byte	0x7c
 13821 13e8 1E       		.byte	0x1e
 13822 13e9 03       		.byte	0x3
 13823 13ea 00000000 		.4byte	sMotors
 13824 13ee 22       		.byte	0x22
 13825 13ef 9F       		.byte	0x9f
 13826 13f0 00000000 		.4byte	0
 13827 13f4 00000000 		.4byte	0
 13828              	.LLST44:
 13829 13f8 00000000 		.4byte	.LFB92
 13830 13fc 06000000 		.4byte	.LCFI12
 13831 1400 0200     		.2byte	0x2
 13832 1402 7D       		.byte	0x7d
 13833 1403 00       		.sleb128 0
 13834 1404 06000000 		.4byte	.LCFI12
 13835 1408 28000000 		.4byte	.LFE92
 13836 140c 0200     		.2byte	0x2
 13837 140e 7D       		.byte	0x7d
 13838 140f 08       		.sleb128 8
 13839 1410 00000000 		.4byte	0
 13840 1414 00000000 		.4byte	0
 13841              	.LLST45:
 13842 1418 00000000 		.4byte	.LVL300
 13843 141c 1A000000 		.4byte	.LVL302
 13844 1420 0100     		.2byte	0x1
 13845 1422 50       		.byte	0x50
ARM GAS  /tmp/ccdUEzgz.s 			page 245


 13846 1423 00000000 		.4byte	0
 13847 1427 00000000 		.4byte	0
 13848              	.LLST46:
 13849 142b 00000000 		.4byte	.LVL300
 13850 142f 23000000 		.4byte	.LVL303-1
 13851 1433 0100     		.2byte	0x1
 13852 1435 51       		.byte	0x51
 13853 1436 00000000 		.4byte	0
 13854 143a 00000000 		.4byte	0
 13855              	.LLST47:
 13856 143e 18000000 		.4byte	.LVL301
 13857 1442 26000000 		.4byte	.LVL304
 13858 1446 0100     		.2byte	0x1
 13859 1448 54       		.byte	0x54
 13860 1449 00000000 		.4byte	0
 13861 144d 00000000 		.4byte	0
 13862              	.LLST48:
 13863 1451 00000000 		.4byte	.LFB93
 13864 1455 02000000 		.4byte	.LCFI13
 13865 1459 0200     		.2byte	0x2
 13866 145b 7D       		.byte	0x7d
 13867 145c 00       		.sleb128 0
 13868 145d 02000000 		.4byte	.LCFI13
 13869 1461 0E000000 		.4byte	.LCFI14
 13870 1465 0200     		.2byte	0x2
 13871 1467 7D       		.byte	0x7d
 13872 1468 04       		.sleb128 4
 13873 1469 0E000000 		.4byte	.LCFI14
 13874 146d 52040000 		.4byte	.LFE93
 13875 1471 0200     		.2byte	0x2
 13876 1473 7D       		.byte	0x7d
 13877 1474 18       		.sleb128 24
 13878 1475 00000000 		.4byte	0
 13879 1479 00000000 		.4byte	0
 13880              	.LLST49:
 13881 147d 00000000 		.4byte	.LVL305
 13882 1481 EA020000 		.4byte	.LVL326
 13883 1485 0100     		.2byte	0x1
 13884 1487 50       		.byte	0x50
 13885 1488 EA020000 		.4byte	.LVL326
 13886 148c 14030000 		.4byte	.LVL330
 13887 1490 0300     		.2byte	0x3
 13888 1492 7C       		.byte	0x7c
 13889 1493 09       		.sleb128 9
 13890 1494 9F       		.byte	0x9f
 13891 1495 34030000 		.4byte	.LVL334
 13892 1499 52040000 		.4byte	.LFE93
 13893 149d 0100     		.2byte	0x1
 13894 149f 50       		.byte	0x50
 13895 14a0 00000000 		.4byte	0
 13896 14a4 00000000 		.4byte	0
 13897              	.LLST50:
 13898 14a8 00000000 		.4byte	.LVL305
 13899 14ac F8020000 		.4byte	.LVL327
 13900 14b0 0100     		.2byte	0x1
 13901 14b2 51       		.byte	0x51
 13902 14b3 34030000 		.4byte	.LVL334
ARM GAS  /tmp/ccdUEzgz.s 			page 246


 13903 14b7 52040000 		.4byte	.LFE93
 13904 14bb 0100     		.2byte	0x1
 13905 14bd 51       		.byte	0x51
 13906 14be 00000000 		.4byte	0
 13907 14c2 00000000 		.4byte	0
 13908              	.LLST51:
 13909 14c6 00000000 		.4byte	.LVL305
 13910 14ca 04030000 		.4byte	.LVL328
 13911 14ce 0100     		.2byte	0x1
 13912 14d0 52       		.byte	0x52
 13913 14d1 04030000 		.4byte	.LVL328
 13914 14d5 10030000 		.4byte	.LVL329
 13915 14d9 0300     		.2byte	0x3
 13916 14db 71       		.byte	0x71
 13917 14dc 09       		.sleb128 9
 13918 14dd 9F       		.byte	0x9f
 13919 14de 34030000 		.4byte	.LVL334
 13920 14e2 52040000 		.4byte	.LFE93
 13921 14e6 0100     		.2byte	0x1
 13922 14e8 52       		.byte	0x52
 13923 14e9 00000000 		.4byte	0
 13924 14ed 00000000 		.4byte	0
 13925              	.LLST52:
 13926 14f1 00000000 		.4byte	.LVL305
 13927 14f5 52000000 		.4byte	.LVL307
 13928 14f9 0200     		.2byte	0x2
 13929 14fb 30       		.byte	0x30
 13930 14fc 9F       		.byte	0x9f
 13931 14fd 52000000 		.4byte	.LVL307
 13932 1501 A0000000 		.4byte	.LVL309
 13933 1505 0200     		.2byte	0x2
 13934 1507 31       		.byte	0x31
 13935 1508 9F       		.byte	0x9f
 13936 1509 A0000000 		.4byte	.LVL309
 13937 150d EE000000 		.4byte	.LVL311
 13938 1511 0200     		.2byte	0x2
 13939 1513 32       		.byte	0x32
 13940 1514 9F       		.byte	0x9f
 13941 1515 EE000000 		.4byte	.LVL311
 13942 1519 3C010000 		.4byte	.LVL313
 13943 151d 0200     		.2byte	0x2
 13944 151f 33       		.byte	0x33
 13945 1520 9F       		.byte	0x9f
 13946 1521 3C010000 		.4byte	.LVL313
 13947 1525 8A010000 		.4byte	.LVL315
 13948 1529 0200     		.2byte	0x2
 13949 152b 34       		.byte	0x34
 13950 152c 9F       		.byte	0x9f
 13951 152d 8A010000 		.4byte	.LVL315
 13952 1531 D8010000 		.4byte	.LVL317
 13953 1535 0200     		.2byte	0x2
 13954 1537 35       		.byte	0x35
 13955 1538 9F       		.byte	0x9f
 13956 1539 D8010000 		.4byte	.LVL317
 13957 153d 26020000 		.4byte	.LVL319
 13958 1541 0200     		.2byte	0x2
 13959 1543 36       		.byte	0x36
ARM GAS  /tmp/ccdUEzgz.s 			page 247


 13960 1544 9F       		.byte	0x9f
 13961 1545 26020000 		.4byte	.LVL319
 13962 1549 74020000 		.4byte	.LVL321
 13963 154d 0200     		.2byte	0x2
 13964 154f 37       		.byte	0x37
 13965 1550 9F       		.byte	0x9f
 13966 1551 74020000 		.4byte	.LVL321
 13967 1555 BE020000 		.4byte	.LVL323
 13968 1559 0200     		.2byte	0x2
 13969 155b 38       		.byte	0x38
 13970 155c 9F       		.byte	0x9f
 13971 155d BE020000 		.4byte	.LVL323
 13972 1561 2C030000 		.4byte	.LVL333
 13973 1565 0200     		.2byte	0x2
 13974 1567 39       		.byte	0x39
 13975 1568 9F       		.byte	0x9f
 13976 1569 34030000 		.4byte	.LVL334
 13977 156d 52030000 		.4byte	.LVL336
 13978 1571 0200     		.2byte	0x2
 13979 1573 30       		.byte	0x30
 13980 1574 9F       		.byte	0x9f
 13981 1575 52030000 		.4byte	.LVL336
 13982 1579 72030000 		.4byte	.LVL338
 13983 157d 0200     		.2byte	0x2
 13984 157f 31       		.byte	0x31
 13985 1580 9F       		.byte	0x9f
 13986 1581 72030000 		.4byte	.LVL338
 13987 1585 92030000 		.4byte	.LVL340
 13988 1589 0200     		.2byte	0x2
 13989 158b 38       		.byte	0x38
 13990 158c 9F       		.byte	0x9f
 13991 158d 92030000 		.4byte	.LVL340
 13992 1591 B2030000 		.4byte	.LVL342
 13993 1595 0200     		.2byte	0x2
 13994 1597 36       		.byte	0x36
 13995 1598 9F       		.byte	0x9f
 13996 1599 B2030000 		.4byte	.LVL342
 13997 159d D2030000 		.4byte	.LVL344
 13998 15a1 0200     		.2byte	0x2
 13999 15a3 37       		.byte	0x37
 14000 15a4 9F       		.byte	0x9f
 14001 15a5 D2030000 		.4byte	.LVL344
 14002 15a9 F2030000 		.4byte	.LVL346
 14003 15ad 0200     		.2byte	0x2
 14004 15af 32       		.byte	0x32
 14005 15b0 9F       		.byte	0x9f
 14006 15b1 F2030000 		.4byte	.LVL346
 14007 15b5 12040000 		.4byte	.LVL348
 14008 15b9 0200     		.2byte	0x2
 14009 15bb 33       		.byte	0x33
 14010 15bc 9F       		.byte	0x9f
 14011 15bd 12040000 		.4byte	.LVL348
 14012 15c1 32040000 		.4byte	.LVL350
 14013 15c5 0200     		.2byte	0x2
 14014 15c7 34       		.byte	0x34
 14015 15c8 9F       		.byte	0x9f
 14016 15c9 32040000 		.4byte	.LVL350
ARM GAS  /tmp/ccdUEzgz.s 			page 248


 14017 15cd 52040000 		.4byte	.LFE93
 14018 15d1 0200     		.2byte	0x2
 14019 15d3 35       		.byte	0x35
 14020 15d4 9F       		.byte	0x9f
 14021 15d5 00000000 		.4byte	0
 14022 15d9 00000000 		.4byte	0
 14023              	.LLST53:
 14024 15dd 00000000 		.4byte	.LVL305
 14025 15e1 52000000 		.4byte	.LVL307
 14026 15e5 0200     		.2byte	0x2
 14027 15e7 30       		.byte	0x30
 14028 15e8 9F       		.byte	0x9f
 14029 15e9 52000000 		.4byte	.LVL307
 14030 15ed 1E030000 		.4byte	.LVL331
 14031 15f1 0100     		.2byte	0x1
 14032 15f3 54       		.byte	0x54
 14033 15f4 1E030000 		.4byte	.LVL331
 14034 15f8 22030000 		.4byte	.LVL332
 14035 15fc 0300     		.2byte	0x3
 14036 15fe 74       		.byte	0x74
 14037 15ff 66       		.sleb128 -26
 14038 1600 9F       		.byte	0x9f
 14039 1601 22030000 		.4byte	.LVL332
 14040 1605 2C030000 		.4byte	.LVL333
 14041 1609 0300     		.2byte	0x3
 14042 160b 74       		.byte	0x74
 14043 160c 67       		.sleb128 -25
 14044 160d 9F       		.byte	0x9f
 14045 160e 34030000 		.4byte	.LVL334
 14046 1612 4A030000 		.4byte	.LVL335
 14047 1616 0200     		.2byte	0x2
 14048 1618 30       		.byte	0x30
 14049 1619 9F       		.byte	0x9f
 14050 161a 4A030000 		.4byte	.LVL335
 14051 161e 52030000 		.4byte	.LVL336
 14052 1622 0200     		.2byte	0x2
 14053 1624 31       		.byte	0x31
 14054 1625 9F       		.byte	0x9f
 14055 1626 52030000 		.4byte	.LVL336
 14056 162a 52040000 		.4byte	.LFE93
 14057 162e 0100     		.2byte	0x1
 14058 1630 54       		.byte	0x54
 14059 1631 00000000 		.4byte	0
 14060 1635 00000000 		.4byte	0
 14061              	.LLST54:
 14062 1639 14000000 		.4byte	.LVL306
 14063 163d 62000000 		.4byte	.LVL308
 14064 1641 0600     		.2byte	0x6
 14065 1643 03       		.byte	0x3
 14066 1644 00000000 		.4byte	.LANCHOR0
 14067 1648 9F       		.byte	0x9f
 14068 1649 62000000 		.4byte	.LVL308
 14069 164d CA020000 		.4byte	.LVL324
 14070 1651 0100     		.2byte	0x1
 14071 1653 5C       		.byte	0x5c
 14072 1654 CA020000 		.4byte	.LVL324
 14073 1658 D0020000 		.4byte	.LVL325
ARM GAS  /tmp/ccdUEzgz.s 			page 249


 14074 165c 0600     		.2byte	0x6
 14075 165e 03       		.byte	0x3
 14076 165f E0030000 		.4byte	.LANCHOR0+992
 14077 1663 9F       		.byte	0x9f
 14078 1664 D0020000 		.4byte	.LVL325
 14079 1668 34030000 		.4byte	.LVL334
 14080 166c 0100     		.2byte	0x1
 14081 166e 57       		.byte	0x57
 14082 166f 34030000 		.4byte	.LVL334
 14083 1673 52030000 		.4byte	.LVL336
 14084 1677 0600     		.2byte	0x6
 14085 1679 03       		.byte	0x3
 14086 167a 00000000 		.4byte	.LANCHOR0
 14087 167e 9F       		.byte	0x9f
 14088 167f 52030000 		.4byte	.LVL336
 14089 1683 52040000 		.4byte	.LFE93
 14090 1687 0100     		.2byte	0x1
 14091 1689 5C       		.byte	0x5c
 14092 168a 00000000 		.4byte	0
 14093 168e 00000000 		.4byte	0
 14094              	.LLST55:
 14095 1692 00000000 		.4byte	.LFB94
 14096 1696 02000000 		.4byte	.LCFI15
 14097 169a 0200     		.2byte	0x2
 14098 169c 7D       		.byte	0x7d
 14099 169d 00       		.sleb128 0
 14100 169e 02000000 		.4byte	.LCFI15
 14101 16a2 08000000 		.4byte	.LCFI16
 14102 16a6 0200     		.2byte	0x2
 14103 16a8 7D       		.byte	0x7d
 14104 16a9 04       		.sleb128 4
 14105 16aa 08000000 		.4byte	.LCFI16
 14106 16ae 40000000 		.4byte	.LFE94
 14107 16b2 0200     		.2byte	0x2
 14108 16b4 7D       		.byte	0x7d
 14109 16b5 08       		.sleb128 8
 14110 16b6 00000000 		.4byte	0
 14111 16ba 00000000 		.4byte	0
 14112              	.LLST56:
 14113 16be 00000000 		.4byte	.LVL352
 14114 16c2 26000000 		.4byte	.LVL354
 14115 16c6 0100     		.2byte	0x1
 14116 16c8 50       		.byte	0x50
 14117 16c9 00000000 		.4byte	0
 14118 16cd 00000000 		.4byte	0
 14119              	.LLST57:
 14120 16d1 00000000 		.4byte	.LVL352
 14121 16d5 2A000000 		.4byte	.LVL355
 14122 16d9 0100     		.2byte	0x1
 14123 16db 51       		.byte	0x51
 14124 16dc 00000000 		.4byte	0
 14125 16e0 00000000 		.4byte	0
 14126              	.LLST58:
 14127 16e4 00000000 		.4byte	.LVL352
 14128 16e8 38000000 		.4byte	.LVL356
 14129 16ec 0100     		.2byte	0x1
 14130 16ee 52       		.byte	0x52
ARM GAS  /tmp/ccdUEzgz.s 			page 250


 14131 16ef 38000000 		.4byte	.LVL356
 14132 16f3 3A000000 		.4byte	.LVL357
 14133 16f7 0200     		.2byte	0x2
 14134 16f9 73       		.byte	0x73
 14135 16fa 20       		.sleb128 32
 14136 16fb 00000000 		.4byte	0
 14137 16ff 00000000 		.4byte	0
 14138              	.LLST59:
 14139 1703 0A000000 		.4byte	.LVL353
 14140 1707 26000000 		.4byte	.LVL354
 14141 170b 1000     		.2byte	0x10
 14142 170d 70       		.byte	0x70
 14143 170e 00       		.sleb128 0
 14144 170f 48       		.byte	0x48
 14145 1710 24       		.byte	0x24
 14146 1711 48       		.byte	0x48
 14147 1712 26       		.byte	0x26
 14148 1713 08       		.byte	0x8
 14149 1714 7C       		.byte	0x7c
 14150 1715 1E       		.byte	0x1e
 14151 1716 03       		.byte	0x3
 14152 1717 00000000 		.4byte	sMotors
 14153 171b 22       		.byte	0x22
 14154 171c 9F       		.byte	0x9f
 14155 171d 00000000 		.4byte	0
 14156 1721 00000000 		.4byte	0
 14157              	.LLST60:
 14158 1725 00000000 		.4byte	.LFB95
 14159 1729 02000000 		.4byte	.LCFI17
 14160 172d 0200     		.2byte	0x2
 14161 172f 7D       		.byte	0x7d
 14162 1730 00       		.sleb128 0
 14163 1731 02000000 		.4byte	.LCFI17
 14164 1735 80000000 		.4byte	.LFE95
 14165 1739 0200     		.2byte	0x2
 14166 173b 7D       		.byte	0x7d
 14167 173c 18       		.sleb128 24
 14168 173d 00000000 		.4byte	0
 14169 1741 00000000 		.4byte	0
 14170              	.LLST61:
 14171 1745 00000000 		.4byte	.LVL358
 14172 1749 08000000 		.4byte	.LVL359
 14173 174d 0100     		.2byte	0x1
 14174 174f 50       		.byte	0x50
 14175 1750 08000000 		.4byte	.LVL359
 14176 1754 80000000 		.4byte	.LFE95
 14177 1758 0100     		.2byte	0x1
 14178 175a 54       		.byte	0x54
 14179 175b 00000000 		.4byte	0
 14180 175f 00000000 		.4byte	0
 14181              	.LLST62:
 14182 1763 00000000 		.4byte	.LVL358
 14183 1767 0D000000 		.4byte	.LVL360-1
 14184 176b 0100     		.2byte	0x1
 14185 176d 51       		.byte	0x51
 14186 176e 0D000000 		.4byte	.LVL360-1
 14187 1772 3A000000 		.4byte	.LVL361
ARM GAS  /tmp/ccdUEzgz.s 			page 251


 14188 1776 0100     		.2byte	0x1
 14189 1778 57       		.byte	0x57
 14190 1779 00000000 		.4byte	0
 14191 177d 00000000 		.4byte	0
 14192              	.LLST63:
 14193 1781 00000000 		.4byte	.LFB96
 14194 1785 04000000 		.4byte	.LCFI18
 14195 1789 0200     		.2byte	0x2
 14196 178b 7D       		.byte	0x7d
 14197 178c 00       		.sleb128 0
 14198 178d 04000000 		.4byte	.LCFI18
 14199 1791 D8000000 		.4byte	.LFE96
 14200 1795 0200     		.2byte	0x2
 14201 1797 7D       		.byte	0x7d
 14202 1798 28       		.sleb128 40
 14203 1799 00000000 		.4byte	0
 14204 179d 00000000 		.4byte	0
 14205              	.LLST64:
 14206 17a1 00000000 		.4byte	.LVL362
 14207 17a5 0A000000 		.4byte	.LVL363
 14208 17a9 0100     		.2byte	0x1
 14209 17ab 50       		.byte	0x50
 14210 17ac 0A000000 		.4byte	.LVL363
 14211 17b0 D8000000 		.4byte	.LFE96
 14212 17b4 0100     		.2byte	0x1
 14213 17b6 55       		.byte	0x55
 14214 17b7 00000000 		.4byte	0
 14215 17bb 00000000 		.4byte	0
 14216              	.LLST65:
 14217 17bf 10000000 		.4byte	.LVL364
 14218 17c3 12000000 		.4byte	.LVL365
 14219 17c7 0100     		.2byte	0x1
 14220 17c9 50       		.byte	0x50
 14221 17ca 12000000 		.4byte	.LVL365
 14222 17ce 98000000 		.4byte	.LVL372
 14223 17d2 0100     		.2byte	0x1
 14224 17d4 56       		.byte	0x56
 14225 17d5 00000000 		.4byte	0
 14226 17d9 00000000 		.4byte	0
 14227              	.LLST66:
 14228 17dd 4A000000 		.4byte	.LVL368
 14229 17e1 4C000000 		.4byte	.LVL369
 14230 17e5 0100     		.2byte	0x1
 14231 17e7 50       		.byte	0x50
 14232 17e8 4C000000 		.4byte	.LVL369
 14233 17ec D8000000 		.4byte	.LFE96
 14234 17f0 0100     		.2byte	0x1
 14235 17f2 59       		.byte	0x59
 14236 17f3 00000000 		.4byte	0
 14237 17f7 00000000 		.4byte	0
 14238              	.LLST67:
 14239 17fb 8E000000 		.4byte	.LVL370
 14240 17ff 90000000 		.4byte	.LVL371
 14241 1803 0100     		.2byte	0x1
 14242 1805 50       		.byte	0x50
 14243 1806 90000000 		.4byte	.LVL371
 14244 180a D8000000 		.4byte	.LFE96
ARM GAS  /tmp/ccdUEzgz.s 			page 252


 14245 180e 0100     		.2byte	0x1
 14246 1810 54       		.byte	0x54
 14247 1811 00000000 		.4byte	0
 14248 1815 00000000 		.4byte	0
 14249              	.LLST68:
 14250 1819 98000000 		.4byte	.LVL372
 14251 181d 9B000000 		.4byte	.LVL373-1
 14252 1821 0100     		.2byte	0x1
 14253 1823 50       		.byte	0x50
 14254 1824 9B000000 		.4byte	.LVL373-1
 14255 1828 AA000000 		.4byte	.LVL374
 14256 182c 0100     		.2byte	0x1
 14257 182e 56       		.byte	0x56
 14258 182f C6000000 		.4byte	.LVL375
 14259 1833 C8000000 		.4byte	.LVL376
 14260 1837 0100     		.2byte	0x1
 14261 1839 56       		.byte	0x56
 14262 183a 00000000 		.4byte	0
 14263 183e 00000000 		.4byte	0
 14264              	.LLST69:
 14265 1842 00000000 		.4byte	.LFB98
 14266 1846 04000000 		.4byte	.LCFI19
 14267 184a 0200     		.2byte	0x2
 14268 184c 7D       		.byte	0x7d
 14269 184d 00       		.sleb128 0
 14270 184e 04000000 		.4byte	.LCFI19
 14271 1852 08000000 		.4byte	.LCFI20
 14272 1856 0200     		.2byte	0x2
 14273 1858 7D       		.byte	0x7d
 14274 1859 24       		.sleb128 36
 14275 185a 08000000 		.4byte	.LCFI20
 14276 185e 40050000 		.4byte	.LFE98
 14277 1862 0300     		.2byte	0x3
 14278 1864 7D       		.byte	0x7d
 14279 1865 C800     		.sleb128 72
 14280 1867 00000000 		.4byte	0
 14281 186b 00000000 		.4byte	0
 14282              	.LLST70:
 14283 186f 00000000 		.4byte	.LVL377
 14284 1873 0C000000 		.4byte	.LVL378
 14285 1877 0100     		.2byte	0x1
 14286 1879 50       		.byte	0x50
 14287 187a 0C000000 		.4byte	.LVL378
 14288 187e 40050000 		.4byte	.LFE98
 14289 1882 0100     		.2byte	0x1
 14290 1884 56       		.byte	0x56
 14291 1885 00000000 		.4byte	0
 14292 1889 00000000 		.4byte	0
 14293              	.LLST71:
 14294 188d 00000000 		.4byte	.LVL377
 14295 1891 11000000 		.4byte	.LVL379-1
 14296 1895 0100     		.2byte	0x1
 14297 1897 51       		.byte	0x51
 14298 1898 11000000 		.4byte	.LVL379-1
 14299 189c 40050000 		.4byte	.LFE98
 14300 18a0 0200     		.2byte	0x2
 14301 18a2 91       		.byte	0x91
ARM GAS  /tmp/ccdUEzgz.s 			page 253


 14302 18a3 54       		.sleb128 -44
 14303 18a4 00000000 		.4byte	0
 14304 18a8 00000000 		.4byte	0
 14305              	.LLST72:
 14306 18ac 1E020000 		.4byte	.LVL411
 14307 18b0 4A020000 		.4byte	.LVL413
 14308 18b4 0100     		.2byte	0x1
 14309 18b6 58       		.byte	0x58
 14310 18b7 4A020000 		.4byte	.LVL413
 14311 18bb AE020000 		.4byte	.LVL416
 14312 18bf 0100     		.2byte	0x1
 14313 18c1 54       		.byte	0x54
 14314 18c2 EA040000 		.4byte	.LVL445
 14315 18c6 F2040000 		.4byte	.LVL446
 14316 18ca 0100     		.2byte	0x1
 14317 18cc 54       		.byte	0x54
 14318 18cd 00000000 		.4byte	0
 14319 18d1 00000000 		.4byte	0
 14320              	.LLST73:
 14321 18d5 A8000000 		.4byte	.LVL387
 14322 18d9 B2000000 		.4byte	.LVL389
 14323 18dd 0100     		.2byte	0x1
 14324 18df 50       		.byte	0x50
 14325 18e0 B2000000 		.4byte	.LVL389
 14326 18e4 1A040000 		.4byte	.LVL428
 14327 18e8 0200     		.2byte	0x2
 14328 18ea 91       		.byte	0x91
 14329 18eb 50       		.sleb128 -48
 14330 18ec B8040000 		.4byte	.LVL439
 14331 18f0 D4040000 		.4byte	.LVL444
 14332 18f4 0200     		.2byte	0x2
 14333 18f6 91       		.byte	0x91
 14334 18f7 50       		.sleb128 -48
 14335 18f8 EA040000 		.4byte	.LVL445
 14336 18fc F2040000 		.4byte	.LVL446
 14337 1900 0200     		.2byte	0x2
 14338 1902 91       		.byte	0x91
 14339 1903 50       		.sleb128 -48
 14340 1904 00000000 		.4byte	0
 14341 1908 00000000 		.4byte	0
 14342              	.LLST74:
 14343 190c 8E000000 		.4byte	.LVL386
 14344 1910 1A040000 		.4byte	.LVL428
 14345 1914 0100     		.2byte	0x1
 14346 1916 5B       		.byte	0x5b
 14347 1917 B8040000 		.4byte	.LVL439
 14348 191b D4040000 		.4byte	.LVL444
 14349 191f 0100     		.2byte	0x1
 14350 1921 5B       		.byte	0x5b
 14351 1922 EA040000 		.4byte	.LVL445
 14352 1926 F2040000 		.4byte	.LVL446
 14353 192a 0100     		.2byte	0x1
 14354 192c 5B       		.byte	0x5b
 14355 192d 00000000 		.4byte	0
 14356 1931 00000000 		.4byte	0
 14357              	.LLST75:
 14358 1935 AE030000 		.4byte	.LVL424
ARM GAS  /tmp/ccdUEzgz.s 			page 254


 14359 1939 1A040000 		.4byte	.LVL428
 14360 193d 0200     		.2byte	0x2
 14361 193f 91       		.byte	0x91
 14362 1940 40       		.sleb128 -64
 14363 1941 00000000 		.4byte	0
 14364 1945 00000000 		.4byte	0
 14365              	.LLST76:
 14366 1949 20030000 		.4byte	.LVL420
 14367 194d 5E030000 		.4byte	.LVL423
 14368 1951 0100     		.2byte	0x1
 14369 1953 59       		.byte	0x59
 14370 1954 00000000 		.4byte	0
 14371 1958 00000000 		.4byte	0
 14372              	.LLST77:
 14373 195c CA030000 		.4byte	.LVL425
 14374 1960 CE030000 		.4byte	.LVL426
 14375 1964 0100     		.2byte	0x1
 14376 1966 50       		.byte	0x50
 14377 1967 CE030000 		.4byte	.LVL426
 14378 196b 1A040000 		.4byte	.LVL428
 14379 196f 0100     		.2byte	0x1
 14380 1971 54       		.byte	0x54
 14381 1972 00000000 		.4byte	0
 14382 1976 00000000 		.4byte	0
 14383              	.LLST78:
 14384 197a 20030000 		.4byte	.LVL420
 14385 197e AE030000 		.4byte	.LVL424
 14386 1982 0600     		.2byte	0x6
 14387 1984 9E       		.byte	0x9e
 14388 1985 04       		.uleb128 0x4
 14389 1986 00000000 		.4byte	0
 14390 198a 00000000 		.4byte	0
 14391 198e 00000000 		.4byte	0
 14392              	.LLST79:
 14393 1992 8A020000 		.4byte	.LVL414
 14394 1996 8C020000 		.4byte	.LVL415
 14395 199a 0100     		.2byte	0x1
 14396 199c 50       		.byte	0x50
 14397 199d 8C020000 		.4byte	.LVL415
 14398 19a1 DE030000 		.4byte	.LVL427
 14399 19a5 0100     		.2byte	0x1
 14400 19a7 58       		.byte	0x58
 14401 19a8 00000000 		.4byte	0
 14402 19ac 00000000 		.4byte	0
 14403              	.LLST80:
 14404 19b0 AE020000 		.4byte	.LVL416
 14405 19b4 B2020000 		.4byte	.LVL417
 14406 19b8 0100     		.2byte	0x1
 14407 19ba 50       		.byte	0x50
 14408 19bb B2020000 		.4byte	.LVL417
 14409 19bf CA030000 		.4byte	.LVL425
 14410 19c3 0100     		.2byte	0x1
 14411 19c5 54       		.byte	0x54
 14412 19c6 00000000 		.4byte	0
 14413 19ca 00000000 		.4byte	0
 14414              	.LLST81:
 14415 19ce 16000000 		.4byte	.LVL380
ARM GAS  /tmp/ccdUEzgz.s 			page 255


 14416 19d2 2E000000 		.4byte	.LVL381
 14417 19d6 0100     		.2byte	0x1
 14418 19d8 50       		.byte	0x50
 14419 19d9 2E000000 		.4byte	.LVL381
 14420 19dd 30000000 		.4byte	.LVL382
 14421 19e1 0100     		.2byte	0x1
 14422 19e3 54       		.byte	0x54
 14423 19e4 34000000 		.4byte	.LVL383
 14424 19e8 74000000 		.4byte	.LVL384
 14425 19ec 0100     		.2byte	0x1
 14426 19ee 54       		.byte	0x54
 14427 19ef 1A040000 		.4byte	.LVL428
 14428 19f3 24040000 		.4byte	.LVL429
 14429 19f7 0100     		.2byte	0x1
 14430 19f9 54       		.byte	0x54
 14431 19fa 10050000 		.4byte	.LVL449
 14432 19fe 40050000 		.4byte	.LFE98
 14433 1a02 0300     		.2byte	0x3
 14434 1a04 09       		.byte	0x9
 14435 1a05 81       		.byte	0x81
 14436 1a06 9F       		.byte	0x9f
 14437 1a07 00000000 		.4byte	0
 14438 1a0b 00000000 		.4byte	0
 14439              	.LLST82:
 14440 1a0f 74000000 		.4byte	.LVL384
 14441 1a13 77000000 		.4byte	.LVL385-1
 14442 1a17 0100     		.2byte	0x1
 14443 1a19 50       		.byte	0x50
 14444 1a1a 77000000 		.4byte	.LVL385-1
 14445 1a1e 8E000000 		.4byte	.LVL386
 14446 1a22 0100     		.2byte	0x1
 14447 1a24 54       		.byte	0x54
 14448 1a25 70040000 		.4byte	.LVL436
 14449 1a29 73040000 		.4byte	.LVL437-1
 14450 1a2d 0100     		.2byte	0x1
 14451 1a2f 50       		.byte	0x50
 14452 1a30 73040000 		.4byte	.LVL437-1
 14453 1a34 9A040000 		.4byte	.LVL438
 14454 1a38 0100     		.2byte	0x1
 14455 1a3a 54       		.byte	0x54
 14456 1a3b F2040000 		.4byte	.LVL446
 14457 1a3f 08050000 		.4byte	.LVL447
 14458 1a43 0100     		.2byte	0x1
 14459 1a45 54       		.byte	0x54
 14460 1a46 1E050000 		.4byte	.LVL450
 14461 1a4a 21050000 		.4byte	.LVL451-1
 14462 1a4e 0100     		.2byte	0x1
 14463 1a50 50       		.byte	0x50
 14464 1a51 21050000 		.4byte	.LVL451-1
 14465 1a55 40050000 		.4byte	.LFE98
 14466 1a59 0100     		.2byte	0x1
 14467 1a5b 54       		.byte	0x54
 14468 1a5c 00000000 		.4byte	0
 14469 1a60 00000000 		.4byte	0
 14470              	.LLST83:
 14471 1a64 C6000000 		.4byte	.LVL390
 14472 1a68 C9000000 		.4byte	.LVL391-1
ARM GAS  /tmp/ccdUEzgz.s 			page 256


 14473 1a6c 0100     		.2byte	0x1
 14474 1a6e 50       		.byte	0x50
 14475 1a6f C9000000 		.4byte	.LVL391-1
 14476 1a73 0A010000 		.4byte	.LVL393
 14477 1a77 0100     		.2byte	0x1
 14478 1a79 54       		.byte	0x54
 14479 1a7a 74010000 		.4byte	.LVL400
 14480 1a7e 77010000 		.4byte	.LVL401-1
 14481 1a82 0100     		.2byte	0x1
 14482 1a84 50       		.byte	0x50
 14483 1a85 77010000 		.4byte	.LVL401-1
 14484 1a89 B6010000 		.4byte	.LVL405
 14485 1a8d 0100     		.2byte	0x1
 14486 1a8f 54       		.byte	0x54
 14487 1a90 B8040000 		.4byte	.LVL439
 14488 1a94 BC040000 		.4byte	.LVL440
 14489 1a98 0100     		.2byte	0x1
 14490 1a9a 54       		.byte	0x54
 14491 1a9b C6040000 		.4byte	.LVL441
 14492 1a9f CA040000 		.4byte	.LVL442
 14493 1aa3 0100     		.2byte	0x1
 14494 1aa5 54       		.byte	0x54
 14495 1aa6 00000000 		.4byte	0
 14496 1aaa 00000000 		.4byte	0
 14497              	.LLST84:
 14498 1aae D4000000 		.4byte	.LVL392
 14499 1ab2 3C010000 		.4byte	.LVL397
 14500 1ab6 0100     		.2byte	0x1
 14501 1ab8 5A       		.byte	0x5a
 14502 1ab9 B8040000 		.4byte	.LVL439
 14503 1abd C6040000 		.4byte	.LVL441
 14504 1ac1 0100     		.2byte	0x1
 14505 1ac3 5A       		.byte	0x5a
 14506 1ac4 00000000 		.4byte	0
 14507 1ac8 00000000 		.4byte	0
 14508              	.LLST85:
 14509 1acc 16010000 		.4byte	.LVL394
 14510 1ad0 1A010000 		.4byte	.LVL395
 14511 1ad4 0100     		.2byte	0x1
 14512 1ad6 50       		.byte	0x50
 14513 1ad7 1A010000 		.4byte	.LVL395
 14514 1adb 21010000 		.4byte	.LVL396-1
 14515 1adf 0100     		.2byte	0x1
 14516 1ae1 51       		.byte	0x51
 14517 1ae2 21010000 		.4byte	.LVL396-1
 14518 1ae6 AA010000 		.4byte	.LVL404
 14519 1aea 0100     		.2byte	0x1
 14520 1aec 59       		.byte	0x59
 14521 1aed C6040000 		.4byte	.LVL441
 14522 1af1 D2040000 		.4byte	.LVL443
 14523 1af5 0100     		.2byte	0x1
 14524 1af7 59       		.byte	0x59
 14525 1af8 00000000 		.4byte	0
 14526 1afc 00000000 		.4byte	0
 14527              	.LLST86:
 14528 1b00 5E010000 		.4byte	.LVL398
 14529 1b04 60010000 		.4byte	.LVL399
ARM GAS  /tmp/ccdUEzgz.s 			page 257


 14530 1b08 0300     		.2byte	0x3
 14531 1b0a 50       		.byte	0x50
 14532 1b0b 93       		.byte	0x93
 14533 1b0c 04       		.uleb128 0x4
 14534 1b0d 60010000 		.4byte	.LVL399
 14535 1b11 1A040000 		.4byte	.LVL428
 14536 1b15 0300     		.2byte	0x3
 14537 1b17 5A       		.byte	0x5a
 14538 1b18 93       		.byte	0x93
 14539 1b19 04       		.uleb128 0x4
 14540 1b1a C6040000 		.4byte	.LVL441
 14541 1b1e D4040000 		.4byte	.LVL444
 14542 1b22 0300     		.2byte	0x3
 14543 1b24 5A       		.byte	0x5a
 14544 1b25 93       		.byte	0x93
 14545 1b26 04       		.uleb128 0x4
 14546 1b27 EA040000 		.4byte	.LVL445
 14547 1b2b F2040000 		.4byte	.LVL446
 14548 1b2f 0300     		.2byte	0x3
 14549 1b31 5A       		.byte	0x5a
 14550 1b32 93       		.byte	0x93
 14551 1b33 04       		.uleb128 0x4
 14552 1b34 00000000 		.4byte	0
 14553 1b38 00000000 		.4byte	0
 14554              	.LLST87:
 14555 1b3c 80010000 		.4byte	.LVL403
 14556 1b40 C0010000 		.4byte	.LVL406
 14557 1b44 0100     		.2byte	0x1
 14558 1b46 57       		.byte	0x57
 14559 1b47 C6040000 		.4byte	.LVL441
 14560 1b4b D4040000 		.4byte	.LVL444
 14561 1b4f 0100     		.2byte	0x1
 14562 1b51 57       		.byte	0x57
 14563 1b52 00000000 		.4byte	0
 14564 1b56 00000000 		.4byte	0
 14565              	.LLST88:
 14566 1b5a C0010000 		.4byte	.LVL406
 14567 1b5e C6010000 		.4byte	.LVL407
 14568 1b62 0100     		.2byte	0x1
 14569 1b64 50       		.byte	0x50
 14570 1b65 C6010000 		.4byte	.LVL407
 14571 1b69 CD010000 		.4byte	.LVL408-1
 14572 1b6d 0100     		.2byte	0x1
 14573 1b6f 51       		.byte	0x51
 14574 1b70 CD010000 		.4byte	.LVL408-1
 14575 1b74 0A020000 		.4byte	.LVL409
 14576 1b78 0100     		.2byte	0x1
 14577 1b7a 57       		.byte	0x57
 14578 1b7b 00000000 		.4byte	0
 14579 1b7f 00000000 		.4byte	0
 14580              	.LLST89:
 14581 1b83 0A020000 		.4byte	.LVL409
 14582 1b87 0C020000 		.4byte	.LVL410
 14583 1b8b 0300     		.2byte	0x3
 14584 1b8d 50       		.byte	0x50
 14585 1b8e 93       		.byte	0x93
 14586 1b8f 04       		.uleb128 0x4
ARM GAS  /tmp/ccdUEzgz.s 			page 258


 14587 1b90 0C020000 		.4byte	.LVL410
 14588 1b94 2C030000 		.4byte	.LVL421
 14589 1b98 0300     		.2byte	0x3
 14590 1b9a 57       		.byte	0x57
 14591 1b9b 93       		.byte	0x93
 14592 1b9c 04       		.uleb128 0x4
 14593 1b9d EA040000 		.4byte	.LVL445
 14594 1ba1 F2040000 		.4byte	.LVL446
 14595 1ba5 0300     		.2byte	0x3
 14596 1ba7 57       		.byte	0x57
 14597 1ba8 93       		.byte	0x93
 14598 1ba9 04       		.uleb128 0x4
 14599 1baa 00000000 		.4byte	0
 14600 1bae 00000000 		.4byte	0
 14601              	.LLST90:
 14602 1bb2 24020000 		.4byte	.LVL412
 14603 1bb6 4A020000 		.4byte	.LVL413
 14604 1bba 0100     		.2byte	0x1
 14605 1bbc 58       		.byte	0x58
 14606 1bbd EA040000 		.4byte	.LVL445
 14607 1bc1 F2040000 		.4byte	.LVL446
 14608 1bc5 0100     		.2byte	0x1
 14609 1bc7 54       		.byte	0x54
 14610 1bc8 00000000 		.4byte	0
 14611 1bcc 00000000 		.4byte	0
 14612              	.LLST91:
 14613 1bd0 40030000 		.4byte	.LVL422
 14614 1bd4 AE030000 		.4byte	.LVL424
 14615 1bd8 0300     		.2byte	0x3
 14616 1bda 55       		.byte	0x55
 14617 1bdb 93       		.byte	0x93
 14618 1bdc 04       		.uleb128 0x4
 14619 1bdd 00000000 		.4byte	0
 14620 1be1 00000000 		.4byte	0
 14621              	.LLST92:
 14622 1be5 24040000 		.4byte	.LVL429
 14623 1be9 27040000 		.4byte	.LVL430-1
 14624 1bed 0100     		.2byte	0x1
 14625 1bef 50       		.byte	0x50
 14626 1bf0 27040000 		.4byte	.LVL430-1
 14627 1bf4 34040000 		.4byte	.LVL431
 14628 1bf8 0100     		.2byte	0x1
 14629 1bfa 54       		.byte	0x54
 14630 1bfb 50040000 		.4byte	.LVL434
 14631 1bff 5E040000 		.4byte	.LVL435
 14632 1c03 0100     		.2byte	0x1
 14633 1c05 54       		.byte	0x54
 14634 1c06 08050000 		.4byte	.LVL447
 14635 1c0a 0A050000 		.4byte	.LVL448
 14636 1c0e 0100     		.2byte	0x1
 14637 1c10 54       		.byte	0x54
 14638 1c11 00000000 		.4byte	0
 14639 1c15 00000000 		.4byte	0
 14640              	.LLST93:
 14641 1c19 38040000 		.4byte	.LVL432
 14642 1c1d 3F040000 		.4byte	.LVL433-1
 14643 1c21 0200     		.2byte	0x2
ARM GAS  /tmp/ccdUEzgz.s 			page 259


 14644 1c23 76       		.byte	0x76
 14645 1c24 30       		.sleb128 48
 14646 1c25 3F040000 		.4byte	.LVL433-1
 14647 1c29 50040000 		.4byte	.LVL434
 14648 1c2d 0100     		.2byte	0x1
 14649 1c2f 58       		.byte	0x58
 14650 1c30 9A040000 		.4byte	.LVL438
 14651 1c34 B8040000 		.4byte	.LVL439
 14652 1c38 0100     		.2byte	0x1
 14653 1c3a 58       		.byte	0x58
 14654 1c3b D4040000 		.4byte	.LVL444
 14655 1c3f EA040000 		.4byte	.LVL445
 14656 1c43 0100     		.2byte	0x1
 14657 1c45 58       		.byte	0x58
 14658 1c46 00000000 		.4byte	0
 14659 1c4a 00000000 		.4byte	0
 14660              	.LLST94:
 14661 1c4e 00000000 		.4byte	.LFB99
 14662 1c52 02000000 		.4byte	.LCFI21
 14663 1c56 0200     		.2byte	0x2
 14664 1c58 7D       		.byte	0x7d
 14665 1c59 00       		.sleb128 0
 14666 1c5a 02000000 		.4byte	.LCFI21
 14667 1c5e 9E000000 		.4byte	.LFE99
 14668 1c62 0200     		.2byte	0x2
 14669 1c64 7D       		.byte	0x7d
 14670 1c65 10       		.sleb128 16
 14671 1c66 00000000 		.4byte	0
 14672 1c6a 00000000 		.4byte	0
 14673              	.LLST95:
 14674 1c6e 00000000 		.4byte	.LVL452
 14675 1c72 14000000 		.4byte	.LVL454
 14676 1c76 0100     		.2byte	0x1
 14677 1c78 50       		.byte	0x50
 14678 1c79 14000000 		.4byte	.LVL454
 14679 1c7d 9E000000 		.4byte	.LFE99
 14680 1c81 0100     		.2byte	0x1
 14681 1c83 54       		.byte	0x54
 14682 1c84 00000000 		.4byte	0
 14683 1c88 00000000 		.4byte	0
 14684              	.LLST96:
 14685 1c8c 0A000000 		.4byte	.LVL453
 14686 1c90 14000000 		.4byte	.LVL454
 14687 1c94 0200     		.2byte	0x2
 14688 1c96 30       		.byte	0x30
 14689 1c97 9F       		.byte	0x9f
 14690 1c98 14000000 		.4byte	.LVL454
 14691 1c9c 1E000000 		.4byte	.LVL455
 14692 1ca0 0200     		.2byte	0x2
 14693 1ca2 31       		.byte	0x31
 14694 1ca3 9F       		.byte	0x9f
 14695 1ca4 1E000000 		.4byte	.LVL455
 14696 1ca8 26000000 		.4byte	.LVL456
 14697 1cac 0200     		.2byte	0x2
 14698 1cae 32       		.byte	0x32
 14699 1caf 9F       		.byte	0x9f
 14700 1cb0 26000000 		.4byte	.LVL456
ARM GAS  /tmp/ccdUEzgz.s 			page 260


 14701 1cb4 2E000000 		.4byte	.LVL457
 14702 1cb8 0200     		.2byte	0x2
 14703 1cba 33       		.byte	0x33
 14704 1cbb 9F       		.byte	0x9f
 14705 1cbc 2E000000 		.4byte	.LVL457
 14706 1cc0 36000000 		.4byte	.LVL458
 14707 1cc4 0200     		.2byte	0x2
 14708 1cc6 34       		.byte	0x34
 14709 1cc7 9F       		.byte	0x9f
 14710 1cc8 36000000 		.4byte	.LVL458
 14711 1ccc 46000000 		.4byte	.LVL459
 14712 1cd0 0200     		.2byte	0x2
 14713 1cd2 35       		.byte	0x35
 14714 1cd3 9F       		.byte	0x9f
 14715 1cd4 46000000 		.4byte	.LVL459
 14716 1cd8 58000000 		.4byte	.LVL460
 14717 1cdc 0200     		.2byte	0x2
 14718 1cde 34       		.byte	0x34
 14719 1cdf 9F       		.byte	0x9f
 14720 1ce0 58000000 		.4byte	.LVL460
 14721 1ce4 6A000000 		.4byte	.LVL461
 14722 1ce8 0200     		.2byte	0x2
 14723 1cea 33       		.byte	0x33
 14724 1ceb 9F       		.byte	0x9f
 14725 1cec 6A000000 		.4byte	.LVL461
 14726 1cf0 7C000000 		.4byte	.LVL462
 14727 1cf4 0200     		.2byte	0x2
 14728 1cf6 32       		.byte	0x32
 14729 1cf7 9F       		.byte	0x9f
 14730 1cf8 7C000000 		.4byte	.LVL462
 14731 1cfc 8E000000 		.4byte	.LVL463
 14732 1d00 0200     		.2byte	0x2
 14733 1d02 31       		.byte	0x31
 14734 1d03 9F       		.byte	0x9f
 14735 1d04 8E000000 		.4byte	.LVL463
 14736 1d08 9E000000 		.4byte	.LFE99
 14737 1d0c 0200     		.2byte	0x2
 14738 1d0e 30       		.byte	0x30
 14739 1d0f 9F       		.byte	0x9f
 14740 1d10 00000000 		.4byte	0
 14741 1d14 00000000 		.4byte	0
 14742              	.LLST97:
 14743 1d18 00000000 		.4byte	.LFB100
 14744 1d1c 04000000 		.4byte	.LCFI22
 14745 1d20 0200     		.2byte	0x2
 14746 1d22 7D       		.byte	0x7d
 14747 1d23 00       		.sleb128 0
 14748 1d24 04000000 		.4byte	.LCFI22
 14749 1d28 90010000 		.4byte	.LFE100
 14750 1d2c 0200     		.2byte	0x2
 14751 1d2e 7D       		.byte	0x7d
 14752 1d2f 20       		.sleb128 32
 14753 1d30 00000000 		.4byte	0
 14754 1d34 00000000 		.4byte	0
 14755              	.LLST98:
 14756 1d38 00000000 		.4byte	.LVL464
 14757 1d3c 0A000000 		.4byte	.LVL465
ARM GAS  /tmp/ccdUEzgz.s 			page 261


 14758 1d40 0100     		.2byte	0x1
 14759 1d42 50       		.byte	0x50
 14760 1d43 0A000000 		.4byte	.LVL465
 14761 1d47 90010000 		.4byte	.LFE100
 14762 1d4b 0100     		.2byte	0x1
 14763 1d4d 54       		.byte	0x54
 14764 1d4e 00000000 		.4byte	0
 14765 1d52 00000000 		.4byte	0
 14766              	.LLST99:
 14767 1d56 00000000 		.4byte	.LVL464
 14768 1d5a 0F000000 		.4byte	.LVL466-1
 14769 1d5e 0100     		.2byte	0x1
 14770 1d60 51       		.byte	0x51
 14771 1d61 0F000000 		.4byte	.LVL466-1
 14772 1d65 24000000 		.4byte	.LVL468
 14773 1d69 0100     		.2byte	0x1
 14774 1d6b 56       		.byte	0x56
 14775 1d6c 56000000 		.4byte	.LVL469
 14776 1d70 DE000000 		.4byte	.LVL471
 14777 1d74 0100     		.2byte	0x1
 14778 1d76 56       		.byte	0x56
 14779 1d77 E0000000 		.4byte	.LVL472
 14780 1d7b 6C010000 		.4byte	.LVL473
 14781 1d7f 0100     		.2byte	0x1
 14782 1d81 56       		.byte	0x56
 14783 1d82 74010000 		.4byte	.LVL474
 14784 1d86 7A010000 		.4byte	.LVL475
 14785 1d8a 0100     		.2byte	0x1
 14786 1d8c 56       		.byte	0x56
 14787 1d8d 00000000 		.4byte	0
 14788 1d91 00000000 		.4byte	0
 14789              	.LLST100:
 14790 1d95 10000000 		.4byte	.LVL466
 14791 1d99 18000000 		.4byte	.LVL467
 14792 1d9d 0700     		.2byte	0x7
 14793 1d9f 70       		.byte	0x70
 14794 1da0 00       		.sleb128 0
 14795 1da1 40       		.byte	0x40
 14796 1da2 24       		.byte	0x24
 14797 1da3 40       		.byte	0x40
 14798 1da4 26       		.byte	0x26
 14799 1da5 9F       		.byte	0x9f
 14800 1da6 D6000000 		.4byte	.LVL470
 14801 1daa E0000000 		.4byte	.LVL472
 14802 1dae 0100     		.2byte	0x1
 14803 1db0 50       		.byte	0x50
 14804 1db1 00000000 		.4byte	0
 14805 1db5 00000000 		.4byte	0
 14806              	.LLST101:
 14807 1db9 00000000 		.4byte	.LFB101
 14808 1dbd 02000000 		.4byte	.LCFI23
 14809 1dc1 0200     		.2byte	0x2
 14810 1dc3 7D       		.byte	0x7d
 14811 1dc4 00       		.sleb128 0
 14812 1dc5 02000000 		.4byte	.LCFI23
 14813 1dc9 4A000000 		.4byte	.LFE101
 14814 1dcd 0200     		.2byte	0x2
ARM GAS  /tmp/ccdUEzgz.s 			page 262


 14815 1dcf 7D       		.byte	0x7d
 14816 1dd0 18       		.sleb128 24
 14817 1dd1 00000000 		.4byte	0
 14818 1dd5 00000000 		.4byte	0
 14819              	.LLST102:
 14820 1dd9 00000000 		.4byte	.LVL476
 14821 1ddd 08000000 		.4byte	.LVL477
 14822 1de1 0100     		.2byte	0x1
 14823 1de3 50       		.byte	0x50
 14824 1de4 08000000 		.4byte	.LVL477
 14825 1de8 4A000000 		.4byte	.LFE101
 14826 1dec 0100     		.2byte	0x1
 14827 1dee 54       		.byte	0x54
 14828 1def 00000000 		.4byte	0
 14829 1df3 00000000 		.4byte	0
 14830              	.LLST103:
 14831 1df7 00000000 		.4byte	.LVL476
 14832 1dfb 0B000000 		.4byte	.LVL478-1
 14833 1dff 0100     		.2byte	0x1
 14834 1e01 51       		.byte	0x51
 14835 1e02 00000000 		.4byte	0
 14836 1e06 00000000 		.4byte	0
 14837              	.LLST104:
 14838 1e0a 00000000 		.4byte	.LFB102
 14839 1e0e 02000000 		.4byte	.LCFI24
 14840 1e12 0200     		.2byte	0x2
 14841 1e14 7D       		.byte	0x7d
 14842 1e15 00       		.sleb128 0
 14843 1e16 02000000 		.4byte	.LCFI24
 14844 1e1a 4A000000 		.4byte	.LFE102
 14845 1e1e 0200     		.2byte	0x2
 14846 1e20 7D       		.byte	0x7d
 14847 1e21 18       		.sleb128 24
 14848 1e22 00000000 		.4byte	0
 14849 1e26 00000000 		.4byte	0
 14850              	.LLST105:
 14851 1e2a 00000000 		.4byte	.LVL479
 14852 1e2e 08000000 		.4byte	.LVL480
 14853 1e32 0100     		.2byte	0x1
 14854 1e34 50       		.byte	0x50
 14855 1e35 08000000 		.4byte	.LVL480
 14856 1e39 4A000000 		.4byte	.LFE102
 14857 1e3d 0100     		.2byte	0x1
 14858 1e3f 54       		.byte	0x54
 14859 1e40 00000000 		.4byte	0
 14860 1e44 00000000 		.4byte	0
 14861              	.LLST106:
 14862 1e48 00000000 		.4byte	.LVL479
 14863 1e4c 0B000000 		.4byte	.LVL481-1
 14864 1e50 0100     		.2byte	0x1
 14865 1e52 51       		.byte	0x51
 14866 1e53 00000000 		.4byte	0
 14867 1e57 00000000 		.4byte	0
 14868              	.LLST107:
 14869 1e5b 00000000 		.4byte	.LFB103
 14870 1e5f 02000000 		.4byte	.LCFI25
 14871 1e63 0200     		.2byte	0x2
ARM GAS  /tmp/ccdUEzgz.s 			page 263


 14872 1e65 7D       		.byte	0x7d
 14873 1e66 00       		.sleb128 0
 14874 1e67 02000000 		.4byte	.LCFI25
 14875 1e6b 5C000000 		.4byte	.LFE103
 14876 1e6f 0200     		.2byte	0x2
 14877 1e71 7D       		.byte	0x7d
 14878 1e72 10       		.sleb128 16
 14879 1e73 00000000 		.4byte	0
 14880 1e77 00000000 		.4byte	0
 14881              	.LLST108:
 14882 1e7b 00000000 		.4byte	.LVL482
 14883 1e7f 0C000000 		.4byte	.LVL483
 14884 1e83 0100     		.2byte	0x1
 14885 1e85 50       		.byte	0x50
 14886 1e86 0C000000 		.4byte	.LVL483
 14887 1e8a 5C000000 		.4byte	.LFE103
 14888 1e8e 0100     		.2byte	0x1
 14889 1e90 54       		.byte	0x54
 14890 1e91 00000000 		.4byte	0
 14891 1e95 00000000 		.4byte	0
 14892              	.LLST109:
 14893 1e99 00000000 		.4byte	.LVL482
 14894 1e9d 0E000000 		.4byte	.LVL484
 14895 1ea1 0100     		.2byte	0x1
 14896 1ea3 51       		.byte	0x51
 14897 1ea4 0E000000 		.4byte	.LVL484
 14898 1ea8 5C000000 		.4byte	.LFE103
 14899 1eac 0100     		.2byte	0x1
 14900 1eae 55       		.byte	0x55
 14901 1eaf 00000000 		.4byte	0
 14902 1eb3 00000000 		.4byte	0
 14903              	.LLST110:
 14904 1eb7 00000000 		.4byte	.LFB104
 14905 1ebb 08000000 		.4byte	.LCFI26
 14906 1ebf 0200     		.2byte	0x2
 14907 1ec1 7D       		.byte	0x7d
 14908 1ec2 00       		.sleb128 0
 14909 1ec3 08000000 		.4byte	.LCFI26
 14910 1ec7 E8010000 		.4byte	.LFE104
 14911 1ecb 0200     		.2byte	0x2
 14912 1ecd 7D       		.byte	0x7d
 14913 1ece 18       		.sleb128 24
 14914 1ecf 00000000 		.4byte	0
 14915 1ed3 00000000 		.4byte	0
 14916              	.LLST111:
 14917 1ed7 00000000 		.4byte	.LVL485
 14918 1edb 0E000000 		.4byte	.LVL486
 14919 1edf 0100     		.2byte	0x1
 14920 1ee1 50       		.byte	0x50
 14921 1ee2 0E000000 		.4byte	.LVL486
 14922 1ee6 5E010000 		.4byte	.LVL515
 14923 1eea 0100     		.2byte	0x1
 14924 1eec 54       		.byte	0x54
 14925 1eed 86010000 		.4byte	.LVL518
 14926 1ef1 E8010000 		.4byte	.LFE104
 14927 1ef5 0100     		.2byte	0x1
 14928 1ef7 54       		.byte	0x54
ARM GAS  /tmp/ccdUEzgz.s 			page 264


 14929 1ef8 00000000 		.4byte	0
 14930 1efc 00000000 		.4byte	0
 14931              	.LLST112:
 14932 1f00 00000000 		.4byte	.LVL485
 14933 1f04 10000000 		.4byte	.LVL487
 14934 1f08 0100     		.2byte	0x1
 14935 1f0a 51       		.byte	0x51
 14936 1f0b 10000000 		.4byte	.LVL487
 14937 1f0f E8010000 		.4byte	.LFE104
 14938 1f13 0100     		.2byte	0x1
 14939 1f15 57       		.byte	0x57
 14940 1f16 00000000 		.4byte	0
 14941 1f1a 00000000 		.4byte	0
 14942              	.LLST113:
 14943 1f1e 2A000000 		.4byte	.LVL489
 14944 1f22 37000000 		.4byte	.LVL490-1
 14945 1f26 0200     		.2byte	0x2
 14946 1f28 74       		.byte	0x74
 14947 1f29 00       		.sleb128 0
 14948 1f2a 37000000 		.4byte	.LVL490-1
 14949 1f2e 4E000000 		.4byte	.LVL492
 14950 1f32 0100     		.2byte	0x1
 14951 1f34 56       		.byte	0x56
 14952 1f35 4E000000 		.4byte	.LVL492
 14953 1f39 59000000 		.4byte	.LVL493-1
 14954 1f3d 0200     		.2byte	0x2
 14955 1f3f 74       		.byte	0x74
 14956 1f40 04       		.sleb128 4
 14957 1f41 59000000 		.4byte	.LVL493-1
 14958 1f45 6C000000 		.4byte	.LVL495
 14959 1f49 0100     		.2byte	0x1
 14960 1f4b 55       		.byte	0x55
 14961 1f4c 6C000000 		.4byte	.LVL495
 14962 1f50 77000000 		.4byte	.LVL496-1
 14963 1f54 0200     		.2byte	0x2
 14964 1f56 74       		.byte	0x74
 14965 1f57 08       		.sleb128 8
 14966 1f58 8A000000 		.4byte	.LVL498
 14967 1f5c 95000000 		.4byte	.LVL499-1
 14968 1f60 0200     		.2byte	0x2
 14969 1f62 74       		.byte	0x74
 14970 1f63 0C       		.sleb128 12
 14971 1f64 A8000000 		.4byte	.LVL501
 14972 1f68 B3000000 		.4byte	.LVL502-1
 14973 1f6c 0200     		.2byte	0x2
 14974 1f6e 74       		.byte	0x74
 14975 1f6f 10       		.sleb128 16
 14976 1f70 D4000000 		.4byte	.LVL505
 14977 1f74 EE000000 		.4byte	.LVL507
 14978 1f78 0100     		.2byte	0x1
 14979 1f7a 56       		.byte	0x56
 14980 1f7b EE000000 		.4byte	.LVL507
 14981 1f7f 14010000 		.4byte	.LVL509
 14982 1f83 0100     		.2byte	0x1
 14983 1f85 55       		.byte	0x55
 14984 1f86 14010000 		.4byte	.LVL509
 14985 1f8a 27010000 		.4byte	.LVL510-1
ARM GAS  /tmp/ccdUEzgz.s 			page 265


 14986 1f8e 0200     		.2byte	0x2
 14987 1f90 74       		.byte	0x74
 14988 1f91 08       		.sleb128 8
 14989 1f92 27010000 		.4byte	.LVL510-1
 14990 1f96 3A010000 		.4byte	.LVL512
 14991 1f9a 0100     		.2byte	0x1
 14992 1f9c 55       		.byte	0x55
 14993 1f9d 3A010000 		.4byte	.LVL512
 14994 1fa1 4D010000 		.4byte	.LVL513-1
 14995 1fa5 0200     		.2byte	0x2
 14996 1fa7 74       		.byte	0x74
 14997 1fa8 0C       		.sleb128 12
 14998 1fa9 4D010000 		.4byte	.LVL513-1
 14999 1fad 5E010000 		.4byte	.LVL515
 15000 1fb1 0100     		.2byte	0x1
 15001 1fb3 55       		.byte	0x55
 15002 1fb4 5E010000 		.4byte	.LVL515
 15003 1fb8 82010000 		.4byte	.LVL517
 15004 1fbc 0100     		.2byte	0x1
 15005 1fbe 54       		.byte	0x54
 15006 1fbf 9C010000 		.4byte	.LVL519
 15007 1fc3 A8010000 		.4byte	.LVL522
 15008 1fc7 0100     		.2byte	0x1
 15009 1fc9 55       		.byte	0x55
 15010 1fca B4010000 		.4byte	.LVL526
 15011 1fce BA010000 		.4byte	.LVL528
 15012 1fd2 0100     		.2byte	0x1
 15013 1fd4 55       		.byte	0x55
 15014 1fd5 C8010000 		.4byte	.LVL530
 15015 1fd9 E8010000 		.4byte	.LFE104
 15016 1fdd 0100     		.2byte	0x1
 15017 1fdf 56       		.byte	0x56
 15018 1fe0 00000000 		.4byte	0
 15019 1fe4 00000000 		.4byte	0
 15020              	.LLST114:
 15021 1fe8 28000000 		.4byte	.LVL488
 15022 1fec 4C000000 		.4byte	.LVL491
 15023 1ff0 0200     		.2byte	0x2
 15024 1ff2 30       		.byte	0x30
 15025 1ff3 9F       		.byte	0x9f
 15026 1ff4 4C000000 		.4byte	.LVL491
 15027 1ff8 6A000000 		.4byte	.LVL494
 15028 1ffc 0200     		.2byte	0x2
 15029 1ffe 31       		.byte	0x31
 15030 1fff 9F       		.byte	0x9f
 15031 2000 6A000000 		.4byte	.LVL494
 15032 2004 88000000 		.4byte	.LVL497
 15033 2008 0200     		.2byte	0x2
 15034 200a 32       		.byte	0x32
 15035 200b 9F       		.byte	0x9f
 15036 200c 88000000 		.4byte	.LVL497
 15037 2010 A6000000 		.4byte	.LVL500
 15038 2014 0200     		.2byte	0x2
 15039 2016 33       		.byte	0x33
 15040 2017 9F       		.byte	0x9f
 15041 2018 A6000000 		.4byte	.LVL500
 15042 201c C2000000 		.4byte	.LVL503
ARM GAS  /tmp/ccdUEzgz.s 			page 266


 15043 2020 0200     		.2byte	0x2
 15044 2022 34       		.byte	0x34
 15045 2023 9F       		.byte	0x9f
 15046 2024 C2000000 		.4byte	.LVL503
 15047 2028 D4000000 		.4byte	.LVL505
 15048 202c 0200     		.2byte	0x2
 15049 202e 35       		.byte	0x35
 15050 202f 9F       		.byte	0x9f
 15051 2030 D4000000 		.4byte	.LVL505
 15052 2034 EE000000 		.4byte	.LVL507
 15053 2038 0200     		.2byte	0x2
 15054 203a 30       		.byte	0x30
 15055 203b 9F       		.byte	0x9f
 15056 203c EE000000 		.4byte	.LVL507
 15057 2040 12010000 		.4byte	.LVL508
 15058 2044 0200     		.2byte	0x2
 15059 2046 31       		.byte	0x31
 15060 2047 9F       		.byte	0x9f
 15061 2048 12010000 		.4byte	.LVL508
 15062 204c 38010000 		.4byte	.LVL511
 15063 2050 0200     		.2byte	0x2
 15064 2052 32       		.byte	0x32
 15065 2053 9F       		.byte	0x9f
 15066 2054 38010000 		.4byte	.LVL511
 15067 2058 5C010000 		.4byte	.LVL514
 15068 205c 0200     		.2byte	0x2
 15069 205e 33       		.byte	0x33
 15070 205f 9F       		.byte	0x9f
 15071 2060 5C010000 		.4byte	.LVL514
 15072 2064 82010000 		.4byte	.LVL517
 15073 2068 0200     		.2byte	0x2
 15074 206a 34       		.byte	0x34
 15075 206b 9F       		.byte	0x9f
 15076 206c 9C010000 		.4byte	.LVL519
 15077 2070 A0010000 		.4byte	.LVL520
 15078 2074 0200     		.2byte	0x2
 15079 2076 32       		.byte	0x32
 15080 2077 9F       		.byte	0x9f
 15081 2078 A0010000 		.4byte	.LVL520
 15082 207c A4010000 		.4byte	.LVL521
 15083 2080 0200     		.2byte	0x2
 15084 2082 33       		.byte	0x33
 15085 2083 9F       		.byte	0x9f
 15086 2084 A4010000 		.4byte	.LVL521
 15087 2088 A8010000 		.4byte	.LVL522
 15088 208c 0200     		.2byte	0x2
 15089 208e 31       		.byte	0x31
 15090 208f 9F       		.byte	0x9f
 15091 2090 A8010000 		.4byte	.LVL522
 15092 2094 AE010000 		.4byte	.LVL524
 15093 2098 0200     		.2byte	0x2
 15094 209a 33       		.byte	0x33
 15095 209b 9F       		.byte	0x9f
 15096 209c AE010000 		.4byte	.LVL524
 15097 20a0 B4010000 		.4byte	.LVL526
 15098 20a4 0200     		.2byte	0x2
 15099 20a6 32       		.byte	0x32
ARM GAS  /tmp/ccdUEzgz.s 			page 267


 15100 20a7 9F       		.byte	0x9f
 15101 20a8 B4010000 		.4byte	.LVL526
 15102 20ac BA010000 		.4byte	.LVL528
 15103 20b0 0200     		.2byte	0x2
 15104 20b2 31       		.byte	0x31
 15105 20b3 9F       		.byte	0x9f
 15106 20b4 BA010000 		.4byte	.LVL528
 15107 20b8 BE010000 		.4byte	.LVL529
 15108 20bc 0200     		.2byte	0x2
 15109 20be 34       		.byte	0x34
 15110 20bf 9F       		.byte	0x9f
 15111 20c0 BE010000 		.4byte	.LVL529
 15112 20c4 C8010000 		.4byte	.LVL530
 15113 20c8 0200     		.2byte	0x2
 15114 20ca 35       		.byte	0x35
 15115 20cb 9F       		.byte	0x9f
 15116 20cc C8010000 		.4byte	.LVL530
 15117 20d0 E8010000 		.4byte	.LFE104
 15118 20d4 0200     		.2byte	0x2
 15119 20d6 30       		.byte	0x30
 15120 20d7 9F       		.byte	0x9f
 15121 20d8 00000000 		.4byte	0
 15122 20dc 00000000 		.4byte	0
 15123              	.LLST115:
 15124 20e0 28000000 		.4byte	.LVL488
 15125 20e4 4C000000 		.4byte	.LVL491
 15126 20e8 0200     		.2byte	0x2
 15127 20ea 30       		.byte	0x30
 15128 20eb 9F       		.byte	0x9f
 15129 20ec 4C000000 		.4byte	.LVL491
 15130 20f0 CC000000 		.4byte	.LVL504
 15131 20f4 0100     		.2byte	0x1
 15132 20f6 58       		.byte	0x58
 15133 20f7 A8010000 		.4byte	.LVL522
 15134 20fb C8010000 		.4byte	.LVL530
 15135 20ff 0100     		.2byte	0x1
 15136 2101 58       		.byte	0x58
 15137 2102 00000000 		.4byte	0
 15138 2106 00000000 		.4byte	0
 15139              	.LLST116:
 15140 210a D4000000 		.4byte	.LVL505
 15141 210e E0000000 		.4byte	.LVL506
 15142 2112 0100     		.2byte	0x1
 15143 2114 50       		.byte	0x50
 15144 2115 E0000000 		.4byte	.LVL506
 15145 2119 74010000 		.4byte	.LVL516
 15146 211d 0100     		.2byte	0x1
 15147 211f 58       		.byte	0x58
 15148 2120 9C010000 		.4byte	.LVL519
 15149 2124 A8010000 		.4byte	.LVL522
 15150 2128 0100     		.2byte	0x1
 15151 212a 58       		.byte	0x58
 15152 212b C8010000 		.4byte	.LVL530
 15153 212f CE010000 		.4byte	.LVL531
 15154 2133 0100     		.2byte	0x1
 15155 2135 50       		.byte	0x50
 15156 2136 CE010000 		.4byte	.LVL531
ARM GAS  /tmp/ccdUEzgz.s 			page 268


 15157 213a E8010000 		.4byte	.LFE104
 15158 213e 0100     		.2byte	0x1
 15159 2140 58       		.byte	0x58
 15160 2141 00000000 		.4byte	0
 15161 2145 00000000 		.4byte	0
 15162              	.LLST117:
 15163 2149 00000000 		.4byte	.LFB105
 15164 214d 04000000 		.4byte	.LCFI27
 15165 2151 0200     		.2byte	0x2
 15166 2153 7D       		.byte	0x7d
 15167 2154 00       		.sleb128 0
 15168 2155 04000000 		.4byte	.LCFI27
 15169 2159 78000000 		.4byte	.LFE105
 15170 215d 0200     		.2byte	0x2
 15171 215f 7D       		.byte	0x7d
 15172 2160 18       		.sleb128 24
 15173 2161 00000000 		.4byte	0
 15174 2165 00000000 		.4byte	0
 15175              	.LLST118:
 15176 2169 00000000 		.4byte	.LVL532
 15177 216d 1A000000 		.4byte	.LVL534
 15178 2171 0100     		.2byte	0x1
 15179 2173 50       		.byte	0x50
 15180 2174 1A000000 		.4byte	.LVL534
 15181 2178 78000000 		.4byte	.LFE105
 15182 217c 0100     		.2byte	0x1
 15183 217e 54       		.byte	0x54
 15184 217f 00000000 		.4byte	0
 15185 2183 00000000 		.4byte	0
 15186              	.LLST119:
 15187 2187 00000000 		.4byte	.LVL532
 15188 218b 18000000 		.4byte	.LVL533
 15189 218f 0100     		.2byte	0x1
 15190 2191 51       		.byte	0x51
 15191 2192 18000000 		.4byte	.LVL533
 15192 2196 78000000 		.4byte	.LFE105
 15193 219a 0100     		.2byte	0x1
 15194 219c 55       		.byte	0x55
 15195 219d 00000000 		.4byte	0
 15196 21a1 00000000 		.4byte	0
 15197              	.LLST120:
 15198 21a5 00000000 		.4byte	.LFB106
 15199 21a9 06000000 		.4byte	.LCFI28
 15200 21ad 0200     		.2byte	0x2
 15201 21af 7D       		.byte	0x7d
 15202 21b0 00       		.sleb128 0
 15203 21b1 06000000 		.4byte	.LCFI28
 15204 21b5 78000000 		.4byte	.LFE106
 15205 21b9 0200     		.2byte	0x2
 15206 21bb 7D       		.byte	0x7d
 15207 21bc 04       		.sleb128 4
 15208 21bd 00000000 		.4byte	0
 15209 21c1 00000000 		.4byte	0
 15210              	.LLST121:
 15211 21c5 00000000 		.4byte	.LVL535
 15212 21c9 66000000 		.4byte	.LVL545
 15213 21cd 0100     		.2byte	0x1
ARM GAS  /tmp/ccdUEzgz.s 			page 269


 15214 21cf 50       		.byte	0x50
 15215 21d0 00000000 		.4byte	0
 15216 21d4 00000000 		.4byte	0
 15217              	.LLST122:
 15218 21d8 10000000 		.4byte	.LVL536
 15219 21dc 20000000 		.4byte	.LVL537
 15220 21e0 0200     		.2byte	0x2
 15221 21e2 30       		.byte	0x30
 15222 21e3 9F       		.byte	0x9f
 15223 21e4 20000000 		.4byte	.LVL537
 15224 21e8 32000000 		.4byte	.LVL539
 15225 21ec 0200     		.2byte	0x2
 15226 21ee 31       		.byte	0x31
 15227 21ef 9F       		.byte	0x9f
 15228 21f0 32000000 		.4byte	.LVL539
 15229 21f4 44000000 		.4byte	.LVL541
 15230 21f8 0200     		.2byte	0x2
 15231 21fa 32       		.byte	0x32
 15232 21fb 9F       		.byte	0x9f
 15233 21fc 44000000 		.4byte	.LVL541
 15234 2200 56000000 		.4byte	.LVL543
 15235 2204 0200     		.2byte	0x2
 15236 2206 33       		.byte	0x33
 15237 2207 9F       		.byte	0x9f
 15238 2208 56000000 		.4byte	.LVL543
 15239 220c 68000000 		.4byte	.LVL546
 15240 2210 0200     		.2byte	0x2
 15241 2212 34       		.byte	0x34
 15242 2213 9F       		.byte	0x9f
 15243 2214 68000000 		.4byte	.LVL546
 15244 2218 6A000000 		.4byte	.LVL547
 15245 221c 0200     		.2byte	0x2
 15246 221e 35       		.byte	0x35
 15247 221f 9F       		.byte	0x9f
 15248 2220 6E000000 		.4byte	.LVL548
 15249 2224 78000000 		.4byte	.LFE106
 15250 2228 0200     		.2byte	0x2
 15251 222a 35       		.byte	0x35
 15252 222b 9F       		.byte	0x9f
 15253 222c 00000000 		.4byte	0
 15254 2230 00000000 		.4byte	0
 15255              	.LLST123:
 15256 2234 10000000 		.4byte	.LVL536
 15257 2238 22000000 		.4byte	.LVL538
 15258 223c 0200     		.2byte	0x2
 15259 223e 70       		.byte	0x70
 15260 223f 00       		.sleb128 0
 15261 2240 22000000 		.4byte	.LVL538
 15262 2244 34000000 		.4byte	.LVL540
 15263 2248 0200     		.2byte	0x2
 15264 224a 70       		.byte	0x70
 15265 224b 04       		.sleb128 4
 15266 224c 34000000 		.4byte	.LVL540
 15267 2250 46000000 		.4byte	.LVL542
 15268 2254 0200     		.2byte	0x2
 15269 2256 70       		.byte	0x70
 15270 2257 08       		.sleb128 8
ARM GAS  /tmp/ccdUEzgz.s 			page 270


 15271 2258 46000000 		.4byte	.LVL542
 15272 225c 58000000 		.4byte	.LVL544
 15273 2260 0200     		.2byte	0x2
 15274 2262 70       		.byte	0x70
 15275 2263 0C       		.sleb128 12
 15276 2264 58000000 		.4byte	.LVL544
 15277 2268 66000000 		.4byte	.LVL545
 15278 226c 0200     		.2byte	0x2
 15279 226e 70       		.byte	0x70
 15280 226f 10       		.sleb128 16
 15281 2270 00000000 		.4byte	0
 15282 2274 00000000 		.4byte	0
 15283              	.LLST124:
 15284 2278 10000000 		.4byte	.LVL536
 15285 227c 6A000000 		.4byte	.LVL547
 15286 2280 0100     		.2byte	0x1
 15287 2282 53       		.byte	0x53
 15288 2283 6E000000 		.4byte	.LVL548
 15289 2287 77000000 		.4byte	.LVL549-1
 15290 228b 0100     		.2byte	0x1
 15291 228d 53       		.byte	0x53
 15292 228e 00000000 		.4byte	0
 15293 2292 00000000 		.4byte	0
 15294              	.LLST125:
 15295 2296 00000000 		.4byte	.LFB107
 15296 229a 04000000 		.4byte	.LCFI29
 15297 229e 0200     		.2byte	0x2
 15298 22a0 7D       		.byte	0x7d
 15299 22a1 00       		.sleb128 0
 15300 22a2 04000000 		.4byte	.LCFI29
 15301 22a6 10000000 		.4byte	.LCFI30
 15302 22aa 0200     		.2byte	0x2
 15303 22ac 7D       		.byte	0x7d
 15304 22ad 24       		.sleb128 36
 15305 22ae 10000000 		.4byte	.LCFI30
 15306 22b2 E0030000 		.4byte	.LFE107
 15307 22b6 0300     		.2byte	0x3
 15308 22b8 7D       		.byte	0x7d
 15309 22b9 C000     		.sleb128 64
 15310 22bb 00000000 		.4byte	0
 15311 22bf 00000000 		.4byte	0
 15312              	.LLST126:
 15313 22c3 00000000 		.4byte	.LVL550
 15314 22c7 08000000 		.4byte	.LVL551
 15315 22cb 0100     		.2byte	0x1
 15316 22cd 50       		.byte	0x50
 15317 22ce 00000000 		.4byte	0
 15318 22d2 00000000 		.4byte	0
 15319              	.LLST127:
 15320 22d6 90010000 		.4byte	.LVL572
 15321 22da F2010000 		.4byte	.LVL578
 15322 22de 0200     		.2byte	0x2
 15323 22e0 31       		.byte	0x31
 15324 22e1 9F       		.byte	0x9f
 15325 22e2 F2010000 		.4byte	.LVL578
 15326 22e6 5E020000 		.4byte	.LVL584
 15327 22ea 0200     		.2byte	0x2
ARM GAS  /tmp/ccdUEzgz.s 			page 271


 15328 22ec 32       		.byte	0x32
 15329 22ed 9F       		.byte	0x9f
 15330 22ee 5E020000 		.4byte	.LVL584
 15331 22f2 72020000 		.4byte	.LVL585
 15332 22f6 0200     		.2byte	0x2
 15333 22f8 33       		.byte	0x33
 15334 22f9 9F       		.byte	0x9f
 15335 22fa 72020000 		.4byte	.LVL585
 15336 22fe 80020000 		.4byte	.LVL586
 15337 2302 0200     		.2byte	0x2
 15338 2304 31       		.byte	0x31
 15339 2305 9F       		.byte	0x9f
 15340 2306 80020000 		.4byte	.LVL586
 15341 230a 90020000 		.4byte	.LVL587
 15342 230e 0200     		.2byte	0x2
 15343 2310 32       		.byte	0x32
 15344 2311 9F       		.byte	0x9f
 15345 2312 90020000 		.4byte	.LVL587
 15346 2316 EE020000 		.4byte	.LVL589
 15347 231a 0200     		.2byte	0x2
 15348 231c 33       		.byte	0x33
 15349 231d 9F       		.byte	0x9f
 15350 231e A4030000 		.4byte	.LVL595
 15351 2322 AE030000 		.4byte	.LVL596
 15352 2326 0200     		.2byte	0x2
 15353 2328 32       		.byte	0x32
 15354 2329 9F       		.byte	0x9f
 15355 232a AE030000 		.4byte	.LVL596
 15356 232e B8030000 		.4byte	.LVL597
 15357 2332 0200     		.2byte	0x2
 15358 2334 31       		.byte	0x31
 15359 2335 9F       		.byte	0x9f
 15360 2336 00000000 		.4byte	0
 15361 233a 00000000 		.4byte	0
 15362              	.LLST128:
 15363 233e 00000000 		.4byte	.LVL550
 15364 2342 4E000000 		.4byte	.LVL552
 15365 2346 0200     		.2byte	0x2
 15366 2348 30       		.byte	0x30
 15367 2349 9F       		.byte	0x9f
 15368 234a 4E000000 		.4byte	.LVL552
 15369 234e 5E000000 		.4byte	.LVL553
 15370 2352 0100     		.2byte	0x1
 15371 2354 55       		.byte	0x55
 15372 2355 22010000 		.4byte	.LVL564
 15373 2359 38010000 		.4byte	.LVL568
 15374 235d 0100     		.2byte	0x1
 15375 235f 55       		.byte	0x55
 15376 2360 E6020000 		.4byte	.LVL588
 15377 2364 EE020000 		.4byte	.LVL589
 15378 2368 0100     		.2byte	0x1
 15379 236a 55       		.byte	0x55
 15380 236b 00000000 		.4byte	0
 15381 236f 00000000 		.4byte	0
 15382              	.LLST129:
 15383 2373 4E000000 		.4byte	.LVL552
 15384 2377 5E000000 		.4byte	.LVL553
ARM GAS  /tmp/ccdUEzgz.s 			page 272


 15385 237b 0100     		.2byte	0x1
 15386 237d 59       		.byte	0x59
 15387 237e 82000000 		.4byte	.LVL554
 15388 2382 86000000 		.4byte	.LVL555
 15389 2386 0100     		.2byte	0x1
 15390 2388 50       		.byte	0x50
 15391 2389 86000000 		.4byte	.LVL555
 15392 238d EE020000 		.4byte	.LVL589
 15393 2391 0100     		.2byte	0x1
 15394 2393 59       		.byte	0x59
 15395 2394 F6020000 		.4byte	.LVL590
 15396 2398 E0030000 		.4byte	.LFE107
 15397 239c 0100     		.2byte	0x1
 15398 239e 59       		.byte	0x59
 15399 239f 00000000 		.4byte	0
 15400 23a3 00000000 		.4byte	0
 15401              	.LLST130:
 15402 23a7 82000000 		.4byte	.LVL554
 15403 23ab 2A010000 		.4byte	.LVL565
 15404 23af 0100     		.2byte	0x1
 15405 23b1 54       		.byte	0x54
 15406 23b2 F6020000 		.4byte	.LVL590
 15407 23b6 A4030000 		.4byte	.LVL595
 15408 23ba 0100     		.2byte	0x1
 15409 23bc 54       		.byte	0x54
 15410 23bd C2030000 		.4byte	.LVL598
 15411 23c1 E0030000 		.4byte	.LFE107
 15412 23c5 0100     		.2byte	0x1
 15413 23c7 54       		.byte	0x54
 15414 23c8 00000000 		.4byte	0
 15415 23cc 00000000 		.4byte	0
 15416              	.LLST131:
 15417 23d0 AA000000 		.4byte	.LVL556
 15418 23d4 B6000000 		.4byte	.LVL557
 15419 23d8 0100     		.2byte	0x1
 15420 23da 51       		.byte	0x51
 15421 23db 30030000 		.4byte	.LVL592
 15422 23df 37030000 		.4byte	.LVL593-1
 15423 23e3 0100     		.2byte	0x1
 15424 23e5 51       		.byte	0x51
 15425 23e6 00000000 		.4byte	0
 15426 23ea 00000000 		.4byte	0
 15427              	.LLST132:
 15428 23ee AA000000 		.4byte	.LVL556
 15429 23f2 B6000000 		.4byte	.LVL557
 15430 23f6 0100     		.2byte	0x1
 15431 23f8 54       		.byte	0x54
 15432 23f9 30030000 		.4byte	.LVL592
 15433 23fd A4030000 		.4byte	.LVL595
 15434 2401 0100     		.2byte	0x1
 15435 2403 54       		.byte	0x54
 15436 2404 00000000 		.4byte	0
 15437 2408 00000000 		.4byte	0
 15438              	.LLST133:
 15439 240c AA000000 		.4byte	.LVL556
 15440 2410 B6000000 		.4byte	.LVL557
 15441 2414 0100     		.2byte	0x1
ARM GAS  /tmp/ccdUEzgz.s 			page 273


 15442 2416 50       		.byte	0x50
 15443 2417 30030000 		.4byte	.LVL592
 15444 241b 37030000 		.4byte	.LVL593-1
 15445 241f 0100     		.2byte	0x1
 15446 2421 50       		.byte	0x50
 15447 2422 37030000 		.4byte	.LVL593-1
 15448 2426 3C030000 		.4byte	.LVL594
 15449 242a 0100     		.2byte	0x1
 15450 242c 5A       		.byte	0x5a
 15451 242d 00000000 		.4byte	0
 15452 2431 00000000 		.4byte	0
 15453              	.LLST134:
 15454 2435 BE000000 		.4byte	.LVL558
 15455 2439 C9000000 		.4byte	.LVL560-1
 15456 243d 0500     		.2byte	0x5
 15457 243f 03       		.byte	0x3
 15458 2440 00000000 		.4byte	delayTimeMs.8667
 15459 2444 EC000000 		.4byte	.LVL561
 15460 2448 EF000000 		.4byte	.LVL562-1
 15461 244c 0100     		.2byte	0x1
 15462 244e 50       		.byte	0x50
 15463 244f 00000000 		.4byte	0
 15464 2453 00000000 		.4byte	0
 15465              	.LLST135:
 15466 2457 BE000000 		.4byte	.LVL558
 15467 245b 20010000 		.4byte	.LVL563
 15468 245f 0100     		.2byte	0x1
 15469 2461 54       		.byte	0x54
 15470 2462 F6020000 		.4byte	.LVL590
 15471 2466 0A030000 		.4byte	.LVL591
 15472 246a 0100     		.2byte	0x1
 15473 246c 54       		.byte	0x54
 15474 246d 00000000 		.4byte	0
 15475 2471 00000000 		.4byte	0
 15476              	.LLST136:
 15477 2475 90020000 		.4byte	.LVL587
 15478 2479 EE020000 		.4byte	.LVL589
 15479 247d 0600     		.2byte	0x6
 15480 247f 03       		.byte	0x3
 15481 2480 68000000 		.4byte	sPorts+104
 15482 2484 9F       		.byte	0x9f
 15483 2485 00000000 		.4byte	0
 15484 2489 00000000 		.4byte	0
 15485              	.LLST137:
 15486 248d 2E010000 		.4byte	.LVL566
 15487 2491 90010000 		.4byte	.LVL572
 15488 2495 0600     		.2byte	0x6
 15489 2497 03       		.byte	0x3
 15490 2498 00000000 		.4byte	.LANCHOR3
 15491 249c 9F       		.byte	0x9f
 15492 249d B8030000 		.4byte	.LVL597
 15493 24a1 C2030000 		.4byte	.LVL598
 15494 24a5 0600     		.2byte	0x6
 15495 24a7 03       		.byte	0x3
 15496 24a8 00000000 		.4byte	.LANCHOR3
 15497 24ac 9F       		.byte	0x9f
 15498 24ad 00000000 		.4byte	0
ARM GAS  /tmp/ccdUEzgz.s 			page 274


 15499 24b1 00000000 		.4byte	0
 15500              	.LLST138:
 15501 24b5 34010000 		.4byte	.LVL567
 15502 24b9 3D010000 		.4byte	.LVL569-1
 15503 24bd 0500     		.2byte	0x5
 15504 24bf 03       		.byte	0x3
 15505 24c0 00000000 		.4byte	delayTimeMs.8667
 15506 24c4 60010000 		.4byte	.LVL570
 15507 24c8 63010000 		.4byte	.LVL571-1
 15508 24cc 0100     		.2byte	0x1
 15509 24ce 50       		.byte	0x50
 15510 24cf 96010000 		.4byte	.LVL573
 15511 24d3 9F010000 		.4byte	.LVL575-1
 15512 24d7 0500     		.2byte	0x5
 15513 24d9 03       		.byte	0x3
 15514 24da 00000000 		.4byte	delayTimeMs.8667
 15515 24de C2010000 		.4byte	.LVL576
 15516 24e2 C5010000 		.4byte	.LVL577-1
 15517 24e6 0100     		.2byte	0x1
 15518 24e8 50       		.byte	0x50
 15519 24e9 F8010000 		.4byte	.LVL579
 15520 24ed 03020000 		.4byte	.LVL581-1
 15521 24f1 0500     		.2byte	0x5
 15522 24f3 03       		.byte	0x3
 15523 24f4 00000000 		.4byte	delayTimeMs.8667
 15524 24f8 2C020000 		.4byte	.LVL582
 15525 24fc 2F020000 		.4byte	.LVL583-1
 15526 2500 0100     		.2byte	0x1
 15527 2502 50       		.byte	0x50
 15528 2503 00000000 		.4byte	0
 15529 2507 00000000 		.4byte	0
 15530              	.LLST139:
 15531 250b 34010000 		.4byte	.LVL567
 15532 250f 96010000 		.4byte	.LVL573
 15533 2513 0600     		.2byte	0x6
 15534 2515 03       		.byte	0x3
 15535 2516 00000000 		.4byte	.LANCHOR3
 15536 251a 9F       		.byte	0x9f
 15537 251b B8030000 		.4byte	.LVL597
 15538 251f C2030000 		.4byte	.LVL598
 15539 2523 0600     		.2byte	0x6
 15540 2525 03       		.byte	0x3
 15541 2526 00000000 		.4byte	.LANCHOR3
 15542 252a 9F       		.byte	0x9f
 15543 252b 00000000 		.4byte	0
 15544 252f 00000000 		.4byte	0
 15545              	.LLST140:
 15546 2533 5E020000 		.4byte	.LVL584
 15547 2537 72020000 		.4byte	.LVL585
 15548 253b 0600     		.2byte	0x6
 15549 253d 03       		.byte	0x3
 15550 253e 00000000 		.4byte	.LANCHOR3
 15551 2542 9F       		.byte	0x9f
 15552 2543 00000000 		.4byte	0
 15553 2547 00000000 		.4byte	0
 15554              		.section	.debug_aranges,"",%progbits
 15555 0000 4C010000 		.4byte	0x14c
ARM GAS  /tmp/ccdUEzgz.s 			page 275


 15556 0004 0200     		.2byte	0x2
 15557 0006 00000000 		.4byte	.Ldebug_info0
 15558 000a 04       		.byte	0x4
 15559 000b 00       		.byte	0
 15560 000c 0000     		.2byte	0
 15561 000e 0000     		.2byte	0
 15562 0010 00000000 		.4byte	.LFB108
 15563 0014 9C0C0000 		.4byte	.LFE108-.LFB108
 15564 0018 00000000 		.4byte	.LFB69
 15565 001c 1C000000 		.4byte	.LFE69-.LFB69
 15566 0020 00000000 		.4byte	.LFB70
 15567 0024 1A000000 		.4byte	.LFE70-.LFB70
 15568 0028 00000000 		.4byte	.LFB71
 15569 002c 1E000000 		.4byte	.LFE71-.LFB71
 15570 0030 00000000 		.4byte	.LFB72
 15571 0034 3E000000 		.4byte	.LFE72-.LFB72
 15572 0038 00000000 		.4byte	.LFB73
 15573 003c 1E000000 		.4byte	.LFE73-.LFB73
 15574 0040 00000000 		.4byte	.LFB74
 15575 0044 20000000 		.4byte	.LFE74-.LFB74
 15576 0048 00000000 		.4byte	.LFB75
 15577 004c 20000000 		.4byte	.LFE75-.LFB75
 15578 0050 00000000 		.4byte	.LFB76
 15579 0054 78000000 		.4byte	.LFE76-.LFB76
 15580 0058 00000000 		.4byte	.LFB77
 15581 005c 1E000000 		.4byte	.LFE77-.LFB77
 15582 0060 00000000 		.4byte	.LFB78
 15583 0064 1C000000 		.4byte	.LFE78-.LFB78
 15584 0068 00000000 		.4byte	.LFB79
 15585 006c 1C000000 		.4byte	.LFE79-.LFB79
 15586 0070 00000000 		.4byte	.LFB80
 15587 0074 1E000000 		.4byte	.LFE80-.LFB80
 15588 0078 00000000 		.4byte	.LFB81
 15589 007c 14000000 		.4byte	.LFE81-.LFB81
 15590 0080 00000000 		.4byte	.LFB82
 15591 0084 1A000000 		.4byte	.LFE82-.LFB82
 15592 0088 00000000 		.4byte	.LFB83
 15593 008c 0E000000 		.4byte	.LFE83-.LFB83
 15594 0090 00000000 		.4byte	.LFB84
 15595 0094 1A000000 		.4byte	.LFE84-.LFB84
 15596 0098 00000000 		.4byte	.LFB85
 15597 009c 0E000000 		.4byte	.LFE85-.LFB85
 15598 00a0 00000000 		.4byte	.LFB86
 15599 00a4 26000000 		.4byte	.LFE86-.LFB86
 15600 00a8 00000000 		.4byte	.LFB87
 15601 00ac 34000000 		.4byte	.LFE87-.LFB87
 15602 00b0 00000000 		.4byte	.LFB88
 15603 00b4 0C070000 		.4byte	.LFE88-.LFB88
 15604 00b8 00000000 		.4byte	.LFB89
 15605 00bc 5C000000 		.4byte	.LFE89-.LFB89
 15606 00c0 00000000 		.4byte	.LFB90
 15607 00c4 E4020000 		.4byte	.LFE90-.LFB90
 15608 00c8 00000000 		.4byte	.LFB91
 15609 00cc 48000000 		.4byte	.LFE91-.LFB91
 15610 00d0 00000000 		.4byte	.LFB92
 15611 00d4 28000000 		.4byte	.LFE92-.LFB92
 15612 00d8 00000000 		.4byte	.LFB93
ARM GAS  /tmp/ccdUEzgz.s 			page 276


 15613 00dc 52040000 		.4byte	.LFE93-.LFB93
 15614 00e0 00000000 		.4byte	.LFB94
 15615 00e4 40000000 		.4byte	.LFE94-.LFB94
 15616 00e8 00000000 		.4byte	.LFB95
 15617 00ec 80000000 		.4byte	.LFE95-.LFB95
 15618 00f0 00000000 		.4byte	.LFB96
 15619 00f4 D8000000 		.4byte	.LFE96-.LFB96
 15620 00f8 00000000 		.4byte	.LFB98
 15621 00fc 40050000 		.4byte	.LFE98-.LFB98
 15622 0100 00000000 		.4byte	.LFB99
 15623 0104 9E000000 		.4byte	.LFE99-.LFB99
 15624 0108 00000000 		.4byte	.LFB100
 15625 010c 90010000 		.4byte	.LFE100-.LFB100
 15626 0110 00000000 		.4byte	.LFB101
 15627 0114 4A000000 		.4byte	.LFE101-.LFB101
 15628 0118 00000000 		.4byte	.LFB102
 15629 011c 4A000000 		.4byte	.LFE102-.LFB102
 15630 0120 00000000 		.4byte	.LFB103
 15631 0124 5C000000 		.4byte	.LFE103-.LFB103
 15632 0128 00000000 		.4byte	.LFB104
 15633 012c E8010000 		.4byte	.LFE104-.LFB104
 15634 0130 00000000 		.4byte	.LFB105
 15635 0134 78000000 		.4byte	.LFE105-.LFB105
 15636 0138 00000000 		.4byte	.LFB106
 15637 013c 78000000 		.4byte	.LFE106-.LFB106
 15638 0140 00000000 		.4byte	.LFB107
 15639 0144 E0030000 		.4byte	.LFE107-.LFB107
 15640 0148 00000000 		.4byte	0
 15641 014c 00000000 		.4byte	0
 15642              		.section	.debug_ranges,"",%progbits
 15643              	.Ldebug_ranges0:
 15644 0000 92040000 		.4byte	.LBB39
 15645 0004 94040000 		.4byte	.LBE39
 15646 0008 96040000 		.4byte	.LBB65
 15647 000c A4040000 		.4byte	.LBE65
 15648 0010 84050000 		.4byte	.LBB88
 15649 0014 86050000 		.4byte	.LBE88
 15650 0018 88050000 		.4byte	.LBB89
 15651 001c A6050000 		.4byte	.LBE89
 15652 0020 38080000 		.4byte	.LBB92
 15653 0024 3A080000 		.4byte	.LBE92
 15654 0028 3C080000 		.4byte	.LBB93
 15655 002c 4A080000 		.4byte	.LBE93
 15656 0030 8A080000 		.4byte	.LBB96
 15657 0034 8C080000 		.4byte	.LBE96
 15658 0038 8E080000 		.4byte	.LBB97
 15659 003c 9C080000 		.4byte	.LBE97
 15660 0040 DC080000 		.4byte	.LBB100
 15661 0044 DE080000 		.4byte	.LBE100
 15662 0048 E0080000 		.4byte	.LBB101
 15663 004c EE080000 		.4byte	.LBE101
 15664 0050 2E090000 		.4byte	.LBB104
 15665 0054 30090000 		.4byte	.LBE104
 15666 0058 32090000 		.4byte	.LBB105
 15667 005c 40090000 		.4byte	.LBE105
 15668 0060 88090000 		.4byte	.LBB108
 15669 0064 8A090000 		.4byte	.LBE108
ARM GAS  /tmp/ccdUEzgz.s 			page 277


 15670 0068 8C090000 		.4byte	.LBB109
 15671 006c 9A090000 		.4byte	.LBE109
 15672 0070 DA090000 		.4byte	.LBB112
 15673 0074 DC090000 		.4byte	.LBE112
 15674 0078 DE090000 		.4byte	.LBB113
 15675 007c EC090000 		.4byte	.LBE113
 15676 0080 2C0A0000 		.4byte	.LBB116
 15677 0084 2E0A0000 		.4byte	.LBE116
 15678 0088 300A0000 		.4byte	.LBB117
 15679 008c 3C0A0000 		.4byte	.LBE117
 15680 0090 7C0A0000 		.4byte	.LBB120
 15681 0094 7E0A0000 		.4byte	.LBE120
 15682 0098 800A0000 		.4byte	.LBB121
 15683 009c 8A0A0000 		.4byte	.LBE121
 15684 00a0 E40A0000 		.4byte	.LBB124
 15685 00a4 3C0B0000 		.4byte	.LBE124
 15686 00a8 480B0000 		.4byte	.LBB125
 15687 00ac 5C0B0000 		.4byte	.LBE125
 15688 00b0 7C0B0000 		.4byte	.LBB126
 15689 00b4 BE0B0000 		.4byte	.LBE126
 15690 00b8 CA0B0000 		.4byte	.LBB127
 15691 00bc DE0B0000 		.4byte	.LBE127
 15692 00c0 160C0000 		.4byte	.LBB128
 15693 00c4 9C0C0000 		.4byte	.LBE128
 15694 00c8 00000000 		.4byte	0
 15695 00cc 00000000 		.4byte	0
 15696 00d0 AA040000 		.4byte	.LBB66
 15697 00d4 AC040000 		.4byte	.LBE66
 15698 00d8 AE040000 		.4byte	.LBB87
 15699 00dc CA040000 		.4byte	.LBE87
 15700 00e0 AC050000 		.4byte	.LBB90
 15701 00e4 AE050000 		.4byte	.LBE90
 15702 00e8 B0050000 		.4byte	.LBB91
 15703 00ec CC050000 		.4byte	.LBE91
 15704 00f0 50080000 		.4byte	.LBB94
 15705 00f4 52080000 		.4byte	.LBE94
 15706 00f8 54080000 		.4byte	.LBB95
 15707 00fc 70080000 		.4byte	.LBE95
 15708 0100 A2080000 		.4byte	.LBB98
 15709 0104 A4080000 		.4byte	.LBE98
 15710 0108 A6080000 		.4byte	.LBB99
 15711 010c C2080000 		.4byte	.LBE99
 15712 0110 F4080000 		.4byte	.LBB102
 15713 0114 F6080000 		.4byte	.LBE102
 15714 0118 F8080000 		.4byte	.LBB103
 15715 011c 14090000 		.4byte	.LBE103
 15716 0120 46090000 		.4byte	.LBB106
 15717 0124 48090000 		.4byte	.LBE106
 15718 0128 4A090000 		.4byte	.LBB107
 15719 012c 66090000 		.4byte	.LBE107
 15720 0130 A0090000 		.4byte	.LBB110
 15721 0134 A2090000 		.4byte	.LBE110
 15722 0138 A4090000 		.4byte	.LBB111
 15723 013c C0090000 		.4byte	.LBE111
 15724 0140 F2090000 		.4byte	.LBB114
 15725 0144 F4090000 		.4byte	.LBE114
 15726 0148 F6090000 		.4byte	.LBB115
ARM GAS  /tmp/ccdUEzgz.s 			page 278


 15727 014c 120A0000 		.4byte	.LBE115
 15728 0150 420A0000 		.4byte	.LBB118
 15729 0154 440A0000 		.4byte	.LBE118
 15730 0158 460A0000 		.4byte	.LBB119
 15731 015c 620A0000 		.4byte	.LBE119
 15732 0160 900A0000 		.4byte	.LBB122
 15733 0164 920A0000 		.4byte	.LBE122
 15734 0168 940A0000 		.4byte	.LBB123
 15735 016c B00A0000 		.4byte	.LBE123
 15736 0170 00000000 		.4byte	0
 15737 0174 00000000 		.4byte	0
 15738 0178 02000000 		.4byte	.LBB129
 15739 017c 06000000 		.4byte	.LBE129
 15740 0180 0A000000 		.4byte	.LBB137
 15741 0184 10000000 		.4byte	.LBE137
 15742 0188 1C000000 		.4byte	.LBB139
 15743 018c 1E000000 		.4byte	.LBE139
 15744 0190 00000000 		.4byte	0
 15745 0194 00000000 		.4byte	0
 15746 0198 06000000 		.4byte	.LBB133
 15747 019c 0A000000 		.4byte	.LBE133
 15748 01a0 10000000 		.4byte	.LBB138
 15749 01a4 14000000 		.4byte	.LBE138
 15750 01a8 1E000000 		.4byte	.LBB140
 15751 01ac 20000000 		.4byte	.LBE140
 15752 01b0 00000000 		.4byte	0
 15753 01b4 00000000 		.4byte	0
 15754 01b8 94000000 		.4byte	.LBB141
 15755 01bc 96000000 		.4byte	.LBE141
 15756 01c0 98000000 		.4byte	.LBB145
 15757 01c4 B2000000 		.4byte	.LBE145
 15758 01c8 C6000000 		.4byte	.LBB146
 15759 01cc D8000000 		.4byte	.LBE146
 15760 01d0 00000000 		.4byte	0
 15761 01d4 00000000 		.4byte	0
 15762 01d8 70000000 		.4byte	.LBB167
 15763 01dc 72000000 		.4byte	.LBE167
 15764 01e0 74000000 		.4byte	.LBB175
 15765 01e4 8E000000 		.4byte	.LBE175
 15766 01e8 68040000 		.4byte	.LBB221
 15767 01ec 6A040000 		.4byte	.LBE221
 15768 01f0 70040000 		.4byte	.LBB223
 15769 01f4 9A040000 		.4byte	.LBE223
 15770 01f8 F2040000 		.4byte	.LBB229
 15771 01fc 08050000 		.4byte	.LBE229
 15772 0200 16050000 		.4byte	.LBB231
 15773 0204 18050000 		.4byte	.LBE231
 15774 0208 1E050000 		.4byte	.LBB233
 15775 020c 40050000 		.4byte	.LBE233
 15776 0210 00000000 		.4byte	0
 15777 0214 00000000 		.4byte	0
 15778 0218 B6000000 		.4byte	.LBB176
 15779 021c 5A010000 		.4byte	.LBE176
 15780 0220 5C010000 		.4byte	.LBB185
 15781 0224 5E010000 		.4byte	.LBE185
 15782 0228 B8040000 		.4byte	.LBB225
 15783 022c C6040000 		.4byte	.LBE225
ARM GAS  /tmp/ccdUEzgz.s 			page 279


 15784 0230 00000000 		.4byte	0
 15785 0234 00000000 		.4byte	0
 15786 0238 C2000000 		.4byte	.LBB178
 15787 023c C4000000 		.4byte	.LBE178
 15788 0240 C6000000 		.4byte	.LBB182
 15789 0244 5A010000 		.4byte	.LBE182
 15790 0248 B8040000 		.4byte	.LBB183
 15791 024c C6040000 		.4byte	.LBE183
 15792 0250 00000000 		.4byte	0
 15793 0254 00000000 		.4byte	0
 15794 0258 C2000000 		.4byte	.LBB179
 15795 025c C4000000 		.4byte	.LBE179
 15796 0260 C6000000 		.4byte	.LBB180
 15797 0264 5A010000 		.4byte	.LBE180
 15798 0268 B8040000 		.4byte	.LBB181
 15799 026c C6040000 		.4byte	.LBE181
 15800 0270 00000000 		.4byte	0
 15801 0274 00000000 		.4byte	0
 15802 0278 64010000 		.4byte	.LBB186
 15803 027c 06020000 		.4byte	.LBE186
 15804 0280 08020000 		.4byte	.LBB195
 15805 0284 0A020000 		.4byte	.LBE195
 15806 0288 C6040000 		.4byte	.LBB226
 15807 028c D4040000 		.4byte	.LBE226
 15808 0290 00000000 		.4byte	0
 15809 0294 00000000 		.4byte	0
 15810 0298 70010000 		.4byte	.LBB188
 15811 029c 72010000 		.4byte	.LBE188
 15812 02a0 74010000 		.4byte	.LBB192
 15813 02a4 06020000 		.4byte	.LBE192
 15814 02a8 C6040000 		.4byte	.LBB193
 15815 02ac D4040000 		.4byte	.LBE193
 15816 02b0 00000000 		.4byte	0
 15817 02b4 00000000 		.4byte	0
 15818 02b8 70010000 		.4byte	.LBB189
 15819 02bc 72010000 		.4byte	.LBE189
 15820 02c0 74010000 		.4byte	.LBB190
 15821 02c4 06020000 		.4byte	.LBE190
 15822 02c8 C6040000 		.4byte	.LBB191
 15823 02cc D4040000 		.4byte	.LBE191
 15824 02d0 00000000 		.4byte	0
 15825 02d4 00000000 		.4byte	0
 15826 02d8 24020000 		.4byte	.LBB196
 15827 02dc 42020000 		.4byte	.LBE196
 15828 02e0 EA040000 		.4byte	.LBB228
 15829 02e4 F2040000 		.4byte	.LBE228
 15830 02e8 00000000 		.4byte	0
 15831 02ec 00000000 		.4byte	0
 15832 02f0 34030000 		.4byte	.LBB201
 15833 02f4 3C030000 		.4byte	.LBE201
 15834 02f8 40030000 		.4byte	.LBB204
 15835 02fc 96030000 		.4byte	.LBE204
 15836 0300 00000000 		.4byte	0
 15837 0304 00000000 		.4byte	0
 15838 0308 34030000 		.4byte	.LBB202
 15839 030c 3C030000 		.4byte	.LBE202
 15840 0310 40030000 		.4byte	.LBB203
ARM GAS  /tmp/ccdUEzgz.s 			page 280


 15841 0314 96030000 		.4byte	.LBE203
 15842 0318 00000000 		.4byte	0
 15843 031c 00000000 		.4byte	0
 15844 0320 20040000 		.4byte	.LBB206
 15845 0324 22040000 		.4byte	.LBE206
 15846 0328 24040000 		.4byte	.LBB214
 15847 032c 34040000 		.4byte	.LBE214
 15848 0330 50040000 		.4byte	.LBB219
 15849 0334 60040000 		.4byte	.LBE219
 15850 0338 62040000 		.4byte	.LBB220
 15851 033c 64040000 		.4byte	.LBE220
 15852 0340 6A040000 		.4byte	.LBB222
 15853 0344 6E040000 		.4byte	.LBE222
 15854 0348 08050000 		.4byte	.LBB230
 15855 034c 10050000 		.4byte	.LBE230
 15856 0350 18050000 		.4byte	.LBB232
 15857 0354 1C050000 		.4byte	.LBE232
 15858 0358 00000000 		.4byte	0
 15859 035c 00000000 		.4byte	0
 15860 0360 38040000 		.4byte	.LBB215
 15861 0364 50040000 		.4byte	.LBE215
 15862 0368 9A040000 		.4byte	.LBB224
 15863 036c B8040000 		.4byte	.LBE224
 15864 0370 D4040000 		.4byte	.LBB227
 15865 0374 EA040000 		.4byte	.LBE227
 15866 0378 00000000 		.4byte	0
 15867 037c 00000000 		.4byte	0
 15868 0380 28000000 		.4byte	.LBB234
 15869 0384 86010000 		.4byte	.LBE234
 15870 0388 9C010000 		.4byte	.LBB235
 15871 038c E8010000 		.4byte	.LBE235
 15872 0390 00000000 		.4byte	0
 15873 0394 00000000 		.4byte	0
 15874 0398 2C000000 		.4byte	.LBB236
 15875 039c 54000000 		.4byte	.LBE236
 15876 03a0 5E000000 		.4byte	.LBB267
 15877 03a4 E2020000 		.4byte	.LBE267
 15878 03a8 E4020000 		.4byte	.LBB268
 15879 03ac E6020000 		.4byte	.LBE268
 15880 03b0 F6020000 		.4byte	.LBB269
 15881 03b4 E0030000 		.4byte	.LBE269
 15882 03b8 00000000 		.4byte	0
 15883 03bc 00000000 		.4byte	0
 15884 03c0 AA000000 		.4byte	.LBB237
 15885 03c4 B6000000 		.4byte	.LBE237
 15886 03c8 30030000 		.4byte	.LBB265
 15887 03cc A4030000 		.4byte	.LBE265
 15888 03d0 00000000 		.4byte	0
 15889 03d4 00000000 		.4byte	0
 15890 03d8 AA000000 		.4byte	.LBB238
 15891 03dc B6000000 		.4byte	.LBE238
 15892 03e0 30030000 		.4byte	.LBB239
 15893 03e4 A4030000 		.4byte	.LBE239
 15894 03e8 00000000 		.4byte	0
 15895 03ec 00000000 		.4byte	0
 15896 03f0 BE000000 		.4byte	.LBB240
 15897 03f4 00010000 		.4byte	.LBE240
ARM GAS  /tmp/ccdUEzgz.s 			page 281


 15898 03f8 02010000 		.4byte	.LBB243
 15899 03fc 04010000 		.4byte	.LBE243
 15900 0400 00000000 		.4byte	0
 15901 0404 00000000 		.4byte	0
 15902 0408 BE000000 		.4byte	.LBB241
 15903 040c 00010000 		.4byte	.LBE241
 15904 0410 02010000 		.4byte	.LBB242
 15905 0414 04010000 		.4byte	.LBE242
 15906 0418 00000000 		.4byte	0
 15907 041c 00000000 		.4byte	0
 15908 0420 26010000 		.4byte	.LBB244
 15909 0424 D4020000 		.4byte	.LBE244
 15910 0428 D6020000 		.4byte	.LBB263
 15911 042c DE020000 		.4byte	.LBE263
 15912 0430 E4020000 		.4byte	.LBB264
 15913 0434 E6020000 		.4byte	.LBE264
 15914 0438 A4030000 		.4byte	.LBB266
 15915 043c C2030000 		.4byte	.LBE266
 15916 0440 00000000 		.4byte	0
 15917 0444 00000000 		.4byte	0
 15918 0448 26010000 		.4byte	.LBB245
 15919 044c 5E020000 		.4byte	.LBE245
 15920 0450 A4030000 		.4byte	.LBB262
 15921 0454 C2030000 		.4byte	.LBE262
 15922 0458 00000000 		.4byte	0
 15923 045c 00000000 		.4byte	0
 15924 0460 34010000 		.4byte	.LBB246
 15925 0464 74010000 		.4byte	.LBE246
 15926 0468 76010000 		.4byte	.LBB253
 15927 046c 78010000 		.4byte	.LBE253
 15928 0470 96010000 		.4byte	.LBB254
 15929 0474 D6010000 		.4byte	.LBE254
 15930 0478 D8010000 		.4byte	.LBB255
 15931 047c DA010000 		.4byte	.LBE255
 15932 0480 F8010000 		.4byte	.LBB256
 15933 0484 40020000 		.4byte	.LBE256
 15934 0488 42020000 		.4byte	.LBB257
 15935 048c 46020000 		.4byte	.LBE257
 15936 0490 00000000 		.4byte	0
 15937 0494 00000000 		.4byte	0
 15938 0498 34010000 		.4byte	.LBB247
 15939 049c 74010000 		.4byte	.LBE247
 15940 04a0 76010000 		.4byte	.LBB248
 15941 04a4 78010000 		.4byte	.LBE248
 15942 04a8 96010000 		.4byte	.LBB249
 15943 04ac D6010000 		.4byte	.LBE249
 15944 04b0 D8010000 		.4byte	.LBB250
 15945 04b4 DA010000 		.4byte	.LBE250
 15946 04b8 F8010000 		.4byte	.LBB251
 15947 04bc 40020000 		.4byte	.LBE251
 15948 04c0 42020000 		.4byte	.LBB252
 15949 04c4 46020000 		.4byte	.LBE252
 15950 04c8 00000000 		.4byte	0
 15951 04cc 00000000 		.4byte	0
 15952 04d0 A4020000 		.4byte	.LBB259
 15953 04d4 D4020000 		.4byte	.LBE259
 15954 04d8 D6020000 		.4byte	.LBB260
ARM GAS  /tmp/ccdUEzgz.s 			page 282


 15955 04dc DE020000 		.4byte	.LBE260
 15956 04e0 E4020000 		.4byte	.LBB261
 15957 04e4 E6020000 		.4byte	.LBE261
 15958 04e8 00000000 		.4byte	0
 15959 04ec 00000000 		.4byte	0
 15960 04f0 00000000 		.4byte	.LFB108
 15961 04f4 9C0C0000 		.4byte	.LFE108
 15962 04f8 00000000 		.4byte	.LFB69
 15963 04fc 1C000000 		.4byte	.LFE69
 15964 0500 00000000 		.4byte	.LFB70
 15965 0504 1A000000 		.4byte	.LFE70
 15966 0508 00000000 		.4byte	.LFB71
 15967 050c 1E000000 		.4byte	.LFE71
 15968 0510 00000000 		.4byte	.LFB72
 15969 0514 3E000000 		.4byte	.LFE72
 15970 0518 00000000 		.4byte	.LFB73
 15971 051c 1E000000 		.4byte	.LFE73
 15972 0520 00000000 		.4byte	.LFB74
 15973 0524 20000000 		.4byte	.LFE74
 15974 0528 00000000 		.4byte	.LFB75
 15975 052c 20000000 		.4byte	.LFE75
 15976 0530 00000000 		.4byte	.LFB76
 15977 0534 78000000 		.4byte	.LFE76
 15978 0538 00000000 		.4byte	.LFB77
 15979 053c 1E000000 		.4byte	.LFE77
 15980 0540 00000000 		.4byte	.LFB78
 15981 0544 1C000000 		.4byte	.LFE78
 15982 0548 00000000 		.4byte	.LFB79
 15983 054c 1C000000 		.4byte	.LFE79
 15984 0550 00000000 		.4byte	.LFB80
 15985 0554 1E000000 		.4byte	.LFE80
 15986 0558 00000000 		.4byte	.LFB81
 15987 055c 14000000 		.4byte	.LFE81
 15988 0560 00000000 		.4byte	.LFB82
 15989 0564 1A000000 		.4byte	.LFE82
 15990 0568 00000000 		.4byte	.LFB83
 15991 056c 0E000000 		.4byte	.LFE83
 15992 0570 00000000 		.4byte	.LFB84
 15993 0574 1A000000 		.4byte	.LFE84
 15994 0578 00000000 		.4byte	.LFB85
 15995 057c 0E000000 		.4byte	.LFE85
 15996 0580 00000000 		.4byte	.LFB86
 15997 0584 26000000 		.4byte	.LFE86
 15998 0588 00000000 		.4byte	.LFB87
 15999 058c 34000000 		.4byte	.LFE87
 16000 0590 00000000 		.4byte	.LFB88
 16001 0594 0C070000 		.4byte	.LFE88
 16002 0598 00000000 		.4byte	.LFB89
 16003 059c 5C000000 		.4byte	.LFE89
 16004 05a0 00000000 		.4byte	.LFB90
 16005 05a4 E4020000 		.4byte	.LFE90
 16006 05a8 00000000 		.4byte	.LFB91
 16007 05ac 48000000 		.4byte	.LFE91
 16008 05b0 00000000 		.4byte	.LFB92
 16009 05b4 28000000 		.4byte	.LFE92
 16010 05b8 00000000 		.4byte	.LFB93
 16011 05bc 52040000 		.4byte	.LFE93
ARM GAS  /tmp/ccdUEzgz.s 			page 283


 16012 05c0 00000000 		.4byte	.LFB94
 16013 05c4 40000000 		.4byte	.LFE94
 16014 05c8 00000000 		.4byte	.LFB95
 16015 05cc 80000000 		.4byte	.LFE95
 16016 05d0 00000000 		.4byte	.LFB96
 16017 05d4 D8000000 		.4byte	.LFE96
 16018 05d8 00000000 		.4byte	.LFB98
 16019 05dc 40050000 		.4byte	.LFE98
 16020 05e0 00000000 		.4byte	.LFB99
 16021 05e4 9E000000 		.4byte	.LFE99
 16022 05e8 00000000 		.4byte	.LFB100
 16023 05ec 90010000 		.4byte	.LFE100
 16024 05f0 00000000 		.4byte	.LFB101
 16025 05f4 4A000000 		.4byte	.LFE101
 16026 05f8 00000000 		.4byte	.LFB102
 16027 05fc 4A000000 		.4byte	.LFE102
 16028 0600 00000000 		.4byte	.LFB103
 16029 0604 5C000000 		.4byte	.LFE103
 16030 0608 00000000 		.4byte	.LFB104
 16031 060c E8010000 		.4byte	.LFE104
 16032 0610 00000000 		.4byte	.LFB105
 16033 0614 78000000 		.4byte	.LFE105
 16034 0618 00000000 		.4byte	.LFB106
 16035 061c 78000000 		.4byte	.LFE106
 16036 0620 00000000 		.4byte	.LFB107
 16037 0624 E0030000 		.4byte	.LFE107
 16038 0628 00000000 		.4byte	0
 16039 062c 00000000 		.4byte	0
 16040              		.section	.debug_line,"",%progbits
 16041              	.Ldebug_line0:
 16042 0000 420D0000 		.section	.debug_str,"MS",%progbits,1
 16042      0200EE01 
 16042      00000201 
 16042      FB0E0D00 
 16042      01010101 
 16043              	.LASF47:
 16044 0000 54687265 		.ascii	"ThreadsList\000"
 16044      6164734C 
 16044      69737400 
 16045              	.LASF51:
 16046 000c 76746675 		.ascii	"vtfunc_t\000"
 16046      6E635F74 
 16046      00
 16047              	.LASF187:
 16048 0015 536D6172 		.ascii	"SmartMotorGetSpeed\000"
 16048      744D6F74 
 16048      6F724765 
 16048      74537065 
 16048      656400
 16049              	.LASF38:
 16050 0028 705F7469 		.ascii	"p_time\000"
 16050      6D6500
 16051              	.LASF167:
 16052 002f 73746174 		.ascii	"statusPort\000"
 16052      7573506F 
 16052      727400
 16053              	.LASF238:
ARM GAS  /tmp/ccdUEzgz.s 			page 284


 16054 003a 6D5F7361 		.ascii	"m_safe_current\000"
 16054      66655F63 
 16054      75727265 
 16054      6E7400
 16055              	.LASF48:
 16056 0049 72656761 		.ascii	"regarm_t\000"
 16056      726D5F74 
 16056      00
 16057              	.LASF29:
 16058 0052 705F7072 		.ascii	"p_prio\000"
 16058      696F00
 16059              	.LASF158:
 16060 0059 74656D70 		.ascii	"temperature\000"
 16060      65726174 
 16060      75726500 
 16061              	.LASF108:
 16062 0065 6B566578 		.ascii	"kVexMotor_None\000"
 16062      4D6F746F 
 16062      725F4E6F 
 16062      6E6500
 16063              	.LASF211:
 16064 0074 736C6176 		.ascii	"slave\000"
 16064      6500
 16065              	.LASF25:
 16066 007a 73797374 		.ascii	"systime_t\000"
 16066      696D655F 
 16066      7400
 16067              	.LASF136:
 16068 0084 6D6F746F 		.ascii	"motor_cmd\000"
 16068      725F636D 
 16068      6400
 16069              	.LASF69:
 16070 008e 6D5F6F77 		.ascii	"m_owner\000"
 16070      6E657200 
 16071              	.LASF244:
 16072 0096 6E657874 		.ascii	"nextMotor\000"
 16072      4D6F746F 
 16072      7200
 16073              	.LASF58:
 16074 00a0 76745F73 		.ascii	"vt_systime\000"
 16074      79737469 
 16074      6D6500
 16075              	.LASF248:
 16076 00ab 5074634C 		.ascii	"PtcLimitEnabled\000"
 16076      696D6974 
 16076      456E6162 
 16076      6C656400 
 16077              	.LASF0:
 16078 00bb 756E7369 		.ascii	"unsigned int\000"
 16078      676E6564 
 16078      20696E74 
 16078      00
 16079              	.LASF213:
 16080 00c8 72617469 		.ascii	"ratio\000"
 16080      6F00
 16081              	.LASF147:
 16082 00ce 695F7374 		.ascii	"i_stall\000"
ARM GAS  /tmp/ccdUEzgz.s 			page 285


 16082      616C6C00 
 16083              	.LASF202:
 16084 00d6 536D6172 		.ascii	"SmartMotorRun\000"
 16084      744D6F74 
 16084      6F725275 
 16084      6E00
 16085              	.LASF39:
 16086 00e4 705F7761 		.ascii	"p_waiting\000"
 16086      6974696E 
 16086      6700
 16087              	.LASF254:
 16088 00ee 2E2E2F63 		.ascii	"../convex/cortex/opt/smartmotor.c\000"
 16088      6F6E7665 
 16088      782F636F 
 16088      72746578 
 16088      2F6F7074 
 16089              	.LASF144:
 16090 0110 6F6C6465 		.ascii	"oldenc\000"
 16090      6E6300
 16091              	.LASF120:
 16092 0117 74566578 		.ascii	"tVexMotor\000"
 16092      4D6F746F 
 16092      7200
 16093              	.LASF119:
 16094 0121 6B566578 		.ascii	"kVexMotorNum\000"
 16094      4D6F746F 
 16094      724E756D 
 16094      00
 16095              	.LASF246:
 16096 012e 734D6F74 		.ascii	"sMotors\000"
 16096      6F727300 
 16097              	.LASF73:
 16098 0136 77746F62 		.ascii	"wtobjp\000"
 16098      6A7000
 16099              	.LASF250:
 16100 013d 76746C69 		.ascii	"vtlist\000"
 16100      737400
 16101              	.LASF176:
 16102 0144 66617374 		.ascii	"fastlog\000"
 16102      6C6F6700 
 16103              	.LASF74:
 16104 014c 65776D61 		.ascii	"ewmask\000"
 16104      736B00
 16105              	.LASF226:
 16106 0153 6C616D64 		.ascii	"lamda\000"
 16106      6100
 16107              	.LASF221:
 16108 0159 73706565 		.ascii	"speed\000"
 16108      6400
 16109              	.LASF100:
 16110 015f 74566578 		.ascii	"tVexDigitalPin\000"
 16110      44696769 
 16110      74616C50 
 16110      696E00
 16111              	.LASF68:
 16112 016e 6D5F7175 		.ascii	"m_queue\000"
 16112      65756500 
ARM GAS  /tmp/ccdUEzgz.s 			page 286


 16113              	.LASF98:
 16114 0176 6B566578 		.ascii	"kVexDigital_12\000"
 16114      44696769 
 16114      74616C5F 
 16114      313200
 16115              	.LASF55:
 16116 0185 76745F74 		.ascii	"vt_time\000"
 16116      696D6500 
 16117              	.LASF15:
 16118 018d 75696E74 		.ascii	"uint32_t\000"
 16118      33325F74 
 16118      00
 16119              	.LASF24:
 16120 0196 6576656E 		.ascii	"eventmask_t\000"
 16120      746D6173 
 16120      6B5F7400 
 16121              	.LASF61:
 16122 01a2 725F7072 		.ascii	"r_prio\000"
 16122      696F00
 16123              	.LASF57:
 16124 01a9 76745F70 		.ascii	"vt_par\000"
 16124      617200
 16125              	.LASF6:
 16126 01b0 6C6F6E67 		.ascii	"long long unsigned int\000"
 16126      206C6F6E 
 16126      6720756E 
 16126      7369676E 
 16126      65642069 
 16127              	.LASF11:
 16128 01c7 666C6F61 		.ascii	"float\000"
 16128      7400
 16129              	.LASF209:
 16130 01cd 536D6172 		.ascii	"SmartMotorLinkMotors\000"
 16130      744D6F74 
 16130      6F724C69 
 16130      6E6B4D6F 
 16130      746F7273 
 16131              	.LASF99:
 16132 01e2 6B566578 		.ascii	"kVexDigital_Num\000"
 16132      44696769 
 16132      74616C5F 
 16132      4E756D00 
 16133              	.LASF22:
 16134 01f2 74707269 		.ascii	"tprio_t\000"
 16134      6F5F7400 
 16135              	.LASF247:
 16136 01fa 73506F72 		.ascii	"sPorts\000"
 16136      747300
 16137              	.LASF185:
 16138 0201 696E6465 		.ascii	"index\000"
 16138      7800
 16139              	.LASF118:
 16140 0207 6B566578 		.ascii	"kVexMotor_10\000"
 16140      4D6F746F 
 16140      725F3130 
 16140      00
 16141              	.LASF240:
ARM GAS  /tmp/ccdUEzgz.s 			page 287


 16142 0214 536D6172 		.ascii	"SmartMotorControllerSetLed\000"
 16142      744D6F74 
 16142      6F72436F 
 16142      6E74726F 
 16142      6C6C6572 
 16143              	.LASF107:
 16144 022f 74566578 		.ascii	"tVexMotorType\000"
 16144      4D6F746F 
 16144      72547970 
 16144      6500
 16145              	.LASF237:
 16146 023d 61637469 		.ascii	"active_motors\000"
 16146      76655F6D 
 16146      6F746F72 
 16146      7300
 16147              	.LASF139:
 16148 024b 6C696D69 		.ascii	"limit_tripped\000"
 16148      745F7472 
 16148      69707065 
 16148      6400
 16149              	.LASF141:
 16150 0259 6C696D69 		.ascii	"limit_current\000"
 16150      745F6375 
 16150      7272656E 
 16150      7400
 16151              	.LASF170:
 16152 0267 6F666673 		.ascii	"offset\000"
 16152      657400
 16153              	.LASF172:
 16154 026e 66617374 		.ascii	"fastpow2\000"
 16154      706F7732 
 16154      00
 16155              	.LASF179:
 16156 0277 536D6172 		.ascii	"SmartMotorTemperature\000"
 16156      744D6F74 
 16156      6F725465 
 16156      6D706572 
 16156      61747572 
 16157              	.LASF203:
 16158 028d 536D6172 		.ascii	"SmartMotorStop\000"
 16158      744D6F74 
 16158      6F725374 
 16158      6F7000
 16159              	.LASF103:
 16160 029c 6B566578 		.ascii	"kVexMotorUndefined\000"
 16160      4D6F746F 
 16160      72556E64 
 16160      6566696E 
 16160      656400
 16161              	.LASF85:
 16162 02af 74566578 		.ascii	"tVexAnalogPin\000"
 16162      416E616C 
 16162      6F675069 
 16162      6E00
 16163              	.LASF191:
 16164 02bd 5F536D61 		.ascii	"_SmartMotorSetLimitCurent\000"
 16164      72744D6F 
ARM GAS  /tmp/ccdUEzgz.s 			page 288


 16164      746F7253 
 16164      65744C69 
 16164      6D697443 
 16165              	.LASF31:
 16166 02d7 705F6E65 		.ascii	"p_newer\000"
 16166      77657200 
 16167              	.LASF206:
 16168 02df 76616C75 		.ascii	"value\000"
 16168      6500
 16169              	.LASF137:
 16170 02e5 6D6F746F 		.ascii	"motor_req\000"
 16170      725F7265 
 16170      7100
 16171              	.LASF201:
 16172 02ef 536D6172 		.ascii	"SmartMotorCurrentMonitorEnable\000"
 16172      744D6F74 
 16172      6F724375 
 16172      7272656E 
 16172      744D6F6E 
 16173              	.LASF183:
 16174 030e 536D6172 		.ascii	"SmartMotorSlewRateTask\000"
 16174      744D6F74 
 16174      6F72536C 
 16174      65775261 
 16174      74655461 
 16175              	.LASF71:
 16176 0325 7264796D 		.ascii	"rdymsg\000"
 16176      736700
 16177              	.LASF16:
 16178 032c 626F6F6C 		.ascii	"bool_t\000"
 16178      5F7400
 16179              	.LASF106:
 16180 0333 6B566578 		.ascii	"kVexMotor393S\000"
 16180      4D6F746F 
 16180      72333933 
 16180      5300
 16181              	.LASF105:
 16182 0341 6B566578 		.ascii	"kVexMotor393T\000"
 16182      4D6F746F 
 16182      72333933 
 16182      5400
 16183              	.LASF17:
 16184 034f 5F426F6F 		.ascii	"_Bool\000"
 16184      6C00
 16185              	.LASF235:
 16186 0355 536D6172 		.ascii	"SmartMotorMonitorPtc\000"
 16186      744D6F74 
 16186      6F724D6F 
 16186      6E69746F 
 16186      72507463 
 16187              	.LASF142:
 16188 036a 656E636F 		.ascii	"encoder_id\000"
 16188      6465725F 
 16188      696400
 16189              	.LASF165:
 16190 0375 6D6F746F 		.ascii	"motors\000"
 16190      727300
ARM GAS  /tmp/ccdUEzgz.s 			page 289


 16191              	.LASF234:
 16192 037c 536D6172 		.ascii	"SmartMotorSafeCommand\000"
 16192      744D6F74 
 16192      6F725361 
 16192      6665436F 
 16192      6D6D616E 
 16193              	.LASF140:
 16194 0392 6C696D69 		.ascii	"limit_cmd\000"
 16194      745F636D 
 16194      6400
 16195              	.LASF152:
 16196 039c 765F6265 		.ascii	"v_bemf_max\000"
 16196      6D665F6D 
 16196      617800
 16197              	.LASF67:
 16198 03a7 4D757465 		.ascii	"Mutex\000"
 16198      7800
 16199              	.LASF164:
 16200 03ad 5F736D61 		.ascii	"_smartController\000"
 16200      7274436F 
 16200      6E74726F 
 16200      6C6C6572 
 16200      00
 16201              	.LASF65:
 16202 03be 725F6375 		.ascii	"r_current\000"
 16202      7272656E 
 16202      7400
 16203              	.LASF33:
 16204 03c8 705F6E61 		.ascii	"p_name\000"
 16204      6D6500
 16205              	.LASF102:
 16206 03cf 6B566578 		.ascii	"kVexDigitalOutput\000"
 16206      44696769 
 16206      74616C4F 
 16206      75747075 
 16206      7400
 16207              	.LASF129:
 16208 03e1 6B496D65 		.ascii	"kImeTotal\000"
 16208      546F7461 
 16208      6C00
 16209              	.LASF46:
 16210 03eb 54687265 		.ascii	"ThreadsQueue\000"
 16210      61647351 
 16210      75657565 
 16210      00
 16211              	.LASF174:
 16212 03f8 536D6172 		.ascii	"SmartMotorPtcMonitorDisable\000"
 16212      744D6F74 
 16212      6F725074 
 16212      634D6F6E 
 16212      69746F72 
 16213              	.LASF177:
 16214 0414 64656C74 		.ascii	"deltaTime\000"
 16214      6154696D 
 16214      6500
 16215              	.LASF9:
 16216 041e 63686172 		.ascii	"char\000"
ARM GAS  /tmp/ccdUEzgz.s 			page 290


 16216      00
 16217              	.LASF178:
 16218 0423 72617465 		.ascii	"rate\000"
 16218      00
 16219              	.LASF63:
 16220 0428 725F6E65 		.ascii	"r_newer\000"
 16220      77657200 
 16221              	.LASF26:
 16222 0430 54687265 		.ascii	"Thread\000"
 16222      616400
 16223              	.LASF181:
 16224 0437 6D6F746F 		.ascii	"motorIndex\000"
 16224      72496E64 
 16224      657800
 16225              	.LASF214:
 16226 0442 5F536D61 		.ascii	"_SmartMotorsAddPowerExtender\000"
 16226      72744D6F 
 16226      746F7273 
 16226      41646450 
 16226      6F776572 
 16227              	.LASF59:
 16228 045f 56544C69 		.ascii	"VTList\000"
 16228      737400
 16229              	.LASF32:
 16230 0466 705F6F6C 		.ascii	"p_older\000"
 16230      64657200 
 16231              	.LASF34:
 16232 046e 705F7374 		.ascii	"p_state\000"
 16232      61746500 
 16233              	.LASF195:
 16234 0476 736C6577 		.ascii	"slew_rate\000"
 16234      5F726174 
 16234      6500
 16235              	.LASF13:
 16236 0480 75696E74 		.ascii	"uint8_t\000"
 16236      385F7400 
 16237              	.LASF168:
 16238 0488 736D6172 		.ascii	"smartMotor\000"
 16238      744D6F74 
 16238      6F7200
 16239              	.LASF241:
 16240 0493 73746174 		.ascii	"status\000"
 16240      757300
 16241              	.LASF45:
 16242 049a 705F6D70 		.ascii	"p_mpool\000"
 16242      6F6F6C00 
 16243              	.LASF43:
 16244 04a2 705F6D74 		.ascii	"p_mtxlist\000"
 16244      786C6973 
 16244      7400
 16245              	.LASF109:
 16246 04ac 6B566578 		.ascii	"kVexMotor_1\000"
 16246      4D6F746F 
 16246      725F3100 
 16247              	.LASF110:
 16248 04b8 6B566578 		.ascii	"kVexMotor_2\000"
 16248      4D6F746F 
ARM GAS  /tmp/ccdUEzgz.s 			page 291


 16248      725F3200 
 16249              	.LASF111:
 16250 04c4 6B566578 		.ascii	"kVexMotor_3\000"
 16250      4D6F746F 
 16250      725F3300 
 16251              	.LASF112:
 16252 04d0 6B566578 		.ascii	"kVexMotor_4\000"
 16252      4D6F746F 
 16252      725F3400 
 16253              	.LASF113:
 16254 04dc 6B566578 		.ascii	"kVexMotor_5\000"
 16254      4D6F746F 
 16254      725F3500 
 16255              	.LASF114:
 16256 04e8 6B566578 		.ascii	"kVexMotor_6\000"
 16256      4D6F746F 
 16256      725F3600 
 16257              	.LASF115:
 16258 04f4 6B566578 		.ascii	"kVexMotor_7\000"
 16258      4D6F746F 
 16258      725F3700 
 16259              	.LASF116:
 16260 0500 6B566578 		.ascii	"kVexMotor_8\000"
 16260      4D6F746F 
 16260      725F3800 
 16261              	.LASF117:
 16262 050c 6B566578 		.ascii	"kVexMotor_9\000"
 16262      4D6F746F 
 16262      725F3900 
 16263              	.LASF76:
 16264 0518 6B566578 		.ascii	"kVexAnalog_1\000"
 16264      416E616C 
 16264      6F675F31 
 16264      00
 16265              	.LASF77:
 16266 0525 6B566578 		.ascii	"kVexAnalog_2\000"
 16266      416E616C 
 16266      6F675F32 
 16266      00
 16267              	.LASF78:
 16268 0532 6B566578 		.ascii	"kVexAnalog_3\000"
 16268      416E616C 
 16268      6F675F33 
 16268      00
 16269              	.LASF79:
 16270 053f 6B566578 		.ascii	"kVexAnalog_4\000"
 16270      416E616C 
 16270      6F675F34 
 16270      00
 16271              	.LASF80:
 16272 054c 6B566578 		.ascii	"kVexAnalog_5\000"
 16272      416E616C 
 16272      6F675F35 
 16272      00
 16273              	.LASF81:
 16274 0559 6B566578 		.ascii	"kVexAnalog_6\000"
 16274      416E616C 
ARM GAS  /tmp/ccdUEzgz.s 			page 292


 16274      6F675F36 
 16274      00
 16275              	.LASF82:
 16276 0566 6B566578 		.ascii	"kVexAnalog_7\000"
 16276      416E616C 
 16276      6F675F37 
 16276      00
 16277              	.LASF83:
 16278 0573 6B566578 		.ascii	"kVexAnalog_8\000"
 16278      416E616C 
 16278      6F675F38 
 16278      00
 16279              	.LASF5:
 16280 0580 6C6F6E67 		.ascii	"long long int\000"
 16280      206C6F6E 
 16280      6720696E 
 16280      7400
 16281              	.LASF233:
 16282 058e 536D6172 		.ascii	"SmartMotorControllerCurrent\000"
 16282      744D6F74 
 16282      6F72436F 
 16282      6E74726F 
 16282      6C6C6572 
 16283              	.LASF193:
 16284 05aa 6D61785F 		.ascii	"max_rpm\000"
 16284      72706D00 
 16285              	.LASF197:
 16286 05b2 536D6172 		.ascii	"SmartMotorGetControllerTemperature\000"
 16286      744D6F74 
 16286      6F724765 
 16286      74436F6E 
 16286      74726F6C 
 16287              	.LASF60:
 16288 05d5 725F7175 		.ascii	"r_queue\000"
 16288      65756500 
 16289              	.LASF160:
 16290 05dd 745F636F 		.ascii	"t_const_2\000"
 16290      6E73745F 
 16290      3200
 16291              	.LASF134:
 16292 05e7 64656C61 		.ascii	"delayTimeMs\000"
 16292      7954696D 
 16292      654D7300 
 16293              	.LASF96:
 16294 05f3 6B566578 		.ascii	"kVexDigital_10\000"
 16294      44696769 
 16294      74616C5F 
 16294      313000
 16295              	.LASF97:
 16296 0602 6B566578 		.ascii	"kVexDigital_11\000"
 16296      44696769 
 16296      74616C5F 
 16296      313100
 16297              	.LASF23:
 16298 0611 6D73675F 		.ascii	"msg_t\000"
 16298      7400
 16299              	.LASF230:
ARM GAS  /tmp/ccdUEzgz.s 			page 293


 16300 0617 695F6261 		.ascii	"i_bar\000"
 16300      7200
 16301              	.LASF227:
 16302 061d 64757479 		.ascii	"duty_on\000"
 16302      5F6F6E00 
 16303              	.LASF223:
 16304 0625 536D6172 		.ascii	"SmartMotorCurrent\000"
 16304      744D6F74 
 16304      6F724375 
 16304      7272656E 
 16304      7400
 16305              	.LASF35:
 16306 0637 705F666C 		.ascii	"p_flags\000"
 16306      61677300 
 16307              	.LASF236:
 16308 063f 536D6172 		.ascii	"SmartMotorControllerMonitorPtc\000"
 16308      744D6F74 
 16308      6F72436F 
 16308      6E74726F 
 16308      6C6C6572 
 16309              	.LASF217:
 16310 065e 536D6172 		.ascii	"SmartMotorSpeed\000"
 16310      744D6F74 
 16310      6F725370 
 16310      65656400 
 16311              	.LASF220:
 16312 066e 7363616C 		.ascii	"scale\000"
 16312      6500
 16313              	.LASF75:
 16314 0674 6B566578 		.ascii	"kVexAnalog_None\000"
 16314      416E616C 
 16314      6F675F4E 
 16314      6F6E6500 
 16315              	.LASF219:
 16316 0684 7370645F 		.ascii	"spd_table\000"
 16316      7461626C 
 16316      6500
 16317              	.LASF216:
 16318 068e 72657665 		.ascii	"reversed\000"
 16318      72736564 
 16318      00
 16319              	.LASF198:
 16320 0697 536D6172 		.ascii	"SmartMotorSetControllerStatusLed\000"
 16320      744D6F74 
 16320      6F725365 
 16320      74436F6E 
 16320      74726F6C 
 16321              	.LASF207:
 16322 06b8 696D6D65 		.ascii	"immediate\000"
 16322      64696174 
 16322      6500
 16323              	.LASF21:
 16324 06c2 74736C69 		.ascii	"tslices_t\000"
 16324      6365735F 
 16324      7400
 16325              	.LASF64:
 16326 06cc 725F6F6C 		.ascii	"r_older\000"
ARM GAS  /tmp/ccdUEzgz.s 			page 294


 16326      64657200 
 16327              	.LASF186:
 16328 06d4 536D6172 		.ascii	"SmartMotorControllerGetPtr\000"
 16328      744D6F74 
 16328      6F72436F 
 16328      6E74726F 
 16328      6C6C6572 
 16329              	.LASF242:
 16330 06ef 536D6172 		.ascii	"SmartMotorTask\000"
 16330      744D6F74 
 16330      6F725461 
 16330      736B00
 16331              	.LASF87:
 16332 06fe 6B566578 		.ascii	"kVexDigital_1\000"
 16332      44696769 
 16332      74616C5F 
 16332      3100
 16333              	.LASF88:
 16334 070c 6B566578 		.ascii	"kVexDigital_2\000"
 16334      44696769 
 16334      74616C5F 
 16334      3200
 16335              	.LASF89:
 16336 071a 6B566578 		.ascii	"kVexDigital_3\000"
 16336      44696769 
 16336      74616C5F 
 16336      3300
 16337              	.LASF90:
 16338 0728 6B566578 		.ascii	"kVexDigital_4\000"
 16338      44696769 
 16338      74616C5F 
 16338      3400
 16339              	.LASF91:
 16340 0736 6B566578 		.ascii	"kVexDigital_5\000"
 16340      44696769 
 16340      74616C5F 
 16340      3500
 16341              	.LASF92:
 16342 0744 6B566578 		.ascii	"kVexDigital_6\000"
 16342      44696769 
 16342      74616C5F 
 16342      3600
 16343              	.LASF93:
 16344 0752 6B566578 		.ascii	"kVexDigital_7\000"
 16344      44696769 
 16344      74616C5F 
 16344      3700
 16345              	.LASF94:
 16346 0760 6B566578 		.ascii	"kVexDigital_8\000"
 16346      44696769 
 16346      74616C5F 
 16346      3800
 16347              	.LASF95:
 16348 076e 6B566578 		.ascii	"kVexDigital_9\000"
 16348      44696769 
 16348      74616C5F 
 16348      3900
ARM GAS  /tmp/ccdUEzgz.s 			page 295


 16349              	.LASF50:
 16350 077c 636F6E74 		.ascii	"context\000"
 16350      65787400 
 16351              	.LASF41:
 16352 0784 705F6D73 		.ascii	"p_msg\000"
 16352      6700
 16353              	.LASF155:
 16354 078a 7065616B 		.ascii	"peak_current\000"
 16354      5F637572 
 16354      72656E74 
 16354      00
 16355              	.LASF205:
 16356 0797 5F536574 		.ascii	"_SetMotor\000"
 16356      4D6F746F 
 16356      7200
 16357              	.LASF18:
 16358 07a1 746D6F64 		.ascii	"tmode_t\000"
 16358      655F7400 
 16359              	.LASF44:
 16360 07a9 705F7265 		.ascii	"p_realprio\000"
 16360      616C7072 
 16360      696F00
 16361              	.LASF163:
 16362 07b4 6C617374 		.ascii	"lastPgmTime\000"
 16362      50676D54 
 16362      696D6500 
 16363              	.LASF149:
 16364 07c0 6C5F6D6F 		.ascii	"l_motor\000"
 16364      746F7200 
 16365              	.LASF12:
 16366 07c8 6C6F6E67 		.ascii	"long double\000"
 16366      20646F75 
 16366      626C6500 
 16367              	.LASF157:
 16368 07d4 74617267 		.ascii	"target_current\000"
 16368      65745F63 
 16368      75727265 
 16368      6E7400
 16369              	.LASF249:
 16370 07e3 43757272 		.ascii	"CurrentLimitEnabled\000"
 16370      656E744C 
 16370      696D6974 
 16370      456E6162 
 16370      6C656400 
 16371              	.LASF150:
 16372 07f7 6B655F6D 		.ascii	"ke_motor\000"
 16372      6F746F72 
 16372      00
 16373              	.LASF49:
 16374 0800 696E7463 		.ascii	"intctx\000"
 16374      747800
 16375              	.LASF199:
 16376 0807 536D6172 		.ascii	"SmartMotorSetPowerExpanderStatusPort\000"
 16376      744D6F74 
 16376      6F725365 
 16376      74506F77 
 16376      65724578 
ARM GAS  /tmp/ccdUEzgz.s 			page 296


 16377              	.LASF121:
 16378 082c 6B496D65 		.ascii	"kImeChannel_1\000"
 16378      4368616E 
 16378      6E656C5F 
 16378      3100
 16379              	.LASF122:
 16380 083a 6B496D65 		.ascii	"kImeChannel_2\000"
 16380      4368616E 
 16380      6E656C5F 
 16380      3200
 16381              	.LASF123:
 16382 0848 6B496D65 		.ascii	"kImeChannel_3\000"
 16382      4368616E 
 16382      6E656C5F 
 16382      3300
 16383              	.LASF124:
 16384 0856 6B496D65 		.ascii	"kImeChannel_4\000"
 16384      4368616E 
 16384      6E656C5F 
 16384      3400
 16385              	.LASF125:
 16386 0864 6B496D65 		.ascii	"kImeChannel_5\000"
 16386      4368616E 
 16386      6E656C5F 
 16386      3500
 16387              	.LASF126:
 16388 0872 6B496D65 		.ascii	"kImeChannel_6\000"
 16388      4368616E 
 16388      6E656C5F 
 16388      3600
 16389              	.LASF127:
 16390 0880 6B496D65 		.ascii	"kImeChannel_7\000"
 16390      4368616E 
 16390      6E656C5F 
 16390      3700
 16391              	.LASF128:
 16392 088e 6B496D65 		.ascii	"kImeChannel_8\000"
 16392      4368616E 
 16392      6E656C5F 
 16392      3800
 16393              	.LASF255:
 16394 089c 2F686F6D 		.ascii	"/home/aolsen/vrc-9999/TossUp-Joker\000"
 16394      652F616F 
 16394      6C73656E 
 16394      2F767263 
 16394      2D393939 
 16395              	.LASF3:
 16396 08bf 73686F72 		.ascii	"short int\000"
 16396      7420696E 
 16396      7400
 16397              	.LASF225:
 16398 08c9 765F6265 		.ascii	"v_bemf\000"
 16398      6D6600
 16399              	.LASF42:
 16400 08d0 705F6570 		.ascii	"p_epending\000"
 16400      656E6469 
 16400      6E6700
ARM GAS  /tmp/ccdUEzgz.s 			page 297


 16401              	.LASF156:
 16402 08db 73616665 		.ascii	"safe_current\000"
 16402      5F637572 
 16402      72656E74 
 16402      00
 16403              	.LASF7:
 16404 08e8 6C6F6E67 		.ascii	"long int\000"
 16404      20696E74 
 16404      00
 16405              	.LASF130:
 16406 08f1 6B496D65 		.ascii	"kImeChannelNone\000"
 16406      4368616E 
 16406      6E656C4E 
 16406      6F6E6500 
 16407              	.LASF252:
 16408 0901 49544D5F 		.ascii	"ITM_RxBuffer\000"
 16408      52784275 
 16408      66666572 
 16408      00
 16409              	.LASF148:
 16410 090e 725F6D6F 		.ascii	"r_motor\000"
 16410      746F7200 
 16411              	.LASF228:
 16412 0916 64757479 		.ascii	"duty_off\000"
 16412      5F6F6666 
 16412      00
 16413              	.LASF180:
 16414 091f 536D6172 		.ascii	"SmartMotorControllerTemperature\000"
 16414      744D6F74 
 16414      6F72436F 
 16414      6E74726F 
 16414      6C6C6572 
 16415              	.LASF27:
 16416 093f 705F6E65 		.ascii	"p_next\000"
 16416      787400
 16417              	.LASF162:
 16418 0946 7074635F 		.ascii	"ptc_tripped\000"
 16418      74726970 
 16418      70656400 
 16419              	.LASF161:
 16420 0952 745F616D 		.ascii	"t_ambient\000"
 16420      6269656E 
 16420      7400
 16421              	.LASF30:
 16422 095c 705F6374 		.ascii	"p_ctx\000"
 16422      7800
 16423              	.LASF232:
 16424 0962 695F7373 		.ascii	"i_ss_off\000"
 16424      5F6F6666 
 16424      00
 16425              	.LASF251:
 16426 096b 726C6973 		.ascii	"rlist\000"
 16426      7400
 16427              	.LASF208:
 16428 0971 536D6172 		.ascii	"SmartMotorsInit\000"
 16428      744D6F74 
 16428      6F727349 
ARM GAS  /tmp/ccdUEzgz.s 			page 298


 16428      6E697400 
 16429              	.LASF52:
 16430 0981 56697274 		.ascii	"VirtualTimer\000"
 16430      75616C54 
 16430      696D6572 
 16430      00
 16431              	.LASF146:
 16432 098e 695F6672 		.ascii	"i_free\000"
 16432      656500
 16433              	.LASF245:
 16434 0995 70655F62 		.ascii	"pe_battery\000"
 16434      61747465 
 16434      727900
 16435              	.LASF86:
 16436 09a0 6B566578 		.ascii	"kVexDigital_None\000"
 16436      44696769 
 16436      74616C5F 
 16436      4E6F6E65 
 16436      00
 16437              	.LASF190:
 16438 09b1 536D6172 		.ascii	"SmartMotorGetLimitCmd\000"
 16438      744D6F74 
 16438      6F724765 
 16438      744C696D 
 16438      6974436D 
 16439              	.LASF169:
 16440 09c7 736D6172 		.ascii	"smartController\000"
 16440      74436F6E 
 16440      74726F6C 
 16440      6C657200 
 16441              	.LASF28:
 16442 09d7 705F7072 		.ascii	"p_prev\000"
 16442      657600
 16443              	.LASF20:
 16444 09de 74726566 		.ascii	"trefs_t\000"
 16444      735F7400 
 16445              	.LASF8:
 16446 09e6 6C6F6E67 		.ascii	"long unsigned int\000"
 16446      20756E73 
 16446      69676E65 
 16446      6420696E 
 16446      7400
 16447              	.LASF40:
 16448 09f8 705F6D73 		.ascii	"p_msgqueue\000"
 16448      67717565 
 16448      756500
 16449              	.LASF210:
 16450 0a03 6D617374 		.ascii	"master\000"
 16450      657200
 16451              	.LASF182:
 16452 0a0a 6D6F746F 		.ascii	"motorTmp\000"
 16452      72546D70 
 16452      00
 16453              	.LASF212:
 16454 0a13 536D6172 		.ascii	"SmartMotorsSetEncoderGearing\000"
 16454      744D6F74 
 16454      6F727353 
ARM GAS  /tmp/ccdUEzgz.s 			page 299


 16454      6574456E 
 16454      636F6465 
 16455              	.LASF14:
 16456 0a30 696E7433 		.ascii	"int32_t\000"
 16456      325F7400 
 16457              	.LASF131:
 16458 0a38 706F7274 		.ascii	"port\000"
 16458      00
 16459              	.LASF104:
 16460 0a3d 6B566578 		.ascii	"kVexMotor269\000"
 16460      4D6F746F 
 16460      72323639 
 16460      00
 16461              	.LASF19:
 16462 0a4a 74737461 		.ascii	"tstate_t\000"
 16462      74655F74 
 16462      00
 16463              	.LASF138:
 16464 0a53 6D6F746F 		.ascii	"motor_slew\000"
 16464      725F736C 
 16464      657700
 16465              	.LASF256:
 16466 0a5e 536D6172 		.ascii	"SmartMotorSensorSpeed\000"
 16466      744D6F74 
 16466      6F725365 
 16466      6E736F72 
 16466      53706565 
 16467              	.LASF133:
 16468 0a74 74797065 		.ascii	"type\000"
 16468      00
 16469              	.LASF2:
 16470 0a79 756E7369 		.ascii	"unsigned char\000"
 16470      676E6564 
 16470      20636861 
 16470      7200
 16471              	.LASF253:
 16472 0a87 474E5520 		.ascii	"GNU C 4.6.3\000"
 16472      4320342E 
 16472      362E3300 
 16473              	.LASF154:
 16474 0a93 66696C74 		.ascii	"filtered_current\000"
 16474      65726564 
 16474      5F637572 
 16474      72656E74 
 16474      00
 16475              	.LASF36:
 16476 0aa4 705F7265 		.ascii	"p_refs\000"
 16476      667300
 16477              	.LASF66:
 16478 0aab 52656164 		.ascii	"ReadyList\000"
 16478      794C6973 
 16478      7400
 16479              	.LASF153:
 16480 0ab5 63757272 		.ascii	"current\000"
 16480      656E7400 
 16481              	.LASF184:
 16482 0abd 536D6172 		.ascii	"SmartMotorGetPtr\000"
ARM GAS  /tmp/ccdUEzgz.s 			page 300


 16482      744D6F74 
 16482      6F724765 
 16482      74507472 
 16482      00
 16483              	.LASF204:
 16484 0ace 536D6172 		.ascii	"SmartMotorDebugStatus\000"
 16484      744D6F74 
 16484      6F724465 
 16484      62756753 
 16484      74617475 
 16485              	.LASF37:
 16486 0ae4 705F7072 		.ascii	"p_preempt\000"
 16486      65656D70 
 16486      7400
 16487              	.LASF171:
 16488 0aee 636C6970 		.ascii	"clipp\000"
 16488      7000
 16489              	.LASF166:
 16490 0af4 73746174 		.ascii	"statusLed\000"
 16490      75734C65 
 16490      6400
 16491              	.LASF175:
 16492 0afe 536D6172 		.ascii	"SmartMotorCurrentMonitorDisable\000"
 16492      744D6F74 
 16492      6F724375 
 16492      7272656E 
 16492      744D6F6E 
 16493              	.LASF53:
 16494 0b1e 76745F6E 		.ascii	"vt_next\000"
 16494      65787400 
 16495              	.LASF229:
 16496 0b26 695F6D61 		.ascii	"i_max\000"
 16496      7800
 16497              	.LASF196:
 16498 0b2c 536D6172 		.ascii	"SmartMotorGetControllerCurrent\000"
 16498      744D6F74 
 16498      6F724765 
 16498      74436F6E 
 16498      74726F6C 
 16499              	.LASF143:
 16500 0b4b 7469636B 		.ascii	"ticks_per_rev\000"
 16500      735F7065 
 16500      725F7265 
 16500      7600
 16501              	.LASF173:
 16502 0b59 66617374 		.ascii	"fastlog2\000"
 16502      6C6F6732 
 16502      00
 16503              	.LASF243:
 16504 0b62 6C6F6F70 		.ascii	"loopDelay\000"
 16504      44656C61 
 16504      7900
 16505              	.LASF189:
 16506 0b6c 536D6172 		.ascii	"SmartMotorGetTemperature\000"
 16506      744D6F74 
 16506      6F724765 
 16506      7454656D 
ARM GAS  /tmp/ccdUEzgz.s 			page 301


 16506      70657261 
 16507              	.LASF135:
 16508 0b85 62616E6B 		.ascii	"bank\000"
 16508      00
 16509              	.LASF70:
 16510 0b8a 6D5F6E65 		.ascii	"m_next\000"
 16510      787400
 16511              	.LASF192:
 16512 0b91 536D6172 		.ascii	"SmartMotorSetFreeRpm\000"
 16512      744D6F74 
 16512      6F725365 
 16512      74467265 
 16512      6552706D 
 16513              	.LASF84:
 16514 0ba6 6B566578 		.ascii	"kVexAnalog_Num\000"
 16514      416E616C 
 16514      6F675F4E 
 16514      756D00
 16515              	.LASF1:
 16516 0bb5 7369676E 		.ascii	"signed char\000"
 16516      65642063 
 16516      68617200 
 16517              	.LASF145:
 16518 0bc1 64656C74 		.ascii	"delta\000"
 16518      6100
 16519              	.LASF231:
 16520 0bc7 695F7373 		.ascii	"i_ss_on\000"
 16520      5F6F6E00 
 16521              	.LASF4:
 16522 0bcf 73686F72 		.ascii	"short unsigned int\000"
 16522      7420756E 
 16522      7369676E 
 16522      65642069 
 16522      6E7400
 16523              	.LASF62:
 16524 0be2 725F6374 		.ascii	"r_ctx\000"
 16524      7800
 16525              	.LASF101:
 16526 0be8 6B566578 		.ascii	"kVexDigitalInput\000"
 16526      44696769 
 16526      74616C49 
 16526      6E707574 
 16526      00
 16527              	.LASF194:
 16528 0bf9 536D6172 		.ascii	"SmartMotorSetSlewRate\000"
 16528      744D6F74 
 16528      6F725365 
 16528      74536C65 
 16528      77526174 
 16529              	.LASF188:
 16530 0c0f 5F536D61 		.ascii	"_SmartMotorGetCurrent\000"
 16530      72744D6F 
 16530      746F7247 
 16530      65744375 
 16530      7272656E 
 16531              	.LASF56:
 16532 0c25 76745F66 		.ascii	"vt_func\000"
ARM GAS  /tmp/ccdUEzgz.s 			page 302


 16532      756E6300 
 16533              	.LASF10:
 16534 0c2d 646F7562 		.ascii	"double\000"
 16534      6C6500
 16535              	.LASF222:
 16536 0c34 66617374 		.ascii	"fastexp\000"
 16536      65787000 
 16537              	.LASF54:
 16538 0c3c 76745F70 		.ascii	"vt_prev\000"
 16538      72657600 
 16539              	.LASF224:
 16540 0c44 765F6261 		.ascii	"v_battery\000"
 16540      74746572 
 16540      7900
 16541              	.LASF215:
 16542 0c4e 5F536D61 		.ascii	"_SmartMotorSetRpmSensor\000"
 16542      72744D6F 
 16542      746F7253 
 16542      65745270 
 16542      6D53656E 
 16543              	.LASF218:
 16544 0c66 536D6172 		.ascii	"SmartMotorSimulateSpeed\000"
 16544      744D6F74 
 16544      6F725369 
 16544      6D756C61 
 16544      74655370 
 16545              	.LASF72:
 16546 0c7e 65786974 		.ascii	"exitcode\000"
 16546      636F6465 
 16546      00
 16547              	.LASF239:
 16548 0c87 536D6172 		.ascii	"SmartMotorMonitorCurrent\000"
 16548      744D6F74 
 16548      6F724D6F 
 16548      6E69746F 
 16548      72437572 
 16549              	.LASF159:
 16550 0ca0 745F636F 		.ascii	"t_const_1\000"
 16550      6E73745F 
 16550      3100
 16551              	.LASF132:
 16552 0caa 65706F72 		.ascii	"eport\000"
 16552      7400
 16553              	.LASF200:
 16554 0cb0 536D6172 		.ascii	"SmartMotorPtcMonitorEnable\000"
 16554      744D6F74 
 16554      6F725074 
 16554      634D6F6E 
 16554      69746F72 
 16555              	.LASF151:
 16556 0ccb 72706D5F 		.ascii	"rpm_free\000"
 16556      66726565 
 16556      00
 16557              		.ident	"GCC: (Sourcery CodeBench Lite 2012.03-56) 4.6.3"
ARM GAS  /tmp/ccdUEzgz.s 			page 303


DEFINED SYMBOLS
                            *ABS*:00000000 smartmotor.c
     /tmp/ccdUEzgz.s:22     .text.SmartMotorSlewRateTask:00000000 $t
     /tmp/ccdUEzgz.s:28     .text.SmartMotorSlewRateTask:00000000 SmartMotorSlewRateTask
     /tmp/ccdUEzgz.s:7644   .rodata.str1.4:00000000 .LC0
     /tmp/ccdUEzgz.s:7623   .bss.sMotors:00000000 .LANCHOR0
     /tmp/ccdUEzgz.s:7637   .bss.CurrentLimitEnabled:00000000 .LANCHOR1
     /tmp/ccdUEzgz.s:7630   .bss.PtcLimitEnabled:00000000 .LANCHOR2
     /tmp/ccdUEzgz.s:604    .text.SmartMotorSlewRateTask:000003c4 $d
     /tmp/ccdUEzgz.s:616    .text.SmartMotorSlewRateTask:000003e4 $t
     /tmp/ccdUEzgz.s:1155   .text.SmartMotorSlewRateTask:000007fc $d
     /tmp/ccdUEzgz.s:1166   .text.SmartMotorSlewRateTask:0000081c $t
     /tmp/ccdUEzgz.s:1705   .text.SmartMotorSlewRateTask:00000ac4 $d
     /tmp/ccdUEzgz.s:1718   .text.SmartMotorSlewRateTask:00000ae4 $t
     /tmp/ccdUEzgz.s:1972   .text.SmartMotorSlewRateTask:00000c7c $d
     /tmp/ccdUEzgz.s:1986   .text.SmartMotorGetPtr:00000000 $t
     /tmp/ccdUEzgz.s:1992   .text.SmartMotorGetPtr:00000000 SmartMotorGetPtr
     /tmp/ccdUEzgz.s:2021   .text.SmartMotorControllerGetPtr:00000000 $t
     /tmp/ccdUEzgz.s:2027   .text.SmartMotorControllerGetPtr:00000000 SmartMotorControllerGetPtr
     /tmp/ccdUEzgz.s:7688   .bss.sPorts:00000000 .LANCHOR3
     /tmp/ccdUEzgz.s:2055   .text.SmartMotorGetSpeed:00000000 $t
     /tmp/ccdUEzgz.s:2061   .text.SmartMotorGetSpeed:00000000 SmartMotorGetSpeed
     /tmp/ccdUEzgz.s:2093   .text._SmartMotorGetCurrent:00000000 $t
     /tmp/ccdUEzgz.s:2099   .text._SmartMotorGetCurrent:00000000 _SmartMotorGetCurrent
     /tmp/ccdUEzgz.s:2154   .text.SmartMotorGetTemperature:00000000 $t
     /tmp/ccdUEzgz.s:2160   .text.SmartMotorGetTemperature:00000000 SmartMotorGetTemperature
     /tmp/ccdUEzgz.s:2192   .text.SmartMotorGetLimitCmd:00000000 $t
     /tmp/ccdUEzgz.s:2198   .text.SmartMotorGetLimitCmd:00000000 SmartMotorGetLimitCmd
     /tmp/ccdUEzgz.s:2230   .text._SmartMotorSetLimitCurent:00000000 $t
     /tmp/ccdUEzgz.s:2236   .text._SmartMotorSetLimitCurent:00000000 _SmartMotorSetLimitCurent
     /tmp/ccdUEzgz.s:2278   .text.SmartMotorSetFreeRpm:00000000 $t
     /tmp/ccdUEzgz.s:2284   .text.SmartMotorSetFreeRpm:00000000 SmartMotorSetFreeRpm
     /tmp/ccdUEzgz.s:2358   .text.SmartMotorSetFreeRpm:00000070 $d
     /tmp/ccdUEzgz.s:2364   .text.SmartMotorSetSlewRate:00000000 $t
     /tmp/ccdUEzgz.s:2370   .text.SmartMotorSetSlewRate:00000000 SmartMotorSetSlewRate
     /tmp/ccdUEzgz.s:2399   .text.SmartMotorGetControllerCurrent:00000000 $t
     /tmp/ccdUEzgz.s:2405   .text.SmartMotorGetControllerCurrent:00000000 SmartMotorGetControllerCurrent
     /tmp/ccdUEzgz.s:2434   .text.SmartMotorGetControllerTemperature:00000000 $t
     /tmp/ccdUEzgz.s:2440   .text.SmartMotorGetControllerTemperature:00000000 SmartMotorGetControllerTemperature
     /tmp/ccdUEzgz.s:2469   .text.SmartMotorSetControllerStatusLed:00000000 $t
     /tmp/ccdUEzgz.s:2475   .text.SmartMotorSetControllerStatusLed:00000000 SmartMotorSetControllerStatusLed
     /tmp/ccdUEzgz.s:2503   .text.SmartMotorSetPowerExpanderStatusPort:00000000 $t
     /tmp/ccdUEzgz.s:2509   .text.SmartMotorSetPowerExpanderStatusPort:00000000 SmartMotorSetPowerExpanderStatusPort
     /tmp/ccdUEzgz.s:2530   .text.SmartMotorPtcMonitorEnable:00000000 $t
     /tmp/ccdUEzgz.s:2536   .text.SmartMotorPtcMonitorEnable:00000000 SmartMotorPtcMonitorEnable
     /tmp/ccdUEzgz.s:2565   .text.SmartMotorPtcMonitorDisable:00000000 $t
     /tmp/ccdUEzgz.s:2571   .text.SmartMotorPtcMonitorDisable:00000000 SmartMotorPtcMonitorDisable
     /tmp/ccdUEzgz.s:2589   .text.SmartMotorCurrentMonitorEnable:00000000 $t
     /tmp/ccdUEzgz.s:2595   .text.SmartMotorCurrentMonitorEnable:00000000 SmartMotorCurrentMonitorEnable
     /tmp/ccdUEzgz.s:2624   .text.SmartMotorCurrentMonitorDisable:00000000 $t
     /tmp/ccdUEzgz.s:2630   .text.SmartMotorCurrentMonitorDisable:00000000 SmartMotorCurrentMonitorDisable
     /tmp/ccdUEzgz.s:2648   .text.SmartMotorRun:00000000 $t
     /tmp/ccdUEzgz.s:2654   .text.SmartMotorRun:00000000 SmartMotorRun
     /tmp/ccdUEzgz.s:7015   .text.SmartMotorTask:00000000 SmartMotorTask
     /tmp/ccdUEzgz.s:2686   .text.SmartMotorStop:00000000 $t
     /tmp/ccdUEzgz.s:2692   .text.SmartMotorStop:00000000 SmartMotorStop
     /tmp/ccdUEzgz.s:2756   .text.SmartMotorDebugStatus:00000000 $t
ARM GAS  /tmp/ccdUEzgz.s 			page 304


     /tmp/ccdUEzgz.s:2762   .text.SmartMotorDebugStatus:00000000 SmartMotorDebugStatus
     /tmp/ccdUEzgz.s:7647   .rodata.str1.4:0000000c .LC1
     /tmp/ccdUEzgz.s:7650   .rodata.str1.4:00000024 .LC2
     /tmp/ccdUEzgz.s:7653   .rodata.str1.4:00000034 .LC3
     /tmp/ccdUEzgz.s:7655   .rodata.str1.4:00000040 .LC4
     /tmp/ccdUEzgz.s:7657   .rodata.str1.4:0000004c .LC5
     /tmp/ccdUEzgz.s:7660   .rodata.str1.4:00000050 .LC6
     /tmp/ccdUEzgz.s:7662   .rodata.str1.4:00000068 .LC7
     /tmp/ccdUEzgz.s:7665   .rodata.str1.4:00000080 .LC8
     /tmp/ccdUEzgz.s:3483   .text._SetMotor:00000000 $t
     /tmp/ccdUEzgz.s:3489   .text._SetMotor:00000000 _SetMotor
     /tmp/ccdUEzgz.s:3569   .text.SmartMotorsInit:00000000 $t
     /tmp/ccdUEzgz.s:3575   .text.SmartMotorsInit:00000000 SmartMotorsInit
     /tmp/ccdUEzgz.s:4060   .text.SmartMotorsInit:000002e0 $d
     /tmp/ccdUEzgz.s:4065   .text.SmartMotorLinkMotors:00000000 $t
     /tmp/ccdUEzgz.s:4071   .text.SmartMotorLinkMotors:00000000 SmartMotorLinkMotors
     /tmp/ccdUEzgz.s:4143   .text.SmartMotorsSetEncoderGearing:00000000 $t
     /tmp/ccdUEzgz.s:4149   .text.SmartMotorsSetEncoderGearing:00000000 SmartMotorsSetEncoderGearing
     /tmp/ccdUEzgz.s:4191   .text._SmartMotorsAddPowerExtender:00000000 $t
     /tmp/ccdUEzgz.s:4197   .text._SmartMotorsAddPowerExtender:00000000 _SmartMotorsAddPowerExtender
     /tmp/ccdUEzgz.s:4785   .text._SmartMotorSetRpmSensor:00000000 $t
     /tmp/ccdUEzgz.s:4791   .text._SmartMotorSetRpmSensor:00000000 _SmartMotorSetRpmSensor
     /tmp/ccdUEzgz.s:4852   .text.SmartMotorSpeed:00000000 $t
     /tmp/ccdUEzgz.s:4858   .text.SmartMotorSpeed:00000000 SmartMotorSpeed
     /tmp/ccdUEzgz.s:4935   .text.SmartMotorSpeed:00000078 $d
     /tmp/ccdUEzgz.s:4942   .text.SmartMotorSimulateSpeed:00000000 $t
     /tmp/ccdUEzgz.s:4948   .text.SmartMotorSimulateSpeed:00000000 SmartMotorSimulateSpeed
     /tmp/ccdUEzgz.s:7672   .rodata.spd_table.8582:00000000 .LANCHOR4
     /tmp/ccdUEzgz.s:5081   .text.SmartMotorSimulateSpeed:000000d0 $d
     /tmp/ccdUEzgz.s:5094   .text.SmartMotorCurrent:00000000 $t
     /tmp/ccdUEzgz.s:5100   .text.SmartMotorCurrent:00000000 SmartMotorCurrent
     /tmp/ccdUEzgz.s:5532   .text.SmartMotorCurrent:00000310 $d
     /tmp/ccdUEzgz.s:5539   .text.SmartMotorCurrent:00000320 $t
     /tmp/ccdUEzgz.s:5902   .text.SmartMotorCurrent:00000530 $d
     /tmp/ccdUEzgz.s:5912   .text.SmartMotorControllerCurrent:00000000 $t
     /tmp/ccdUEzgz.s:5918   .text.SmartMotorControllerCurrent:00000000 SmartMotorControllerCurrent
     /tmp/ccdUEzgz.s:6048   .text.SmartMotorSafeCommand:00000000 $t
     /tmp/ccdUEzgz.s:6054   .text.SmartMotorSafeCommand:00000000 SmartMotorSafeCommand
     /tmp/ccdUEzgz.s:6256   .text.SmartMotorSafeCommand:00000180 $d
     /tmp/ccdUEzgz.s:6264   .text.SmartMotorTemperature:00000000 $t
     /tmp/ccdUEzgz.s:6270   .text.SmartMotorTemperature:00000000 SmartMotorTemperature
     /tmp/ccdUEzgz.s:6328   .text.SmartMotorControllerTemperature:00000000 $t
     /tmp/ccdUEzgz.s:6334   .text.SmartMotorControllerTemperature:00000000 SmartMotorControllerTemperature
     /tmp/ccdUEzgz.s:6392   .text.SmartMotorMonitorPtc:00000000 $t
     /tmp/ccdUEzgz.s:6398   .text.SmartMotorMonitorPtc:00000000 SmartMotorMonitorPtc
     /tmp/ccdUEzgz.s:6476   .text.SmartMotorControllerMonitorPtc:00000000 $t
     /tmp/ccdUEzgz.s:6482   .text.SmartMotorControllerMonitorPtc:00000000 SmartMotorControllerMonitorPtc
     /tmp/ccdUEzgz.s:6806   .text.SmartMotorControllerMonitorPtc:000001e0 $d
     /tmp/ccdUEzgz.s:6814   .text.SmartMotorMonitorCurrent:00000000 $t
     /tmp/ccdUEzgz.s:6820   .text.SmartMotorMonitorCurrent:00000000 SmartMotorMonitorCurrent
     /tmp/ccdUEzgz.s:6895   .text.SmartMotorMonitorCurrent:00000070 $d
     /tmp/ccdUEzgz.s:6901   .text.SmartMotorControllerSetLed:00000000 $t
     /tmp/ccdUEzgz.s:6907   .text.SmartMotorControllerSetLed:00000000 SmartMotorControllerSetLed
     /tmp/ccdUEzgz.s:7009   .text.SmartMotorTask:00000000 $t
     /tmp/ccdUEzgz.s:7668   .rodata.str1.4:00000098 .LC9
     /tmp/ccdUEzgz.s:7616   .data.delayTimeMs.8667:00000000 .LANCHOR5
     /tmp/ccdUEzgz.s:7510   .text.SmartMotorTask:00000318 $d
ARM GAS  /tmp/ccdUEzgz.s 			page 305


     /tmp/ccdUEzgz.s:7521   .text.SmartMotorTask:00000330 $t
     /tmp/ccdUEzgz.s:7606   .text.SmartMotorTask:000003d0 $d
     /tmp/ccdUEzgz.s:7615   .data.delayTimeMs.8667:00000000 $d
     /tmp/ccdUEzgz.s:7619   .data.delayTimeMs.8667:00000000 delayTimeMs.8667
     /tmp/ccdUEzgz.s:7622   .bss.sMotors:00000000 $d
     /tmp/ccdUEzgz.s:7626   .bss.sMotors:00000000 sMotors
     /tmp/ccdUEzgz.s:7629   .bss.PtcLimitEnabled:00000000 $d
     /tmp/ccdUEzgz.s:7633   .bss.PtcLimitEnabled:00000000 PtcLimitEnabled
     /tmp/ccdUEzgz.s:7636   .bss.CurrentLimitEnabled:00000000 $d
     /tmp/ccdUEzgz.s:7640   .bss.CurrentLimitEnabled:00000000 CurrentLimitEnabled
     /tmp/ccdUEzgz.s:7643   .rodata.str1.4:00000000 $d
     /tmp/ccdUEzgz.s:7671   .rodata.spd_table.8582:00000000 $d
     /tmp/ccdUEzgz.s:7675   .rodata.spd_table.8582:00000000 spd_table.8582
     /tmp/ccdUEzgz.s:7687   .bss.sPorts:00000000 $d
     /tmp/ccdUEzgz.s:7691   .bss.sPorts:00000000 sPorts
                     .debug_frame:00000010 $d
     /tmp/ccdUEzgz.s:1985   .text.SmartMotorSlewRateTask:00000c9c $t
     /tmp/ccdUEzgz.s:2363   .text.SmartMotorSetFreeRpm:00000078 $t
     /tmp/ccdUEzgz.s:4064   .text.SmartMotorsInit:000002e4 $t
     /tmp/ccdUEzgz.s:5093   .text.SmartMotorSimulateSpeed:000000d8 $t
     /tmp/ccdUEzgz.s:6813   .text.SmartMotorControllerMonitorPtc:000001e8 $t
     /tmp/ccdUEzgz.s:6900   .text.SmartMotorMonitorCurrent:00000078 $t

UNDEFINED SYMBOLS
__aeabi_i2f
__aeabi_fcmpeq
__aeabi_fcmpgt
rlist
vexTaskRegisterPersistant
vexMotorSet
vexMotorGet
vexSleep
__aeabi_fdiv
__aeabi_fsub
__aeabi_f2d
__aeabi_dmul
__aeabi_ddiv
__aeabi_d2f
__aeabi_fmul
StartTaskWithPriority
StopTask
vex_printf
vexMotorEncoderIdGet
vexMotorTypeGet
vexMotorPositionGet
__aeabi_i2d
__aeabi_fadd
__aeabi_fcmplt
__aeabi_f2iz
__aeabi_f2uiz
__aeabi_dadd
__aeabi_ui2f
__aeabi_fcmpge
__aeabi_d2iz
__aeabi_fcmple
__aeabi_dsub
__aeabi_dcmpgt
ARM GAS  /tmp/ccdUEzgz.s 			page 306


__aeabi_dcmplt
vexDigitalPinSet
vtlist
vexSpiGetMainBattery
vexAdcGet
