ARM GAS  /tmp/ccdUEzgz.s 			page 1


   1              		.syntax unified
   2              		.cpu cortex-m3
   3              		.fpu softvfp
   4              		.eabi_attribute 20, 1
   5              		.eabi_attribute 21, 1
   6              		.eabi_attribute 23, 3
   7              		.eabi_attribute 24, 1
   8              		.eabi_attribute 25, 1
   9              		.eabi_attribute 26, 1
  10              		.eabi_attribute 30, 2
  11              		.eabi_attribute 34, 1
  12              		.eabi_attribute 18, 4
  13              		.thumb
  14              		.file	"smartmotor.c"
  15              		.text
  16              	.Ltext0:
  17              		.cfi_sections	.debug_frame
  18              		.global	__aeabi_i2f
  19              		.global	__aeabi_fcmpeq
  20              		.global	__aeabi_fcmpgt
  21              		.section	.text.SmartMotorSlewRateTask,"ax",%progbits
  22              		.align	2
  23              		.p2align 4,,15
  24              		.global	SmartMotorSlewRateTask
  25              		.thumb
  26              		.thumb_func
  27              		.type	SmartMotorSlewRateTask, %function
  28              	SmartMotorSlewRateTask:
  29              	.LFB108:
  30              		.file 1 "../convex/cortex/opt/smartmotor.c"
  31              		.loc 1 1592 0
  32              		.cfi_startproc
  33              		@ args = 0, pretend = 0, frame = 24
  34              		@ frame_needed = 0, uses_anonymous_args = 0
  35              	.LVL0:
  36 0000 2DE9F04F 		push	{r4, r5, r6, r7, r8, r9, sl, fp, lr}
  37              	.LCFI0:
  38              		.cfi_def_cfa_offset 36
  39              		.cfi_offset 14, -4
  40              		.cfi_offset 11, -8
  41              		.cfi_offset 10, -12
  42              		.cfi_offset 9, -16
  43              		.cfi_offset 8, -20
  44              		.cfi_offset 7, -24
  45              		.cfi_offset 6, -28
  46              		.cfi_offset 5, -32
  47              		.cfi_offset 4, -36
  48              		.loc 1 1601 0
  49 0004 40F20000 		movw	r0, #:lower16:.LC0
  50              	.LVL1:
  51              		.loc 1 1613 0
  52 0008 40F20002 		movw	r2, #:lower16:rlist
  53              		.loc 1 1592 0
  54 000c 87B0     		sub	sp, sp, #28
  55              	.LCFI1:
  56              		.cfi_def_cfa_offset 64
  57              		.loc 1 1601 0
ARM GAS  /tmp/ccdUEzgz.s 			page 2


  58 000e 0121     		movs	r1, #1
  59              		.loc 1 1613 0
  60 0010 C0F20002 		movt	r2, #:upper16:rlist
  61              		.loc 1 1601 0
  62 0014 C0F20000 		movt	r0, #:upper16:.LC0
  63              		.loc 1 1606 0
  64 0018 40F20005 		movw	r5, #:lower16:.LANCHOR0
  65 001c C0F20005 		movt	r5, #:upper16:.LANCHOR0
  66              		.loc 1 1613 0
  67 0020 0592     		str	r2, [sp, #20]
  68              		.loc 1 1601 0
  69 0022 FFF7FEFF 		bl	vexTaskRegisterPersistant
  70              	.LVL2:
  71              		.loc 1 1607 0
  72 0026 0022     		movs	r2, #0
  73 0028 0020     		movs	r0, #0
  74              		.loc 1 1609 0
  75 002a 0A21     		movs	r1, #10
  76              		.loc 1 1607 0
  77 002c A5F88A20 		strh	r2, [r5, #138]	@ movhi
  78              		.loc 1 1608 0
  79 0030 A5F88820 		strh	r2, [r5, #136]	@ movhi
  80              		.loc 1 1609 0
  81 0034 A5F88C10 		strh	r1, [r5, #140]	@ movhi
  82              		.loc 1 1607 0
  83 0038 A5F80601 		strh	r0, [r5, #262]	@ movhi
  84 003c 0021     		movs	r1, #0
  85              		.loc 1 1608 0
  86 003e A5F80401 		strh	r0, [r5, #260]	@ movhi
  87              		.loc 1 1609 0
  88 0042 0A22     		movs	r2, #10
  89 0044 0A20     		movs	r0, #10
  90 0046 A5F80821 		strh	r2, [r5, #264]	@ movhi
  91              		.loc 1 1607 0
  92 004a A5F88211 		strh	r1, [r5, #386]	@ movhi
  93 004e 0022     		movs	r2, #0
  94              		.loc 1 1608 0
  95 0050 A5F88011 		strh	r1, [r5, #384]	@ movhi
  96              		.loc 1 1609 0
  97 0054 A5F88401 		strh	r0, [r5, #388]	@ movhi
  98 0058 0A21     		movs	r1, #10
  99              		.loc 1 1607 0
 100 005a 0020     		movs	r0, #0
 101 005c A5F8FE21 		strh	r2, [r5, #510]	@ movhi
 102              		.loc 1 1608 0
 103 0060 A5F8FC21 		strh	r2, [r5, #508]	@ movhi
 104              		.loc 1 1609 0
 105 0064 A5F80012 		strh	r1, [r5, #512]	@ movhi
 106              		.loc 1 1607 0
 107 0068 A5F87A02 		strh	r0, [r5, #634]	@ movhi
 108 006c 0021     		movs	r1, #0
 109              		.loc 1 1608 0
 110 006e A5F87802 		strh	r0, [r5, #632]	@ movhi
 111              		.loc 1 1609 0
 112 0072 0A22     		movs	r2, #10
 113 0074 0A20     		movs	r0, #10
 114              		.loc 1 1613 0
ARM GAS  /tmp/ccdUEzgz.s 			page 3


 115 0076 059B     		ldr	r3, [sp, #20]
 116              		.loc 1 1609 0
 117 0078 A5F87C22 		strh	r2, [r5, #636]	@ movhi
 118              		.loc 1 1607 0
 119 007c A5F8F612 		strh	r1, [r5, #758]	@ movhi
 120 0080 0022     		movs	r2, #0
 121              		.loc 1 1608 0
 122 0082 A5F8F412 		strh	r1, [r5, #756]	@ movhi
 123              		.loc 1 1609 0
 124 0086 A5F8F802 		strh	r0, [r5, #760]	@ movhi
 125 008a 0A21     		movs	r1, #10
 126              		.loc 1 1607 0
 127 008c 0020     		movs	r0, #0
 128 008e A5F87223 		strh	r2, [r5, #882]	@ movhi
 129              		.loc 1 1608 0
 130 0092 A5F87023 		strh	r2, [r5, #880]	@ movhi
 131              		.loc 1 1609 0
 132 0096 A5F87413 		strh	r1, [r5, #884]	@ movhi
 133              		.loc 1 1607 0
 134 009a A5F8EE03 		strh	r0, [r5, #1006]	@ movhi
 135 009e 0021     		movs	r1, #0
 136              		.loc 1 1608 0
 137 00a0 A5F8EC03 		strh	r0, [r5, #1004]	@ movhi
 138              		.loc 1 1609 0
 139 00a4 0A22     		movs	r2, #10
 140 00a6 0A20     		movs	r0, #10
 141              		.loc 1 1613 0
 142 00a8 9B69     		ldr	r3, [r3, #24]
 143              		.loc 1 1609 0
 144 00aa A5F8F023 		strh	r2, [r5, #1008]	@ movhi
 145              		.loc 1 1607 0
 146 00ae A5F86A14 		strh	r1, [r5, #1130]	@ movhi
 147              		.loc 1 1608 0
 148 00b2 A5F86814 		strh	r1, [r5, #1128]	@ movhi
 149              		.loc 1 1609 0
 150 00b6 A5F86C04 		strh	r0, [r5, #1132]	@ movhi
 151              		.loc 1 1607 0
 152 00ba 0021     		movs	r1, #0
 153              		.loc 1 1606 0
 154 00bc 05F58A62 		add	r2, r5, #1104
 155              		.loc 1 1609 0
 156 00c0 0A20     		movs	r0, #10
 157              		.loc 1 1613 0
 158 00c2 5B7F     		ldrb	r3, [r3, #29]	@ zero_extendqisi2
 159              		.loc 1 1606 0
 160 00c4 0292     		str	r2, [sp, #8]
 161              		.loc 1 1607 0
 162 00c6 E981     		strh	r1, [r5, #14]	@ movhi
 163              		.loc 1 1608 0
 164 00c8 A981     		strh	r1, [r5, #12]	@ movhi
 165              		.loc 1 1609 0
 166 00ca 2882     		strh	r0, [r5, #16]	@ movhi
 167              	.LVL3:
 168              		.loc 1 1606 0
 169 00cc 029A     		ldr	r2, [sp, #8]
 170 00ce 0C32     		adds	r2, r2, #12
 171 00d0 0292     		str	r2, [sp, #8]
ARM GAS  /tmp/ccdUEzgz.s 			page 4


 172              	.LVL4:
 173              		.loc 1 1613 0
 174 00d2 5A07     		lsls	r2, r3, #29
 175              	.LVL5:
 176 00d4 00F19B85 		bmi	.L3
 177              		.loc 1 1628 0
 178 00d8 40F20006 		movw	r6, #:lower16:.LANCHOR1
 179 00dc 40F20004 		movw	r4, #:lower16:.LANCHOR2
 180 00e0 C0F20006 		movt	r6, #:upper16:.LANCHOR1
 181 00e4 C0F20004 		movt	r4, #:upper16:.LANCHOR2
 182 00e8 0396     		str	r6, [sp, #12]
 183 00ea ADE1     		b	.L2
 184              	.LVL6:
 185              	.L312:
 186 00ec 0399     		ldr	r1, [sp, #12]
 187 00ee B1F90070 		ldrsh	r7, [r1, #0]
 188 00f2 002F     		cmp	r7, #0
 189 00f4 40F0B381 		bne	.L16
 190              	.L19:
 191              		.loc 1 1641 0
 192 00f8 AA89     		ldrh	r2, [r5, #12]
 193 00fa EA81     		strh	r2, [r5, #14]	@ movhi
 194 00fc 17B2     		sxth	r7, r2
 195              	.LVL7:
 196              	.L18:
 197              		.loc 1 1644 0
 198 00fe BE42     		cmp	r6, r7
 199 0100 0FD0     		beq	.L30
 200              		.loc 1 1647 0
 201 0102 80F22F83 		bge	.L303
 202              		.loc 1 1649 0
 203 0106 B5F910C0 		ldrsh	ip, [r5, #16]
 204 010a 0CEB0600 		add	r0, ip, r6
 205              	.LVL8:
 206 010e 8742     		cmp	r7, r0
 207 0110 B4BF     		ite	lt
 208 0112 B946     		movlt	r9, r7
 209 0114 8146     		movge	r9, r0
 210              	.LVL9:
 211              	.L33:
 212              		.loc 1 1665 0
 213 0116 95F90000 		ldrsb	r0, [r5, #0]
 214 011a 0FFA89F1 		sxth	r1, r9
 215 011e FFF7FEFF 		bl	vexMotorSet
 216              	.L30:
 217              	.LVL10:
 218              		.loc 1 1625 0
 219 0122 A84F     		ldr	r7, .L313
 220 0124 97F90000 		ldrsb	r0, [r7, #0]
 221 0128 FFF7FEFF 		bl	vexMotorGet
 222              		.loc 1 1628 0
 223 012c B4F90020 		ldrsh	r2, [r4, #0]
 224              		.loc 1 1625 0
 225 0130 0646     		mov	r6, r0
 226 0132 8146     		mov	r9, r0
 227              	.LVL11:
 228              		.loc 1 1628 0
ARM GAS  /tmp/ccdUEzgz.s 			page 5


 229 0134 002A     		cmp	r2, #0
 230 0136 40F07082 		bne	.L34
 231 013a 0398     		ldr	r0, [sp, #12]
 232              	.LVL12:
 233 013c B0F90030 		ldrsh	r3, [r0, #0]
 234 0140 002B     		cmp	r3, #0
 235 0142 40F06A82 		bne	.L34
 236              	.L37:
 237              		.loc 1 1641 0
 238 0146 9F4B     		ldr	r3, .L313
 239 0148 9989     		ldrh	r1, [r3, #12]
 240 014a D981     		strh	r1, [r3, #14]	@ movhi
 241 014c 0FB2     		sxth	r7, r1
 242              	.L36:
 243              		.loc 1 1644 0
 244 014e BE42     		cmp	r6, r7
 245 0150 11D0     		beq	.L48
 246              		.loc 1 1647 0
 247 0152 80F21183 		bge	.L304
 248              		.loc 1 1649 0
 249 0156 9B4A     		ldr	r2, .L313
 250 0158 B2F91090 		ldrsh	r9, [r2, #16]
 251 015c 09EB0600 		add	r0, r9, r6
 252              	.LVL13:
 253 0160 8742     		cmp	r7, r0
 254 0162 B4BF     		ite	lt
 255 0164 B946     		movlt	r9, r7
 256 0166 8146     		movge	r9, r0
 257              	.LVL14:
 258              	.L51:
 259              		.loc 1 1665 0
 260 0168 964E     		ldr	r6, .L313
 261 016a 0FFA89F1 		sxth	r1, r9
 262 016e 96F90000 		ldrsb	r0, [r6, #0]
 263 0172 FFF7FEFF 		bl	vexMotorSet
 264              	.L48:
 265              	.LVL15:
 266              		.loc 1 1625 0
 267 0176 944E     		ldr	r6, .L313+4
 268 0178 96F90000 		ldrsb	r0, [r6, #0]
 269 017c FFF7FEFF 		bl	vexMotorGet
 270              		.loc 1 1628 0
 271 0180 B4F90070 		ldrsh	r7, [r4, #0]
 272              		.loc 1 1625 0
 273 0184 0646     		mov	r6, r0
 274 0186 8146     		mov	r9, r0
 275              	.LVL16:
 276              		.loc 1 1628 0
 277 0188 002F     		cmp	r7, #0
 278 018a 40F07E82 		bne	.L52
 279 018e 0398     		ldr	r0, [sp, #12]
 280              	.LVL17:
 281 0190 B0F90030 		ldrsh	r3, [r0, #0]
 282 0194 002B     		cmp	r3, #0
 283 0196 40F07882 		bne	.L52
 284              	.L55:
 285              		.loc 1 1641 0
ARM GAS  /tmp/ccdUEzgz.s 			page 6


 286 019a 8B4B     		ldr	r3, .L313+4
 287 019c 9989     		ldrh	r1, [r3, #12]
 288 019e D981     		strh	r1, [r3, #14]	@ movhi
 289 01a0 0FB2     		sxth	r7, r1
 290              	.L54:
 291              		.loc 1 1644 0
 292 01a2 BE42     		cmp	r6, r7
 293 01a4 11D0     		beq	.L66
 294              		.loc 1 1647 0
 295 01a6 80F2F282 		bge	.L305
 296              		.loc 1 1649 0
 297 01aa 874A     		ldr	r2, .L313+4
 298 01ac B2F910E0 		ldrsh	lr, [r2, #16]
 299 01b0 0EEB0600 		add	r0, lr, r6
 300              	.LVL18:
 301 01b4 8742     		cmp	r7, r0
 302 01b6 B4BF     		ite	lt
 303 01b8 B946     		movlt	r9, r7
 304 01ba 8146     		movge	r9, r0
 305              	.LVL19:
 306              	.L69:
 307              		.loc 1 1665 0
 308 01bc 824E     		ldr	r6, .L313+4
 309 01be 0FFA89F1 		sxth	r1, r9
 310 01c2 96F90000 		ldrsb	r0, [r6, #0]
 311 01c6 FFF7FEFF 		bl	vexMotorSet
 312              	.L66:
 313              	.LVL20:
 314              		.loc 1 1625 0
 315 01ca 804E     		ldr	r6, .L313+8
 316 01cc 96F90000 		ldrsb	r0, [r6, #0]
 317 01d0 FFF7FEFF 		bl	vexMotorGet
 318              		.loc 1 1628 0
 319 01d4 B4F90070 		ldrsh	r7, [r4, #0]
 320              		.loc 1 1625 0
 321 01d8 0646     		mov	r6, r0
 322 01da 8146     		mov	r9, r0
 323              	.LVL21:
 324              		.loc 1 1628 0
 325 01dc 002F     		cmp	r7, #0
 326 01de 40F00082 		bne	.L70
 327 01e2 0398     		ldr	r0, [sp, #12]
 328              	.LVL22:
 329 01e4 B0F90030 		ldrsh	r3, [r0, #0]
 330 01e8 002B     		cmp	r3, #0
 331 01ea 40F0FA81 		bne	.L70
 332              	.L73:
 333              		.loc 1 1641 0
 334 01ee 774B     		ldr	r3, .L313+8
 335 01f0 9989     		ldrh	r1, [r3, #12]
 336 01f2 D981     		strh	r1, [r3, #14]	@ movhi
 337 01f4 0FB2     		sxth	r7, r1
 338              	.L72:
 339              		.loc 1 1644 0
 340 01f6 BE42     		cmp	r6, r7
 341 01f8 11D0     		beq	.L84
 342              		.loc 1 1647 0
ARM GAS  /tmp/ccdUEzgz.s 			page 7


 343 01fa 80F2D382 		bge	.L306
 344              		.loc 1 1649 0
 345 01fe 734A     		ldr	r2, .L313+8
 346 0200 B2F910C0 		ldrsh	ip, [r2, #16]
 347 0204 0CEB0600 		add	r0, ip, r6
 348              	.LVL23:
 349 0208 8742     		cmp	r7, r0
 350 020a B4BF     		ite	lt
 351 020c B946     		movlt	r9, r7
 352 020e 8146     		movge	r9, r0
 353              	.LVL24:
 354              	.L87:
 355              		.loc 1 1665 0
 356 0210 6E4E     		ldr	r6, .L313+8
 357 0212 0FFA89F1 		sxth	r1, r9
 358 0216 96F90000 		ldrsb	r0, [r6, #0]
 359 021a FFF7FEFF 		bl	vexMotorSet
 360              	.L84:
 361              	.LVL25:
 362              		.loc 1 1625 0
 363 021e 6C4E     		ldr	r6, .L313+12
 364 0220 96F90000 		ldrsb	r0, [r6, #0]
 365 0224 FFF7FEFF 		bl	vexMotorGet
 366              		.loc 1 1628 0
 367 0228 B4F90070 		ldrsh	r7, [r4, #0]
 368              		.loc 1 1625 0
 369 022c 0646     		mov	r6, r0
 370 022e 8146     		mov	r9, r0
 371              	.LVL26:
 372              		.loc 1 1628 0
 373 0230 002F     		cmp	r7, #0
 374 0232 40F04682 		bne	.L88
 375 0236 0398     		ldr	r0, [sp, #12]
 376              	.LVL27:
 377 0238 B0F90030 		ldrsh	r3, [r0, #0]
 378 023c 002B     		cmp	r3, #0
 379 023e 40F04082 		bne	.L88
 380              	.L91:
 381              		.loc 1 1641 0
 382 0242 634B     		ldr	r3, .L313+12
 383 0244 9989     		ldrh	r1, [r3, #12]
 384 0246 D981     		strh	r1, [r3, #14]	@ movhi
 385 0248 0FB2     		sxth	r7, r1
 386              	.L90:
 387              		.loc 1 1644 0
 388 024a BE42     		cmp	r6, r7
 389 024c 11D0     		beq	.L102
 390              		.loc 1 1647 0
 391 024e 80F2B482 		bge	.L307
 392              		.loc 1 1649 0
 393 0252 5F4A     		ldr	r2, .L313+12
 394 0254 B2F91090 		ldrsh	r9, [r2, #16]
 395 0258 09EB0600 		add	r0, r9, r6
 396              	.LVL28:
 397 025c 8742     		cmp	r7, r0
 398 025e B4BF     		ite	lt
 399 0260 B946     		movlt	r9, r7
ARM GAS  /tmp/ccdUEzgz.s 			page 8


 400 0262 8146     		movge	r9, r0
 401              	.LVL29:
 402              	.L105:
 403              		.loc 1 1665 0
 404 0264 5A4E     		ldr	r6, .L313+12
 405 0266 0FFA89F1 		sxth	r1, r9
 406 026a 96F90000 		ldrsb	r0, [r6, #0]
 407 026e FFF7FEFF 		bl	vexMotorSet
 408              	.L102:
 409              	.LVL30:
 410              		.loc 1 1625 0
 411 0272 584E     		ldr	r6, .L313+16
 412 0274 96F90000 		ldrsb	r0, [r6, #0]
 413 0278 FFF7FEFF 		bl	vexMotorGet
 414              		.loc 1 1628 0
 415 027c B4F90070 		ldrsh	r7, [r4, #0]
 416              		.loc 1 1625 0
 417 0280 0646     		mov	r6, r0
 418 0282 8146     		mov	r9, r0
 419              	.LVL31:
 420              		.loc 1 1628 0
 421 0284 002F     		cmp	r7, #0
 422 0286 40F0E481 		bne	.L106
 423 028a 0398     		ldr	r0, [sp, #12]
 424              	.LVL32:
 425 028c B0F90030 		ldrsh	r3, [r0, #0]
 426 0290 002B     		cmp	r3, #0
 427 0292 40F0DE81 		bne	.L106
 428              	.L109:
 429              		.loc 1 1641 0
 430 0296 4F4B     		ldr	r3, .L313+16
 431 0298 9989     		ldrh	r1, [r3, #12]
 432 029a D981     		strh	r1, [r3, #14]	@ movhi
 433 029c 0FB2     		sxth	r7, r1
 434              	.L108:
 435              		.loc 1 1644 0
 436 029e BE42     		cmp	r6, r7
 437 02a0 11D0     		beq	.L120
 438              		.loc 1 1647 0
 439 02a2 80F29582 		bge	.L308
 440              		.loc 1 1649 0
 441 02a6 4B4A     		ldr	r2, .L313+16
 442 02a8 B2F910E0 		ldrsh	lr, [r2, #16]
 443 02ac 0EEB0600 		add	r0, lr, r6
 444              	.LVL33:
 445 02b0 8742     		cmp	r7, r0
 446 02b2 B4BF     		ite	lt
 447 02b4 B946     		movlt	r9, r7
 448 02b6 8146     		movge	r9, r0
 449              	.LVL34:
 450              	.L123:
 451              		.loc 1 1665 0
 452 02b8 464E     		ldr	r6, .L313+16
 453 02ba 0FFA89F1 		sxth	r1, r9
 454 02be 96F90000 		ldrsb	r0, [r6, #0]
 455 02c2 FFF7FEFF 		bl	vexMotorSet
 456              	.L120:
ARM GAS  /tmp/ccdUEzgz.s 			page 9


 457              	.LVL35:
 458              		.loc 1 1625 0
 459 02c6 444E     		ldr	r6, .L313+20
 460 02c8 96F90000 		ldrsb	r0, [r6, #0]
 461 02cc FFF7FEFF 		bl	vexMotorGet
 462              		.loc 1 1628 0
 463 02d0 B4F90070 		ldrsh	r7, [r4, #0]
 464              		.loc 1 1625 0
 465 02d4 0646     		mov	r6, r0
 466 02d6 8146     		mov	r9, r0
 467              	.LVL36:
 468              		.loc 1 1628 0
 469 02d8 002F     		cmp	r7, #0
 470 02da 40F00E82 		bne	.L124
 471 02de 0398     		ldr	r0, [sp, #12]
 472              	.LVL37:
 473 02e0 B0F90030 		ldrsh	r3, [r0, #0]
 474 02e4 002B     		cmp	r3, #0
 475 02e6 40F00882 		bne	.L124
 476              	.L127:
 477              		.loc 1 1641 0
 478 02ea 3B4B     		ldr	r3, .L313+20
 479 02ec 9989     		ldrh	r1, [r3, #12]
 480 02ee D981     		strh	r1, [r3, #14]	@ movhi
 481 02f0 0FB2     		sxth	r7, r1
 482              	.L126:
 483              		.loc 1 1644 0
 484 02f2 BE42     		cmp	r6, r7
 485 02f4 11D0     		beq	.L138
 486              		.loc 1 1647 0
 487 02f6 80F27682 		bge	.L309
 488              		.loc 1 1649 0
 489 02fa 374A     		ldr	r2, .L313+20
 490 02fc B2F910C0 		ldrsh	ip, [r2, #16]
 491 0300 0CEB0600 		add	r0, ip, r6
 492              	.LVL38:
 493 0304 8742     		cmp	r7, r0
 494 0306 B4BF     		ite	lt
 495 0308 B946     		movlt	r9, r7
 496 030a 8146     		movge	r9, r0
 497              	.LVL39:
 498              	.L141:
 499              		.loc 1 1665 0
 500 030c 324E     		ldr	r6, .L313+20
 501 030e 0FFA89F1 		sxth	r1, r9
 502 0312 96F90000 		ldrsb	r0, [r6, #0]
 503 0316 FFF7FEFF 		bl	vexMotorSet
 504              	.L138:
 505              	.LVL40:
 506              		.loc 1 1625 0
 507 031a 304E     		ldr	r6, .L313+24
 508 031c 96F90000 		ldrsb	r0, [r6, #0]
 509 0320 FFF7FEFF 		bl	vexMotorGet
 510              		.loc 1 1628 0
 511 0324 B4F90070 		ldrsh	r7, [r4, #0]
 512              		.loc 1 1625 0
 513 0328 0646     		mov	r6, r0
ARM GAS  /tmp/ccdUEzgz.s 			page 10


 514 032a 8146     		mov	r9, r0
 515              	.LVL41:
 516              		.loc 1 1628 0
 517 032c 002F     		cmp	r7, #0
 518 032e 40F0D680 		bne	.L142
 519 0332 0398     		ldr	r0, [sp, #12]
 520              	.LVL42:
 521 0334 B0F90030 		ldrsh	r3, [r0, #0]
 522 0338 002B     		cmp	r3, #0
 523 033a 40F0D080 		bne	.L142
 524              	.L145:
 525              		.loc 1 1641 0
 526 033e 274B     		ldr	r3, .L313+24
 527 0340 9989     		ldrh	r1, [r3, #12]
 528 0342 D981     		strh	r1, [r3, #14]	@ movhi
 529 0344 0FB2     		sxth	r7, r1
 530              	.L144:
 531              		.loc 1 1644 0
 532 0346 BE42     		cmp	r6, r7
 533 0348 11D0     		beq	.L156
 534              		.loc 1 1647 0
 535 034a 80F26782 		bge	.L310
 536              		.loc 1 1649 0
 537 034e 234A     		ldr	r2, .L313+24
 538 0350 B2F91090 		ldrsh	r9, [r2, #16]
 539 0354 09EB0600 		add	r0, r9, r6
 540              	.LVL43:
 541 0358 8742     		cmp	r7, r0
 542 035a B4BF     		ite	lt
 543 035c B946     		movlt	r9, r7
 544 035e 8146     		movge	r9, r0
 545              	.LVL44:
 546              	.L159:
 547              		.loc 1 1665 0
 548 0360 1E4E     		ldr	r6, .L313+24
 549 0362 0FFA89F1 		sxth	r1, r9
 550 0366 96F90000 		ldrsb	r0, [r6, #0]
 551 036a FFF7FEFF 		bl	vexMotorSet
 552              	.L156:
 553              	.LVL45:
 554              		.loc 1 1625 0
 555 036e 1C4E     		ldr	r6, .L313+28
 556 0370 96F90000 		ldrsb	r0, [r6, #0]
 557 0374 FFF7FEFF 		bl	vexMotorGet
 558              		.loc 1 1628 0
 559 0378 B4F90070 		ldrsh	r7, [r4, #0]
 560              		.loc 1 1625 0
 561 037c 0646     		mov	r6, r0
 562 037e 8146     		mov	r9, r0
 563              	.LVL46:
 564              		.loc 1 1628 0
 565 0380 002F     		cmp	r7, #0
 566 0382 40F0C880 		bne	.L160
 567 0386 0398     		ldr	r0, [sp, #12]
 568              	.LVL47:
 569 0388 B0F90030 		ldrsh	r3, [r0, #0]
 570 038c 002B     		cmp	r3, #0
ARM GAS  /tmp/ccdUEzgz.s 			page 11


 571 038e 40F0C280 		bne	.L160
 572              	.L163:
 573              		.loc 1 1641 0
 574 0392 134B     		ldr	r3, .L313+28
 575 0394 9989     		ldrh	r1, [r3, #12]
 576 0396 D981     		strh	r1, [r3, #14]	@ movhi
 577 0398 0FB2     		sxth	r7, r1
 578              	.L162:
 579              		.loc 1 1644 0
 580 039a BE42     		cmp	r6, r7
 581 039c 22D0     		beq	.L174
 582              		.loc 1 1647 0
 583 039e 80F2CB81 		bge	.L311
 584              		.loc 1 1649 0
 585 03a2 0F4A     		ldr	r2, .L313+28
 586 03a4 B2F910E0 		ldrsh	lr, [r2, #16]
 587 03a8 0EEB0600 		add	r0, lr, r6
 588              	.LVL48:
 589 03ac 8742     		cmp	r7, r0
 590 03ae B4BF     		ite	lt
 591 03b0 B946     		movlt	r9, r7
 592 03b2 8146     		movge	r9, r0
 593              	.LVL49:
 594              	.L177:
 595              		.loc 1 1665 0
 596 03b4 0A4E     		ldr	r6, .L313+28
 597 03b6 0FFA89F1 		sxth	r1, r9
 598 03ba 96F90000 		ldrsb	r0, [r6, #0]
 599 03be FFF7FEFF 		bl	vexMotorSet
 600 03c2 0FE0     		b	.L314
 601              	.L315:
 602              		.align	2
 603              	.L313:
 604 03c4 7C000000 		.word	.LANCHOR0+124
 605 03c8 F8000000 		.word	.LANCHOR0+248
 606 03cc 74010000 		.word	.LANCHOR0+372
 607 03d0 F0010000 		.word	.LANCHOR0+496
 608 03d4 6C020000 		.word	.LANCHOR0+620
 609 03d8 E8020000 		.word	.LANCHOR0+744
 610 03dc 64030000 		.word	.LANCHOR0+868
 611 03e0 E0030000 		.word	.LANCHOR0+992
 612              	.L314:
 613              	.L174:
 614              	.LVL50:
 615              		.loc 1 1625 0
 616 03e4 029E     		ldr	r6, [sp, #8]
 617 03e6 96F90000 		ldrsb	r0, [r6, #0]
 618 03ea FFF7FEFF 		bl	vexMotorGet
 619              		.loc 1 1628 0
 620 03ee B4F90070 		ldrsh	r7, [r4, #0]
 621              		.loc 1 1625 0
 622 03f2 0646     		mov	r6, r0
 623 03f4 8146     		mov	r9, r0
 624              	.LVL51:
 625              		.loc 1 1628 0
 626 03f6 002F     		cmp	r7, #0
 627 03f8 40F0A980 		bne	.L178
ARM GAS  /tmp/ccdUEzgz.s 			page 12


 628              		.loc 1 1628 0 is_stmt 0 discriminator 2
 629 03fc 0398     		ldr	r0, [sp, #12]
 630              	.LVL52:
 631 03fe B0F90070 		ldrsh	r7, [r0, #0]
 632 0402 002F     		cmp	r7, #0
 633 0404 40F0A380 		bne	.L178
 634              	.L4:
 635              		.loc 1 1641 0 is_stmt 1
 636 0408 029A     		ldr	r2, [sp, #8]
 637 040a 9089     		ldrh	r0, [r2, #12]
 638 040c D081     		strh	r0, [r2, #14]	@ movhi
 639 040e 07B2     		sxth	r7, r0
 640              	.L12:
 641              		.loc 1 1644 0
 642 0410 BE42     		cmp	r6, r7
 643 0412 10D0     		beq	.L13
 644              		.loc 1 1647 0
 645 0414 80F29B81 		bge	.L14
 646              		.loc 1 1649 0
 647 0418 0299     		ldr	r1, [sp, #8]
 648 041a B1F91090 		ldrsh	r9, [r1, #16]
 649 041e 4E44     		add	r6, r9, r6
 650              	.LVL53:
 651 0420 B742     		cmp	r7, r6
 652 0422 B4BF     		ite	lt
 653 0424 B946     		movlt	r9, r7
 654 0426 B146     		movge	r9, r6
 655              	.L15:
 656              	.LVL54:
 657              		.loc 1 1665 0
 658 0428 029A     		ldr	r2, [sp, #8]
 659 042a 0FFA89F1 		sxth	r1, r9
 660 042e 92F90000 		ldrsb	r0, [r2, #0]
 661 0432 FFF7FEFF 		bl	vexMotorSet
 662              	.L13:
 663              	.LVL55:
 664              		.loc 1 1674 0
 665 0436 0F20     		movs	r0, #15
 666 0438 FFF7FEFF 		bl	vexSleep
 667              		.loc 1 1613 0
 668 043c 0598     		ldr	r0, [sp, #20]
 669 043e 8369     		ldr	r3, [r0, #24]
 670 0440 597F     		ldrb	r1, [r3, #29]	@ zero_extendqisi2
 671 0442 4B07     		lsls	r3, r1, #29
 672 0444 00F1E383 		bmi	.L3
 673              	.LVL56:
 674              	.L2:
 675              		.loc 1 1625 0
 676 0448 95F90000 		ldrsb	r0, [r5, #0]
 677 044c FFF7FEFF 		bl	vexMotorGet
 678              		.loc 1 1628 0
 679 0450 B4F90070 		ldrsh	r7, [r4, #0]
 680              		.loc 1 1625 0
 681 0454 0646     		mov	r6, r0
 682 0456 8146     		mov	r9, r0
 683              	.LVL57:
 684              		.loc 1 1628 0
ARM GAS  /tmp/ccdUEzgz.s 			page 13


 685 0458 002F     		cmp	r7, #0
 686 045a 3FF447AE 		beq	.L312
 687              	.L16:
 688 045e B5F814A0 		ldrh	sl, [r5, #20]
 689 0462 0FFA8AF8 		sxth	r8, sl
 690 0466 B8F1FF0F 		cmp	r8, #255
 691 046a 3FF445AE 		beq	.L19
 692              		.loc 1 1630 0
 693 046e B5F80CB0 		ldrh	fp, [r5, #12]
 694 0472 88EAE87E 		eor	lr, r8, r8, asr #31
 695 0476 AEEBE87E 		sub	lr, lr, r8, asr #31
 696 047a 0FFA8BF7 		sxth	r7, fp
 697 047e 87EAE771 		eor	r1, r7, r7, asr #31
 698 0482 A1EBE771 		sub	r1, r1, r7, asr #31
 699 0486 7145     		cmp	r1, lr
 700 0488 40F35381 		ble	.L301
 701              		.loc 1 1632 0
 702 048c 3846     		mov	r0, r7
 703              	.LVL58:
 704 048e FFF7FEFF 		bl	__aeabi_i2f
 705              	.LBB39:
 706              	.LBB40:
 707              		.loc 1 142 0
 708 0492 0021     		movs	r1, #0
 709              	.LBE40:
 710              	.LBE39:
 711              		.loc 1 1632 0
 712 0494 0190     		str	r0, [sp, #4]	@ float
 713              	.LVL59:
 714              	.LBB65:
 715              	.LBB41:
 716              		.loc 1 142 0
 717 0496 FFF7FEFF 		bl	__aeabi_fcmpeq
 718              	.LVL60:
 719 049a 0028     		cmp	r0, #0
 720 049c 00F09583 		beq	.L247
 721 04a0 0023     		movs	r3, #0
 722 04a2 0193     		str	r3, [sp, #4]	@ float
 723              	.L28:
 724              	.LBE41:
 725              	.LBE65:
 726              		.loc 1 1632 0
 727 04a4 4046     		mov	r0, r8
 728 04a6 FFF7FEFF 		bl	__aeabi_i2f
 729              	.LBB66:
 730              	.LBB67:
 731              		.loc 1 142 0
 732 04aa 0021     		movs	r1, #0
 733              	.LBE67:
 734              	.LBE66:
 735              		.loc 1 1632 0
 736 04ac 0490     		str	r0, [sp, #16]	@ float
 737              	.LVL61:
 738              	.LBB87:
 739              	.LBB68:
 740              		.loc 1 142 0
 741 04ae FFF7FEFF 		bl	__aeabi_fcmpeq
ARM GAS  /tmp/ccdUEzgz.s 			page 14


 742              	.LVL62:
 743 04b2 0021     		movs	r1, #0
 744 04b4 48B9     		cbnz	r0, .L26
 745              		.loc 1 143 0
 746 04b6 0021     		movs	r1, #0
 747 04b8 0498     		ldr	r0, [sp, #16]	@ float
 748 04ba FFF7FEFF 		bl	__aeabi_fcmpgt
 749 04be 4FF07E51 		mov	r1, #1065353216
 750 04c2 10B9     		cbnz	r0, .L26
 751 04c4 0021     		movs	r1, #0
 752 04c6 CBF68071 		movt	r1, 49024
 753              	.L26:
 754              	.LBE68:
 755              	.LBE87:
 756              		.loc 1 1632 0
 757 04ca 0198     		ldr	r0, [sp, #4]	@ float
 758 04cc FFF7FEFF 		bl	__aeabi_fcmpeq
 759 04d0 0028     		cmp	r0, #0
 760 04d2 00F02E81 		beq	.L301
 761              		.loc 1 1633 0
 762 04d6 A5F80EA0 		strh	sl, [r5, #14]	@ movhi
 763              		.loc 1 1630 0
 764 04da 4746     		mov	r7, r8
 765 04dc 0FE6     		b	.L18
 766              	.LVL63:
 767              	.L142:
 768              		.loc 1 1628 0
 769 04de C74A     		ldr	r2, .L316
 770 04e0 B2F814A0 		ldrh	sl, [r2, #20]
 771 04e4 0FFA8AF8 		sxth	r8, sl
 772 04e8 B8F1FF0F 		cmp	r8, #255
 773 04ec 3FF427AF 		beq	.L145
 774              		.loc 1 1630 0
 775 04f0 B2F80CB0 		ldrh	fp, [r2, #12]
 776 04f4 88EAE872 		eor	r2, r8, r8, asr #31
 777 04f8 A2EBE872 		sub	r2, r2, r8, asr #31
 778 04fc 0FFA8BF7 		sxth	r7, fp
 779 0500 87EAE770 		eor	r0, r7, r7, asr #31
 780 0504 A0EBE770 		sub	r0, r0, r7, asr #31
 781 0508 9042     		cmp	r0, r2
 782 050a 00F3B482 		bgt	.L146
 783              		.loc 1 1638 0
 784 050e BB49     		ldr	r1, .L316
 785 0510 A1F80EB0 		strh	fp, [r1, #14]	@ movhi
 786 0514 17E7     		b	.L144
 787              	.LVL64:
 788              	.L160:
 789              		.loc 1 1628 0
 790 0516 BA4A     		ldr	r2, .L316+4
 791 0518 B2F814A0 		ldrh	sl, [r2, #20]
 792 051c 0FFA8AF8 		sxth	r8, sl
 793 0520 B8F1FF0F 		cmp	r8, #255
 794 0524 3FF435AF 		beq	.L163
 795              		.loc 1 1630 0
 796 0528 B2F80CB0 		ldrh	fp, [r2, #12]
 797 052c 88EAE872 		eor	r2, r8, r8, asr #31
 798 0530 A2EBE872 		sub	r2, r2, r8, asr #31
ARM GAS  /tmp/ccdUEzgz.s 			page 15


 799 0534 0FFA8BF7 		sxth	r7, fp
 800 0538 87EAE770 		eor	r0, r7, r7, asr #31
 801 053c A0EBE770 		sub	r0, r0, r7, asr #31
 802 0540 9042     		cmp	r0, r2
 803 0542 00F34782 		bgt	.L164
 804              		.loc 1 1638 0
 805 0546 AE49     		ldr	r1, .L316+4
 806 0548 A1F80EB0 		strh	fp, [r1, #14]	@ movhi
 807 054c 25E7     		b	.L162
 808              	.LVL65:
 809              	.L178:
 810              		.loc 1 1628 0 discriminator 1
 811 054e 029B     		ldr	r3, [sp, #8]
 812 0550 B3F814A0 		ldrh	sl, [r3, #20]
 813 0554 0FFA8AF8 		sxth	r8, sl
 814 0558 B8F1FF0F 		cmp	r8, #255
 815 055c 3FF454AF 		beq	.L4
 816              		.loc 1 1630 0
 817 0560 B3F80CB0 		ldrh	fp, [r3, #12]
 818 0564 88EAE87C 		eor	ip, r8, r8, asr #31
 819 0568 ACEBE87C 		sub	ip, ip, r8, asr #31
 820 056c 0FFA8BF7 		sxth	r7, fp
 821 0570 87EAE771 		eor	r1, r7, r7, asr #31
 822 0574 A1EBE771 		sub	r1, r1, r7, asr #31
 823 0578 6145     		cmp	r1, ip
 824 057a 40F3FE81 		ble	.L5
 825              		.loc 1 1632 0
 826 057e 3846     		mov	r0, r7
 827 0580 FFF7FEFF 		bl	__aeabi_i2f
 828              	.LBB88:
 829              	.LBB42:
 830              		.loc 1 142 0
 831 0584 0021     		movs	r1, #0
 832              	.LBE42:
 833              	.LBE88:
 834              		.loc 1 1632 0
 835 0586 0190     		str	r0, [sp, #4]	@ float
 836              	.LVL66:
 837              	.LBB89:
 838              	.LBB43:
 839              		.loc 1 142 0
 840 0588 FFF7FEFF 		bl	__aeabi_fcmpeq
 841              	.LVL67:
 842 058c 0028     		cmp	r0, #0
 843 058e 40F00983 		bne	.L180
 844              		.loc 1 143 0
 845 0592 0198     		ldr	r0, [sp, #4]	@ float
 846 0594 0021     		movs	r1, #0
 847 0596 FFF7FEFF 		bl	__aeabi_fcmpgt
 848 059a 0028     		cmp	r0, #0
 849 059c 00F06383 		beq	.L243
 850 05a0 4FF07E53 		mov	r3, #1065353216
 851 05a4 0193     		str	r3, [sp, #4]	@ float
 852              	.L6:
 853              	.LBE43:
 854              	.LBE89:
 855              		.loc 1 1632 0
ARM GAS  /tmp/ccdUEzgz.s 			page 16


 856 05a6 4046     		mov	r0, r8
 857 05a8 FFF7FEFF 		bl	__aeabi_i2f
 858              	.LBB90:
 859              	.LBB69:
 860              		.loc 1 142 0
 861 05ac 0021     		movs	r1, #0
 862              	.LBE69:
 863              	.LBE90:
 864              		.loc 1 1632 0
 865 05ae 0490     		str	r0, [sp, #16]	@ float
 866              	.LVL68:
 867              	.LBB91:
 868              	.LBB70:
 869              		.loc 1 142 0
 870 05b0 FFF7FEFF 		bl	__aeabi_fcmpeq
 871              	.LVL69:
 872 05b4 0021     		movs	r1, #0
 873 05b6 48B9     		cbnz	r0, .L8
 874              		.loc 1 143 0
 875 05b8 0021     		movs	r1, #0
 876 05ba 0498     		ldr	r0, [sp, #16]	@ float
 877 05bc FFF7FEFF 		bl	__aeabi_fcmpgt
 878 05c0 4FF07E51 		mov	r1, #1065353216
 879 05c4 10B9     		cbnz	r0, .L8
 880 05c6 0021     		movs	r1, #0
 881 05c8 CBF68071 		movt	r1, 49024
 882              	.L8:
 883              	.LBE70:
 884              	.LBE91:
 885              		.loc 1 1632 0
 886 05cc 0198     		ldr	r0, [sp, #4]	@ float
 887 05ce FFF7FEFF 		bl	__aeabi_fcmpeq
 888 05d2 0028     		cmp	r0, #0
 889 05d4 00F0C882 		beq	.L245
 890              		.loc 1 1633 0
 891 05d8 029F     		ldr	r7, [sp, #8]
 892 05da A7F80EA0 		strh	sl, [r7, #14]	@ movhi
 893              		.loc 1 1630 0
 894 05de 4746     		mov	r7, r8
 895 05e0 16E7     		b	.L12
 896              	.LVL70:
 897              	.L70:
 898              		.loc 1 1628 0
 899 05e2 884A     		ldr	r2, .L316+8
 900 05e4 B2F814A0 		ldrh	sl, [r2, #20]
 901 05e8 0FFA8AF8 		sxth	r8, sl
 902 05ec B8F1FF0F 		cmp	r8, #255
 903 05f0 3FF4FDAD 		beq	.L73
 904              		.loc 1 1630 0
 905 05f4 B2F80CB0 		ldrh	fp, [r2, #12]
 906 05f8 88EAE872 		eor	r2, r8, r8, asr #31
 907 05fc A2EBE872 		sub	r2, r2, r8, asr #31
 908 0600 0FFA8BF7 		sxth	r7, fp
 909 0604 87EAE770 		eor	r0, r7, r7, asr #31
 910 0608 A0EBE770 		sub	r0, r0, r7, asr #31
 911 060c 9042     		cmp	r0, r2
 912 060e 00F38B81 		bgt	.L74
ARM GAS  /tmp/ccdUEzgz.s 			page 17


 913              		.loc 1 1638 0
 914 0612 7C49     		ldr	r1, .L316+8
 915 0614 A1F80EB0 		strh	fp, [r1, #14]	@ movhi
 916 0618 EDE5     		b	.L72
 917              	.LVL71:
 918              	.L34:
 919              		.loc 1 1628 0
 920 061a 7B4B     		ldr	r3, .L316+12
 921 061c B3F814A0 		ldrh	sl, [r3, #20]
 922 0620 0FFA8AF8 		sxth	r8, sl
 923 0624 B8F1FF0F 		cmp	r8, #255
 924 0628 3FF48DAD 		beq	.L37
 925              		.loc 1 1630 0
 926 062c B3F80CB0 		ldrh	fp, [r3, #12]
 927 0630 88EAE872 		eor	r2, r8, r8, asr #31
 928 0634 A2EBE872 		sub	r2, r2, r8, asr #31
 929 0638 0FFA8BF7 		sxth	r7, fp
 930 063c 87EAE770 		eor	r0, r7, r7, asr #31
 931 0640 A0EBE770 		sub	r0, r0, r7, asr #31
 932 0644 9042     		cmp	r0, r2
 933 0646 00F3F480 		bgt	.L38
 934              		.loc 1 1638 0
 935 064a 6F49     		ldr	r1, .L316+12
 936 064c A1F80EB0 		strh	fp, [r1, #14]	@ movhi
 937 0650 7DE5     		b	.L36
 938              	.LVL72:
 939              	.L106:
 940              		.loc 1 1628 0
 941 0652 6E4A     		ldr	r2, .L316+16
 942 0654 B2F814A0 		ldrh	sl, [r2, #20]
 943 0658 0FFA8AF8 		sxth	r8, sl
 944 065c B8F1FF0F 		cmp	r8, #255
 945 0660 3FF419AE 		beq	.L109
 946              		.loc 1 1630 0
 947 0664 B2F80CB0 		ldrh	fp, [r2, #12]
 948 0668 88EAE872 		eor	r2, r8, r8, asr #31
 949 066c A2EBE872 		sub	r2, r2, r8, asr #31
 950 0670 0FFA8BF7 		sxth	r7, fp
 951 0674 87EAE770 		eor	r0, r7, r7, asr #31
 952 0678 A0EBE770 		sub	r0, r0, r7, asr #31
 953 067c 9042     		cmp	r0, r2
 954 067e 00F38081 		bgt	.L110
 955              		.loc 1 1638 0
 956 0682 6249     		ldr	r1, .L316+16
 957 0684 A1F80EB0 		strh	fp, [r1, #14]	@ movhi
 958 0688 09E6     		b	.L108
 959              	.LVL73:
 960              	.L52:
 961              		.loc 1 1628 0
 962 068a 614A     		ldr	r2, .L316+20
 963 068c B2F814A0 		ldrh	sl, [r2, #20]
 964 0690 0FFA8AF8 		sxth	r8, sl
 965 0694 B8F1FF0F 		cmp	r8, #255
 966 0698 3FF47FAD 		beq	.L55
 967              		.loc 1 1630 0
 968 069c B2F80CB0 		ldrh	fp, [r2, #12]
 969 06a0 88EAE872 		eor	r2, r8, r8, asr #31
ARM GAS  /tmp/ccdUEzgz.s 			page 18


 970 06a4 A2EBE872 		sub	r2, r2, r8, asr #31
 971 06a8 0FFA8BF7 		sxth	r7, fp
 972 06ac 87EAE770 		eor	r0, r7, r7, asr #31
 973 06b0 A0EBE770 		sub	r0, r0, r7, asr #31
 974 06b4 9042     		cmp	r0, r2
 975 06b6 00F30E81 		bgt	.L56
 976              		.loc 1 1638 0
 977 06ba 5549     		ldr	r1, .L316+20
 978 06bc A1F80EB0 		strh	fp, [r1, #14]	@ movhi
 979 06c0 6FE5     		b	.L54
 980              	.LVL74:
 981              	.L88:
 982              		.loc 1 1628 0
 983 06c2 544A     		ldr	r2, .L316+24
 984 06c4 B2F814A0 		ldrh	sl, [r2, #20]
 985 06c8 0FFA8AF8 		sxth	r8, sl
 986 06cc B8F1FF0F 		cmp	r8, #255
 987 06d0 3FF4B7AD 		beq	.L91
 988              		.loc 1 1630 0
 989 06d4 B2F80CB0 		ldrh	fp, [r2, #12]
 990 06d8 88EAE872 		eor	r2, r8, r8, asr #31
 991 06dc A2EBE872 		sub	r2, r2, r8, asr #31
 992 06e0 0FFA8BF7 		sxth	r7, fp
 993 06e4 87EAE770 		eor	r0, r7, r7, asr #31
 994 06e8 A0EBE770 		sub	r0, r0, r7, asr #31
 995 06ec 9042     		cmp	r0, r2
 996 06ee 00F3C980 		bgt	.L92
 997              		.loc 1 1638 0
 998 06f2 4849     		ldr	r1, .L316+24
 999 06f4 A1F80EB0 		strh	fp, [r1, #14]	@ movhi
 1000 06f8 A7E5     		b	.L90
 1001              	.LVL75:
 1002              	.L124:
 1003              		.loc 1 1628 0
 1004 06fa 474A     		ldr	r2, .L316+28
 1005 06fc B2F814A0 		ldrh	sl, [r2, #20]
 1006 0700 0FFA8AF8 		sxth	r8, sl
 1007 0704 B8F1FF0F 		cmp	r8, #255
 1008 0708 3FF4EFAD 		beq	.L127
 1009              		.loc 1 1630 0
 1010 070c B2F80CB0 		ldrh	fp, [r2, #12]
 1011 0710 88EAE872 		eor	r2, r8, r8, asr #31
 1012 0714 A2EBE872 		sub	r2, r2, r8, asr #31
 1013 0718 0FFA8BF7 		sxth	r7, fp
 1014 071c 87EAE770 		eor	r0, r7, r7, asr #31
 1015 0720 A0EBE770 		sub	r0, r0, r7, asr #31
 1016 0724 9042     		cmp	r0, r2
 1017 0726 00F37E81 		bgt	.L128
 1018              		.loc 1 1638 0
 1019 072a 3B49     		ldr	r1, .L316+28
 1020 072c A1F80EB0 		strh	fp, [r1, #14]	@ movhi
 1021 0730 DFE5     		b	.L126
 1022              	.LVL76:
 1023              	.L301:
 1024              		.loc 1 1635 0
 1025 0732 A5F80EB0 		strh	fp, [r5, #14]	@ movhi
 1026 0736 E2E4     		b	.L18
ARM GAS  /tmp/ccdUEzgz.s 			page 19


 1027              	.LVL77:
 1028              	.L311:
 1029              		.loc 1 1656 0
 1030 0738 7FF73CAE 		ble	.L177
 1031              		.loc 1 1658 0
 1032 073c 304B     		ldr	r3, .L316+4
 1033 073e B3F91010 		ldrsh	r1, [r3, #16]
 1034 0742 721A     		subs	r2, r6, r1
 1035              	.LVL78:
 1036 0744 9742     		cmp	r7, r2
 1037 0746 ACBF     		ite	ge
 1038 0748 B946     		movge	r9, r7
 1039 074a 9146     		movlt	r9, r2
 1040 074c 32E6     		b	.L177
 1041              	.LVL79:
 1042              	.L14:
 1043              		.loc 1 1656 0
 1044 074e 7FF76BAE 		ble	.L15
 1045              		.loc 1 1658 0
 1046 0752 0298     		ldr	r0, [sp, #8]
 1047 0754 B0F91030 		ldrsh	r3, [r0, #16]
 1048 0758 F61A     		subs	r6, r6, r3
 1049              	.LVL80:
 1050 075a B742     		cmp	r7, r6
 1051 075c ACBF     		ite	ge
 1052 075e B946     		movge	r9, r7
 1053 0760 B146     		movlt	r9, r6
 1054 0762 61E6     		b	.L15
 1055              	.LVL81:
 1056              	.L303:
 1057              		.loc 1 1656 0
 1058 0764 7FF7D7AC 		ble	.L33
 1059              		.loc 1 1658 0
 1060 0768 B5F91030 		ldrsh	r3, [r5, #16]
 1061 076c F61A     		subs	r6, r6, r3
 1062              	.LVL82:
 1063 076e B742     		cmp	r7, r6
 1064 0770 ACBF     		ite	ge
 1065 0772 B946     		movge	r9, r7
 1066 0774 B146     		movlt	r9, r6
 1067 0776 CEE4     		b	.L33
 1068              	.LVL83:
 1069              	.L304:
 1070              		.loc 1 1656 0
 1071 0778 7FF7F6AC 		ble	.L51
 1072              		.loc 1 1658 0
 1073 077c 224B     		ldr	r3, .L316+12
 1074 077e B3F91010 		ldrsh	r1, [r3, #16]
 1075 0782 721A     		subs	r2, r6, r1
 1076              	.LVL84:
 1077 0784 9742     		cmp	r7, r2
 1078 0786 ACBF     		ite	ge
 1079 0788 B946     		movge	r9, r7
 1080 078a 9146     		movlt	r9, r2
 1081 078c ECE4     		b	.L51
 1082              	.LVL85:
 1083              	.L305:
ARM GAS  /tmp/ccdUEzgz.s 			page 20


 1084              		.loc 1 1656 0
 1085 078e 7FF715AD 		ble	.L69
 1086              		.loc 1 1658 0
 1087 0792 1F4B     		ldr	r3, .L316+20
 1088 0794 B3F91010 		ldrsh	r1, [r3, #16]
 1089 0798 721A     		subs	r2, r6, r1
 1090              	.LVL86:
 1091 079a 9742     		cmp	r7, r2
 1092 079c ACBF     		ite	ge
 1093 079e B946     		movge	r9, r7
 1094 07a0 9146     		movlt	r9, r2
 1095 07a2 0BE5     		b	.L69
 1096              	.LVL87:
 1097              	.L306:
 1098              		.loc 1 1656 0
 1099 07a4 7FF734AD 		ble	.L87
 1100              		.loc 1 1658 0
 1101 07a8 164B     		ldr	r3, .L316+8
 1102 07aa B3F91010 		ldrsh	r1, [r3, #16]
 1103 07ae 721A     		subs	r2, r6, r1
 1104              	.LVL88:
 1105 07b0 9742     		cmp	r7, r2
 1106 07b2 ACBF     		ite	ge
 1107 07b4 B946     		movge	r9, r7
 1108 07b6 9146     		movlt	r9, r2
 1109 07b8 2AE5     		b	.L87
 1110              	.LVL89:
 1111              	.L307:
 1112              		.loc 1 1656 0
 1113 07ba 7FF753AD 		ble	.L105
 1114              		.loc 1 1658 0
 1115 07be 154B     		ldr	r3, .L316+24
 1116 07c0 B3F91010 		ldrsh	r1, [r3, #16]
 1117 07c4 721A     		subs	r2, r6, r1
 1118              	.LVL90:
 1119 07c6 9742     		cmp	r7, r2
 1120 07c8 ACBF     		ite	ge
 1121 07ca B946     		movge	r9, r7
 1122 07cc 9146     		movlt	r9, r2
 1123 07ce 49E5     		b	.L105
 1124              	.LVL91:
 1125              	.L308:
 1126              		.loc 1 1656 0
 1127 07d0 7FF772AD 		ble	.L123
 1128              		.loc 1 1658 0
 1129 07d4 0D4B     		ldr	r3, .L316+16
 1130 07d6 B3F91010 		ldrsh	r1, [r3, #16]
 1131 07da 721A     		subs	r2, r6, r1
 1132              	.LVL92:
 1133 07dc 9742     		cmp	r7, r2
 1134 07de ACBF     		ite	ge
 1135 07e0 B946     		movge	r9, r7
 1136 07e2 9146     		movlt	r9, r2
 1137 07e4 68E5     		b	.L123
 1138              	.LVL93:
 1139              	.L309:
 1140              		.loc 1 1656 0
ARM GAS  /tmp/ccdUEzgz.s 			page 21


 1141 07e6 7FF791AD 		ble	.L141
 1142              		.loc 1 1658 0
 1143 07ea 0B4B     		ldr	r3, .L316+28
 1144 07ec B3F91010 		ldrsh	r1, [r3, #16]
 1145 07f0 721A     		subs	r2, r6, r1
 1146              	.LVL94:
 1147 07f2 9742     		cmp	r7, r2
 1148 07f4 ACBF     		ite	ge
 1149 07f6 B946     		movge	r9, r7
 1150 07f8 9146     		movlt	r9, r2
 1151 07fa 87E5     		b	.L141
 1152              	.L317:
 1153              		.align	2
 1154              	.L316:
 1155 07fc 64030000 		.word	.LANCHOR0+868
 1156 0800 E0030000 		.word	.LANCHOR0+992
 1157 0804 74010000 		.word	.LANCHOR0+372
 1158 0808 7C000000 		.word	.LANCHOR0+124
 1159 080c 6C020000 		.word	.LANCHOR0+620
 1160 0810 F8000000 		.word	.LANCHOR0+248
 1161 0814 F0010000 		.word	.LANCHOR0+496
 1162 0818 E8020000 		.word	.LANCHOR0+744
 1163              	.LVL95:
 1164              	.L310:
 1165              		.loc 1 1656 0
 1166 081c 7FF7A0AD 		ble	.L159
 1167              		.loc 1 1658 0
 1168 0820 A84B     		ldr	r3, .L318
 1169 0822 B3F91010 		ldrsh	r1, [r3, #16]
 1170 0826 721A     		subs	r2, r6, r1
 1171              	.LVL96:
 1172 0828 9742     		cmp	r7, r2
 1173 082a ACBF     		ite	ge
 1174 082c B946     		movge	r9, r7
 1175 082e 9146     		movlt	r9, r2
 1176 0830 96E5     		b	.L159
 1177              	.LVL97:
 1178              	.L38:
 1179              		.loc 1 1632 0
 1180 0832 3846     		mov	r0, r7
 1181 0834 FFF7FEFF 		bl	__aeabi_i2f
 1182              	.LBB92:
 1183              	.LBB44:
 1184              		.loc 1 142 0
 1185 0838 0021     		movs	r1, #0
 1186              	.LBE44:
 1187              	.LBE92:
 1188              		.loc 1 1632 0
 1189 083a 0190     		str	r0, [sp, #4]	@ float
 1190              	.LVL98:
 1191              	.LBB93:
 1192              	.LBB45:
 1193              		.loc 1 142 0
 1194 083c FFF7FEFF 		bl	__aeabi_fcmpeq
 1195              	.LVL99:
 1196 0840 0028     		cmp	r0, #0
 1197 0842 00F0B281 		beq	.L253
ARM GAS  /tmp/ccdUEzgz.s 			page 22


 1198 0846 0023     		movs	r3, #0
 1199 0848 0193     		str	r3, [sp, #4]	@ float
 1200              	.L46:
 1201              	.LBE45:
 1202              	.LBE93:
 1203              		.loc 1 1632 0
 1204 084a 4046     		mov	r0, r8
 1205 084c FFF7FEFF 		bl	__aeabi_i2f
 1206              	.LBB94:
 1207              	.LBB71:
 1208              		.loc 1 142 0
 1209 0850 0021     		movs	r1, #0
 1210              	.LBE71:
 1211              	.LBE94:
 1212              		.loc 1 1632 0
 1213 0852 0490     		str	r0, [sp, #16]	@ float
 1214              	.LVL100:
 1215              	.LBB95:
 1216              	.LBB72:
 1217              		.loc 1 142 0
 1218 0854 FFF7FEFF 		bl	__aeabi_fcmpeq
 1219              	.LVL101:
 1220 0858 0021     		movs	r1, #0
 1221 085a 48B9     		cbnz	r0, .L44
 1222              		.loc 1 143 0
 1223 085c 0021     		movs	r1, #0
 1224 085e 0498     		ldr	r0, [sp, #16]	@ float
 1225 0860 FFF7FEFF 		bl	__aeabi_fcmpgt
 1226 0864 4FF07E51 		mov	r1, #1065353216
 1227 0868 10B9     		cbnz	r0, .L44
 1228 086a 0021     		movs	r1, #0
 1229 086c CBF68071 		movt	r1, 49024
 1230              	.L44:
 1231              	.LBE72:
 1232              	.LBE95:
 1233              		.loc 1 1632 0
 1234 0870 0198     		ldr	r0, [sp, #4]	@ float
 1235 0872 FFF7FEFF 		bl	__aeabi_fcmpeq
 1236 0876 0028     		cmp	r0, #0
 1237 0878 40F0A181 		bne	.L43
 1238              		.loc 1 1635 0
 1239 087c 924A     		ldr	r2, .L318+4
 1240 087e A2F80EB0 		strh	fp, [r2, #14]	@ movhi
 1241 0882 64E4     		b	.L36
 1242              	.LVL102:
 1243              	.L92:
 1244              		.loc 1 1632 0
 1245 0884 3846     		mov	r0, r7
 1246 0886 FFF7FEFF 		bl	__aeabi_i2f
 1247              	.LBB96:
 1248              	.LBB46:
 1249              		.loc 1 142 0
 1250 088a 0021     		movs	r1, #0
 1251              	.LBE46:
 1252              	.LBE96:
 1253              		.loc 1 1632 0
 1254 088c 0190     		str	r0, [sp, #4]	@ float
ARM GAS  /tmp/ccdUEzgz.s 			page 23


 1255              	.LVL103:
 1256              	.LBB97:
 1257              	.LBB47:
 1258              		.loc 1 142 0
 1259 088e FFF7FEFF 		bl	__aeabi_fcmpeq
 1260              	.LVL104:
 1261 0892 0028     		cmp	r0, #0
 1262 0894 00F07C81 		beq	.L271
 1263 0898 0023     		movs	r3, #0
 1264 089a 0193     		str	r3, [sp, #4]	@ float
 1265              	.L100:
 1266              	.LBE47:
 1267              	.LBE97:
 1268              		.loc 1 1632 0
 1269 089c 4046     		mov	r0, r8
 1270 089e FFF7FEFF 		bl	__aeabi_i2f
 1271              	.LBB98:
 1272              	.LBB73:
 1273              		.loc 1 142 0
 1274 08a2 0021     		movs	r1, #0
 1275              	.LBE73:
 1276              	.LBE98:
 1277              		.loc 1 1632 0
 1278 08a4 0490     		str	r0, [sp, #16]	@ float
 1279              	.LVL105:
 1280              	.LBB99:
 1281              	.LBB74:
 1282              		.loc 1 142 0
 1283 08a6 FFF7FEFF 		bl	__aeabi_fcmpeq
 1284              	.LVL106:
 1285 08aa 0021     		movs	r1, #0
 1286 08ac 48B9     		cbnz	r0, .L98
 1287              		.loc 1 143 0
 1288 08ae 0021     		movs	r1, #0
 1289 08b0 0498     		ldr	r0, [sp, #16]	@ float
 1290 08b2 FFF7FEFF 		bl	__aeabi_fcmpgt
 1291 08b6 4FF07E51 		mov	r1, #1065353216
 1292 08ba 10B9     		cbnz	r0, .L98
 1293 08bc 0021     		movs	r1, #0
 1294 08be CBF68071 		movt	r1, 49024
 1295              	.L98:
 1296              	.LBE74:
 1297              	.LBE99:
 1298              		.loc 1 1632 0
 1299 08c2 0198     		ldr	r0, [sp, #4]	@ float
 1300 08c4 FFF7FEFF 		bl	__aeabi_fcmpeq
 1301 08c8 0028     		cmp	r0, #0
 1302 08ca 40F05181 		bne	.L97
 1303              		.loc 1 1635 0
 1304 08ce 7F4A     		ldr	r2, .L318+8
 1305 08d0 A2F80EB0 		strh	fp, [r2, #14]	@ movhi
 1306 08d4 B9E4     		b	.L90
 1307              	.LVL107:
 1308              	.L56:
 1309              		.loc 1 1632 0
 1310 08d6 3846     		mov	r0, r7
 1311 08d8 FFF7FEFF 		bl	__aeabi_i2f
ARM GAS  /tmp/ccdUEzgz.s 			page 24


 1312              	.LBB100:
 1313              	.LBB48:
 1314              		.loc 1 142 0
 1315 08dc 0021     		movs	r1, #0
 1316              	.LBE48:
 1317              	.LBE100:
 1318              		.loc 1 1632 0
 1319 08de 0190     		str	r0, [sp, #4]	@ float
 1320              	.LVL108:
 1321              	.LBB101:
 1322              	.LBB49:
 1323              		.loc 1 142 0
 1324 08e0 FFF7FEFF 		bl	__aeabi_fcmpeq
 1325              	.LVL109:
 1326 08e4 0028     		cmp	r0, #0
 1327 08e6 00F04981 		beq	.L259
 1328 08ea 0023     		movs	r3, #0
 1329 08ec 0193     		str	r3, [sp, #4]	@ float
 1330              	.L64:
 1331              	.LBE49:
 1332              	.LBE101:
 1333              		.loc 1 1632 0
 1334 08ee 4046     		mov	r0, r8
 1335 08f0 FFF7FEFF 		bl	__aeabi_i2f
 1336              	.LBB102:
 1337              	.LBB75:
 1338              		.loc 1 142 0
 1339 08f4 0021     		movs	r1, #0
 1340              	.LBE75:
 1341              	.LBE102:
 1342              		.loc 1 1632 0
 1343 08f6 0490     		str	r0, [sp, #16]	@ float
 1344              	.LVL110:
 1345              	.LBB103:
 1346              	.LBB76:
 1347              		.loc 1 142 0
 1348 08f8 FFF7FEFF 		bl	__aeabi_fcmpeq
 1349              	.LVL111:
 1350 08fc 0021     		movs	r1, #0
 1351 08fe 48B9     		cbnz	r0, .L62
 1352              		.loc 1 143 0
 1353 0900 0021     		movs	r1, #0
 1354 0902 0498     		ldr	r0, [sp, #16]	@ float
 1355 0904 FFF7FEFF 		bl	__aeabi_fcmpgt
 1356 0908 4FF07E51 		mov	r1, #1065353216
 1357 090c 10B9     		cbnz	r0, .L62
 1358 090e 0021     		movs	r1, #0
 1359 0910 CBF68071 		movt	r1, 49024
 1360              	.L62:
 1361              	.LBE76:
 1362              	.LBE103:
 1363              		.loc 1 1632 0
 1364 0914 0198     		ldr	r0, [sp, #4]	@ float
 1365 0916 FFF7FEFF 		bl	__aeabi_fcmpeq
 1366 091a 0028     		cmp	r0, #0
 1367 091c 40F01E81 		bne	.L61
 1368              		.loc 1 1635 0
ARM GAS  /tmp/ccdUEzgz.s 			page 25


 1369 0920 6B4A     		ldr	r2, .L318+12
 1370 0922 A2F80EB0 		strh	fp, [r2, #14]	@ movhi
 1371 0926 3CE4     		b	.L54
 1372              	.LVL112:
 1373              	.L74:
 1374              		.loc 1 1632 0
 1375 0928 3846     		mov	r0, r7
 1376 092a FFF7FEFF 		bl	__aeabi_i2f
 1377              	.LBB104:
 1378              	.LBB50:
 1379              		.loc 1 142 0
 1380 092e 0021     		movs	r1, #0
 1381              	.LBE50:
 1382              	.LBE104:
 1383              		.loc 1 1632 0
 1384 0930 0190     		str	r0, [sp, #4]	@ float
 1385              	.LVL113:
 1386              	.LBB105:
 1387              	.LBB51:
 1388              		.loc 1 142 0
 1389 0932 FFF7FEFF 		bl	__aeabi_fcmpeq
 1390              	.LVL114:
 1391 0936 0028     		cmp	r0, #0
 1392 0938 00F00681 		beq	.L265
 1393 093c 0023     		movs	r3, #0
 1394 093e 0193     		str	r3, [sp, #4]	@ float
 1395              	.L82:
 1396              	.LBE51:
 1397              	.LBE105:
 1398              		.loc 1 1632 0
 1399 0940 4046     		mov	r0, r8
 1400 0942 FFF7FEFF 		bl	__aeabi_i2f
 1401              	.LBB106:
 1402              	.LBB77:
 1403              		.loc 1 142 0
 1404 0946 0021     		movs	r1, #0
 1405              	.LBE77:
 1406              	.LBE106:
 1407              		.loc 1 1632 0
 1408 0948 0490     		str	r0, [sp, #16]	@ float
 1409              	.LVL115:
 1410              	.LBB107:
 1411              	.LBB78:
 1412              		.loc 1 142 0
 1413 094a FFF7FEFF 		bl	__aeabi_fcmpeq
 1414              	.LVL116:
 1415 094e 0021     		movs	r1, #0
 1416 0950 48B9     		cbnz	r0, .L80
 1417              		.loc 1 143 0
 1418 0952 0021     		movs	r1, #0
 1419 0954 0498     		ldr	r0, [sp, #16]	@ float
 1420 0956 FFF7FEFF 		bl	__aeabi_fcmpgt
 1421 095a 4FF07E51 		mov	r1, #1065353216
 1422 095e 10B9     		cbnz	r0, .L80
 1423 0960 0021     		movs	r1, #0
 1424 0962 CBF68071 		movt	r1, 49024
 1425              	.L80:
ARM GAS  /tmp/ccdUEzgz.s 			page 26


 1426              	.LBE78:
 1427              	.LBE107:
 1428              		.loc 1 1632 0
 1429 0966 0198     		ldr	r0, [sp, #4]	@ float
 1430 0968 FFF7FEFF 		bl	__aeabi_fcmpeq
 1431 096c 0028     		cmp	r0, #0
 1432 096e 40F04281 		bne	.L79
 1433              		.loc 1 1635 0
 1434 0972 584A     		ldr	r2, .L318+16
 1435 0974 A2F80EB0 		strh	fp, [r2, #14]	@ movhi
 1436 0978 3DE4     		b	.L72
 1437              	.LVL117:
 1438              	.L5:
 1439              		.loc 1 1638 0
 1440 097a 029B     		ldr	r3, [sp, #8]
 1441 097c A3F80EB0 		strh	fp, [r3, #14]	@ movhi
 1442 0980 46E5     		b	.L12
 1443              	.LVL118:
 1444              	.L110:
 1445              		.loc 1 1632 0
 1446 0982 3846     		mov	r0, r7
 1447 0984 FFF7FEFF 		bl	__aeabi_i2f
 1448              	.LBB108:
 1449              	.LBB52:
 1450              		.loc 1 142 0
 1451 0988 0021     		movs	r1, #0
 1452              	.LBE52:
 1453              	.LBE108:
 1454              		.loc 1 1632 0
 1455 098a 0190     		str	r0, [sp, #4]	@ float
 1456              	.LVL119:
 1457              	.LBB109:
 1458              	.LBB53:
 1459              		.loc 1 142 0
 1460 098c FFF7FEFF 		bl	__aeabi_fcmpeq
 1461              	.LVL120:
 1462 0990 0028     		cmp	r0, #0
 1463 0992 00F0C880 		beq	.L277
 1464 0996 0023     		movs	r3, #0
 1465 0998 0193     		str	r3, [sp, #4]	@ float
 1466              	.L118:
 1467              	.LBE53:
 1468              	.LBE109:
 1469              		.loc 1 1632 0
 1470 099a 4046     		mov	r0, r8
 1471 099c FFF7FEFF 		bl	__aeabi_i2f
 1472              	.LBB110:
 1473              	.LBB79:
 1474              		.loc 1 142 0
 1475 09a0 0021     		movs	r1, #0
 1476              	.LBE79:
 1477              	.LBE110:
 1478              		.loc 1 1632 0
 1479 09a2 0490     		str	r0, [sp, #16]	@ float
 1480              	.LVL121:
 1481              	.LBB111:
 1482              	.LBB80:
ARM GAS  /tmp/ccdUEzgz.s 			page 27


 1483              		.loc 1 142 0
 1484 09a4 FFF7FEFF 		bl	__aeabi_fcmpeq
 1485              	.LVL122:
 1486 09a8 0021     		movs	r1, #0
 1487 09aa 48B9     		cbnz	r0, .L116
 1488              		.loc 1 143 0
 1489 09ac 0021     		movs	r1, #0
 1490 09ae 0498     		ldr	r0, [sp, #16]	@ float
 1491 09b0 FFF7FEFF 		bl	__aeabi_fcmpgt
 1492 09b4 4FF07E51 		mov	r1, #1065353216
 1493 09b8 10B9     		cbnz	r0, .L116
 1494 09ba 0021     		movs	r1, #0
 1495 09bc CBF68071 		movt	r1, 49024
 1496              	.L116:
 1497              	.LBE80:
 1498              	.LBE111:
 1499              		.loc 1 1632 0
 1500 09c0 0198     		ldr	r0, [sp, #4]	@ float
 1501 09c2 FFF7FEFF 		bl	__aeabi_fcmpeq
 1502 09c6 0028     		cmp	r0, #0
 1503 09c8 40F00F81 		bne	.L115
 1504              		.loc 1 1635 0
 1505 09cc 424A     		ldr	r2, .L318+20
 1506 09ce A2F80EB0 		strh	fp, [r2, #14]	@ movhi
 1507 09d2 64E4     		b	.L108
 1508              	.LVL123:
 1509              	.L164:
 1510              		.loc 1 1632 0
 1511 09d4 3846     		mov	r0, r7
 1512 09d6 FFF7FEFF 		bl	__aeabi_i2f
 1513              	.LBB112:
 1514              	.LBB54:
 1515              		.loc 1 142 0
 1516 09da 0021     		movs	r1, #0
 1517              	.LBE54:
 1518              	.LBE112:
 1519              		.loc 1 1632 0
 1520 09dc 0190     		str	r0, [sp, #4]	@ float
 1521              	.LVL124:
 1522              	.LBB113:
 1523              	.LBB55:
 1524              		.loc 1 142 0
 1525 09de FFF7FEFF 		bl	__aeabi_fcmpeq
 1526              	.LVL125:
 1527 09e2 0028     		cmp	r0, #0
 1528 09e4 00F08980 		beq	.L295
 1529 09e8 0023     		movs	r3, #0
 1530 09ea 0193     		str	r3, [sp, #4]	@ float
 1531              	.L172:
 1532              	.LBE55:
 1533              	.LBE113:
 1534              		.loc 1 1632 0
 1535 09ec 4046     		mov	r0, r8
 1536 09ee FFF7FEFF 		bl	__aeabi_i2f
 1537              	.LBB114:
 1538              	.LBB81:
 1539              		.loc 1 142 0
ARM GAS  /tmp/ccdUEzgz.s 			page 28


 1540 09f2 0021     		movs	r1, #0
 1541              	.LBE81:
 1542              	.LBE114:
 1543              		.loc 1 1632 0
 1544 09f4 0490     		str	r0, [sp, #16]	@ float
 1545              	.LVL126:
 1546              	.LBB115:
 1547              	.LBB82:
 1548              		.loc 1 142 0
 1549 09f6 FFF7FEFF 		bl	__aeabi_fcmpeq
 1550              	.LVL127:
 1551 09fa 0021     		movs	r1, #0
 1552 09fc 48B9     		cbnz	r0, .L170
 1553              		.loc 1 143 0
 1554 09fe 0021     		movs	r1, #0
 1555 0a00 0498     		ldr	r0, [sp, #16]	@ float
 1556 0a02 FFF7FEFF 		bl	__aeabi_fcmpgt
 1557 0a06 4FF07E51 		mov	r1, #1065353216
 1558 0a0a 10B9     		cbnz	r0, .L170
 1559 0a0c 0021     		movs	r1, #0
 1560 0a0e CBF68071 		movt	r1, 49024
 1561              	.L170:
 1562              	.LBE82:
 1563              	.LBE115:
 1564              		.loc 1 1632 0
 1565 0a12 0198     		ldr	r0, [sp, #4]	@ float
 1566 0a14 FFF7FEFF 		bl	__aeabi_fcmpeq
 1567 0a18 0028     		cmp	r0, #0
 1568 0a1a 40F0E080 		bne	.L169
 1569              		.loc 1 1635 0
 1570 0a1e 2F4A     		ldr	r2, .L318+24
 1571 0a20 A2F80EB0 		strh	fp, [r2, #14]	@ movhi
 1572 0a24 B9E4     		b	.L162
 1573              	.LVL128:
 1574              	.L128:
 1575              		.loc 1 1632 0
 1576 0a26 3846     		mov	r0, r7
 1577 0a28 FFF7FEFF 		bl	__aeabi_i2f
 1578              	.LBB116:
 1579              	.LBB56:
 1580              		.loc 1 142 0
 1581 0a2c 0021     		movs	r1, #0
 1582              	.LBE56:
 1583              	.LBE116:
 1584              		.loc 1 1632 0
 1585 0a2e 0190     		str	r0, [sp, #4]	@ float
 1586              	.LVL129:
 1587              	.LBB117:
 1588              	.LBB57:
 1589              		.loc 1 142 0
 1590 0a30 FFF7FEFF 		bl	__aeabi_fcmpeq
 1591              	.LVL130:
 1592 0a34 0028     		cmp	r0, #0
 1593 0a36 6BD0     		beq	.L283
 1594 0a38 0023     		movs	r3, #0
 1595 0a3a 0193     		str	r3, [sp, #4]	@ float
 1596              	.L136:
ARM GAS  /tmp/ccdUEzgz.s 			page 29


 1597              	.LBE57:
 1598              	.LBE117:
 1599              		.loc 1 1632 0
 1600 0a3c 4046     		mov	r0, r8
 1601 0a3e FFF7FEFF 		bl	__aeabi_i2f
 1602              	.LBB118:
 1603              	.LBB83:
 1604              		.loc 1 142 0
 1605 0a42 0021     		movs	r1, #0
 1606              	.LBE83:
 1607              	.LBE118:
 1608              		.loc 1 1632 0
 1609 0a44 0490     		str	r0, [sp, #16]	@ float
 1610              	.LVL131:
 1611              	.LBB119:
 1612              	.LBB84:
 1613              		.loc 1 142 0
 1614 0a46 FFF7FEFF 		bl	__aeabi_fcmpeq
 1615              	.LVL132:
 1616 0a4a 0021     		movs	r1, #0
 1617 0a4c 48B9     		cbnz	r0, .L134
 1618              		.loc 1 143 0
 1619 0a4e 0021     		movs	r1, #0
 1620 0a50 0498     		ldr	r0, [sp, #16]	@ float
 1621 0a52 FFF7FEFF 		bl	__aeabi_fcmpgt
 1622 0a56 4FF07E51 		mov	r1, #1065353216
 1623 0a5a 10B9     		cbnz	r0, .L134
 1624 0a5c 0021     		movs	r1, #0
 1625 0a5e CBF68071 		movt	r1, 49024
 1626              	.L134:
 1627              	.LBE84:
 1628              	.LBE119:
 1629              		.loc 1 1632 0
 1630 0a62 0198     		ldr	r0, [sp, #4]	@ float
 1631 0a64 FFF7FEFF 		bl	__aeabi_fcmpeq
 1632 0a68 0028     		cmp	r0, #0
 1633 0a6a 40F0CA80 		bne	.L133
 1634              		.loc 1 1635 0
 1635 0a6e 1C4A     		ldr	r2, .L318+28
 1636 0a70 A2F80EB0 		strh	fp, [r2, #14]	@ movhi
 1637 0a74 3DE4     		b	.L126
 1638              	.LVL133:
 1639              	.L146:
 1640              		.loc 1 1632 0
 1641 0a76 3846     		mov	r0, r7
 1642 0a78 FFF7FEFF 		bl	__aeabi_i2f
 1643              	.LBB120:
 1644              	.LBB58:
 1645              		.loc 1 142 0
 1646 0a7c 0021     		movs	r1, #0
 1647              	.LBE58:
 1648              	.LBE120:
 1649              		.loc 1 1632 0
 1650 0a7e 0190     		str	r0, [sp, #4]	@ float
 1651              	.LVL134:
 1652              	.LBB121:
 1653              	.LBB59:
ARM GAS  /tmp/ccdUEzgz.s 			page 30


 1654              		.loc 1 142 0
 1655 0a80 FFF7FEFF 		bl	__aeabi_fcmpeq
 1656              	.LVL135:
 1657 0a84 70B3     		cbz	r0, .L289
 1658 0a86 0023     		movs	r3, #0
 1659 0a88 0193     		str	r3, [sp, #4]	@ float
 1660              	.L154:
 1661              	.LBE59:
 1662              	.LBE121:
 1663              		.loc 1 1632 0
 1664 0a8a 4046     		mov	r0, r8
 1665 0a8c FFF7FEFF 		bl	__aeabi_i2f
 1666              	.LBB122:
 1667              	.LBB85:
 1668              		.loc 1 142 0
 1669 0a90 0021     		movs	r1, #0
 1670              	.LBE85:
 1671              	.LBE122:
 1672              		.loc 1 1632 0
 1673 0a92 0490     		str	r0, [sp, #16]	@ float
 1674              	.LVL136:
 1675              	.LBB123:
 1676              	.LBB86:
 1677              		.loc 1 142 0
 1678 0a94 FFF7FEFF 		bl	__aeabi_fcmpeq
 1679              	.LVL137:
 1680 0a98 0021     		movs	r1, #0
 1681 0a9a 48B9     		cbnz	r0, .L152
 1682              		.loc 1 143 0
 1683 0a9c 0021     		movs	r1, #0
 1684 0a9e 0498     		ldr	r0, [sp, #16]	@ float
 1685 0aa0 FFF7FEFF 		bl	__aeabi_fcmpgt
 1686 0aa4 4FF07E51 		mov	r1, #1065353216
 1687 0aa8 10B9     		cbnz	r0, .L152
 1688 0aaa 0021     		movs	r1, #0
 1689 0aac CBF68071 		movt	r1, 49024
 1690              	.L152:
 1691              	.LBE86:
 1692              	.LBE123:
 1693              		.loc 1 1632 0
 1694 0ab0 0198     		ldr	r0, [sp, #4]	@ float
 1695 0ab2 FFF7FEFF 		bl	__aeabi_fcmpeq
 1696 0ab6 0028     		cmp	r0, #0
 1697 0ab8 40D1     		bne	.L151
 1698              		.loc 1 1635 0
 1699 0aba 024A     		ldr	r2, .L318
 1700 0abc A2F80EB0 		strh	fp, [r2, #14]	@ movhi
 1701 0ac0 41E4     		b	.L144
 1702              	.L319:
 1703 0ac2 00BF     		.align	2
 1704              	.L318:
 1705 0ac4 64030000 		.word	.LANCHOR0+868
 1706 0ac8 7C000000 		.word	.LANCHOR0+124
 1707 0acc F0010000 		.word	.LANCHOR0+496
 1708 0ad0 F8000000 		.word	.LANCHOR0+248
 1709 0ad4 74010000 		.word	.LANCHOR0+372
 1710 0ad8 6C020000 		.word	.LANCHOR0+620
ARM GAS  /tmp/ccdUEzgz.s 			page 31


 1711 0adc E0030000 		.word	.LANCHOR0+992
 1712 0ae0 E8020000 		.word	.LANCHOR0+744
 1713              	.LVL138:
 1714              	.L289:
 1715              	.LBB124:
 1716              	.LBB60:
 1717              		.loc 1 143 0
 1718 0ae4 0198     		ldr	r0, [sp, #4]	@ float
 1719 0ae6 0021     		movs	r1, #0
 1720 0ae8 FFF7FEFF 		bl	__aeabi_fcmpgt
 1721 0aec 0028     		cmp	r0, #0
 1722 0aee 00F09C80 		beq	.L292
 1723 0af2 4FF07E51 		mov	r1, #1065353216
 1724 0af6 0191     		str	r1, [sp, #4]	@ float
 1725 0af8 C7E7     		b	.L154
 1726              	.LVL139:
 1727              	.L295:
 1728 0afa 0198     		ldr	r0, [sp, #4]	@ float
 1729 0afc 0021     		movs	r1, #0
 1730 0afe FFF7FEFF 		bl	__aeabi_fcmpgt
 1731 0b02 0028     		cmp	r0, #0
 1732 0b04 00F09B80 		beq	.L298
 1733 0b08 4FF07E51 		mov	r1, #1065353216
 1734 0b0c 0191     		str	r1, [sp, #4]	@ float
 1735 0b0e 6DE7     		b	.L172
 1736              	.LVL140:
 1737              	.L283:
 1738 0b10 0198     		ldr	r0, [sp, #4]	@ float
 1739 0b12 0021     		movs	r1, #0
 1740 0b14 FFF7FEFF 		bl	__aeabi_fcmpgt
 1741 0b18 0028     		cmp	r0, #0
 1742 0b1a 00F08B80 		beq	.L286
 1743 0b1e 4FF07E51 		mov	r1, #1065353216
 1744 0b22 0191     		str	r1, [sp, #4]	@ float
 1745 0b24 8AE7     		b	.L136
 1746              	.LVL141:
 1747              	.L277:
 1748 0b26 0198     		ldr	r0, [sp, #4]	@ float
 1749 0b28 0021     		movs	r1, #0
 1750 0b2a FFF7FEFF 		bl	__aeabi_fcmpgt
 1751 0b2e 0028     		cmp	r0, #0
 1752 0b30 00F08A80 		beq	.L280
 1753 0b34 4FF07E51 		mov	r1, #1065353216
 1754 0b38 0191     		str	r1, [sp, #4]	@ float
 1755 0b3a 2EE7     		b	.L118
 1756              	.LVL142:
 1757              	.L151:
 1758              	.LBE60:
 1759              	.LBE124:
 1760              		.loc 1 1633 0
 1761 0b3c 4F4F     		ldr	r7, .L320
 1762 0b3e A7F80EA0 		strh	sl, [r7, #14]	@ movhi
 1763              		.loc 1 1630 0
 1764 0b42 4746     		mov	r7, r8
 1765 0b44 FFF7FFBB 		b	.L144
 1766              	.LVL143:
 1767              	.L265:
ARM GAS  /tmp/ccdUEzgz.s 			page 32


 1768              	.LBB125:
 1769              	.LBB61:
 1770              		.loc 1 143 0
 1771 0b48 0198     		ldr	r0, [sp, #4]	@ float
 1772 0b4a 0021     		movs	r1, #0
 1773 0b4c FFF7FEFF 		bl	__aeabi_fcmpgt
 1774 0b50 0028     		cmp	r0, #0
 1775 0b52 7ED0     		beq	.L268
 1776 0b54 4FF07E51 		mov	r1, #1065353216
 1777 0b58 0191     		str	r1, [sp, #4]	@ float
 1778 0b5a F1E6     		b	.L82
 1779              	.LVL144:
 1780              	.L61:
 1781              	.LBE61:
 1782              	.LBE125:
 1783              		.loc 1 1633 0
 1784 0b5c 484F     		ldr	r7, .L320+4
 1785 0b5e A7F80EA0 		strh	sl, [r7, #14]	@ movhi
 1786              		.loc 1 1630 0
 1787 0b62 4746     		mov	r7, r8
 1788 0b64 FFF71DBB 		b	.L54
 1789              	.LVL145:
 1790              	.L245:
 1791              		.loc 1 1635 0
 1792 0b68 0299     		ldr	r1, [sp, #8]
 1793 0b6a A1F80EB0 		strh	fp, [r1, #14]	@ movhi
 1794 0b6e 4FE4     		b	.L12
 1795              	.LVL146:
 1796              	.L97:
 1797              		.loc 1 1633 0
 1798 0b70 444F     		ldr	r7, .L320+8
 1799 0b72 A7F80EA0 		strh	sl, [r7, #14]	@ movhi
 1800              		.loc 1 1630 0
 1801 0b76 4746     		mov	r7, r8
 1802 0b78 FFF767BB 		b	.L90
 1803              	.LVL147:
 1804              	.L259:
 1805              	.LBB126:
 1806              	.LBB62:
 1807              		.loc 1 143 0
 1808 0b7c 0198     		ldr	r0, [sp, #4]	@ float
 1809 0b7e 0021     		movs	r1, #0
 1810 0b80 FFF7FEFF 		bl	__aeabi_fcmpgt
 1811 0b84 0028     		cmp	r0, #0
 1812 0b86 69D0     		beq	.L262
 1813 0b88 4FF07E51 		mov	r1, #1065353216
 1814 0b8c 0191     		str	r1, [sp, #4]	@ float
 1815 0b8e AEE6     		b	.L64
 1816              	.LVL148:
 1817              	.L271:
 1818 0b90 0198     		ldr	r0, [sp, #4]	@ float
 1819 0b92 0021     		movs	r1, #0
 1820 0b94 FFF7FEFF 		bl	__aeabi_fcmpgt
 1821 0b98 0028     		cmp	r0, #0
 1822 0b9a 69D0     		beq	.L274
 1823 0b9c 4FF07E51 		mov	r1, #1065353216
 1824 0ba0 0191     		str	r1, [sp, #4]	@ float
ARM GAS  /tmp/ccdUEzgz.s 			page 33


 1825 0ba2 7BE6     		b	.L100
 1826              	.LVL149:
 1827              	.L180:
 1828              		.loc 1 142 0
 1829 0ba4 0022     		movs	r2, #0
 1830 0ba6 0192     		str	r2, [sp, #4]	@ float
 1831 0ba8 FDE4     		b	.L6
 1832              	.LVL150:
 1833              	.L253:
 1834              		.loc 1 143 0
 1835 0baa 0198     		ldr	r0, [sp, #4]	@ float
 1836 0bac 0021     		movs	r1, #0
 1837 0bae FFF7FEFF 		bl	__aeabi_fcmpgt
 1838 0bb2 0028     		cmp	r0, #0
 1839 0bb4 2FD0     		beq	.L256
 1840 0bb6 4FF07E51 		mov	r1, #1065353216
 1841 0bba 0191     		str	r1, [sp, #4]	@ float
 1842 0bbc 45E6     		b	.L46
 1843              	.LVL151:
 1844              	.L43:
 1845              	.LBE62:
 1846              	.LBE126:
 1847              		.loc 1 1633 0
 1848 0bbe 324F     		ldr	r7, .L320+12
 1849 0bc0 A7F80EA0 		strh	sl, [r7, #14]	@ movhi
 1850              		.loc 1 1630 0
 1851 0bc4 4746     		mov	r7, r8
 1852 0bc6 FFF7C2BA 		b	.L36
 1853              	.LVL152:
 1854              	.L247:
 1855              	.LBB127:
 1856              	.LBB63:
 1857              		.loc 1 143 0
 1858 0bca 0198     		ldr	r0, [sp, #4]	@ float
 1859 0bcc 0021     		movs	r1, #0
 1860 0bce FFF7FEFF 		bl	__aeabi_fcmpgt
 1861 0bd2 0028     		cmp	r0, #0
 1862 0bd4 24D0     		beq	.L250
 1863 0bd6 4FF07E52 		mov	r2, #1065353216
 1864 0bda 0192     		str	r2, [sp, #4]	@ float
 1865 0bdc 62E4     		b	.L28
 1866              	.LVL153:
 1867              	.L169:
 1868              	.LBE63:
 1869              	.LBE127:
 1870              		.loc 1 1633 0
 1871 0bde 2B4F     		ldr	r7, .L320+16
 1872 0be0 A7F80EA0 		strh	sl, [r7, #14]	@ movhi
 1873              		.loc 1 1630 0
 1874 0be4 4746     		mov	r7, r8
 1875 0be6 FFF7D8BB 		b	.L162
 1876              	.LVL154:
 1877              	.L115:
 1878              		.loc 1 1633 0
 1879 0bea 294F     		ldr	r7, .L320+20
 1880 0bec A7F80EA0 		strh	sl, [r7, #14]	@ movhi
 1881              		.loc 1 1630 0
ARM GAS  /tmp/ccdUEzgz.s 			page 34


 1882 0bf0 4746     		mov	r7, r8
 1883 0bf2 FFF754BB 		b	.L108
 1884              	.LVL155:
 1885              	.L79:
 1886              		.loc 1 1633 0
 1887 0bf6 274F     		ldr	r7, .L320+24
 1888 0bf8 A7F80EA0 		strh	sl, [r7, #14]	@ movhi
 1889              		.loc 1 1630 0
 1890 0bfc 4746     		mov	r7, r8
 1891 0bfe FFF7FABA 		b	.L72
 1892              	.LVL156:
 1893              	.L133:
 1894              		.loc 1 1633 0
 1895 0c02 254F     		ldr	r7, .L320+28
 1896 0c04 A7F80EA0 		strh	sl, [r7, #14]	@ movhi
 1897              		.loc 1 1630 0
 1898 0c08 4746     		mov	r7, r8
 1899 0c0a FFF772BB 		b	.L126
 1900              	.LVL157:
 1901              	.L3:
 1902              		.loc 1 1678 0
 1903 0c0e 0020     		movs	r0, #0
 1904 0c10 07B0     		add	sp, sp, #28
 1905 0c12 BDE8F08F 		pop	{r4, r5, r6, r7, r8, r9, sl, fp, pc}
 1906              	.LVL158:
 1907              	.L256:
 1908              	.LBB128:
 1909              	.LBB64:
 1910              		.loc 1 143 0
 1911 0c16 0020     		movs	r0, #0
 1912 0c18 CBF68070 		movt	r0, 49024
 1913 0c1c 0190     		str	r0, [sp, #4]	@ float
 1914 0c1e 14E6     		b	.L46
 1915              	.LVL159:
 1916              	.L250:
 1917 0c20 0020     		movs	r0, #0
 1918 0c22 CBF68070 		movt	r0, 49024
 1919 0c26 0190     		str	r0, [sp, #4]	@ float
 1920 0c28 3CE4     		b	.L28
 1921              	.LVL160:
 1922              	.L292:
 1923 0c2a 0020     		movs	r0, #0
 1924 0c2c CBF68070 		movt	r0, 49024
 1925 0c30 0190     		str	r0, [sp, #4]	@ float
 1926 0c32 2AE7     		b	.L154
 1927              	.LVL161:
 1928              	.L286:
 1929 0c34 0020     		movs	r0, #0
 1930 0c36 CBF68070 		movt	r0, 49024
 1931 0c3a 0190     		str	r0, [sp, #4]	@ float
 1932 0c3c FEE6     		b	.L136
 1933              	.LVL162:
 1934              	.L298:
 1935 0c3e 0020     		movs	r0, #0
 1936 0c40 CBF68070 		movt	r0, 49024
 1937 0c44 0190     		str	r0, [sp, #4]	@ float
 1938 0c46 D1E6     		b	.L172
ARM GAS  /tmp/ccdUEzgz.s 			page 35


 1939              	.LVL163:
 1940              	.L280:
 1941 0c48 0020     		movs	r0, #0
 1942 0c4a CBF68070 		movt	r0, 49024
 1943 0c4e 0190     		str	r0, [sp, #4]	@ float
 1944 0c50 A3E6     		b	.L118
 1945              	.LVL164:
 1946              	.L268:
 1947 0c52 0020     		movs	r0, #0
 1948 0c54 CBF68070 		movt	r0, 49024
 1949 0c58 0190     		str	r0, [sp, #4]	@ float
 1950 0c5a 71E6     		b	.L82
 1951              	.LVL165:
 1952              	.L262:
 1953 0c5c 0020     		movs	r0, #0
 1954 0c5e CBF68070 		movt	r0, 49024
 1955 0c62 0190     		str	r0, [sp, #4]	@ float
 1956 0c64 43E6     		b	.L64
 1957              	.LVL166:
 1958              	.L243:
 1959 0c66 0020     		movs	r0, #0
 1960 0c68 CBF68070 		movt	r0, 49024
 1961 0c6c 0190     		str	r0, [sp, #4]	@ float
 1962 0c6e 9AE4     		b	.L6
 1963              	.LVL167:
 1964              	.L274:
 1965 0c70 0020     		movs	r0, #0
 1966 0c72 CBF68070 		movt	r0, 49024
 1967 0c76 0190     		str	r0, [sp, #4]	@ float
 1968 0c78 10E6     		b	.L100
 1969              	.L321:
 1970 0c7a 00BF     		.align	2
 1971              	.L320:
 1972 0c7c 64030000 		.word	.LANCHOR0+868
 1973 0c80 F8000000 		.word	.LANCHOR0+248
 1974 0c84 F0010000 		.word	.LANCHOR0+496
 1975 0c88 7C000000 		.word	.LANCHOR0+124
 1976 0c8c E0030000 		.word	.LANCHOR0+992
 1977 0c90 6C020000 		.word	.LANCHOR0+620
 1978 0c94 74010000 		.word	.LANCHOR0+372
 1979 0c98 E8020000 		.word	.LANCHOR0+744
 1980              	.LBE64:
 1981              	.LBE128:
 1982              		.cfi_endproc
 1983              	.LFE108:
 1984              		.size	SmartMotorSlewRateTask, .-SmartMotorSlewRateTask
 1985 0c9c AFF30080 		.section	.text.SmartMotorGetPtr,"ax",%progbits
 1986              		.align	2
 1987              		.p2align 4,,15
 1988              		.global	SmartMotorGetPtr
 1989              		.thumb
 1990              		.thumb_func
 1991              		.type	SmartMotorGetPtr, %function
 1992              	SmartMotorGetPtr:
 1993              	.LFB69:
 1994              		.loc 1 167 0
 1995              		.cfi_startproc
ARM GAS  /tmp/ccdUEzgz.s 			page 36


 1996              		@ args = 0, pretend = 0, frame = 0
 1997              		@ frame_needed = 0, uses_anonymous_args = 0
 1998              		@ link register save eliminated.
 1999              	.LVL168:
 2000              		.loc 1 169 0
 2001 0000 C3B2     		uxtb	r3, r0
 2002 0002 092B     		cmp	r3, #9
 2003 0004 08D8     		bhi	.L324
 2004              		.loc 1 172 0
 2005 0006 40F20001 		movw	r1, #:lower16:.LANCHOR0
 2006 000a 4201     		lsls	r2, r0, #5
 2007 000c C0F20001 		movt	r1, #:upper16:.LANCHOR0
 2008 0010 101A     		subs	r0, r2, r0
 2009              	.LVL169:
 2010 0012 01EB8000 		add	r0, r1, r0, lsl #2
 2011 0016 7047     		bx	lr
 2012              	.L324:
 2013              		.loc 1 170 0
 2014 0018 0020     		movs	r0, #0
 2015              		.loc 1 173 0
 2016 001a 7047     		bx	lr
 2017              		.cfi_endproc
 2018              	.LFE69:
 2019              		.size	SmartMotorGetPtr, .-SmartMotorGetPtr
 2020 001c AFF30080 		.section	.text.SmartMotorControllerGetPtr,"ax",%progbits
 2021              		.align	2
 2022              		.p2align 4,,15
 2023              		.global	SmartMotorControllerGetPtr
 2024              		.thumb
 2025              		.thumb_func
 2026              		.type	SmartMotorControllerGetPtr, %function
 2027              	SmartMotorControllerGetPtr:
 2028              	.LFB70:
 2029              		.loc 1 183 0
 2030              		.cfi_startproc
 2031              		@ args = 0, pretend = 0, frame = 0
 2032              		@ frame_needed = 0, uses_anonymous_args = 0
 2033              		@ link register save eliminated.
 2034              	.LVL170:
 2035              		.loc 1 185 0
 2036 0000 83B2     		uxth	r3, r0
 2037 0002 092B     		cmp	r3, #9
 2038 0004 07D8     		bhi	.L327
 2039              		.loc 1 188 0
 2040 0006 40F20001 		movw	r1, #:lower16:.LANCHOR3
 2041 000a C0F20001 		movt	r1, #:upper16:.LANCHOR3
 2042 000e 3422     		movs	r2, #52
 2043 0010 02FB0010 		mla	r0, r2, r0, r1
 2044              	.LVL171:
 2045 0014 7047     		bx	lr
 2046              	.L327:
 2047              		.loc 1 186 0
 2048 0016 0020     		movs	r0, #0
 2049              		.loc 1 189 0
 2050 0018 7047     		bx	lr
 2051              		.cfi_endproc
 2052              	.LFE70:
ARM GAS  /tmp/ccdUEzgz.s 			page 37


 2053              		.size	SmartMotorControllerGetPtr, .-SmartMotorControllerGetPtr
 2054 001a 00BFAFF3 		.section	.text.SmartMotorGetSpeed,"ax",%progbits
 2054      0080
 2055              		.align	2
 2056              		.p2align 4,,15
 2057              		.global	SmartMotorGetSpeed
 2058              		.thumb
 2059              		.thumb_func
 2060              		.type	SmartMotorGetSpeed, %function
 2061              	SmartMotorGetSpeed:
 2062              	.LFB71:
 2063              		.loc 1 199 0
 2064              		.cfi_startproc
 2065              		@ args = 0, pretend = 0, frame = 0
 2066              		@ frame_needed = 0, uses_anonymous_args = 0
 2067              		@ link register save eliminated.
 2068              	.LVL172:
 2069              		.loc 1 201 0
 2070 0000 C3B2     		uxtb	r3, r0
 2071 0002 092B     		cmp	r3, #9
 2072 0004 09D8     		bhi	.L330
 2073              		.loc 1 204 0
 2074 0006 4301     		lsls	r3, r0, #5
 2075 0008 40F20001 		movw	r1, #:lower16:.LANCHOR0
 2076 000c C0F20001 		movt	r1, #:upper16:.LANCHOR0
 2077 0010 1A1A     		subs	r2, r3, r0
 2078 0012 01EB8200 		add	r0, r1, r2, lsl #2
 2079              	.LVL173:
 2080 0016 006B     		ldr	r0, [r0, #48]	@ float
 2081 0018 7047     		bx	lr
 2082              	.LVL174:
 2083              	.L330:
 2084              		.loc 1 202 0
 2085 001a 0020     		movs	r0, #0
 2086              	.LVL175:
 2087              		.loc 1 205 0
 2088 001c 7047     		bx	lr
 2089              		.cfi_endproc
 2090              	.LFE71:
 2091              		.size	SmartMotorGetSpeed, .-SmartMotorGetSpeed
 2092 001e 00BF     		.section	.text._SmartMotorGetCurrent,"ax",%progbits
 2093              		.align	2
 2094              		.p2align 4,,15
 2095              		.global	_SmartMotorGetCurrent
 2096              		.thumb
 2097              		.thumb_func
 2098              		.type	_SmartMotorGetCurrent, %function
 2099              	_SmartMotorGetCurrent:
 2100              	.LFB72:
 2101              		.loc 1 217 0
 2102              		.cfi_startproc
 2103              		@ args = 4, pretend = 12, frame = 0
 2104              		@ frame_needed = 0, uses_anonymous_args = 1
 2105              		@ link register save eliminated.
 2106              	.LVL176:
 2107 0000 0EB4     		push	{r1, r2, r3}
 2108              	.LCFI2:
ARM GAS  /tmp/ccdUEzgz.s 			page 38


 2109              		.cfi_def_cfa_offset 12
 2110              		.cfi_offset 3, -4
 2111              		.cfi_offset 2, -8
 2112              		.cfi_offset 1, -12
 2113              		.loc 1 219 0
 2114 0002 C3B2     		uxtb	r3, r0
 2115 0004 092B     		cmp	r3, #9
 2116 0006 18D8     		bhi	.L334
 2117              		.loc 1 223 0
 2118 0008 0099     		ldr	r1, [sp, #0]
 2119 000a 61B9     		cbnz	r1, .L335
 2120              		.loc 1 226 0
 2121 000c 4301     		lsls	r3, r0, #5
 2122 000e 40F2000C 		movw	ip, #:lower16:.LANCHOR0
 2123 0012 C0F2000C 		movt	ip, #:upper16:.LANCHOR0
 2124 0016 1A1A     		subs	r2, r3, r0
 2125 0018 0CEB8200 		add	r0, ip, r2, lsl #2
 2126              	.LVL177:
 2127 001c 016D     		ldr	r1, [r0, #80]
 2128 001e 21F00040 		bic	r0, r1, #-2147483648
 2129              	.L332:
 2130              		.loc 1 227 0
 2131 0022 03B0     		add	sp, sp, #12
 2132 0024 7047     		bx	lr
 2133              	.LVL178:
 2134              	.L335:
 2135              		.loc 1 224 0
 2136 0026 4301     		lsls	r3, r0, #5
 2137 0028 40F2000C 		movw	ip, #:lower16:.LANCHOR0
 2138 002c C0F2000C 		movt	ip, #:upper16:.LANCHOR0
 2139 0030 1A1A     		subs	r2, r3, r0
 2140 0032 0CEB8200 		add	r0, ip, r2, lsl #2
 2141              	.LVL179:
 2142 0036 006D     		ldr	r0, [r0, #80]	@ float
 2143 0038 F3E7     		b	.L332
 2144              	.LVL180:
 2145              	.L334:
 2146              		.loc 1 220 0
 2147 003a 0020     		movs	r0, #0
 2148              	.LVL181:
 2149 003c F1E7     		b	.L332
 2150              		.cfi_endproc
 2151              	.LFE72:
 2152              		.size	_SmartMotorGetCurrent, .-_SmartMotorGetCurrent
 2153 003e 00BF     		.section	.text.SmartMotorGetTemperature,"ax",%progbits
 2154              		.align	2
 2155              		.p2align 4,,15
 2156              		.global	SmartMotorGetTemperature
 2157              		.thumb
 2158              		.thumb_func
 2159              		.type	SmartMotorGetTemperature, %function
 2160              	SmartMotorGetTemperature:
 2161              	.LFB73:
 2162              		.loc 1 237 0
 2163              		.cfi_startproc
 2164              		@ args = 0, pretend = 0, frame = 0
 2165              		@ frame_needed = 0, uses_anonymous_args = 0
ARM GAS  /tmp/ccdUEzgz.s 			page 39


 2166              		@ link register save eliminated.
 2167              	.LVL182:
 2168              		.loc 1 239 0
 2169 0000 C3B2     		uxtb	r3, r0
 2170 0002 092B     		cmp	r3, #9
 2171 0004 09D8     		bhi	.L338
 2172              		.loc 1 242 0
 2173 0006 4301     		lsls	r3, r0, #5
 2174 0008 40F20001 		movw	r1, #:lower16:.LANCHOR0
 2175 000c C0F20001 		movt	r1, #:upper16:.LANCHOR0
 2176 0010 1A1A     		subs	r2, r3, r0
 2177 0012 01EB8200 		add	r0, r1, r2, lsl #2
 2178              	.LVL183:
 2179 0016 406E     		ldr	r0, [r0, #100]	@ float
 2180 0018 7047     		bx	lr
 2181              	.LVL184:
 2182              	.L338:
 2183              		.loc 1 240 0
 2184 001a 0020     		movs	r0, #0
 2185              	.LVL185:
 2186              		.loc 1 243 0
 2187 001c 7047     		bx	lr
 2188              		.cfi_endproc
 2189              	.LFE73:
 2190              		.size	SmartMotorGetTemperature, .-SmartMotorGetTemperature
 2191 001e 00BF     		.section	.text.SmartMotorGetLimitCmd,"ax",%progbits
 2192              		.align	2
 2193              		.p2align 4,,15
 2194              		.global	SmartMotorGetLimitCmd
 2195              		.thumb
 2196              		.thumb_func
 2197              		.type	SmartMotorGetLimitCmd, %function
 2198              	SmartMotorGetLimitCmd:
 2199              	.LFB74:
 2200              		.loc 1 253 0
 2201              		.cfi_startproc
 2202              		@ args = 0, pretend = 0, frame = 0
 2203              		@ frame_needed = 0, uses_anonymous_args = 0
 2204              		@ link register save eliminated.
 2205              	.LVL186:
 2206              		.loc 1 255 0
 2207 0000 C3B2     		uxtb	r3, r0
 2208 0002 092B     		cmp	r3, #9
 2209 0004 0AD8     		bhi	.L341
 2210              		.loc 1 258 0
 2211 0006 4301     		lsls	r3, r0, #5
 2212 0008 40F20001 		movw	r1, #:lower16:.LANCHOR0
 2213 000c C0F20001 		movt	r1, #:upper16:.LANCHOR0
 2214 0010 1A1A     		subs	r2, r3, r0
 2215 0012 01EB8200 		add	r0, r1, r2, lsl #2
 2216              	.LVL187:
 2217 0016 B0F91400 		ldrsh	r0, [r0, #20]
 2218 001a 7047     		bx	lr
 2219              	.LVL188:
 2220              	.L341:
 2221              		.loc 1 256 0
 2222 001c 0020     		movs	r0, #0
ARM GAS  /tmp/ccdUEzgz.s 			page 40


 2223              	.LVL189:
 2224              		.loc 1 259 0
 2225 001e 7047     		bx	lr
 2226              		.cfi_endproc
 2227              	.LFE74:
 2228              		.size	SmartMotorGetLimitCmd, .-SmartMotorGetLimitCmd
 2229              		.section	.text._SmartMotorSetLimitCurent,"ax",%progbits
 2230              		.align	2
 2231              		.p2align 4,,15
 2232              		.global	_SmartMotorSetLimitCurent
 2233              		.thumb
 2234              		.thumb_func
 2235              		.type	_SmartMotorSetLimitCurent, %function
 2236              	_SmartMotorSetLimitCurent:
 2237              	.LFB75:
 2238              		.loc 1 273 0
 2239              		.cfi_startproc
 2240              		@ args = 4, pretend = 12, frame = 0
 2241              		@ frame_needed = 0, uses_anonymous_args = 1
 2242              		@ link register save eliminated.
 2243              	.LVL190:
 2244 0000 0EB4     		push	{r1, r2, r3}
 2245              	.LCFI3:
 2246              		.cfi_def_cfa_offset 12
 2247              		.cfi_offset 3, -4
 2248              		.cfi_offset 2, -8
 2249              		.cfi_offset 1, -12
 2250              		.loc 1 275 0
 2251 0002 C3B2     		uxtb	r3, r0
 2252 0004 092B     		cmp	r3, #9
 2253 0006 09D8     		bhi	.L342
 2254              		.loc 1 278 0
 2255 0008 4201     		lsls	r2, r0, #5
 2256 000a 40F20001 		movw	r1, #:lower16:.LANCHOR0
 2257 000e 131A     		subs	r3, r2, r0
 2258 0010 C0F20001 		movt	r1, #:upper16:.LANCHOR0
 2259 0014 009A     		ldr	r2, [sp, #0]	@ float
 2260 0016 01EB8300 		add	r0, r1, r3, lsl #2
 2261              	.LVL191:
 2262 001a 8261     		str	r2, [r0, #24]	@ float
 2263              	.L342:
 2264              		.loc 1 279 0
 2265 001c 03B0     		add	sp, sp, #12
 2266 001e 7047     		bx	lr
 2267              		.cfi_endproc
 2268              	.LFE75:
 2269              		.size	_SmartMotorSetLimitCurent, .-_SmartMotorSetLimitCurent
 2270              		.global	__aeabi_fdiv
 2271              		.global	__aeabi_fsub
 2272              		.global	__aeabi_f2d
 2273              		.global	__aeabi_dmul
 2274              		.global	__aeabi_ddiv
 2275              		.global	__aeabi_d2f
 2276              		.global	__aeabi_fmul
 2277              		.section	.text.SmartMotorSetFreeRpm,"ax",%progbits
 2278              		.align	2
 2279              		.p2align 4,,15
ARM GAS  /tmp/ccdUEzgz.s 			page 41


 2280              		.global	SmartMotorSetFreeRpm
 2281              		.thumb
 2282              		.thumb_func
 2283              		.type	SmartMotorSetFreeRpm, %function
 2284              	SmartMotorSetFreeRpm:
 2285              	.LFB76:
 2286              		.loc 1 289 0
 2287              		.cfi_startproc
 2288              		@ args = 0, pretend = 0, frame = 0
 2289              		@ frame_needed = 0, uses_anonymous_args = 0
 2290              	.LVL192:
 2291 0000 F8B5     		push	{r3, r4, r5, r6, r7, lr}
 2292              	.LCFI4:
 2293              		.cfi_def_cfa_offset 24
 2294              		.cfi_offset 14, -4
 2295              		.cfi_offset 7, -8
 2296              		.cfi_offset 6, -12
 2297              		.cfi_offset 5, -16
 2298              		.cfi_offset 4, -20
 2299              		.cfi_offset 3, -24
 2300              		.loc 1 291 0
 2301 0002 C3B2     		uxtb	r3, r0
 2302 0004 092B     		cmp	r3, #9
 2303 0006 30D8     		bhi	.L344
 2304              		.loc 1 294 0
 2305 0008 4401     		lsls	r4, r0, #5
 2306 000a 40F20003 		movw	r3, #:lower16:.LANCHOR0
 2307 000e C0F20003 		movt	r3, #:upper16:.LANCHOR0
 2308 0012 241A     		subs	r4, r4, r0
 2309              		.loc 1 297 0
 2310 0014 0846     		mov	r0, r1
 2311              	.LVL193:
 2312              		.loc 1 294 0
 2313 0016 03EB8404 		add	r4, r3, r4, lsl #2
 2314              	.LVL194:
 2315              		.loc 1 297 0
 2316 001a FFF7FEFF 		bl	__aeabi_i2f
 2317              	.LVL195:
 2318 001e 0546     		mov	r5, r0
 2319              		.loc 1 300 0
 2320 0020 A16B     		ldr	r1, [r4, #56]	@ float
 2321 0022 606B     		ldr	r0, [r4, #52]	@ float
 2322              		.loc 1 297 0
 2323 0024 A564     		str	r5, [r4, #72]	@ float
 2324              		.loc 1 300 0
 2325 0026 FFF7FEFF 		bl	__aeabi_fdiv
 2326 002a 0146     		mov	r1, r0
 2327 002c 4FF07E50 		mov	r0, #1065353216
 2328 0030 FFF7FEFF 		bl	__aeabi_fsub
 2329 0034 FFF7FEFF 		bl	__aeabi_f2d
 2330 0038 0DA3     		adr	r3, .L346
 2331 003a D3E90023 		ldrd	r2, [r3]
 2332 003e FFF7FEFF 		bl	__aeabi_dmul
 2333 0042 0646     		mov	r6, r0
 2334 0044 2846     		mov	r0, r5
 2335 0046 0F46     		mov	r7, r1
 2336 0048 FFF7FEFF 		bl	__aeabi_f2d
ARM GAS  /tmp/ccdUEzgz.s 			page 42


 2337 004c 0246     		mov	r2, r0
 2338 004e 0B46     		mov	r3, r1
 2339 0050 3046     		mov	r0, r6
 2340 0052 3946     		mov	r1, r7
 2341 0054 FFF7FEFF 		bl	__aeabi_ddiv
 2342 0058 FFF7FEFF 		bl	__aeabi_d2f
 2343 005c 0346     		mov	r3, r0
 2344              		.loc 1 303 0
 2345 005e 0146     		mov	r1, r0
 2346              		.loc 1 300 0
 2347 0060 6364     		str	r3, [r4, #68]	@ float
 2348              		.loc 1 303 0
 2349 0062 2846     		mov	r0, r5
 2350 0064 FFF7FEFF 		bl	__aeabi_fmul
 2351 0068 E064     		str	r0, [r4, #76]	@ float
 2352              	.LVL196:
 2353              	.L344:
 2354 006a F8BD     		pop	{r3, r4, r5, r6, r7, pc}
 2355              	.L347:
 2356 006c AFF30080 		.align	3
 2357              	.L346:
 2358 0070 CDCCCCCC 		.word	-858993459
 2359 0074 CCCC1C40 		.word	1075629260
 2360              		.cfi_endproc
 2361              	.LFE76:
 2362              		.size	SmartMotorSetFreeRpm, .-SmartMotorSetFreeRpm
 2363 0078 AFF30080 		.section	.text.SmartMotorSetSlewRate,"ax",%progbits
 2363      AFF30080 
 2364              		.align	2
 2365              		.p2align 4,,15
 2366              		.global	SmartMotorSetSlewRate
 2367              		.thumb
 2368              		.thumb_func
 2369              		.type	SmartMotorSetSlewRate, %function
 2370              	SmartMotorSetSlewRate:
 2371              	.LFB77:
 2372              		.loc 1 315 0
 2373              		.cfi_startproc
 2374              		@ args = 0, pretend = 0, frame = 0
 2375              		@ frame_needed = 0, uses_anonymous_args = 0
 2376              		@ link register save eliminated.
 2377              	.LVL197:
 2378              		.loc 1 317 0
 2379 0000 C3B2     		uxtb	r3, r0
 2380 0002 092B     		cmp	r3, #9
 2381 0004 0AD8     		bhi	.L348
 2382              		.loc 1 321 0
 2383 0006 0029     		cmp	r1, #0
 2384 0008 08DD     		ble	.L348
 2385              		.loc 1 324 0
 2386 000a 4301     		lsls	r3, r0, #5
 2387 000c 40F2000C 		movw	ip, #:lower16:.LANCHOR0
 2388 0010 C0F2000C 		movt	ip, #:upper16:.LANCHOR0
 2389 0014 1A1A     		subs	r2, r3, r0
 2390 0016 0CEB8200 		add	r0, ip, r2, lsl #2
 2391              	.LVL198:
 2392 001a 0182     		strh	r1, [r0, #16]	@ movhi
ARM GAS  /tmp/ccdUEzgz.s 			page 43


 2393              	.L348:
 2394 001c 7047     		bx	lr
 2395              		.cfi_endproc
 2396              	.LFE77:
 2397              		.size	SmartMotorSetSlewRate, .-SmartMotorSetSlewRate
 2398 001e 00BF     		.section	.text.SmartMotorGetControllerCurrent,"ax",%progbits
 2399              		.align	2
 2400              		.p2align 4,,15
 2401              		.global	SmartMotorGetControllerCurrent
 2402              		.thumb
 2403              		.thumb_func
 2404              		.type	SmartMotorGetControllerCurrent, %function
 2405              	SmartMotorGetControllerCurrent:
 2406              	.LFB78:
 2407              		.loc 1 335 0
 2408              		.cfi_startproc
 2409              		@ args = 0, pretend = 0, frame = 0
 2410              		@ frame_needed = 0, uses_anonymous_args = 0
 2411              		@ link register save eliminated.
 2412              	.LVL199:
 2413              		.loc 1 337 0
 2414 0000 83B2     		uxth	r3, r0
 2415 0002 022B     		cmp	r3, #2
 2416 0004 08D8     		bhi	.L352
 2417              		.loc 1 340 0
 2418 0006 40F20001 		movw	r1, #:lower16:.LANCHOR3
 2419 000a C0F20001 		movt	r1, #:upper16:.LANCHOR3
 2420 000e 3422     		movs	r2, #52
 2421 0010 02FB0010 		mla	r0, r2, r0, r1
 2422              	.LVL200:
 2423 0014 4069     		ldr	r0, [r0, #20]	@ float
 2424 0016 7047     		bx	lr
 2425              	.L352:
 2426              		.loc 1 338 0
 2427 0018 0020     		movs	r0, #0
 2428              		.loc 1 341 0
 2429 001a 7047     		bx	lr
 2430              		.cfi_endproc
 2431              	.LFE78:
 2432              		.size	SmartMotorGetControllerCurrent, .-SmartMotorGetControllerCurrent
 2433 001c AFF30080 		.section	.text.SmartMotorGetControllerTemperature,"ax",%progbits
 2434              		.align	2
 2435              		.p2align 4,,15
 2436              		.global	SmartMotorGetControllerTemperature
 2437              		.thumb
 2438              		.thumb_func
 2439              		.type	SmartMotorGetControllerTemperature, %function
 2440              	SmartMotorGetControllerTemperature:
 2441              	.LFB79:
 2442              		.loc 1 350 0
 2443              		.cfi_startproc
 2444              		@ args = 0, pretend = 0, frame = 0
 2445              		@ frame_needed = 0, uses_anonymous_args = 0
 2446              		@ link register save eliminated.
 2447              	.LVL201:
 2448              		.loc 1 352 0
 2449 0000 83B2     		uxth	r3, r0
ARM GAS  /tmp/ccdUEzgz.s 			page 44


 2450 0002 022B     		cmp	r3, #2
 2451 0004 08D8     		bhi	.L355
 2452              		.loc 1 355 0
 2453 0006 40F20001 		movw	r1, #:lower16:.LANCHOR3
 2454 000a C0F20001 		movt	r1, #:upper16:.LANCHOR3
 2455 000e 3422     		movs	r2, #52
 2456 0010 02FB0010 		mla	r0, r2, r0, r1
 2457              	.LVL202:
 2458 0014 006A     		ldr	r0, [r0, #32]	@ float
 2459 0016 7047     		bx	lr
 2460              	.L355:
 2461              		.loc 1 353 0
 2462 0018 0020     		movs	r0, #0
 2463              		.loc 1 356 0
 2464 001a 7047     		bx	lr
 2465              		.cfi_endproc
 2466              	.LFE79:
 2467              		.size	SmartMotorGetControllerTemperature, .-SmartMotorGetControllerTemperature
 2468 001c AFF30080 		.section	.text.SmartMotorSetControllerStatusLed,"ax",%progbits
 2469              		.align	2
 2470              		.p2align 4,,15
 2471              		.global	SmartMotorSetControllerStatusLed
 2472              		.thumb
 2473              		.thumb_func
 2474              		.type	SmartMotorSetControllerStatusLed, %function
 2475              	SmartMotorSetControllerStatusLed:
 2476              	.LFB80:
 2477              		.loc 1 370 0
 2478              		.cfi_startproc
 2479              		@ args = 0, pretend = 0, frame = 0
 2480              		@ frame_needed = 0, uses_anonymous_args = 0
 2481              		@ link register save eliminated.
 2482              	.LVL203:
 2483              		.loc 1 372 0
 2484 0000 0228     		cmp	r0, #2
 2485 0002 0BD8     		bhi	.L356
 2486              		.loc 1 375 0
 2487 0004 CBB2     		uxtb	r3, r1
 2488 0006 0B2B     		cmp	r3, #11
 2489 0008 08D8     		bhi	.L356
 2490              		.loc 1 378 0
 2491 000a 40F2000C 		movw	ip, #:lower16:.LANCHOR3
 2492 000e C0F2000C 		movt	ip, #:upper16:.LANCHOR3
 2493 0012 3422     		movs	r2, #52
 2494 0014 02FB00C0 		mla	r0, r2, r0, ip
 2495              	.LVL204:
 2496 0018 80F83210 		strb	r1, [r0, #50]
 2497              	.L356:
 2498 001c 7047     		bx	lr
 2499              		.cfi_endproc
 2500              	.LFE80:
 2501              		.size	SmartMotorSetControllerStatusLed, .-SmartMotorSetControllerStatusLed
 2502 001e 00BF     		.section	.text.SmartMotorSetPowerExpanderStatusPort,"ax",%progbits
 2503              		.align	2
 2504              		.p2align 4,,15
 2505              		.global	SmartMotorSetPowerExpanderStatusPort
 2506              		.thumb
ARM GAS  /tmp/ccdUEzgz.s 			page 45


 2507              		.thumb_func
 2508              		.type	SmartMotorSetPowerExpanderStatusPort, %function
 2509              	SmartMotorSetPowerExpanderStatusPort:
 2510              	.LFB81:
 2511              		.loc 1 392 0
 2512              		.cfi_startproc
 2513              		@ args = 0, pretend = 0, frame = 0
 2514              		@ frame_needed = 0, uses_anonymous_args = 0
 2515              		@ link register save eliminated.
 2516              	.LVL205:
 2517              		.loc 1 393 0
 2518 0000 C3B2     		uxtb	r3, r0
 2519 0002 072B     		cmp	r3, #7
 2520              		.loc 1 396 0
 2521 0004 9EBF     		ittt	ls
 2522 0006 40F20003 		movwls	r3, #:lower16:.LANCHOR3
 2523 000a C0F20003 		movtls	r3, #:upper16:.LANCHOR3
 2524 000e 83F89B00 		strbls	r0, [r3, #155]
 2525 0012 7047     		bx	lr
 2526              		.cfi_endproc
 2527              	.LFE81:
 2528              		.size	SmartMotorSetPowerExpanderStatusPort, .-SmartMotorSetPowerExpanderStatusPort
 2529 0014 AFF30080 		.section	.text.SmartMotorPtcMonitorEnable,"ax",%progbits
 2529      AFF30080 
 2529      AFF30080 
 2530              		.align	2
 2531              		.p2align 4,,15
 2532              		.global	SmartMotorPtcMonitorEnable
 2533              		.thumb
 2534              		.thumb_func
 2535              		.type	SmartMotorPtcMonitorEnable, %function
 2536              	SmartMotorPtcMonitorEnable:
 2537              	.LFB82:
 2538              		.loc 1 405 0
 2539              		.cfi_startproc
 2540              		@ args = 0, pretend = 0, frame = 0
 2541              		@ frame_needed = 0, uses_anonymous_args = 0
 2542              		@ link register save eliminated.
 2543              		.loc 1 406 0
 2544 0000 40F20000 		movw	r0, #:lower16:.LANCHOR1
 2545              		.loc 1 407 0
 2546 0004 40F20003 		movw	r3, #:lower16:.LANCHOR2
 2547              		.loc 1 406 0
 2548 0008 C0F20000 		movt	r0, #:upper16:.LANCHOR1
 2549              		.loc 1 407 0
 2550 000c C0F20003 		movt	r3, #:upper16:.LANCHOR2
 2551              		.loc 1 406 0
 2552 0010 0021     		movs	r1, #0
 2553              		.loc 1 407 0
 2554 0012 0122     		movs	r2, #1
 2555              		.loc 1 406 0
 2556 0014 0180     		strh	r1, [r0, #0]	@ movhi
 2557              		.loc 1 407 0
 2558 0016 1A80     		strh	r2, [r3, #0]	@ movhi
 2559              		.loc 1 408 0
 2560 0018 7047     		bx	lr
 2561              		.cfi_endproc
ARM GAS  /tmp/ccdUEzgz.s 			page 46


 2562              	.LFE82:
 2563              		.size	SmartMotorPtcMonitorEnable, .-SmartMotorPtcMonitorEnable
 2564 001a 00BFAFF3 		.section	.text.SmartMotorPtcMonitorDisable,"ax",%progbits
 2564      0080
 2565              		.align	2
 2566              		.p2align 4,,15
 2567              		.global	SmartMotorPtcMonitorDisable
 2568              		.thumb
 2569              		.thumb_func
 2570              		.type	SmartMotorPtcMonitorDisable, %function
 2571              	SmartMotorPtcMonitorDisable:
 2572              	.LFB83:
 2573              		.loc 1 416 0
 2574              		.cfi_startproc
 2575              		@ args = 0, pretend = 0, frame = 0
 2576              		@ frame_needed = 0, uses_anonymous_args = 0
 2577              		@ link register save eliminated.
 2578              		.loc 1 417 0
 2579 0000 40F20003 		movw	r3, #:lower16:.LANCHOR2
 2580 0004 C0F20003 		movt	r3, #:upper16:.LANCHOR2
 2581 0008 0022     		movs	r2, #0
 2582 000a 1A80     		strh	r2, [r3, #0]	@ movhi
 2583              		.loc 1 418 0
 2584 000c 7047     		bx	lr
 2585              		.cfi_endproc
 2586              	.LFE83:
 2587              		.size	SmartMotorPtcMonitorDisable, .-SmartMotorPtcMonitorDisable
 2588 000e 00BF     		.section	.text.SmartMotorCurrentMonitorEnable,"ax",%progbits
 2589              		.align	2
 2590              		.p2align 4,,15
 2591              		.global	SmartMotorCurrentMonitorEnable
 2592              		.thumb
 2593              		.thumb_func
 2594              		.type	SmartMotorCurrentMonitorEnable, %function
 2595              	SmartMotorCurrentMonitorEnable:
 2596              	.LFB84:
 2597              		.loc 1 426 0
 2598              		.cfi_startproc
 2599              		@ args = 0, pretend = 0, frame = 0
 2600              		@ frame_needed = 0, uses_anonymous_args = 0
 2601              		@ link register save eliminated.
 2602              		.loc 1 427 0
 2603 0000 40F20000 		movw	r0, #:lower16:.LANCHOR2
 2604              		.loc 1 428 0
 2605 0004 40F20003 		movw	r3, #:lower16:.LANCHOR1
 2606              		.loc 1 427 0
 2607 0008 C0F20000 		movt	r0, #:upper16:.LANCHOR2
 2608              		.loc 1 428 0
 2609 000c C0F20003 		movt	r3, #:upper16:.LANCHOR1
 2610              		.loc 1 427 0
 2611 0010 0021     		movs	r1, #0
 2612              		.loc 1 428 0
 2613 0012 0122     		movs	r2, #1
 2614              		.loc 1 427 0
 2615 0014 0180     		strh	r1, [r0, #0]	@ movhi
 2616              		.loc 1 428 0
 2617 0016 1A80     		strh	r2, [r3, #0]	@ movhi
ARM GAS  /tmp/ccdUEzgz.s 			page 47


 2618              		.loc 1 429 0
 2619 0018 7047     		bx	lr
 2620              		.cfi_endproc
 2621              	.LFE84:
 2622              		.size	SmartMotorCurrentMonitorEnable, .-SmartMotorCurrentMonitorEnable
 2623 001a 00BFAFF3 		.section	.text.SmartMotorCurrentMonitorDisable,"ax",%progbits
 2623      0080
 2624              		.align	2
 2625              		.p2align 4,,15
 2626              		.global	SmartMotorCurrentMonitorDisable
 2627              		.thumb
 2628              		.thumb_func
 2629              		.type	SmartMotorCurrentMonitorDisable, %function
 2630              	SmartMotorCurrentMonitorDisable:
 2631              	.LFB85:
 2632              		.loc 1 437 0
 2633              		.cfi_startproc
 2634              		@ args = 0, pretend = 0, frame = 0
 2635              		@ frame_needed = 0, uses_anonymous_args = 0
 2636              		@ link register save eliminated.
 2637              		.loc 1 438 0
 2638 0000 40F20003 		movw	r3, #:lower16:.LANCHOR1
 2639 0004 C0F20003 		movt	r3, #:upper16:.LANCHOR1
 2640 0008 0022     		movs	r2, #0
 2641 000a 1A80     		strh	r2, [r3, #0]	@ movhi
 2642              		.loc 1 439 0
 2643 000c 7047     		bx	lr
 2644              		.cfi_endproc
 2645              	.LFE85:
 2646              		.size	SmartMotorCurrentMonitorDisable, .-SmartMotorCurrentMonitorDisable
 2647 000e 00BF     		.section	.text.SmartMotorRun,"ax",%progbits
 2648              		.align	2
 2649              		.p2align 4,,15
 2650              		.global	SmartMotorRun
 2651              		.thumb
 2652              		.thumb_func
 2653              		.type	SmartMotorRun, %function
 2654              	SmartMotorRun:
 2655              	.LFB86:
 2656              		.loc 1 448 0
 2657              		.cfi_startproc
 2658              		@ args = 0, pretend = 0, frame = 0
 2659              		@ frame_needed = 0, uses_anonymous_args = 0
 2660              		.loc 1 450 0
 2661 0000 40F20000 		movw	r0, #:lower16:SmartMotorTask
 2662 0004 4521     		movs	r1, #69
 2663 0006 4022     		movs	r2, #64
 2664              		.loc 1 448 0
 2665 0008 08B5     		push	{r3, lr}
 2666              	.LCFI5:
 2667              		.cfi_def_cfa_offset 8
 2668              		.cfi_offset 14, -4
 2669              		.cfi_offset 3, -8
 2670              		.loc 1 450 0
 2671 000a C0F20000 		movt	r0, #:upper16:SmartMotorTask
 2672 000e FFF7FEFF 		bl	StartTaskWithPriority
 2673              		.loc 1 452 0
ARM GAS  /tmp/ccdUEzgz.s 			page 48


 2674 0012 40F20000 		movw	r0, #:lower16:SmartMotorSlewRateTask
 2675 0016 C0F20000 		movt	r0, #:upper16:SmartMotorSlewRateTask
 2676 001a 4421     		movs	r1, #68
 2677 001c 4022     		movs	r2, #64
 2678              		.loc 1 453 0
 2679 001e BDE80840 		pop	{r3, lr}
 2680              		.loc 1 452 0
 2681 0022 FFF7FEBF 		b	StartTaskWithPriority
 2682              		.cfi_endproc
 2683              	.LFE86:
 2684              		.size	SmartMotorRun, .-SmartMotorRun
 2685 0026 00BFAFF3 		.section	.text.SmartMotorStop,"ax",%progbits
 2685      0080AFF3 
 2685      0080
 2686              		.align	2
 2687              		.p2align 4,,15
 2688              		.global	SmartMotorStop
 2689              		.thumb
 2690              		.thumb_func
 2691              		.type	SmartMotorStop, %function
 2692              	SmartMotorStop:
 2693              	.LFB87:
 2694              		.loc 1 461 0
 2695              		.cfi_startproc
 2696              		@ args = 0, pretend = 0, frame = 0
 2697              		@ frame_needed = 0, uses_anonymous_args = 0
 2698 0000 08B5     		push	{r3, lr}
 2699              	.LCFI6:
 2700              		.cfi_def_cfa_offset 8
 2701              		.cfi_offset 14, -4
 2702              		.cfi_offset 3, -8
 2703              	.LBB129:
 2704              	.LBB130:
 2705              		.loc 1 417 0
 2706 0002 40F20002 		movw	r2, #:lower16:.LANCHOR2
 2707              	.LBE130:
 2708              	.LBE129:
 2709              	.LBB133:
 2710              	.LBB134:
 2711              		.loc 1 438 0
 2712 0006 40F20003 		movw	r3, #:lower16:.LANCHOR1
 2713              	.LBE134:
 2714              	.LBE133:
 2715              	.LBB137:
 2716              	.LBB131:
 2717              		.loc 1 417 0
 2718 000a 0021     		movs	r1, #0
 2719 000c C0F20002 		movt	r2, #:upper16:.LANCHOR2
 2720              	.LBE131:
 2721              	.LBE137:
 2722              	.LBB138:
 2723              	.LBB135:
 2724              		.loc 1 438 0
 2725 0010 C0F20003 		movt	r3, #:upper16:.LANCHOR1
 2726              	.LBE135:
 2727              	.LBE138:
 2728              		.loc 1 465 0
ARM GAS  /tmp/ccdUEzgz.s 			page 49


 2729 0014 40F20000 		movw	r0, #:lower16:SmartMotorTask
 2730 0018 C0F20000 		movt	r0, #:upper16:SmartMotorTask
 2731              	.LBB139:
 2732              	.LBB132:
 2733              		.loc 1 417 0
 2734 001c 1180     		strh	r1, [r2, #0]	@ movhi
 2735              	.LBE132:
 2736              	.LBE139:
 2737              	.LBB140:
 2738              	.LBB136:
 2739              		.loc 1 438 0
 2740 001e 1980     		strh	r1, [r3, #0]	@ movhi
 2741              	.LBE136:
 2742              	.LBE140:
 2743              		.loc 1 465 0
 2744 0020 FFF7FEFF 		bl	StopTask
 2745              		.loc 1 466 0
 2746 0024 40F20000 		movw	r0, #:lower16:SmartMotorSlewRateTask
 2747 0028 C0F20000 		movt	r0, #:upper16:SmartMotorSlewRateTask
 2748              		.loc 1 467 0
 2749 002c BDE80840 		pop	{r3, lr}
 2750              		.loc 1 466 0
 2751 0030 FFF7FEBF 		b	StopTask
 2752              		.cfi_endproc
 2753              	.LFE87:
 2754              		.size	SmartMotorStop, .-SmartMotorStop
 2755 0034 AFF30080 		.section	.text.SmartMotorDebugStatus,"ax",%progbits
 2755      AFF30080 
 2755      AFF30080 
 2756              		.align	2
 2757              		.p2align 4,,15
 2758              		.global	SmartMotorDebugStatus
 2759              		.thumb
 2760              		.thumb_func
 2761              		.type	SmartMotorDebugStatus, %function
 2762              	SmartMotorDebugStatus:
 2763              	.LFB88:
 2764              		.loc 1 475 0
 2765              		.cfi_startproc
 2766              		@ args = 0, pretend = 0, frame = 0
 2767              		@ frame_needed = 0, uses_anonymous_args = 0
 2768              	.LVL206:
 2769 0000 38B5     		push	{r3, r4, r5, lr}
 2770              	.LCFI7:
 2771              		.cfi_def_cfa_offset 16
 2772              		.cfi_offset 14, -4
 2773              		.cfi_offset 5, -8
 2774              		.cfi_offset 4, -12
 2775              		.cfi_offset 3, -16
 2776              		.loc 1 486 0
 2777 0002 40F20000 		movw	r0, #:lower16:.LC1
 2778              		.loc 1 492 0
 2779 0006 40F20005 		movw	r5, #:lower16:.LANCHOR3
 2780 000a C0F20005 		movt	r5, #:upper16:.LANCHOR3
 2781              		.loc 1 486 0
 2782 000e C0F20000 		movt	r0, #:upper16:.LC1
 2783 0012 FFF7FEFF 		bl	vex_printf
ARM GAS  /tmp/ccdUEzgz.s 			page 50


 2784              		.loc 1 492 0
 2785 0016 6869     		ldr	r0, [r5, #20]	@ float
 2786 0018 FFF7FEFF 		bl	__aeabi_f2d
 2787 001c 0246     		mov	r2, r0
 2788 001e 40F20000 		movw	r0, #:lower16:.LC2
 2789 0022 0B46     		mov	r3, r1
 2790 0024 C0F20000 		movt	r0, #:upper16:.LC2
 2791 0028 FFF7FEFF 		bl	vex_printf
 2792              		.loc 1 493 0
 2793 002c 286A     		ldr	r0, [r5, #32]	@ float
 2794 002e FFF7FEFF 		bl	__aeabi_f2d
 2795 0032 0246     		mov	r2, r0
 2796 0034 40F20000 		movw	r0, #:lower16:.LC3
 2797 0038 0B46     		mov	r3, r1
 2798 003a C0F20000 		movt	r0, #:upper16:.LC3
 2799 003e FFF7FEFF 		bl	vex_printf
 2800              		.loc 1 494 0
 2801 0042 40F20000 		movw	r0, #:lower16:.LC4
 2802 0046 B5F93010 		ldrsh	r1, [r5, #48]
 2803 004a C0F20000 		movt	r0, #:upper16:.LC4
 2804 004e FFF7FEFF 		bl	vex_printf
 2805              		.loc 1 495 0
 2806 0052 40F20000 		movw	r0, #:lower16:.LC5
 2807 0056 C0F20000 		movt	r0, #:upper16:.LC5
 2808 005a FFF7FEFF 		bl	vex_printf
 2809              	.LVL207:
 2810              		.loc 1 499 0
 2811 005e 2C68     		ldr	r4, [r5, #0]
 2812 0060 7CB3     		cbz	r4, .L367
 2813              	.LVL208:
 2814              		.loc 1 502 0
 2815 0062 40F20000 		movw	r0, #:lower16:.LC6
 2816 0066 94F90010 		ldrsb	r1, [r4, #0]
 2817 006a C0F20000 		movt	r0, #:upper16:.LC6
 2818 006e FFF7FEFF 		bl	vex_printf
 2819              	.LVL209:
 2820              		.loc 1 503 0
 2821 0072 206D     		ldr	r0, [r4, #80]	@ float
 2822 0074 FFF7FEFF 		bl	__aeabi_f2d
 2823 0078 0246     		mov	r2, r0
 2824 007a 40F20000 		movw	r0, #:lower16:.LC2
 2825 007e 0B46     		mov	r3, r1
 2826 0080 C0F20000 		movt	r0, #:upper16:.LC2
 2827 0084 FFF7FEFF 		bl	vex_printf
 2828              		.loc 1 504 0
 2829 0088 606E     		ldr	r0, [r4, #100]	@ float
 2830 008a FFF7FEFF 		bl	__aeabi_f2d
 2831 008e 0246     		mov	r2, r0
 2832 0090 40F20000 		movw	r0, #:lower16:.LC3
 2833 0094 0B46     		mov	r3, r1
 2834 0096 C0F20000 		movt	r0, #:upper16:.LC3
 2835 009a FFF7FEFF 		bl	vex_printf
 2836              		.loc 1 505 0
 2837 009e B4F97430 		ldrsh	r3, [r4, #116]
 2838 00a2 B4F91210 		ldrsh	r1, [r4, #18]
 2839 00a6 40F20000 		movw	r0, #:lower16:.LC4
 2840 00aa C0F20000 		movt	r0, #:upper16:.LC4
ARM GAS  /tmp/ccdUEzgz.s 			page 51


 2841 00ae 03EB4101 		add	r1, r3, r1, lsl #1
 2842 00b2 FFF7FEFF 		bl	vex_printf
 2843              		.loc 1 506 0
 2844 00b6 40F20000 		movw	r0, #:lower16:.LC5
 2845 00ba C0F20000 		movt	r0, #:upper16:.LC5
 2846 00be FFF7FEFF 		bl	vex_printf
 2847              	.LVL210:
 2848              	.L367:
 2849              		.loc 1 499 0
 2850 00c2 6C68     		ldr	r4, [r5, #4]
 2851 00c4 7CB3     		cbz	r4, .L368
 2852              	.LVL211:
 2853              		.loc 1 502 0
 2854 00c6 40F20000 		movw	r0, #:lower16:.LC6
 2855 00ca 94F90010 		ldrsb	r1, [r4, #0]
 2856 00ce C0F20000 		movt	r0, #:upper16:.LC6
 2857 00d2 FFF7FEFF 		bl	vex_printf
 2858              	.LVL212:
 2859              		.loc 1 503 0
 2860 00d6 206D     		ldr	r0, [r4, #80]	@ float
 2861 00d8 FFF7FEFF 		bl	__aeabi_f2d
 2862 00dc 0246     		mov	r2, r0
 2863 00de 40F20000 		movw	r0, #:lower16:.LC2
 2864 00e2 0B46     		mov	r3, r1
 2865 00e4 C0F20000 		movt	r0, #:upper16:.LC2
 2866 00e8 FFF7FEFF 		bl	vex_printf
 2867              		.loc 1 504 0
 2868 00ec 606E     		ldr	r0, [r4, #100]	@ float
 2869 00ee FFF7FEFF 		bl	__aeabi_f2d
 2870 00f2 0246     		mov	r2, r0
 2871 00f4 40F20000 		movw	r0, #:lower16:.LC3
 2872 00f8 0B46     		mov	r3, r1
 2873 00fa C0F20000 		movt	r0, #:upper16:.LC3
 2874 00fe FFF7FEFF 		bl	vex_printf
 2875              		.loc 1 505 0
 2876 0102 B4F974C0 		ldrsh	ip, [r4, #116]
 2877 0106 B4F91240 		ldrsh	r4, [r4, #18]
 2878              	.LVL213:
 2879 010a 40F20000 		movw	r0, #:lower16:.LC4
 2880 010e C0F20000 		movt	r0, #:upper16:.LC4
 2881 0112 0CEB4401 		add	r1, ip, r4, lsl #1
 2882 0116 FFF7FEFF 		bl	vex_printf
 2883              		.loc 1 506 0
 2884 011a 40F20000 		movw	r0, #:lower16:.LC5
 2885 011e C0F20000 		movt	r0, #:upper16:.LC5
 2886 0122 FFF7FEFF 		bl	vex_printf
 2887              	.L368:
 2888              	.LVL214:
 2889              		.loc 1 499 0
 2890 0126 AC68     		ldr	r4, [r5, #8]
 2891 0128 7CB3     		cbz	r4, .L369
 2892              	.LVL215:
 2893              		.loc 1 502 0
 2894 012a 40F20000 		movw	r0, #:lower16:.LC6
 2895 012e 94F90010 		ldrsb	r1, [r4, #0]
 2896 0132 C0F20000 		movt	r0, #:upper16:.LC6
 2897 0136 FFF7FEFF 		bl	vex_printf
ARM GAS  /tmp/ccdUEzgz.s 			page 52


 2898              	.LVL216:
 2899              		.loc 1 503 0
 2900 013a 206D     		ldr	r0, [r4, #80]	@ float
 2901 013c FFF7FEFF 		bl	__aeabi_f2d
 2902 0140 0246     		mov	r2, r0
 2903 0142 40F20000 		movw	r0, #:lower16:.LC2
 2904 0146 0B46     		mov	r3, r1
 2905 0148 C0F20000 		movt	r0, #:upper16:.LC2
 2906 014c FFF7FEFF 		bl	vex_printf
 2907              		.loc 1 504 0
 2908 0150 606E     		ldr	r0, [r4, #100]	@ float
 2909 0152 FFF7FEFF 		bl	__aeabi_f2d
 2910 0156 0246     		mov	r2, r0
 2911 0158 40F20000 		movw	r0, #:lower16:.LC3
 2912 015c 0B46     		mov	r3, r1
 2913 015e C0F20000 		movt	r0, #:upper16:.LC3
 2914 0162 FFF7FEFF 		bl	vex_printf
 2915              		.loc 1 505 0
 2916 0166 B4F97430 		ldrsh	r3, [r4, #116]
 2917 016a B4F91210 		ldrsh	r1, [r4, #18]
 2918 016e 40F20000 		movw	r0, #:lower16:.LC4
 2919 0172 C0F20000 		movt	r0, #:upper16:.LC4
 2920 0176 03EB4101 		add	r1, r3, r1, lsl #1
 2921 017a FFF7FEFF 		bl	vex_printf
 2922              		.loc 1 506 0
 2923 017e 40F20000 		movw	r0, #:lower16:.LC5
 2924 0182 C0F20000 		movt	r0, #:upper16:.LC5
 2925 0186 FFF7FEFF 		bl	vex_printf
 2926              	.LVL217:
 2927              	.L369:
 2928              		.loc 1 499 0
 2929 018a EC68     		ldr	r4, [r5, #12]
 2930 018c 7CB3     		cbz	r4, .L370
 2931              	.LVL218:
 2932              		.loc 1 502 0
 2933 018e 40F20000 		movw	r0, #:lower16:.LC6
 2934 0192 94F90010 		ldrsb	r1, [r4, #0]
 2935 0196 C0F20000 		movt	r0, #:upper16:.LC6
 2936 019a FFF7FEFF 		bl	vex_printf
 2937              	.LVL219:
 2938              		.loc 1 503 0
 2939 019e 206D     		ldr	r0, [r4, #80]	@ float
 2940 01a0 FFF7FEFF 		bl	__aeabi_f2d
 2941 01a4 0246     		mov	r2, r0
 2942 01a6 40F20000 		movw	r0, #:lower16:.LC2
 2943 01aa 0B46     		mov	r3, r1
 2944 01ac C0F20000 		movt	r0, #:upper16:.LC2
 2945 01b0 FFF7FEFF 		bl	vex_printf
 2946              		.loc 1 504 0
 2947 01b4 606E     		ldr	r0, [r4, #100]	@ float
 2948 01b6 FFF7FEFF 		bl	__aeabi_f2d
 2949 01ba 0246     		mov	r2, r0
 2950 01bc 40F20000 		movw	r0, #:lower16:.LC3
 2951 01c0 0B46     		mov	r3, r1
 2952 01c2 C0F20000 		movt	r0, #:upper16:.LC3
 2953 01c6 FFF7FEFF 		bl	vex_printf
 2954              		.loc 1 505 0
ARM GAS  /tmp/ccdUEzgz.s 			page 53


 2955 01ca B4F974C0 		ldrsh	ip, [r4, #116]
 2956 01ce B4F91240 		ldrsh	r4, [r4, #18]
 2957              	.LVL220:
 2958 01d2 40F20000 		movw	r0, #:lower16:.LC4
 2959 01d6 C0F20000 		movt	r0, #:upper16:.LC4
 2960 01da 0CEB4401 		add	r1, ip, r4, lsl #1
 2961 01de FFF7FEFF 		bl	vex_printf
 2962              		.loc 1 506 0
 2963 01e2 40F20000 		movw	r0, #:lower16:.LC5
 2964 01e6 C0F20000 		movt	r0, #:upper16:.LC5
 2965 01ea FFF7FEFF 		bl	vex_printf
 2966              	.L370:
 2967              	.LVL221:
 2968              		.loc 1 499 0
 2969 01ee 2C69     		ldr	r4, [r5, #16]
 2970 01f0 7CB3     		cbz	r4, .L371
 2971              	.LVL222:
 2972              		.loc 1 502 0
 2973 01f2 40F20000 		movw	r0, #:lower16:.LC6
 2974 01f6 94F90010 		ldrsb	r1, [r4, #0]
 2975 01fa C0F20000 		movt	r0, #:upper16:.LC6
 2976 01fe FFF7FEFF 		bl	vex_printf
 2977              	.LVL223:
 2978              		.loc 1 503 0
 2979 0202 206D     		ldr	r0, [r4, #80]	@ float
 2980 0204 FFF7FEFF 		bl	__aeabi_f2d
 2981 0208 0246     		mov	r2, r0
 2982 020a 40F20000 		movw	r0, #:lower16:.LC2
 2983 020e 0B46     		mov	r3, r1
 2984 0210 C0F20000 		movt	r0, #:upper16:.LC2
 2985 0214 FFF7FEFF 		bl	vex_printf
 2986              		.loc 1 504 0
 2987 0218 606E     		ldr	r0, [r4, #100]	@ float
 2988 021a FFF7FEFF 		bl	__aeabi_f2d
 2989 021e 0246     		mov	r2, r0
 2990 0220 40F20000 		movw	r0, #:lower16:.LC3
 2991 0224 0B46     		mov	r3, r1
 2992 0226 C0F20000 		movt	r0, #:upper16:.LC3
 2993 022a FFF7FEFF 		bl	vex_printf
 2994              		.loc 1 505 0
 2995 022e B4F97430 		ldrsh	r3, [r4, #116]
 2996 0232 B4F91210 		ldrsh	r1, [r4, #18]
 2997 0236 40F20000 		movw	r0, #:lower16:.LC4
 2998 023a C0F20000 		movt	r0, #:upper16:.LC4
 2999 023e 03EB4101 		add	r1, r3, r1, lsl #1
 3000 0242 FFF7FEFF 		bl	vex_printf
 3001              		.loc 1 506 0
 3002 0246 40F20000 		movw	r0, #:lower16:.LC5
 3003 024a C0F20000 		movt	r0, #:upper16:.LC5
 3004 024e FFF7FEFF 		bl	vex_printf
 3005              	.LVL224:
 3006              	.L371:
 3007              		.loc 1 509 0
 3008 0252 40F20000 		movw	r0, #:lower16:.LC5
 3009 0256 C0F20000 		movt	r0, #:upper16:.LC5
 3010 025a FFF7FEFF 		bl	vex_printf
 3011              	.LVL225:
ARM GAS  /tmp/ccdUEzgz.s 			page 54


 3012              		.loc 1 488 0
 3013 025e 40F20000 		movw	r0, #:lower16:.LC7
 3014 0262 C0F20000 		movt	r0, #:upper16:.LC7
 3015 0266 FFF7FEFF 		bl	vex_printf
 3016              		.loc 1 492 0
 3017 026a A86C     		ldr	r0, [r5, #72]	@ float
 3018 026c FFF7FEFF 		bl	__aeabi_f2d
 3019 0270 0246     		mov	r2, r0
 3020 0272 40F20000 		movw	r0, #:lower16:.LC2
 3021 0276 0B46     		mov	r3, r1
 3022 0278 C0F20000 		movt	r0, #:upper16:.LC2
 3023 027c FFF7FEFF 		bl	vex_printf
 3024              		.loc 1 493 0
 3025 0280 686D     		ldr	r0, [r5, #84]	@ float
 3026 0282 FFF7FEFF 		bl	__aeabi_f2d
 3027 0286 0246     		mov	r2, r0
 3028 0288 40F20000 		movw	r0, #:lower16:.LC3
 3029 028c 0B46     		mov	r3, r1
 3030 028e C0F20000 		movt	r0, #:upper16:.LC3
 3031 0292 FFF7FEFF 		bl	vex_printf
 3032              		.loc 1 494 0
 3033 0296 40F20000 		movw	r0, #:lower16:.LC4
 3034 029a B5F96410 		ldrsh	r1, [r5, #100]
 3035 029e C0F20000 		movt	r0, #:upper16:.LC4
 3036 02a2 FFF7FEFF 		bl	vex_printf
 3037              		.loc 1 495 0
 3038 02a6 40F20000 		movw	r0, #:lower16:.LC5
 3039 02aa C0F20000 		movt	r0, #:upper16:.LC5
 3040 02ae FFF7FEFF 		bl	vex_printf
 3041              	.LVL226:
 3042              		.loc 1 499 0
 3043 02b2 6C6B     		ldr	r4, [r5, #52]
 3044 02b4 7CB3     		cbz	r4, .L372
 3045              	.LVL227:
 3046              		.loc 1 502 0
 3047 02b6 40F20000 		movw	r0, #:lower16:.LC6
 3048 02ba 94F90010 		ldrsb	r1, [r4, #0]
 3049 02be C0F20000 		movt	r0, #:upper16:.LC6
 3050 02c2 FFF7FEFF 		bl	vex_printf
 3051              	.LVL228:
 3052              		.loc 1 503 0
 3053 02c6 206D     		ldr	r0, [r4, #80]	@ float
 3054 02c8 FFF7FEFF 		bl	__aeabi_f2d
 3055 02cc 0246     		mov	r2, r0
 3056 02ce 40F20000 		movw	r0, #:lower16:.LC2
 3057 02d2 0B46     		mov	r3, r1
 3058 02d4 C0F20000 		movt	r0, #:upper16:.LC2
 3059 02d8 FFF7FEFF 		bl	vex_printf
 3060              		.loc 1 504 0
 3061 02dc 606E     		ldr	r0, [r4, #100]	@ float
 3062 02de FFF7FEFF 		bl	__aeabi_f2d
 3063 02e2 0246     		mov	r2, r0
 3064 02e4 40F20000 		movw	r0, #:lower16:.LC3
 3065 02e8 0B46     		mov	r3, r1
 3066 02ea C0F20000 		movt	r0, #:upper16:.LC3
 3067 02ee FFF7FEFF 		bl	vex_printf
 3068              		.loc 1 505 0
ARM GAS  /tmp/ccdUEzgz.s 			page 55


 3069 02f2 B4F974C0 		ldrsh	ip, [r4, #116]
 3070 02f6 B4F91240 		ldrsh	r4, [r4, #18]
 3071              	.LVL229:
 3072 02fa 40F20000 		movw	r0, #:lower16:.LC4
 3073 02fe C0F20000 		movt	r0, #:upper16:.LC4
 3074 0302 0CEB4401 		add	r1, ip, r4, lsl #1
 3075 0306 FFF7FEFF 		bl	vex_printf
 3076              		.loc 1 506 0
 3077 030a 40F20000 		movw	r0, #:lower16:.LC5
 3078 030e C0F20000 		movt	r0, #:upper16:.LC5
 3079 0312 FFF7FEFF 		bl	vex_printf
 3080              	.L372:
 3081              	.LVL230:
 3082              		.loc 1 499 0
 3083 0316 AC6B     		ldr	r4, [r5, #56]
 3084 0318 7CB3     		cbz	r4, .L373
 3085              	.LVL231:
 3086              		.loc 1 502 0
 3087 031a 40F20000 		movw	r0, #:lower16:.LC6
 3088 031e 94F90010 		ldrsb	r1, [r4, #0]
 3089 0322 C0F20000 		movt	r0, #:upper16:.LC6
 3090 0326 FFF7FEFF 		bl	vex_printf
 3091              	.LVL232:
 3092              		.loc 1 503 0
 3093 032a 206D     		ldr	r0, [r4, #80]	@ float
 3094 032c FFF7FEFF 		bl	__aeabi_f2d
 3095 0330 0246     		mov	r2, r0
 3096 0332 40F20000 		movw	r0, #:lower16:.LC2
 3097 0336 0B46     		mov	r3, r1
 3098 0338 C0F20000 		movt	r0, #:upper16:.LC2
 3099 033c FFF7FEFF 		bl	vex_printf
 3100              		.loc 1 504 0
 3101 0340 606E     		ldr	r0, [r4, #100]	@ float
 3102 0342 FFF7FEFF 		bl	__aeabi_f2d
 3103 0346 0246     		mov	r2, r0
 3104 0348 40F20000 		movw	r0, #:lower16:.LC3
 3105 034c 0B46     		mov	r3, r1
 3106 034e C0F20000 		movt	r0, #:upper16:.LC3
 3107 0352 FFF7FEFF 		bl	vex_printf
 3108              		.loc 1 505 0
 3109 0356 B4F97430 		ldrsh	r3, [r4, #116]
 3110 035a B4F91210 		ldrsh	r1, [r4, #18]
 3111 035e 40F20000 		movw	r0, #:lower16:.LC4
 3112 0362 C0F20000 		movt	r0, #:upper16:.LC4
 3113 0366 03EB4101 		add	r1, r3, r1, lsl #1
 3114 036a FFF7FEFF 		bl	vex_printf
 3115              		.loc 1 506 0
 3116 036e 40F20000 		movw	r0, #:lower16:.LC5
 3117 0372 C0F20000 		movt	r0, #:upper16:.LC5
 3118 0376 FFF7FEFF 		bl	vex_printf
 3119              	.LVL233:
 3120              	.L373:
 3121              		.loc 1 499 0
 3122 037a EC6B     		ldr	r4, [r5, #60]
 3123 037c 7CB3     		cbz	r4, .L374
 3124              	.LVL234:
 3125              		.loc 1 502 0
ARM GAS  /tmp/ccdUEzgz.s 			page 56


 3126 037e 40F20000 		movw	r0, #:lower16:.LC6
 3127 0382 94F90010 		ldrsb	r1, [r4, #0]
 3128 0386 C0F20000 		movt	r0, #:upper16:.LC6
 3129 038a FFF7FEFF 		bl	vex_printf
 3130              	.LVL235:
 3131              		.loc 1 503 0
 3132 038e 206D     		ldr	r0, [r4, #80]	@ float
 3133 0390 FFF7FEFF 		bl	__aeabi_f2d
 3134 0394 0246     		mov	r2, r0
 3135 0396 40F20000 		movw	r0, #:lower16:.LC2
 3136 039a 0B46     		mov	r3, r1
 3137 039c C0F20000 		movt	r0, #:upper16:.LC2
 3138 03a0 FFF7FEFF 		bl	vex_printf
 3139              		.loc 1 504 0
 3140 03a4 606E     		ldr	r0, [r4, #100]	@ float
 3141 03a6 FFF7FEFF 		bl	__aeabi_f2d
 3142 03aa 0246     		mov	r2, r0
 3143 03ac 40F20000 		movw	r0, #:lower16:.LC3
 3144 03b0 0B46     		mov	r3, r1
 3145 03b2 C0F20000 		movt	r0, #:upper16:.LC3
 3146 03b6 FFF7FEFF 		bl	vex_printf
 3147              		.loc 1 505 0
 3148 03ba B4F974C0 		ldrsh	ip, [r4, #116]
 3149 03be B4F91240 		ldrsh	r4, [r4, #18]
 3150              	.LVL236:
 3151 03c2 40F20000 		movw	r0, #:lower16:.LC4
 3152 03c6 C0F20000 		movt	r0, #:upper16:.LC4
 3153 03ca 0CEB4401 		add	r1, ip, r4, lsl #1
 3154 03ce FFF7FEFF 		bl	vex_printf
 3155              		.loc 1 506 0
 3156 03d2 40F20000 		movw	r0, #:lower16:.LC5
 3157 03d6 C0F20000 		movt	r0, #:upper16:.LC5
 3158 03da FFF7FEFF 		bl	vex_printf
 3159              	.L374:
 3160              	.LVL237:
 3161              		.loc 1 499 0
 3162 03de 2C6C     		ldr	r4, [r5, #64]
 3163 03e0 7CB3     		cbz	r4, .L375
 3164              	.LVL238:
 3165              		.loc 1 502 0
 3166 03e2 40F20000 		movw	r0, #:lower16:.LC6
 3167 03e6 94F90010 		ldrsb	r1, [r4, #0]
 3168 03ea C0F20000 		movt	r0, #:upper16:.LC6
 3169 03ee FFF7FEFF 		bl	vex_printf
 3170              	.LVL239:
 3171              		.loc 1 503 0
 3172 03f2 206D     		ldr	r0, [r4, #80]	@ float
 3173 03f4 FFF7FEFF 		bl	__aeabi_f2d
 3174 03f8 0246     		mov	r2, r0
 3175 03fa 40F20000 		movw	r0, #:lower16:.LC2
 3176 03fe 0B46     		mov	r3, r1
 3177 0400 C0F20000 		movt	r0, #:upper16:.LC2
 3178 0404 FFF7FEFF 		bl	vex_printf
 3179              		.loc 1 504 0
 3180 0408 606E     		ldr	r0, [r4, #100]	@ float
 3181 040a FFF7FEFF 		bl	__aeabi_f2d
 3182 040e 0246     		mov	r2, r0
ARM GAS  /tmp/ccdUEzgz.s 			page 57


 3183 0410 40F20000 		movw	r0, #:lower16:.LC3
 3184 0414 0B46     		mov	r3, r1
 3185 0416 C0F20000 		movt	r0, #:upper16:.LC3
 3186 041a FFF7FEFF 		bl	vex_printf
 3187              		.loc 1 505 0
 3188 041e B4F97430 		ldrsh	r3, [r4, #116]
 3189 0422 B4F91210 		ldrsh	r1, [r4, #18]
 3190 0426 40F20000 		movw	r0, #:lower16:.LC4
 3191 042a C0F20000 		movt	r0, #:upper16:.LC4
 3192 042e 03EB4101 		add	r1, r3, r1, lsl #1
 3193 0432 FFF7FEFF 		bl	vex_printf
 3194              		.loc 1 506 0
 3195 0436 40F20000 		movw	r0, #:lower16:.LC5
 3196 043a C0F20000 		movt	r0, #:upper16:.LC5
 3197 043e FFF7FEFF 		bl	vex_printf
 3198              	.LVL240:
 3199              	.L375:
 3200              		.loc 1 499 0
 3201 0442 6C6C     		ldr	r4, [r5, #68]
 3202 0444 7CB3     		cbz	r4, .L376
 3203              	.LVL241:
 3204              		.loc 1 502 0
 3205 0446 40F20000 		movw	r0, #:lower16:.LC6
 3206 044a 94F90010 		ldrsb	r1, [r4, #0]
 3207 044e C0F20000 		movt	r0, #:upper16:.LC6
 3208 0452 FFF7FEFF 		bl	vex_printf
 3209              	.LVL242:
 3210              		.loc 1 503 0
 3211 0456 206D     		ldr	r0, [r4, #80]	@ float
 3212 0458 FFF7FEFF 		bl	__aeabi_f2d
 3213 045c 0246     		mov	r2, r0
 3214 045e 40F20000 		movw	r0, #:lower16:.LC2
 3215 0462 0B46     		mov	r3, r1
 3216 0464 C0F20000 		movt	r0, #:upper16:.LC2
 3217 0468 FFF7FEFF 		bl	vex_printf
 3218              		.loc 1 504 0
 3219 046c 606E     		ldr	r0, [r4, #100]	@ float
 3220 046e FFF7FEFF 		bl	__aeabi_f2d
 3221 0472 0246     		mov	r2, r0
 3222 0474 40F20000 		movw	r0, #:lower16:.LC3
 3223 0478 0B46     		mov	r3, r1
 3224 047a C0F20000 		movt	r0, #:upper16:.LC3
 3225 047e FFF7FEFF 		bl	vex_printf
 3226              		.loc 1 505 0
 3227 0482 B4F974C0 		ldrsh	ip, [r4, #116]
 3228 0486 B4F91240 		ldrsh	r4, [r4, #18]
 3229              	.LVL243:
 3230 048a 40F20000 		movw	r0, #:lower16:.LC4
 3231 048e C0F20000 		movt	r0, #:upper16:.LC4
 3232 0492 0CEB4401 		add	r1, ip, r4, lsl #1
 3233 0496 FFF7FEFF 		bl	vex_printf
 3234              		.loc 1 506 0
 3235 049a 40F20000 		movw	r0, #:lower16:.LC5
 3236 049e C0F20000 		movt	r0, #:upper16:.LC5
 3237 04a2 FFF7FEFF 		bl	vex_printf
 3238              	.L376:
 3239              	.LVL244:
ARM GAS  /tmp/ccdUEzgz.s 			page 58


 3240              		.loc 1 509 0
 3241 04a6 40F20000 		movw	r0, #:lower16:.LC5
 3242 04aa C0F20000 		movt	r0, #:upper16:.LC5
 3243 04ae FFF7FEFF 		bl	vex_printf
 3244              	.LVL245:
 3245              		.loc 1 490 0
 3246 04b2 40F20000 		movw	r0, #:lower16:.LC8
 3247 04b6 C0F20000 		movt	r0, #:upper16:.LC8
 3248 04ba FFF7FEFF 		bl	vex_printf
 3249              		.loc 1 492 0
 3250 04be E86F     		ldr	r0, [r5, #124]	@ float
 3251 04c0 FFF7FEFF 		bl	__aeabi_f2d
 3252 04c4 0246     		mov	r2, r0
 3253 04c6 40F20000 		movw	r0, #:lower16:.LC2
 3254 04ca 0B46     		mov	r3, r1
 3255 04cc C0F20000 		movt	r0, #:upper16:.LC2
 3256 04d0 FFF7FEFF 		bl	vex_printf
 3257              		.loc 1 493 0
 3258 04d4 D5F88800 		ldr	r0, [r5, #136]	@ float
 3259 04d8 FFF7FEFF 		bl	__aeabi_f2d
 3260 04dc 0246     		mov	r2, r0
 3261 04de 40F20000 		movw	r0, #:lower16:.LC3
 3262 04e2 0B46     		mov	r3, r1
 3263 04e4 C0F20000 		movt	r0, #:upper16:.LC3
 3264 04e8 FFF7FEFF 		bl	vex_printf
 3265              		.loc 1 494 0
 3266 04ec 40F20000 		movw	r0, #:lower16:.LC4
 3267 04f0 B5F99810 		ldrsh	r1, [r5, #152]
 3268 04f4 C0F20000 		movt	r0, #:upper16:.LC4
 3269 04f8 FFF7FEFF 		bl	vex_printf
 3270              		.loc 1 495 0
 3271 04fc 40F20000 		movw	r0, #:lower16:.LC5
 3272 0500 C0F20000 		movt	r0, #:upper16:.LC5
 3273 0504 FFF7FEFF 		bl	vex_printf
 3274              	.LVL246:
 3275              		.loc 1 499 0
 3276 0508 AC6E     		ldr	r4, [r5, #104]
 3277 050a 7CB3     		cbz	r4, .L377
 3278              	.LVL247:
 3279              		.loc 1 502 0
 3280 050c 40F20000 		movw	r0, #:lower16:.LC6
 3281 0510 94F90010 		ldrsb	r1, [r4, #0]
 3282 0514 C0F20000 		movt	r0, #:upper16:.LC6
 3283 0518 FFF7FEFF 		bl	vex_printf
 3284              	.LVL248:
 3285              		.loc 1 503 0
 3286 051c 206D     		ldr	r0, [r4, #80]	@ float
 3287 051e FFF7FEFF 		bl	__aeabi_f2d
 3288 0522 0246     		mov	r2, r0
 3289 0524 40F20000 		movw	r0, #:lower16:.LC2
 3290 0528 0B46     		mov	r3, r1
 3291 052a C0F20000 		movt	r0, #:upper16:.LC2
 3292 052e FFF7FEFF 		bl	vex_printf
 3293              		.loc 1 504 0
 3294 0532 606E     		ldr	r0, [r4, #100]	@ float
 3295 0534 FFF7FEFF 		bl	__aeabi_f2d
 3296 0538 0246     		mov	r2, r0
ARM GAS  /tmp/ccdUEzgz.s 			page 59


 3297 053a 40F20000 		movw	r0, #:lower16:.LC3
 3298 053e 0B46     		mov	r3, r1
 3299 0540 C0F20000 		movt	r0, #:upper16:.LC3
 3300 0544 FFF7FEFF 		bl	vex_printf
 3301              		.loc 1 505 0
 3302 0548 B4F97430 		ldrsh	r3, [r4, #116]
 3303 054c B4F91210 		ldrsh	r1, [r4, #18]
 3304 0550 40F20000 		movw	r0, #:lower16:.LC4
 3305 0554 C0F20000 		movt	r0, #:upper16:.LC4
 3306 0558 03EB4101 		add	r1, r3, r1, lsl #1
 3307 055c FFF7FEFF 		bl	vex_printf
 3308              		.loc 1 506 0
 3309 0560 40F20000 		movw	r0, #:lower16:.LC5
 3310 0564 C0F20000 		movt	r0, #:upper16:.LC5
 3311 0568 FFF7FEFF 		bl	vex_printf
 3312              	.LVL249:
 3313              	.L377:
 3314              		.loc 1 499 0
 3315 056c EC6E     		ldr	r4, [r5, #108]
 3316 056e 7CB3     		cbz	r4, .L378
 3317              	.LVL250:
 3318              		.loc 1 502 0
 3319 0570 40F20000 		movw	r0, #:lower16:.LC6
 3320 0574 94F90010 		ldrsb	r1, [r4, #0]
 3321 0578 C0F20000 		movt	r0, #:upper16:.LC6
 3322 057c FFF7FEFF 		bl	vex_printf
 3323              	.LVL251:
 3324              		.loc 1 503 0
 3325 0580 206D     		ldr	r0, [r4, #80]	@ float
 3326 0582 FFF7FEFF 		bl	__aeabi_f2d
 3327 0586 0246     		mov	r2, r0
 3328 0588 40F20000 		movw	r0, #:lower16:.LC2
 3329 058c 0B46     		mov	r3, r1
 3330 058e C0F20000 		movt	r0, #:upper16:.LC2
 3331 0592 FFF7FEFF 		bl	vex_printf
 3332              		.loc 1 504 0
 3333 0596 606E     		ldr	r0, [r4, #100]	@ float
 3334 0598 FFF7FEFF 		bl	__aeabi_f2d
 3335 059c 0246     		mov	r2, r0
 3336 059e 40F20000 		movw	r0, #:lower16:.LC3
 3337 05a2 0B46     		mov	r3, r1
 3338 05a4 C0F20000 		movt	r0, #:upper16:.LC3
 3339 05a8 FFF7FEFF 		bl	vex_printf
 3340              		.loc 1 505 0
 3341 05ac B4F974C0 		ldrsh	ip, [r4, #116]
 3342 05b0 B4F91240 		ldrsh	r4, [r4, #18]
 3343              	.LVL252:
 3344 05b4 40F20000 		movw	r0, #:lower16:.LC4
 3345 05b8 C0F20000 		movt	r0, #:upper16:.LC4
 3346 05bc 0CEB4401 		add	r1, ip, r4, lsl #1
 3347 05c0 FFF7FEFF 		bl	vex_printf
 3348              		.loc 1 506 0
 3349 05c4 40F20000 		movw	r0, #:lower16:.LC5
 3350 05c8 C0F20000 		movt	r0, #:upper16:.LC5
 3351 05cc FFF7FEFF 		bl	vex_printf
 3352              	.L378:
 3353              	.LVL253:
ARM GAS  /tmp/ccdUEzgz.s 			page 60


 3354              		.loc 1 499 0
 3355 05d0 2C6F     		ldr	r4, [r5, #112]
 3356 05d2 7CB3     		cbz	r4, .L379
 3357              	.LVL254:
 3358              		.loc 1 502 0
 3359 05d4 40F20000 		movw	r0, #:lower16:.LC6
 3360 05d8 94F90010 		ldrsb	r1, [r4, #0]
 3361 05dc C0F20000 		movt	r0, #:upper16:.LC6
 3362 05e0 FFF7FEFF 		bl	vex_printf
 3363              	.LVL255:
 3364              		.loc 1 503 0
 3365 05e4 206D     		ldr	r0, [r4, #80]	@ float
 3366 05e6 FFF7FEFF 		bl	__aeabi_f2d
 3367 05ea 0246     		mov	r2, r0
 3368 05ec 40F20000 		movw	r0, #:lower16:.LC2
 3369 05f0 0B46     		mov	r3, r1
 3370 05f2 C0F20000 		movt	r0, #:upper16:.LC2
 3371 05f6 FFF7FEFF 		bl	vex_printf
 3372              		.loc 1 504 0
 3373 05fa 606E     		ldr	r0, [r4, #100]	@ float
 3374 05fc FFF7FEFF 		bl	__aeabi_f2d
 3375 0600 0246     		mov	r2, r0
 3376 0602 40F20000 		movw	r0, #:lower16:.LC3
 3377 0606 0B46     		mov	r3, r1
 3378 0608 C0F20000 		movt	r0, #:upper16:.LC3
 3379 060c FFF7FEFF 		bl	vex_printf
 3380              		.loc 1 505 0
 3381 0610 B4F97430 		ldrsh	r3, [r4, #116]
 3382 0614 B4F91210 		ldrsh	r1, [r4, #18]
 3383 0618 40F20000 		movw	r0, #:lower16:.LC4
 3384 061c C0F20000 		movt	r0, #:upper16:.LC4
 3385 0620 03EB4101 		add	r1, r3, r1, lsl #1
 3386 0624 FFF7FEFF 		bl	vex_printf
 3387              		.loc 1 506 0
 3388 0628 40F20000 		movw	r0, #:lower16:.LC5
 3389 062c C0F20000 		movt	r0, #:upper16:.LC5
 3390 0630 FFF7FEFF 		bl	vex_printf
 3391              	.LVL256:
 3392              	.L379:
 3393              		.loc 1 499 0
 3394 0634 6C6F     		ldr	r4, [r5, #116]
 3395 0636 7CB3     		cbz	r4, .L380
 3396              	.LVL257:
 3397              		.loc 1 502 0
 3398 0638 40F20000 		movw	r0, #:lower16:.LC6
 3399 063c 94F90010 		ldrsb	r1, [r4, #0]
 3400 0640 C0F20000 		movt	r0, #:upper16:.LC6
 3401 0644 FFF7FEFF 		bl	vex_printf
 3402              	.LVL258:
 3403              		.loc 1 503 0
 3404 0648 206D     		ldr	r0, [r4, #80]	@ float
 3405 064a FFF7FEFF 		bl	__aeabi_f2d
 3406 064e 0246     		mov	r2, r0
 3407 0650 40F20000 		movw	r0, #:lower16:.LC2
 3408 0654 0B46     		mov	r3, r1
 3409 0656 C0F20000 		movt	r0, #:upper16:.LC2
 3410 065a FFF7FEFF 		bl	vex_printf
ARM GAS  /tmp/ccdUEzgz.s 			page 61


 3411              		.loc 1 504 0
 3412 065e 606E     		ldr	r0, [r4, #100]	@ float
 3413 0660 FFF7FEFF 		bl	__aeabi_f2d
 3414 0664 0246     		mov	r2, r0
 3415 0666 40F20000 		movw	r0, #:lower16:.LC3
 3416 066a 0B46     		mov	r3, r1
 3417 066c C0F20000 		movt	r0, #:upper16:.LC3
 3418 0670 FFF7FEFF 		bl	vex_printf
 3419              		.loc 1 505 0
 3420 0674 B4F974C0 		ldrsh	ip, [r4, #116]
 3421 0678 B4F91240 		ldrsh	r4, [r4, #18]
 3422              	.LVL259:
 3423 067c 40F20000 		movw	r0, #:lower16:.LC4
 3424 0680 C0F20000 		movt	r0, #:upper16:.LC4
 3425 0684 0CEB4401 		add	r1, ip, r4, lsl #1
 3426 0688 FFF7FEFF 		bl	vex_printf
 3427              		.loc 1 506 0
 3428 068c 40F20000 		movw	r0, #:lower16:.LC5
 3429 0690 C0F20000 		movt	r0, #:upper16:.LC5
 3430 0694 FFF7FEFF 		bl	vex_printf
 3431              	.L380:
 3432              	.LVL260:
 3433              		.loc 1 499 0
 3434 0698 AC6F     		ldr	r4, [r5, #120]
 3435 069a 7CB3     		cbz	r4, .L381
 3436              	.LVL261:
 3437              		.loc 1 502 0
 3438 069c 40F20000 		movw	r0, #:lower16:.LC6
 3439 06a0 94F90010 		ldrsb	r1, [r4, #0]
 3440 06a4 C0F20000 		movt	r0, #:upper16:.LC6
 3441 06a8 FFF7FEFF 		bl	vex_printf
 3442              	.LVL262:
 3443              		.loc 1 503 0
 3444 06ac 206D     		ldr	r0, [r4, #80]	@ float
 3445 06ae FFF7FEFF 		bl	__aeabi_f2d
 3446 06b2 0246     		mov	r2, r0
 3447 06b4 40F20000 		movw	r0, #:lower16:.LC2
 3448 06b8 0B46     		mov	r3, r1
 3449 06ba C0F20000 		movt	r0, #:upper16:.LC2
 3450 06be FFF7FEFF 		bl	vex_printf
 3451              		.loc 1 504 0
 3452 06c2 606E     		ldr	r0, [r4, #100]	@ float
 3453 06c4 FFF7FEFF 		bl	__aeabi_f2d
 3454 06c8 0246     		mov	r2, r0
 3455 06ca 40F20000 		movw	r0, #:lower16:.LC3
 3456 06ce 0B46     		mov	r3, r1
 3457 06d0 C0F20000 		movt	r0, #:upper16:.LC3
 3458 06d4 FFF7FEFF 		bl	vex_printf
 3459              		.loc 1 505 0
 3460 06d8 B4F97430 		ldrsh	r3, [r4, #116]
 3461 06dc B4F91210 		ldrsh	r1, [r4, #18]
 3462 06e0 40F20000 		movw	r0, #:lower16:.LC4
 3463 06e4 C0F20000 		movt	r0, #:upper16:.LC4
 3464 06e8 03EB4101 		add	r1, r3, r1, lsl #1
 3465 06ec FFF7FEFF 		bl	vex_printf
 3466              		.loc 1 506 0
 3467 06f0 40F20000 		movw	r0, #:lower16:.LC5
ARM GAS  /tmp/ccdUEzgz.s 			page 62


 3468 06f4 C0F20000 		movt	r0, #:upper16:.LC5
 3469 06f8 FFF7FEFF 		bl	vex_printf
 3470              	.LVL263:
 3471              	.L381:
 3472              		.loc 1 509 0
 3473 06fc 40F20000 		movw	r0, #:lower16:.LC5
 3474 0700 C0F20000 		movt	r0, #:upper16:.LC5
 3475              		.loc 1 511 0
 3476 0704 BDE83840 		pop	{r3, r4, r5, lr}
 3477              		.loc 1 509 0
 3478 0708 FFF7FEBF 		b	vex_printf
 3479              		.cfi_endproc
 3480              	.LFE88:
 3481              		.size	SmartMotorDebugStatus, .-SmartMotorDebugStatus
 3482 070c AFF30080 		.section	.text._SetMotor,"ax",%progbits
 3483              		.align	2
 3484              		.p2align 4,,15
 3485              		.global	_SetMotor
 3486              		.thumb
 3487              		.thumb_func
 3488              		.type	_SetMotor, %function
 3489              	_SetMotor:
 3490              	.LFB89:
 3491              		.loc 1 532 0
 3492              		.cfi_startproc
 3493              		@ args = 4, pretend = 8, frame = 0
 3494              		@ frame_needed = 0, uses_anonymous_args = 1
 3495              	.LVL264:
 3496 0000 0CB4     		push	{r2, r3}
 3497              	.LCFI8:
 3498              		.cfi_def_cfa_offset 8
 3499              		.cfi_offset 3, -4
 3500              		.cfi_offset 2, -8
 3501              		.loc 1 536 0
 3502 0002 0928     		cmp	r0, #9
 3503              		.loc 1 532 0
 3504 0004 08B5     		push	{r3, lr}
 3505              	.LCFI9:
 3506              		.cfi_def_cfa_offset 16
 3507              		.cfi_offset 14, -12
 3508              		.cfi_offset 3, -16
 3509              		.loc 1 536 0
 3510 0006 12D8     		bhi	.L382
 3511              		.loc 1 540 0
 3512 0008 4201     		lsls	r2, r0, #5
 3513 000a 40F20003 		movw	r3, #:lower16:.LANCHOR0
 3514 000e C0F20003 		movt	r3, #:upper16:.LANCHOR0
 3515 0012 121A     		subs	r2, r2, r0
 3516              		.loc 1 543 0
 3517 0014 7F29     		cmp	r1, #127
 3518              		.loc 1 540 0
 3519 0016 03EB8203 		add	r3, r3, r2, lsl #2
 3520              	.LVL265:
 3521              		.loc 1 543 0
 3522 001a 0CDD     		ble	.L384
 3523              		.loc 1 544 0
 3524 001c 7F22     		movs	r2, #127
ARM GAS  /tmp/ccdUEzgz.s 			page 63


 3525 001e 9A81     		strh	r2, [r3, #12]	@ movhi
 3526              	.L385:
 3527              		.loc 1 555 0
 3528 0020 9DF80830 		ldrb	r3, [sp, #8]	@ zero_extendqisi2
 3529              	.LVL266:
 3530 0024 1BB1     		cbz	r3, .L382
 3531              		.loc 1 556 0
 3532 0026 00B2     		sxth	r0, r0
 3533              	.LVL267:
 3534 0028 09B2     		sxth	r1, r1
 3535              	.LVL268:
 3536 002a FFF7FEFF 		bl	vexMotorSet
 3537              	.L382:
 3538              		.loc 1 557 0
 3539 002e BDE80840 		pop	{r3, lr}
 3540 0032 02B0     		add	sp, sp, #8
 3541 0034 7047     		bx	lr
 3542              	.LVL269:
 3543              	.L384:
 3544              		.loc 1 546 0
 3545 0036 11F17F0F 		cmn	r1, #127
 3546              		.loc 1 547 0
 3547 003a BCBF     		itt	lt
 3548 003c 4FF68172 		movwlt	r2, 65409	@ movhi
 3549 0040 9A81     		strhlt	r2, [r3, #12]	@ movhi
 3550              		.loc 1 546 0
 3551 0042 EDDB     		blt	.L385
 3552              		.loc 1 549 0
 3553 0044 81EAE17C 		eor	ip, r1, r1, asr #31
 3554 0048 ACEBE17C 		sub	ip, ip, r1, asr #31
 3555 004c BCF1090F 		cmp	ip, #9
 3556              		.loc 1 550 0
 3557 0050 C8BF     		it	gt
 3558 0052 9981     		strhgt	r1, [r3, #12]	@ movhi
 3559              		.loc 1 549 0
 3560 0054 E4DC     		bgt	.L385
 3561              		.loc 1 552 0
 3562 0056 0022     		movs	r2, #0
 3563 0058 9A81     		strh	r2, [r3, #12]	@ movhi
 3564 005a E1E7     		b	.L385
 3565              		.cfi_endproc
 3566              	.LFE89:
 3567              		.size	_SetMotor, .-_SetMotor
 3568 005c AFF30080 		.section	.text.SmartMotorsInit,"ax",%progbits
 3569              		.align	2
 3570              		.p2align 4,,15
 3571              		.global	SmartMotorsInit
 3572              		.thumb
 3573              		.thumb_func
 3574              		.type	SmartMotorsInit, %function
 3575              	SmartMotorsInit:
 3576              	.LFB90:
 3577              		.loc 1 573 0
 3578              		.cfi_startproc
 3579              		@ args = 0, pretend = 0, frame = 0
 3580              		@ frame_needed = 0, uses_anonymous_args = 0
 3581              	.LVL270:
ARM GAS  /tmp/ccdUEzgz.s 			page 64


 3582 0000 2DE9F047 		push	{r4, r5, r6, r7, r8, r9, sl, lr}
 3583              	.LCFI10:
 3584              		.cfi_def_cfa_offset 32
 3585              		.cfi_offset 14, -4
 3586              		.cfi_offset 10, -8
 3587              		.cfi_offset 9, -12
 3588              		.cfi_offset 8, -16
 3589              		.cfi_offset 7, -20
 3590              		.cfi_offset 6, -24
 3591              		.cfi_offset 5, -28
 3592              		.cfi_offset 4, -32
 3593              		.loc 1 585 0
 3594 0004 4CF21C71 		movw	r1, #50972
 3595              		.loc 1 583 0
 3596 0008 45F2555E 		movw	lr, #21845
 3597              		.loc 1 584 0
 3598 000c 46F20716 		movw	r6, #24839
 3599              		.loc 1 589 0
 3600 0010 0024     		movs	r4, #0
 3601              		.loc 1 581 0
 3602 0012 40F20007 		movw	r7, #:lower16:.LANCHOR3
 3603 0016 C0F20007 		movt	r7, #:upper16:.LANCHOR3
 3604 001a 0025     		movs	r5, #0
 3605              		.loc 1 585 0
 3606 001c C4F2B111 		movt	r1, 16817
 3607              		.loc 1 587 0
 3608 0020 0022     		movs	r2, #0
 3609              		.loc 1 590 0
 3610 0022 FF23     		movs	r3, #255
 3611              		.loc 1 583 0
 3612 0024 C4F2051E 		movt	lr, 16645
 3613              		.loc 1 584 0
 3614 0028 C3F64506 		movt	r6, 14405
 3615              		.loc 1 589 0
 3616 002c C4F24004 		movt	r4, 16448
 3617              		.loc 1 583 0
 3618 0030 C7F824E0 		str	lr, [r7, #36]	@ float
 3619              		.loc 1 585 0
 3620 0034 F962     		str	r1, [r7, #44]	@ float
 3621              		.loc 1 586 0
 3622 0036 3962     		str	r1, [r7, #32]	@ float
 3623              		.loc 1 587 0
 3624 0038 7A61     		str	r2, [r7, #20]	@ float
 3625              		.loc 1 588 0
 3626 003a BA61     		str	r2, [r7, #24]	@ float
 3627              		.loc 1 590 0
 3628 003c 87F83230 		strb	r3, [r7, #50]
 3629              		.loc 1 591 0
 3630 0040 87F83330 		strb	r3, [r7, #51]
 3631              		.loc 1 583 0
 3632 0044 C7F858E0 		str	lr, [r7, #88]	@ float
 3633              		.loc 1 585 0
 3634 0048 3966     		str	r1, [r7, #96]	@ float
 3635              		.loc 1 586 0
 3636 004a 7965     		str	r1, [r7, #84]	@ float
 3637              		.loc 1 587 0
 3638 004c BA64     		str	r2, [r7, #72]	@ float
ARM GAS  /tmp/ccdUEzgz.s 			page 65


 3639              		.loc 1 588 0
 3640 004e FA64     		str	r2, [r7, #76]	@ float
 3641              		.loc 1 590 0
 3642 0050 87F86630 		strb	r3, [r7, #102]
 3643              		.loc 1 591 0
 3644 0054 87F86730 		strb	r3, [r7, #103]
 3645              		.loc 1 584 0
 3646 0058 BE62     		str	r6, [r7, #40]	@ float
 3647 005a FE65     		str	r6, [r7, #92]	@ float
 3648              		.loc 1 589 0
 3649 005c FC61     		str	r4, [r7, #28]	@ float
 3650 005e 3C65     		str	r4, [r7, #80]	@ float
 3651              		.loc 1 581 0
 3652 0060 3D60     		str	r5, [r7, #0]
 3653              	.LVL271:
 3654 0062 7D60     		str	r5, [r7, #4]
 3655              	.LVL272:
 3656 0064 BD60     		str	r5, [r7, #8]
 3657              	.LVL273:
 3658 0066 FD60     		str	r5, [r7, #12]
 3659              	.LVL274:
 3660 0068 3D61     		str	r5, [r7, #16]
 3661              	.LVL275:
 3662 006a 7D63     		str	r5, [r7, #52]
 3663              	.LVL276:
 3664 006c BD63     		str	r5, [r7, #56]
 3665              	.LVL277:
 3666 006e FD63     		str	r5, [r7, #60]
 3667              	.LVL278:
 3668 0070 3D64     		str	r5, [r7, #64]
 3669              	.LVL279:
 3670 0072 7D64     		str	r5, [r7, #68]
 3671              	.LVL280:
 3672 0074 BD66     		str	r5, [r7, #104]
 3673              	.LVL281:
 3674 0076 FD66     		str	r5, [r7, #108]
 3675              	.LVL282:
 3676 0078 3D67     		str	r5, [r7, #112]
 3677              	.LVL283:
 3678 007a 7D67     		str	r5, [r7, #116]
 3679              	.LVL284:
 3680              		.loc 1 597 0
 3681 007c 2846     		mov	r0, r5
 3682              		.loc 1 581 0
 3683 007e BD67     		str	r5, [r7, #120]
 3684              	.LVL285:
 3685              		.loc 1 583 0
 3686 0080 C7F88CE0 		str	lr, [r7, #140]	@ float
 3687              		.loc 1 585 0
 3688 0084 C7F89410 		str	r1, [r7, #148]	@ float
 3689              		.loc 1 586 0
 3690 0088 C7F88810 		str	r1, [r7, #136]	@ float
 3691              		.loc 1 587 0
 3692 008c FA67     		str	r2, [r7, #124]	@ float
 3693              		.loc 1 588 0
 3694 008e C7F88020 		str	r2, [r7, #128]	@ float
 3695              		.loc 1 590 0
ARM GAS  /tmp/ccdUEzgz.s 			page 66


 3696 0092 87F89A30 		strb	r3, [r7, #154]
 3697              		.loc 1 591 0
 3698 0096 87F89B30 		strb	r3, [r7, #155]
 3699              	.LVL286:
 3700              		.loc 1 584 0
 3701 009a C7F89060 		str	r6, [r7, #144]	@ float
 3702              		.loc 1 589 0
 3703 009e C7F88440 		str	r4, [r7, #132]	@ float
 3704              		.loc 1 597 0
 3705 00a2 FFF7FEFF 		bl	vexMotorEncoderIdGet
 3706 00a6 40F20006 		movw	r6, #:lower16:.LANCHOR0
 3707 00aa C0F20006 		movt	r6, #:upper16:.LANCHOR0
 3708 00ae B083     		strh	r0, [r6, #28]	@ movhi
 3709              		.loc 1 598 0
 3710 00b0 0120     		movs	r0, #1
 3711 00b2 FFF7FEFF 		bl	vexMotorEncoderIdGet
 3712 00b6 A6F89800 		strh	r0, [r6, #152]	@ movhi
 3713              		.loc 1 599 0
 3714 00ba 0220     		movs	r0, #2
 3715 00bc FFF7FEFF 		bl	vexMotorEncoderIdGet
 3716 00c0 A6F81401 		strh	r0, [r6, #276]	@ movhi
 3717              		.loc 1 600 0
 3718 00c4 0320     		movs	r0, #3
 3719 00c6 FFF7FEFF 		bl	vexMotorEncoderIdGet
 3720 00ca A6F89001 		strh	r0, [r6, #400]	@ movhi
 3721              		.loc 1 601 0
 3722 00ce 0420     		movs	r0, #4
 3723 00d0 FFF7FEFF 		bl	vexMotorEncoderIdGet
 3724 00d4 A6F80C02 		strh	r0, [r6, #524]	@ movhi
 3725              		.loc 1 602 0
 3726 00d8 0520     		movs	r0, #5
 3727 00da FFF7FEFF 		bl	vexMotorEncoderIdGet
 3728 00de A6F88802 		strh	r0, [r6, #648]	@ movhi
 3729              		.loc 1 603 0
 3730 00e2 0620     		movs	r0, #6
 3731 00e4 FFF7FEFF 		bl	vexMotorEncoderIdGet
 3732 00e8 A6F80403 		strh	r0, [r6, #772]	@ movhi
 3733              		.loc 1 604 0
 3734 00ec 0720     		movs	r0, #7
 3735 00ee FFF7FEFF 		bl	vexMotorEncoderIdGet
 3736 00f2 A6F88003 		strh	r0, [r6, #896]	@ movhi
 3737              		.loc 1 605 0
 3738 00f6 0820     		movs	r0, #8
 3739 00f8 FFF7FEFF 		bl	vexMotorEncoderIdGet
 3740 00fc A6F8FC03 		strh	r0, [r6, #1020]	@ movhi
 3741              		.loc 1 606 0
 3742 0100 0920     		movs	r0, #9
 3743 0102 FFF7FEFF 		bl	vexMotorEncoderIdGet
 3744              		.loc 1 619 0
 3745 0106 4CF6CD4A 		movw	sl, #52429
 3746              		.loc 1 620 0
 3747 010a 49F69A19 		movw	r9, #39322
 3748              		.loc 1 619 0
 3749 010e C3F64C6A 		movt	sl, 15948
 3750              		.loc 1 620 0
 3751 0112 C4F29909 		movt	r9, 16537
 3752              		.loc 1 621 0
ARM GAS  /tmp/ccdUEzgz.s 			page 67


 3753 0116 4FF07F58 		mov	r8, #1069547520
 3754              		.loc 1 606 0
 3755 011a A6F87804 		strh	r0, [r6, #1144]	@ movhi
 3756              	.LVL287:
 3757 011e 2037     		adds	r7, r7, #32
 3758 0120 11E0     		b	.L402
 3759              	.LVL288:
 3760              	.L409:
 3761              		.loc 1 719 0
 3762 0122 042D     		cmp	r5, #4
 3763              		.loc 1 720 0
 3764 0124 D4BF     		ite	le
 3765 0126 47F8204C 		strle	r4, [r7, #-32]
 3766              		.loc 1 722 0
 3767 012a 3C60     		strgt	r4, [r7, #0]
 3768              		.loc 1 719 0
 3769 012c 51DC     		bgt	.L400
 3770              	.L399:
 3771              		.loc 1 727 0
 3772 012e 40F20003 		movw	r3, #:lower16:.LANCHOR3
 3773              		.loc 1 608 0
 3774 0132 0135     		adds	r5, r5, #1
 3775              	.LVL289:
 3776              		.loc 1 727 0
 3777 0134 C0F20003 		movt	r3, #:upper16:.LANCHOR3
 3778              		.loc 1 732 0
 3779 0138 4FF0FF30 		mov	r0, #-1
 3780              		.loc 1 608 0
 3781 013c 0437     		adds	r7, r7, #4
 3782 013e 0A2D     		cmp	r5, #10
 3783              		.loc 1 726 0
 3784 0140 A360     		str	r3, [r4, #8]
 3785              		.loc 1 732 0
 3786 0142 A067     		str	r0, [r4, #120]
 3787              		.loc 1 608 0
 3788 0144 4ED0     		beq	.L406
 3789              	.LVL290:
 3790              	.L402:
 3791              		.loc 1 610 0
 3792 0146 6801     		lsls	r0, r5, #5
 3793 0148 431B     		subs	r3, r0, r5
 3794 014a 06EB8304 		add	r4, r6, r3, lsl #2
 3795              	.LVL291:
 3796              		.loc 1 613 0
 3797 014e 28B2     		sxth	r0, r5
 3798              		.loc 1 611 0
 3799 0150 06F82350 		strb	r5, [r6, r3, lsl #2]
 3800              		.loc 1 612 0
 3801 0154 6570     		strb	r5, [r4, #1]
 3802              		.loc 1 613 0
 3803 0156 FFF7FEFF 		bl	vexMotorTypeGet
 3804              		.loc 1 615 0
 3805 015a 0228     		cmp	r0, #2
 3806              		.loc 1 613 0
 3807 015c A070     		strb	r0, [r4, #2]
 3808              		.loc 1 615 0
 3809 015e 00F0A580 		beq	.L391
ARM GAS  /tmp/ccdUEzgz.s 			page 68


 3810 0162 0328     		cmp	r0, #3
 3811 0164 7BD0     		beq	.L392
 3812 0166 0128     		cmp	r0, #1
 3813 0168 46D0     		beq	.L407
 3814              		.loc 1 671 0
 3815 016a 0023     		movs	r3, #0
 3816 016c A370     		strb	r3, [r4, #2]
 3817              	.L393:
 3818              		.loc 1 676 0
 3819 016e B4F91C30 		ldrsh	r3, [r4, #28]
 3820 0172 002B     		cmp	r3, #0
 3821 0174 38DB     		blt	.L408
 3822              		.loc 1 684 0
 3823 0176 132B     		cmp	r3, #19
 3824              		.loc 1 687 0
 3825 0178 94F90100 		ldrsb	r0, [r4, #1]
 3826              		.loc 1 684 0
 3827 017c 03DC     		bgt	.L396
 3828              		.loc 1 686 0
 3829 017e 0021     		movs	r1, #0
 3830 0180 C4F2B431 		movt	r1, 17332
 3831 0184 2162     		str	r1, [r4, #32]	@ float
 3832              	.L396:
 3833              		.loc 1 692 0
 3834 0186 FFF7FEFF 		bl	vexMotorPositionGet
 3835 018a 6062     		str	r0, [r4, #36]
 3836              		.loc 1 693 0
 3837 018c 94F90100 		ldrsb	r0, [r4, #1]
 3838 0190 FFF7FEFF 		bl	vexMotorPositionGet
 3839 0194 A062     		str	r0, [r4, #40]
 3840              	.L395:
 3841              		.loc 1 697 0
 3842 0196 4CF21C73 		movw	r3, #50972
 3843 019a C4F2B113 		movt	r3, 16817
 3844              		.loc 1 701 0
 3845 019e D4F85CE0 		ldr	lr, [r4, #92]	@ float
 3846              		.loc 1 706 0
 3847 01a2 0022     		movs	r2, #0
 3848              		.loc 1 697 0
 3849 01a4 2367     		str	r3, [r4, #112]	@ float
 3850              		.loc 1 698 0
 3851 01a6 6366     		str	r3, [r4, #100]	@ float
 3852              		.loc 1 706 0
 3853 01a8 A265     		str	r2, [r4, #88]	@ float
 3854              		.loc 1 709 0
 3855 01aa 0023     		movs	r3, #0
 3856              		.loc 1 711 0
 3857 01ac FF22     		movs	r2, #255
 3858              		.loc 1 709 0
 3859 01ae 6382     		strh	r3, [r4, #18]	@ movhi
 3860              		.loc 1 710 0
 3861 01b0 A4F87430 		strh	r3, [r4, #116]	@ movhi
 3862              		.loc 1 714 0
 3863 01b4 606C     		ldr	r0, [r4, #68]	@ float
 3864 01b6 A16C     		ldr	r1, [r4, #72]	@ float
 3865              		.loc 1 701 0
 3866 01b8 C4F860E0 		str	lr, [r4, #96]	@ float
ARM GAS  /tmp/ccdUEzgz.s 			page 69


 3867              		.loc 1 703 0
 3868 01bc C4F818E0 		str	lr, [r4, #24]	@ float
 3869              		.loc 1 711 0
 3870 01c0 A282     		strh	r2, [r4, #20]	@ movhi
 3871              		.loc 1 714 0
 3872 01c2 FFF7FEFF 		bl	__aeabi_fmul
 3873              		.loc 1 717 0
 3874 01c6 A378     		ldrb	r3, [r4, #2]	@ zero_extendqisi2
 3875              		.loc 1 714 0
 3876 01c8 E064     		str	r0, [r4, #76]	@ float
 3877              		.loc 1 717 0
 3878 01ca 002B     		cmp	r3, #0
 3879 01cc A9D1     		bne	.L409
 3880              		.loc 1 726 0
 3881 01ce 042D     		cmp	r5, #4
 3882 01d0 ADDD     		ble	.L399
 3883              	.L400:
 3884              		.loc 1 729 0
 3885 01d2 434B     		ldr	r3, .L410
 3886              		.loc 1 608 0
 3887 01d4 0135     		adds	r5, r5, #1
 3888              	.LVL292:
 3889              		.loc 1 732 0
 3890 01d6 4FF0FF30 		mov	r0, #-1
 3891              		.loc 1 608 0
 3892 01da 0437     		adds	r7, r7, #4
 3893 01dc 0A2D     		cmp	r5, #10
 3894              		.loc 1 726 0
 3895 01de A360     		str	r3, [r4, #8]
 3896              		.loc 1 732 0
 3897 01e0 A067     		str	r0, [r4, #120]
 3898              		.loc 1 608 0
 3899 01e2 B0D1     		bne	.L402
 3900              	.L406:
 3901              		.loc 1 734 0
 3902 01e4 BDE8F087 		pop	{r4, r5, r6, r7, r8, r9, sl, pc}
 3903              	.LVL293:
 3904              	.L408:
 3905              		.loc 1 679 0
 3906 01e8 0022     		movs	r2, #0
 3907              		.loc 1 680 0
 3908 01ea 0020     		movs	r0, #0
 3909              		.loc 1 679 0
 3910 01ec CBF68072 		movt	r2, 49024
 3911 01f0 2262     		str	r2, [r4, #32]	@ float
 3912              		.loc 1 680 0
 3913 01f2 6062     		str	r0, [r4, #36]
 3914              		.loc 1 681 0
 3915 01f4 A062     		str	r0, [r4, #40]
 3916 01f6 CEE7     		b	.L395
 3917              	.L407:
 3918              		.loc 1 653 0
 3919 01f8 45F2EC1C 		movw	ip, #20972
 3920              		.loc 1 655 0
 3921 01fc 0021     		movs	r1, #0
 3922              		.loc 1 656 0
 3923 01fe 46F2C342 		movw	r2, #25795
ARM GAS  /tmp/ccdUEzgz.s 			page 70


 3924              		.loc 1 653 0
 3925 0202 C3F6386C 		movt	ip, 15928
 3926              		.loc 1 655 0
 3927 0206 C4F22001 		movt	r1, 16416
 3928              		.loc 1 656 0
 3929 020a C3F62A22 		movt	r2, 14890
 3930              		.loc 1 654 0
 3931 020e 45F2EC1E 		movw	lr, #20972
 3932 0212 C4F2380E 		movt	lr, 16440
 3933              		.loc 1 653 0
 3934 0216 C4F834C0 		str	ip, [r4, #52]	@ float
 3935              		.loc 1 655 0
 3936 021a E163     		str	r1, [r4, #60]	@ float
 3937              		.loc 1 656 0
 3938 021c 2264     		str	r2, [r4, #64]	@ float
 3939              		.loc 1 657 0
 3940 021e 46F26660 		movw	r0, #26214
 3941              		.loc 1 658 0
 3942 0222 0023     		movs	r3, #0
 3943              		.loc 1 660 0
 3944 0224 47F2B02C 		movw	ip, #29360
 3945              		.loc 1 664 0
 3946 0228 45F25551 		movw	r1, #21845
 3947              		.loc 1 665 0
 3948 022c 4CF2AC52 		movw	r2, #50604
 3949              		.loc 1 654 0
 3950 0230 C4F838E0 		str	lr, [r4, #56]	@ float
 3951              		.loc 1 657 0
 3952 0234 C3F66650 		movt	r0, 15718
 3953              		.loc 1 658 0
 3954 0238 C4F2F023 		movt	r3, 17136
 3955              		.loc 1 660 0
 3956 023c C4F2703C 		movt	ip, 17264
 3957              		.loc 1 662 0
 3958 0240 4FF07D5E 		mov	lr, #1061158912
 3959              		.loc 1 664 0
 3960 0244 C4F20531 		movt	r1, 17157
 3961              		.loc 1 665 0
 3962 0248 C3F62702 		movt	r2, 14375
 3963              		.loc 1 657 0
 3964 024c 6064     		str	r0, [r4, #68]	@ float
 3965              		.loc 1 658 0
 3966 024e A364     		str	r3, [r4, #72]	@ float
 3967              		.loc 1 660 0
 3968 0250 C4F820C0 		str	ip, [r4, #32]	@ float
 3969              		.loc 1 662 0
 3970 0254 C4F85CE0 		str	lr, [r4, #92]	@ float
 3971              		.loc 1 664 0
 3972 0258 A166     		str	r1, [r4, #104]	@ float
 3973              		.loc 1 665 0
 3974 025a E266     		str	r2, [r4, #108]	@ float
 3975              		.loc 1 666 0
 3976 025c 87E7     		b	.L393
 3977              	.L392:
 3978              		.loc 1 641 0
 3979 025e 0023     		movs	r3, #0
 3980 0260 C4F23033 		movt	r3, 17200
ARM GAS  /tmp/ccdUEzgz.s 			page 71


 3981              		.loc 1 639 0
 3982 0264 46F2C342 		movw	r2, #25795
 3983              		.loc 1 640 0
 3984 0268 49F2F240 		movw	r0, #38130
 3985              		.loc 1 639 0
 3986 026c C3F62A22 		movt	r2, 14890
 3987              		.loc 1 640 0
 3988 0270 C3F62050 		movt	r0, 15648
 3989              		.loc 1 641 0
 3990 0274 A364     		str	r3, [r4, #72]	@ float
 3991              		.loc 1 643 0
 3992 0276 0023     		movs	r3, #0
 3993              		.loc 1 636 0
 3994 0278 C4F834A0 		str	sl, [r4, #52]	@ float
 3995              		.loc 1 637 0
 3996 027c C4F83890 		str	r9, [r4, #56]	@ float
 3997              		.loc 1 638 0
 3998 0280 C4F83C80 		str	r8, [r4, #60]	@ float
 3999              		.loc 1 639 0
 4000 0284 2264     		str	r2, [r4, #64]	@ float
 4001              		.loc 1 640 0
 4002 0286 6064     		str	r0, [r4, #68]	@ float
 4003              		.loc 1 643 0
 4004 0288 C4F2C433 		movt	r3, 17348
 4005              	.L405:
 4006 028c 2362     		str	r3, [r4, #32]	@ float
 4007              		.loc 1 645 0
 4008 028e 46F26660 		movw	r0, #26214
 4009              		.loc 1 647 0
 4010 0292 0023     		movs	r3, #0
 4011              		.loc 1 648 0
 4012 0294 40F6FF11 		movw	r1, #2559
 4013              		.loc 1 645 0
 4014 0298 C3F66670 		movt	r0, 16230
 4015              		.loc 1 647 0
 4016 029c C4F29623 		movt	r3, 17046
 4017              		.loc 1 648 0
 4018 02a0 C3F23D71 		movt	r1, 14141
 4019              		.loc 1 645 0
 4020 02a4 E065     		str	r0, [r4, #92]	@ float
 4021              		.loc 1 647 0
 4022 02a6 A366     		str	r3, [r4, #104]	@ float
 4023              		.loc 1 648 0
 4024 02a8 E166     		str	r1, [r4, #108]	@ float
 4025              		.loc 1 649 0
 4026 02aa 60E7     		b	.L393
 4027              	.L391:
 4028              		.loc 1 622 0
 4029 02ac 46F2C34C 		movw	ip, #25795
 4030              		.loc 1 623 0
 4031 02b0 47F22871 		movw	r1, #30504
 4032              		.loc 1 624 0
 4033 02b4 0022     		movs	r2, #0
 4034              		.loc 1 622 0
 4035 02b6 C3F62A2C 		movt	ip, 14890
 4036              		.loc 1 623 0
 4037 02ba C3F68051 		movt	r1, 15744
ARM GAS  /tmp/ccdUEzgz.s 			page 72


 4038              		.loc 1 624 0
 4039 02be C4F2DC22 		movt	r2, 17116
 4040              		.loc 1 626 0
 4041 02c2 4CF6CD43 		movw	r3, #52429
 4042              		.loc 1 619 0
 4043 02c6 C4F834A0 		str	sl, [r4, #52]	@ float
 4044              		.loc 1 620 0
 4045 02ca C4F83890 		str	r9, [r4, #56]	@ float
 4046              		.loc 1 621 0
 4047 02ce C4F83C80 		str	r8, [r4, #60]	@ float
 4048              		.loc 1 622 0
 4049 02d2 C4F840C0 		str	ip, [r4, #64]	@ float
 4050              		.loc 1 623 0
 4051 02d6 6164     		str	r1, [r4, #68]	@ float
 4052              		.loc 1 624 0
 4053 02d8 A264     		str	r2, [r4, #72]	@ float
 4054              		.loc 1 626 0
 4055 02da C4F21C43 		movt	r3, 17436
 4056 02de D5E7     		b	.L405
 4057              	.L411:
 4058              		.align	2
 4059              	.L410:
 4060 02e0 34000000 		.word	.LANCHOR3+52
 4061              		.cfi_endproc
 4062              	.LFE90:
 4063              		.size	SmartMotorsInit, .-SmartMotorsInit
 4064 02e4 AFF30080 		.section	.text.SmartMotorLinkMotors,"ax",%progbits
 4064      AFF30080 
 4064      AFF30080 
 4065              		.align	2
 4066              		.p2align 4,,15
 4067              		.global	SmartMotorLinkMotors
 4068              		.thumb
 4069              		.thumb_func
 4070              		.type	SmartMotorLinkMotors, %function
 4071              	SmartMotorLinkMotors:
 4072              	.LFB91:
 4073              		.loc 1 747 0
 4074              		.cfi_startproc
 4075              		@ args = 0, pretend = 0, frame = 0
 4076              		@ frame_needed = 0, uses_anonymous_args = 0
 4077              		@ link register save eliminated.
 4078              	.LVL294:
 4079              		.loc 1 749 0
 4080 0000 C3B2     		uxtb	r3, r0
 4081 0002 092B     		cmp	r3, #9
 4082              		.loc 1 747 0
 4083 0004 70B4     		push	{r4, r5, r6}
 4084              	.LCFI11:
 4085              		.cfi_def_cfa_offset 12
 4086              		.cfi_offset 6, -4
 4087              		.cfi_offset 5, -8
 4088              		.cfi_offset 4, -12
 4089              		.loc 1 749 0
 4090 0006 1DD8     		bhi	.L412
 4091              		.loc 1 753 0
 4092 0008 CAB2     		uxtb	r2, r1
ARM GAS  /tmp/ccdUEzgz.s 			page 73


 4093 000a 092A     		cmp	r2, #9
 4094 000c 1AD8     		bhi	.L412
 4095              		.loc 1 757 0
 4096 000e 4401     		lsls	r4, r0, #5
 4097 0010 201A     		subs	r0, r4, r0
 4098              	.LVL295:
 4099 0012 40F20003 		movw	r3, #:lower16:.LANCHOR0
 4100              	.LVL296:
 4101 0016 8000     		lsls	r0, r0, #2
 4102 0018 C0F20003 		movt	r3, #:upper16:.LANCHOR0
 4103 001c 1A18     		adds	r2, r3, r0
 4104              	.LVL297:
 4105              		.loc 1 761 0
 4106 001e 948B     		ldrh	r4, [r2, #28]
 4107 0020 25B2     		sxth	r5, r4
 4108 0022 B5F1FF3F 		cmp	r5, #-1
 4109 0026 0DD0     		beq	.L412
 4110              		.loc 1 758 0
 4111 0028 4D01     		lsls	r5, r1, #5
 4112 002a C1EB050C 		rsb	ip, r1, r5
 4113              		.loc 1 765 0
 4114 002e 1E5C     		ldrb	r6, [r3, r0]	@ zero_extendqisi2
 4115              		.loc 1 768 0
 4116 0030 156A     		ldr	r5, [r2, #32]	@ float
 4117              		.loc 1 770 0
 4118 0032 506A     		ldr	r0, [r2, #36]
 4119              		.loc 1 771 0
 4120 0034 926A     		ldr	r2, [r2, #40]
 4121              	.LVL298:
 4122              		.loc 1 758 0
 4123 0036 03EB8C01 		add	r1, r3, ip, lsl #2
 4124              	.LVL299:
 4125              		.loc 1 765 0
 4126 003a 4E70     		strb	r6, [r1, #1]
 4127              		.loc 1 768 0
 4128 003c 0D62     		str	r5, [r1, #32]	@ float
 4129              		.loc 1 769 0
 4130 003e 8C83     		strh	r4, [r1, #28]	@ movhi
 4131              		.loc 1 770 0
 4132 0040 4862     		str	r0, [r1, #36]
 4133              		.loc 1 771 0
 4134 0042 8A62     		str	r2, [r1, #40]
 4135              	.L412:
 4136              		.loc 1 772 0
 4137 0044 70BC     		pop	{r4, r5, r6}
 4138 0046 7047     		bx	lr
 4139              		.cfi_endproc
 4140              	.LFE91:
 4141              		.size	SmartMotorLinkMotors, .-SmartMotorLinkMotors
 4142 0048 AFF30080 		.section	.text.SmartMotorsSetEncoderGearing,"ax",%progbits
 4142      AFF30080 
 4143              		.align	2
 4144              		.p2align 4,,15
 4145              		.global	SmartMotorsSetEncoderGearing
 4146              		.thumb
 4147              		.thumb_func
 4148              		.type	SmartMotorsSetEncoderGearing, %function
ARM GAS  /tmp/ccdUEzgz.s 			page 74


 4149              	SmartMotorsSetEncoderGearing:
 4150              	.LFB92:
 4151              		.loc 1 788 0
 4152              		.cfi_startproc
 4153              		@ args = 0, pretend = 0, frame = 0
 4154              		@ frame_needed = 0, uses_anonymous_args = 0
 4155              	.LVL300:
 4156              		.loc 1 790 0
 4157 0000 C3B2     		uxtb	r3, r0
 4158 0002 092B     		cmp	r3, #9
 4159              		.loc 1 788 0
 4160 0004 10B5     		push	{r4, lr}
 4161              	.LCFI12:
 4162              		.cfi_def_cfa_offset 8
 4163              		.cfi_offset 14, -4
 4164              		.cfi_offset 4, -8
 4165              		.loc 1 790 0
 4166 0006 0ED8     		bhi	.L414
 4167              		.loc 1 793 0
 4168 0008 4301     		lsls	r3, r0, #5
 4169 000a 40F20002 		movw	r2, #:lower16:.LANCHOR0
 4170 000e 1C1A     		subs	r4, r3, r0
 4171 0010 C0F20002 		movt	r2, #:upper16:.LANCHOR0
 4172 0014 02EB8404 		add	r4, r2, r4, lsl #2
 4173              	.LVL301:
 4174              		.loc 1 796 0
 4175 0018 A08B     		ldrh	r0, [r4, #28]
 4176              	.LVL302:
 4177 001a 1328     		cmp	r0, #19
 4178 001c 03D8     		bhi	.L414
 4179              		.loc 1 797 0
 4180 001e 206A     		ldr	r0, [r4, #32]	@ float
 4181 0020 FFF7FEFF 		bl	__aeabi_fmul
 4182              	.LVL303:
 4183 0024 2062     		str	r0, [r4, #32]	@ float
 4184              	.LVL304:
 4185              	.L414:
 4186 0026 10BD     		pop	{r4, pc}
 4187              		.cfi_endproc
 4188              	.LFE92:
 4189              		.size	SmartMotorsSetEncoderGearing, .-SmartMotorsSetEncoderGearing
 4190 0028 AFF30080 		.section	.text._SmartMotorsAddPowerExtender,"ax",%progbits
 4190      AFF30080 
 4191              		.align	2
 4192              		.p2align 4,,15
 4193              		.global	_SmartMotorsAddPowerExtender
 4194              		.thumb
 4195              		.thumb_func
 4196              		.type	_SmartMotorsAddPowerExtender, %function
 4197              	_SmartMotorsAddPowerExtender:
 4198              	.LFB93:
 4199              		.loc 1 828 0
 4200              		.cfi_startproc
 4201              		@ args = 4, pretend = 4, frame = 0
 4202              		@ frame_needed = 0, uses_anonymous_args = 1
 4203              		@ link register save eliminated.
 4204              	.LVL305:
ARM GAS  /tmp/ccdUEzgz.s 			page 75


 4205 0000 08B4     		push	{r3}
 4206              	.LCFI13:
 4207              		.cfi_def_cfa_offset 4
 4208              		.cfi_offset 3, -4
 4209              		.loc 1 835 0
 4210 0002 40F20003 		movw	r3, #:lower16:.LANCHOR0
 4211 0006 C0F20003 		movt	r3, #:upper16:.LANCHOR0
 4212              		.loc 1 828 0
 4213 000a 2DE9F001 		push	{r4, r5, r6, r7, r8}
 4214              	.LCFI14:
 4215              		.cfi_def_cfa_offset 24
 4216              		.cfi_offset 8, -8
 4217              		.cfi_offset 7, -12
 4218              		.cfi_offset 6, -16
 4219              		.cfi_offset 5, -20
 4220              		.cfi_offset 4, -24
 4221              		.loc 1 839 0
 4222 000e 9C78     		ldrb	r4, [r3, #2]	@ zero_extendqisi2
 4223              		.loc 1 828 0
 4224 0010 059E     		ldr	r6, [sp, #20]
 4225              		.loc 1 835 0
 4226 0012 1D46     		mov	r5, r3
 4227              	.LVL306:
 4228              		.loc 1 839 0
 4229 0014 ECB1     		cbz	r4, .L417
 4230 0016 93F90040 		ldrsb	r4, [r3, #0]
 4231 001a 002C     		cmp	r4, #0
 4232 001c 40F38A81 		ble	.L448
 4233 0020 082C     		cmp	r4, #8
 4234 0022 00F38781 		bgt	.L448
 4235              		.loc 1 842 0
 4236 0026 D0F10104 		rsbs	r4, r0, #1
 4237 002a 38BF     		it	cc
 4238 002c 0024     		movcc	r4, #0
 4239 002e 0029     		cmp	r1, #0
 4240 0030 08BF     		it	eq
 4241 0032 44F00104 		orreq	r4, r4, #1
 4242 0036 002C     		cmp	r4, #0
 4243 0038 40F07E81 		bne	.L419
 4244 003c D2F10104 		rsbs	r4, r2, #1
 4245 0040 38BF     		it	cc
 4246 0042 0024     		movcc	r4, #0
 4247 0044 002E     		cmp	r6, #0
 4248 0046 08BF     		it	eq
 4249 0048 44F00104 		orreq	r4, r4, #1
 4250 004c 002C     		cmp	r4, #0
 4251 004e 40F07381 		bne	.L419
 4252              	.LVL307:
 4253              	.L417:
 4254              		.loc 1 835 0
 4255 0052 40F20005 		movw	r5, #:lower16:.LANCHOR0
 4256              		.loc 1 839 0
 4257 0056 93F87E70 		ldrb	r7, [r3, #126]	@ zero_extendqisi2
 4258              		.loc 1 835 0
 4259 005a C0F20005 		movt	r5, #:upper16:.LANCHOR0
 4260 005e 05F17C0C 		add	ip, r5, #124
 4261              	.LVL308:
ARM GAS  /tmp/ccdUEzgz.s 			page 76


 4262              		.loc 1 839 0
 4263 0062 EFB1     		cbz	r7, .L420
 4264 0064 95F97C50 		ldrsb	r5, [r5, #124]
 4265 0068 002D     		cmp	r5, #0
 4266 006a 19DD     		ble	.L420
 4267 006c 082D     		cmp	r5, #8
 4268 006e 17DC     		bgt	.L420
 4269              		.loc 1 842 0
 4270 0070 A0F10107 		sub	r7, r0, #1
 4271 0074 7D42     		rsbs	r5, r7, #0
 4272 0076 45EB0705 		adc	r5, r5, r7
 4273 007a 0129     		cmp	r1, #1
 4274 007c 08BF     		it	eq
 4275 007e 45F00105 		orreq	r5, r5, #1
 4276 0082 002D     		cmp	r5, #0
 4277 0084 40F06581 		bne	.L422
 4278 0088 A2F10107 		sub	r7, r2, #1
 4279 008c 7D42     		rsbs	r5, r7, #0
 4280 008e 45EB0705 		adc	r5, r5, r7
 4281 0092 012E     		cmp	r6, #1
 4282 0094 08BF     		it	eq
 4283 0096 45F00105 		orreq	r5, r5, #1
 4284 009a 002D     		cmp	r5, #0
 4285 009c 40F05981 		bne	.L422
 4286              	.L420:
 4287              	.LVL309:
 4288              		.loc 1 835 0
 4289 00a0 40F20005 		movw	r5, #:lower16:.LANCHOR0
 4290              		.loc 1 839 0
 4291 00a4 93F8FA70 		ldrb	r7, [r3, #250]	@ zero_extendqisi2
 4292              		.loc 1 835 0
 4293 00a8 C0F20005 		movt	r5, #:upper16:.LANCHOR0
 4294 00ac 05F1F80C 		add	ip, r5, #248
 4295              	.LVL310:
 4296              		.loc 1 839 0
 4297 00b0 EFB1     		cbz	r7, .L423
 4298 00b2 95F9F850 		ldrsb	r5, [r5, #248]
 4299 00b6 002D     		cmp	r5, #0
 4300 00b8 19DD     		ble	.L423
 4301 00ba 082D     		cmp	r5, #8
 4302 00bc 17DC     		bgt	.L423
 4303              		.loc 1 842 0
 4304 00be A0F10207 		sub	r7, r0, #2
 4305 00c2 7D42     		rsbs	r5, r7, #0
 4306 00c4 45EB0705 		adc	r5, r5, r7
 4307 00c8 0229     		cmp	r1, #2
 4308 00ca 08BF     		it	eq
 4309 00cc 45F00105 		orreq	r5, r5, #1
 4310 00d0 002D     		cmp	r5, #0
 4311 00d2 40F07E81 		bne	.L425
 4312 00d6 A2F10207 		sub	r7, r2, #2
 4313 00da 7D42     		rsbs	r5, r7, #0
 4314 00dc 45EB0705 		adc	r5, r5, r7
 4315 00e0 022E     		cmp	r6, #2
 4316 00e2 08BF     		it	eq
 4317 00e4 45F00105 		orreq	r5, r5, #1
 4318 00e8 002D     		cmp	r5, #0
ARM GAS  /tmp/ccdUEzgz.s 			page 77


 4319 00ea 40F07281 		bne	.L425
 4320              	.L423:
 4321              	.LVL311:
 4322              		.loc 1 835 0
 4323 00ee 40F20005 		movw	r5, #:lower16:.LANCHOR0
 4324              		.loc 1 839 0
 4325 00f2 93F87671 		ldrb	r7, [r3, #374]	@ zero_extendqisi2
 4326              		.loc 1 835 0
 4327 00f6 C0F20005 		movt	r5, #:upper16:.LANCHOR0
 4328 00fa 05F5BA7C 		add	ip, r5, #372
 4329              	.LVL312:
 4330              		.loc 1 839 0
 4331 00fe EFB1     		cbz	r7, .L426
 4332 0100 95F97451 		ldrsb	r5, [r5, #372]
 4333 0104 002D     		cmp	r5, #0
 4334 0106 19DD     		ble	.L426
 4335 0108 082D     		cmp	r5, #8
 4336 010a 17DC     		bgt	.L426
 4337              		.loc 1 842 0
 4338 010c A0F10307 		sub	r7, r0, #3
 4339 0110 7D42     		rsbs	r5, r7, #0
 4340 0112 45EB0705 		adc	r5, r5, r7
 4341 0116 0329     		cmp	r1, #3
 4342 0118 08BF     		it	eq
 4343 011a 45F00105 		orreq	r5, r5, #1
 4344 011e 002D     		cmp	r5, #0
 4345 0120 40F06781 		bne	.L428
 4346 0124 A2F10307 		sub	r7, r2, #3
 4347 0128 7D42     		rsbs	r5, r7, #0
 4348 012a 45EB0705 		adc	r5, r5, r7
 4349 012e 032E     		cmp	r6, #3
 4350 0130 08BF     		it	eq
 4351 0132 45F00105 		orreq	r5, r5, #1
 4352 0136 002D     		cmp	r5, #0
 4353 0138 40F05B81 		bne	.L428
 4354              	.L426:
 4355              	.LVL313:
 4356              		.loc 1 835 0
 4357 013c 40F20005 		movw	r5, #:lower16:.LANCHOR0
 4358              		.loc 1 839 0
 4359 0140 93F8F271 		ldrb	r7, [r3, #498]	@ zero_extendqisi2
 4360              		.loc 1 835 0
 4361 0144 C0F20005 		movt	r5, #:upper16:.LANCHOR0
 4362 0148 05F5F87C 		add	ip, r5, #496
 4363              	.LVL314:
 4364              		.loc 1 839 0
 4365 014c EFB1     		cbz	r7, .L429
 4366 014e 95F9F051 		ldrsb	r5, [r5, #496]
 4367 0152 002D     		cmp	r5, #0
 4368 0154 19DD     		ble	.L429
 4369 0156 082D     		cmp	r5, #8
 4370 0158 17DC     		bgt	.L429
 4371              		.loc 1 842 0
 4372 015a A0F10407 		sub	r7, r0, #4
 4373 015e 7D42     		rsbs	r5, r7, #0
 4374 0160 45EB0705 		adc	r5, r5, r7
 4375 0164 0429     		cmp	r1, #4
ARM GAS  /tmp/ccdUEzgz.s 			page 78


 4376 0166 08BF     		it	eq
 4377 0168 45F00105 		orreq	r5, r5, #1
 4378 016c 002D     		cmp	r5, #0
 4379 016e 40F05081 		bne	.L431
 4380 0172 A2F10407 		sub	r7, r2, #4
 4381 0176 7D42     		rsbs	r5, r7, #0
 4382 0178 45EB0705 		adc	r5, r5, r7
 4383 017c 042E     		cmp	r6, #4
 4384 017e 08BF     		it	eq
 4385 0180 45F00105 		orreq	r5, r5, #1
 4386 0184 002D     		cmp	r5, #0
 4387 0186 40F04481 		bne	.L431
 4388              	.L429:
 4389              	.LVL315:
 4390              		.loc 1 835 0
 4391 018a 40F20005 		movw	r5, #:lower16:.LANCHOR0
 4392              		.loc 1 839 0
 4393 018e 93F86E72 		ldrb	r7, [r3, #622]	@ zero_extendqisi2
 4394              		.loc 1 835 0
 4395 0192 C0F20005 		movt	r5, #:upper16:.LANCHOR0
 4396 0196 05F51B7C 		add	ip, r5, #620
 4397              	.LVL316:
 4398              		.loc 1 839 0
 4399 019a EFB1     		cbz	r7, .L432
 4400 019c 95F96C52 		ldrsb	r5, [r5, #620]
 4401 01a0 002D     		cmp	r5, #0
 4402 01a2 19DD     		ble	.L432
 4403 01a4 082D     		cmp	r5, #8
 4404 01a6 17DC     		bgt	.L432
 4405              		.loc 1 842 0
 4406 01a8 A0F10507 		sub	r7, r0, #5
 4407 01ac 7D42     		rsbs	r5, r7, #0
 4408 01ae 45EB0705 		adc	r5, r5, r7
 4409 01b2 0529     		cmp	r1, #5
 4410 01b4 08BF     		it	eq
 4411 01b6 45F00105 		orreq	r5, r5, #1
 4412 01ba 002D     		cmp	r5, #0
 4413 01bc 40F03981 		bne	.L434
 4414 01c0 A2F10507 		sub	r7, r2, #5
 4415 01c4 7D42     		rsbs	r5, r7, #0
 4416 01c6 45EB0705 		adc	r5, r5, r7
 4417 01ca 052E     		cmp	r6, #5
 4418 01cc 08BF     		it	eq
 4419 01ce 45F00105 		orreq	r5, r5, #1
 4420 01d2 002D     		cmp	r5, #0
 4421 01d4 40F02D81 		bne	.L434
 4422              	.L432:
 4423              	.LVL317:
 4424              		.loc 1 835 0
 4425 01d8 40F20005 		movw	r5, #:lower16:.LANCHOR0
 4426              		.loc 1 839 0
 4427 01dc 93F8EA72 		ldrb	r7, [r3, #746]	@ zero_extendqisi2
 4428              		.loc 1 835 0
 4429 01e0 C0F20005 		movt	r5, #:upper16:.LANCHOR0
 4430 01e4 05F53A7C 		add	ip, r5, #744
 4431              	.LVL318:
 4432              		.loc 1 839 0
ARM GAS  /tmp/ccdUEzgz.s 			page 79


 4433 01e8 EFB1     		cbz	r7, .L435
 4434 01ea 95F9E852 		ldrsb	r5, [r5, #744]
 4435 01ee 002D     		cmp	r5, #0
 4436 01f0 19DD     		ble	.L435
 4437 01f2 082D     		cmp	r5, #8
 4438 01f4 17DC     		bgt	.L435
 4439              		.loc 1 842 0
 4440 01f6 A0F10607 		sub	r7, r0, #6
 4441 01fa 7D42     		rsbs	r5, r7, #0
 4442 01fc 45EB0705 		adc	r5, r5, r7
 4443 0200 0629     		cmp	r1, #6
 4444 0202 08BF     		it	eq
 4445 0204 45F00105 		orreq	r5, r5, #1
 4446 0208 002D     		cmp	r5, #0
 4447 020a 40F0C280 		bne	.L437
 4448 020e A2F10607 		sub	r7, r2, #6
 4449 0212 7D42     		rsbs	r5, r7, #0
 4450 0214 45EB0705 		adc	r5, r5, r7
 4451 0218 062E     		cmp	r6, #6
 4452 021a 08BF     		it	eq
 4453 021c 45F00105 		orreq	r5, r5, #1
 4454 0220 002D     		cmp	r5, #0
 4455 0222 40F0B680 		bne	.L437
 4456              	.L435:
 4457              	.LVL319:
 4458              		.loc 1 835 0
 4459 0226 40F20005 		movw	r5, #:lower16:.LANCHOR0
 4460              		.loc 1 839 0
 4461 022a 93F86673 		ldrb	r7, [r3, #870]	@ zero_extendqisi2
 4462              		.loc 1 835 0
 4463 022e C0F20005 		movt	r5, #:upper16:.LANCHOR0
 4464 0232 05F5597C 		add	ip, r5, #868
 4465              	.LVL320:
 4466              		.loc 1 839 0
 4467 0236 EFB1     		cbz	r7, .L438
 4468 0238 95F96453 		ldrsb	r5, [r5, #868]
 4469 023c 002D     		cmp	r5, #0
 4470 023e 19DD     		ble	.L438
 4471 0240 082D     		cmp	r5, #8
 4472 0242 17DC     		bgt	.L438
 4473              		.loc 1 842 0
 4474 0244 A0F10707 		sub	r7, r0, #7
 4475 0248 7D42     		rsbs	r5, r7, #0
 4476 024a 45EB0705 		adc	r5, r5, r7
 4477 024e 0729     		cmp	r1, #7
 4478 0250 08BF     		it	eq
 4479 0252 45F00105 		orreq	r5, r5, #1
 4480 0256 002D     		cmp	r5, #0
 4481 0258 40F0AB80 		bne	.L440
 4482 025c A2F10707 		sub	r7, r2, #7
 4483 0260 7D42     		rsbs	r5, r7, #0
 4484 0262 45EB0705 		adc	r5, r5, r7
 4485 0266 072E     		cmp	r6, #7
 4486 0268 08BF     		it	eq
 4487 026a 45F00105 		orreq	r5, r5, #1
 4488 026e 002D     		cmp	r5, #0
 4489 0270 40F09F80 		bne	.L440
ARM GAS  /tmp/ccdUEzgz.s 			page 80


 4490              	.L438:
 4491              	.LVL321:
 4492              		.loc 1 835 0
 4493 0274 40F20005 		movw	r5, #:lower16:.LANCHOR0
 4494              		.loc 1 839 0
 4495 0278 93F8E273 		ldrb	r7, [r3, #994]	@ zero_extendqisi2
 4496              		.loc 1 835 0
 4497 027c C0F20005 		movt	r5, #:upper16:.LANCHOR0
 4498 0280 05F5787C 		add	ip, r5, #992
 4499              	.LVL322:
 4500              		.loc 1 839 0
 4501 0284 DFB1     		cbz	r7, .L441
 4502 0286 95F9E053 		ldrsb	r5, [r5, #992]
 4503 028a 002D     		cmp	r5, #0
 4504 028c 17DD     		ble	.L441
 4505 028e 082D     		cmp	r5, #8
 4506 0290 15DC     		bgt	.L441
 4507              		.loc 1 842 0
 4508 0292 A0F10807 		sub	r7, r0, #8
 4509 0296 7D42     		rsbs	r5, r7, #0
 4510 0298 45EB0705 		adc	r5, r5, r7
 4511 029c 0829     		cmp	r1, #8
 4512 029e 08BF     		it	eq
 4513 02a0 45F00105 		orreq	r5, r5, #1
 4514 02a4 002D     		cmp	r5, #0
 4515 02a6 64D1     		bne	.L443
 4516 02a8 A2F10807 		sub	r7, r2, #8
 4517 02ac 7D42     		rsbs	r5, r7, #0
 4518 02ae 45EB0705 		adc	r5, r5, r7
 4519 02b2 082E     		cmp	r6, #8
 4520 02b4 08BF     		it	eq
 4521 02b6 45F00105 		orreq	r5, r5, #1
 4522 02ba 002D     		cmp	r5, #0
 4523 02bc 59D1     		bne	.L443
 4524              	.L441:
 4525              	.LVL323:
 4526              		.loc 1 835 0
 4527 02be 40F20005 		movw	r5, #:lower16:.LANCHOR0
 4528 02c2 C0F20005 		movt	r5, #:upper16:.LANCHOR0
 4529              		.loc 1 839 0
 4530 02c6 93F85EC4 		ldrb	ip, [r3, #1118]	@ zero_extendqisi2
 4531              	.LVL324:
 4532              		.loc 1 835 0
 4533 02ca 05F58A67 		add	r7, r5, #1104
 4534 02ce 0C37     		adds	r7, r7, #12
 4535              	.LVL325:
 4536              		.loc 1 839 0
 4537 02d0 BCF1000F 		cmp	ip, #0
 4538 02d4 2AD0     		beq	.L416
 4539              		.loc 1 839 0 is_stmt 0 discriminator 1
 4540 02d6 95F95C54 		ldrsb	r5, [r5, #1116]
 4541 02da 002D     		cmp	r5, #0
 4542 02dc 26DD     		ble	.L416
 4543 02de 082D     		cmp	r5, #8
 4544 02e0 24DC     		bgt	.L416
 4545              		.loc 1 842 0 is_stmt 1
 4546 02e2 A0F1090C 		sub	ip, r0, #9
ARM GAS  /tmp/ccdUEzgz.s 			page 81


 4547 02e6 DCF10000 		rsbs	r0, ip, #0
 4548              	.LVL326:
 4549 02ea 40EB0C00 		adc	r0, r0, ip
 4550 02ee 0929     		cmp	r1, #9
 4551 02f0 14BF     		ite	ne
 4552 02f2 0146     		movne	r1, r0
 4553 02f4 40F00101 		orreq	r1, r0, #1
 4554              	.LVL327:
 4555 02f8 51B9     		cbnz	r1, .L445
 4556              		.loc 1 842 0 is_stmt 0 discriminator 1
 4557 02fa A2F10901 		sub	r1, r2, #9
 4558 02fe 4842     		rsbs	r0, r1, #0
 4559 0300 40EB0102 		adc	r2, r0, r1
 4560              	.LVL328:
 4561 0304 092E     		cmp	r6, #9
 4562 0306 14BF     		ite	ne
 4563 0308 1646     		movne	r6, r2
 4564 030a 42F00106 		orreq	r6, r2, #1
 4565 030e 6EB1     		cbz	r6, .L416
 4566              	.LVL329:
 4567              	.L445:
 4568              		.loc 1 845 0 is_stmt 1
 4569 0310 40F2000C 		movw	ip, #:lower16:.LANCHOR3
 4570              	.LVL330:
 4571 0314 C0F2000C 		movt	ip, #:upper16:.LANCHOR3
 4572              		.loc 1 846 0
 4573 0318 0CF16802 		add	r2, ip, #104
 4574              		.loc 1 845 0
 4575 031c 1A34     		adds	r4, r4, #26
 4576              	.LVL331:
 4577              		.loc 1 846 0
 4578 031e C3F86424 		str	r2, [r3, #1124]
 4579              	.LVL332:
 4580              		.loc 1 853 0
 4581 0322 0023     		movs	r3, #0
 4582              		.loc 1 845 0
 4583 0324 4CF82470 		str	r7, [ip, r4, lsl #2]
 4584              		.loc 1 853 0
 4585 0328 CCF84430 		str	r3, [ip, #68]
 4586              	.LVL333:
 4587              	.L416:
 4588              		.loc 1 857 0
 4589 032c BDE8F001 		pop	{r4, r5, r6, r7, r8}
 4590 0330 01B0     		add	sp, sp, #4
 4591 0332 7047     		bx	lr
 4592              	.LVL334:
 4593              	.L448:
 4594              		.loc 1 830 0
 4595 0334 0024     		movs	r4, #0
 4596 0336 8CE6     		b	.L417
 4597              	.L419:
 4598              		.loc 1 845 0
 4599 0338 40F2000C 		movw	ip, #:lower16:.LANCHOR3
 4600 033c C0F2000C 		movt	ip, #:upper16:.LANCHOR3
 4601 0340 6746     		mov	r7, ip
 4602 0342 47F8685F 		str	r5, [r7, #104]!
 4603              		.loc 1 851 0
ARM GAS  /tmp/ccdUEzgz.s 			page 82


 4604 0346 0025     		movs	r5, #0
 4605              		.loc 1 846 0
 4606 0348 9F60     		str	r7, [r3, #8]
 4607              	.LVL335:
 4608              		.loc 1 851 0
 4609 034a CCF80050 		str	r5, [ip, #0]
 4610              		.loc 1 847 0
 4611 034e 0124     		movs	r4, #1
 4612 0350 7FE6     		b	.L417
 4613              	.LVL336:
 4614              	.L422:
 4615              		.loc 1 845 0
 4616 0352 40F20005 		movw	r5, #:lower16:.LANCHOR3
 4617 0356 C0F20005 		movt	r5, #:upper16:.LANCHOR3
 4618              		.loc 1 846 0
 4619 035a 05F16807 		add	r7, r5, #104
 4620              		.loc 1 845 0
 4621 035e 04F11A08 		add	r8, r4, #26
 4622              		.loc 1 846 0
 4623 0362 C3F88470 		str	r7, [r3, #132]
 4624              		.loc 1 851 0
 4625 0366 0027     		movs	r7, #0
 4626              		.loc 1 845 0
 4627 0368 45F828C0 		str	ip, [r5, r8, lsl #2]
 4628              		.loc 1 847 0
 4629 036c 0134     		adds	r4, r4, #1
 4630              	.LVL337:
 4631              		.loc 1 851 0
 4632 036e 6F60     		str	r7, [r5, #4]
 4633 0370 96E6     		b	.L420
 4634              	.LVL338:
 4635              	.L443:
 4636              		.loc 1 845 0
 4637 0372 40F20005 		movw	r5, #:lower16:.LANCHOR3
 4638 0376 C0F20005 		movt	r5, #:upper16:.LANCHOR3
 4639              		.loc 1 846 0
 4640 037a 05F16807 		add	r7, r5, #104
 4641              		.loc 1 845 0
 4642 037e 04F11A08 		add	r8, r4, #26
 4643              		.loc 1 846 0
 4644 0382 C3F8E873 		str	r7, [r3, #1000]
 4645              		.loc 1 853 0
 4646 0386 0027     		movs	r7, #0
 4647              		.loc 1 845 0
 4648 0388 45F828C0 		str	ip, [r5, r8, lsl #2]
 4649              		.loc 1 847 0
 4650 038c 0134     		adds	r4, r4, #1
 4651              	.LVL339:
 4652              		.loc 1 853 0
 4653 038e 2F64     		str	r7, [r5, #64]
 4654 0390 95E7     		b	.L441
 4655              	.LVL340:
 4656              	.L437:
 4657              		.loc 1 845 0
 4658 0392 40F20005 		movw	r5, #:lower16:.LANCHOR3
 4659 0396 C0F20005 		movt	r5, #:upper16:.LANCHOR3
 4660              		.loc 1 846 0
ARM GAS  /tmp/ccdUEzgz.s 			page 83


 4661 039a 05F16807 		add	r7, r5, #104
 4662              		.loc 1 845 0
 4663 039e 04F11A08 		add	r8, r4, #26
 4664              		.loc 1 846 0
 4665 03a2 C3F8F072 		str	r7, [r3, #752]
 4666              		.loc 1 853 0
 4667 03a6 0027     		movs	r7, #0
 4668              		.loc 1 845 0
 4669 03a8 45F828C0 		str	ip, [r5, r8, lsl #2]
 4670              		.loc 1 847 0
 4671 03ac 0134     		adds	r4, r4, #1
 4672              	.LVL341:
 4673              		.loc 1 853 0
 4674 03ae AF63     		str	r7, [r5, #56]
 4675 03b0 39E7     		b	.L435
 4676              	.LVL342:
 4677              	.L440:
 4678              		.loc 1 845 0
 4679 03b2 40F20005 		movw	r5, #:lower16:.LANCHOR3
 4680 03b6 C0F20005 		movt	r5, #:upper16:.LANCHOR3
 4681              		.loc 1 846 0
 4682 03ba 05F16807 		add	r7, r5, #104
 4683              		.loc 1 845 0
 4684 03be 04F11A08 		add	r8, r4, #26
 4685              		.loc 1 846 0
 4686 03c2 C3F86C73 		str	r7, [r3, #876]
 4687              		.loc 1 853 0
 4688 03c6 0027     		movs	r7, #0
 4689              		.loc 1 845 0
 4690 03c8 45F828C0 		str	ip, [r5, r8, lsl #2]
 4691              		.loc 1 847 0
 4692 03cc 0134     		adds	r4, r4, #1
 4693              	.LVL343:
 4694              		.loc 1 853 0
 4695 03ce EF63     		str	r7, [r5, #60]
 4696 03d0 50E7     		b	.L438
 4697              	.LVL344:
 4698              	.L425:
 4699              		.loc 1 845 0
 4700 03d2 40F20005 		movw	r5, #:lower16:.LANCHOR3
 4701 03d6 C0F20005 		movt	r5, #:upper16:.LANCHOR3
 4702              		.loc 1 846 0
 4703 03da 05F16807 		add	r7, r5, #104
 4704              		.loc 1 845 0
 4705 03de 04F11A08 		add	r8, r4, #26
 4706              		.loc 1 846 0
 4707 03e2 C3F80071 		str	r7, [r3, #256]
 4708              		.loc 1 851 0
 4709 03e6 0027     		movs	r7, #0
 4710              		.loc 1 845 0
 4711 03e8 45F828C0 		str	ip, [r5, r8, lsl #2]
 4712              		.loc 1 847 0
 4713 03ec 0134     		adds	r4, r4, #1
 4714              	.LVL345:
 4715              		.loc 1 851 0
 4716 03ee AF60     		str	r7, [r5, #8]
 4717 03f0 7DE6     		b	.L423
ARM GAS  /tmp/ccdUEzgz.s 			page 84


 4718              	.LVL346:
 4719              	.L428:
 4720              		.loc 1 845 0
 4721 03f2 40F20005 		movw	r5, #:lower16:.LANCHOR3
 4722 03f6 C0F20005 		movt	r5, #:upper16:.LANCHOR3
 4723              		.loc 1 846 0
 4724 03fa 05F16807 		add	r7, r5, #104
 4725              		.loc 1 845 0
 4726 03fe 04F11A08 		add	r8, r4, #26
 4727              		.loc 1 846 0
 4728 0402 C3F87C71 		str	r7, [r3, #380]
 4729              		.loc 1 851 0
 4730 0406 0027     		movs	r7, #0
 4731              		.loc 1 845 0
 4732 0408 45F828C0 		str	ip, [r5, r8, lsl #2]
 4733              		.loc 1 847 0
 4734 040c 0134     		adds	r4, r4, #1
 4735              	.LVL347:
 4736              		.loc 1 851 0
 4737 040e EF60     		str	r7, [r5, #12]
 4738 0410 94E6     		b	.L426
 4739              	.LVL348:
 4740              	.L431:
 4741              		.loc 1 845 0
 4742 0412 40F20005 		movw	r5, #:lower16:.LANCHOR3
 4743 0416 C0F20005 		movt	r5, #:upper16:.LANCHOR3
 4744              		.loc 1 846 0
 4745 041a 05F16807 		add	r7, r5, #104
 4746              		.loc 1 845 0
 4747 041e 04F11A08 		add	r8, r4, #26
 4748              		.loc 1 846 0
 4749 0422 C3F8F871 		str	r7, [r3, #504]
 4750              		.loc 1 851 0
 4751 0426 0027     		movs	r7, #0
 4752              		.loc 1 845 0
 4753 0428 45F828C0 		str	ip, [r5, r8, lsl #2]
 4754              		.loc 1 847 0
 4755 042c 0134     		adds	r4, r4, #1
 4756              	.LVL349:
 4757              		.loc 1 851 0
 4758 042e 2F61     		str	r7, [r5, #16]
 4759 0430 ABE6     		b	.L429
 4760              	.LVL350:
 4761              	.L434:
 4762              		.loc 1 845 0
 4763 0432 40F20005 		movw	r5, #:lower16:.LANCHOR3
 4764 0436 C0F20005 		movt	r5, #:upper16:.LANCHOR3
 4765              		.loc 1 846 0
 4766 043a 05F16807 		add	r7, r5, #104
 4767              		.loc 1 845 0
 4768 043e 04F11A08 		add	r8, r4, #26
 4769              		.loc 1 846 0
 4770 0442 C3F87472 		str	r7, [r3, #628]
 4771              		.loc 1 853 0
 4772 0446 0027     		movs	r7, #0
 4773              		.loc 1 845 0
 4774 0448 45F828C0 		str	ip, [r5, r8, lsl #2]
ARM GAS  /tmp/ccdUEzgz.s 			page 85


 4775              		.loc 1 847 0
 4776 044c 0134     		adds	r4, r4, #1
 4777              	.LVL351:
 4778              		.loc 1 853 0
 4779 044e 6F63     		str	r7, [r5, #52]
 4780 0450 C2E6     		b	.L432
 4781              		.cfi_endproc
 4782              	.LFE93:
 4783              		.size	_SmartMotorsAddPowerExtender, .-_SmartMotorsAddPowerExtender
 4784 0452 00BFAFF3 		.section	.text._SmartMotorSetRpmSensor,"ax",%progbits
 4784      0080AFF3 
 4784      0080AFF3 
 4784      0080
 4785              		.align	2
 4786              		.p2align 4,,15
 4787              		.global	_SmartMotorSetRpmSensor
 4788              		.thumb
 4789              		.thumb_func
 4790              		.type	_SmartMotorSetRpmSensor, %function
 4791              	_SmartMotorSetRpmSensor:
 4792              	.LFB94:
 4793              		.loc 1 888 0
 4794              		.cfi_startproc
 4795              		@ args = 4, pretend = 4, frame = 0
 4796              		@ frame_needed = 0, uses_anonymous_args = 1
 4797              		@ link register save eliminated.
 4798              	.LVL352:
 4799 0000 08B4     		push	{r3}
 4800              	.LCFI15:
 4801              		.cfi_def_cfa_offset 4
 4802              		.cfi_offset 3, -4
 4803              		.loc 1 890 0
 4804 0002 C3B2     		uxtb	r3, r0
 4805 0004 092B     		cmp	r3, #9
 4806              		.loc 1 888 0
 4807 0006 10B4     		push	{r4}
 4808              	.LCFI16:
 4809              		.cfi_def_cfa_offset 8
 4810              		.cfi_offset 4, -8
 4811              		.loc 1 890 0
 4812 0008 17D8     		bhi	.L449
 4813              	.LVL353:
 4814              		.loc 1 898 0
 4815 000a 5FFA81FC 		uxtb	ip, r1
 4816 000e BCF1070F 		cmp	ip, #7
 4817 0012 12D8     		bhi	.L449
 4818              		.loc 1 893 0
 4819 0014 4401     		lsls	r4, r0, #5
 4820 0016 40F20003 		movw	r3, #:lower16:.LANCHOR0
 4821 001a C0EB040C 		rsb	ip, r0, r4
 4822 001e C0F20003 		movt	r3, #:upper16:.LANCHOR0
 4823              		.loc 1 900 0
 4824 0022 01F50060 		add	r0, r1, #2048
 4825              	.LVL354:
 4826              		.loc 1 903 0
 4827 0026 9DF80410 		ldrb	r1, [sp, #4]	@ zero_extendqisi2
 4828              	.LVL355:
ARM GAS  /tmp/ccdUEzgz.s 			page 86


 4829              		.loc 1 893 0
 4830 002a 03EB8C03 		add	r3, r3, ip, lsl #2
 4831              		.loc 1 900 0
 4832 002e 9883     		strh	r0, [r3, #28]	@ movhi
 4833              		.loc 1 901 0
 4834 0030 1A62     		str	r2, [r3, #32]	@ float
 4835              		.loc 1 903 0
 4836 0032 11B1     		cbz	r1, .L449
 4837              		.loc 1 904 0
 4838 0034 02F10042 		add	r2, r2, #-2147483648
 4839              	.LVL356:
 4840 0038 1A62     		str	r2, [r3, #32]	@ float
 4841              	.LVL357:
 4842              	.L449:
 4843              		.loc 1 906 0
 4844 003a 10BC     		pop	{r4}
 4845 003c 01B0     		add	sp, sp, #4
 4846 003e 7047     		bx	lr
 4847              		.cfi_endproc
 4848              	.LFE94:
 4849              		.size	_SmartMotorSetRpmSensor, .-_SmartMotorSetRpmSensor
 4850              		.global	__aeabi_i2d
 4851              		.section	.text.SmartMotorSpeed,"ax",%progbits
 4852              		.align	2
 4853              		.p2align 4,,15
 4854              		.global	SmartMotorSpeed
 4855              		.thumb
 4856              		.thumb_func
 4857              		.type	SmartMotorSpeed, %function
 4858              	SmartMotorSpeed:
 4859              	.LFB95:
 4860              		.loc 1 930 0
 4861              		.cfi_startproc
 4862              		@ args = 0, pretend = 0, frame = 0
 4863              		@ frame_needed = 0, uses_anonymous_args = 0
 4864              	.LVL358:
 4865 0000 F8B5     		push	{r3, r4, r5, r6, r7, lr}
 4866              	.LCFI17:
 4867              		.cfi_def_cfa_offset 24
 4868              		.cfi_offset 14, -4
 4869              		.cfi_offset 7, -8
 4870              		.cfi_offset 6, -12
 4871              		.cfi_offset 5, -16
 4872              		.cfi_offset 4, -20
 4873              		.cfi_offset 3, -24
 4874              		.loc 1 930 0
 4875 0002 0446     		mov	r4, r0
 4876              		.loc 1 941 0
 4877 0004 90F90100 		ldrsb	r0, [r0, #1]
 4878              	.LVL359:
 4879              		.loc 1 930 0
 4880 0008 0F46     		mov	r7, r1
 4881              		.loc 1 941 0
 4882 000a FFF7FEFF 		bl	vexMotorPositionGet
 4883              	.LVL360:
 4884 000e 0646     		mov	r6, r0
 4885              		.loc 1 945 0
ARM GAS  /tmp/ccdUEzgz.s 			page 87


 4886 0010 A06A     		ldr	r0, [r4, #40]
 4887              		.loc 1 941 0
 4888 0012 6662     		str	r6, [r4, #36]
 4889              		.loc 1 945 0
 4890 0014 301A     		subs	r0, r6, r0
 4891 0016 FFF7FEFF 		bl	__aeabi_i2f
 4892              		.loc 1 946 0
 4893 001a A662     		str	r6, [r4, #40]
 4894              		.loc 1 945 0
 4895 001c 0546     		mov	r5, r0
 4896 001e E062     		str	r0, [r4, #44]	@ float
 4897              		.loc 1 949 0
 4898 0020 3846     		mov	r0, r7
 4899 0022 FFF7FEFF 		bl	__aeabi_i2d
 4900 0026 0246     		mov	r2, r0
 4901 0028 0B46     		mov	r3, r1
 4902 002a 13A1     		adr	r1, .L452
 4903 002c D1E90001 		ldrd	r0, [r1]
 4904 0030 FFF7FEFF 		bl	__aeabi_ddiv
 4905 0034 0646     		mov	r6, r0
 4906 0036 2846     		mov	r0, r5
 4907 0038 0F46     		mov	r7, r1
 4908              	.LVL361:
 4909 003a FFF7FEFF 		bl	__aeabi_f2d
 4910 003e 0246     		mov	r2, r0
 4911 0040 0B46     		mov	r3, r1
 4912 0042 3046     		mov	r0, r6
 4913 0044 3946     		mov	r1, r7
 4914 0046 FFF7FEFF 		bl	__aeabi_dmul
 4915 004a 0023     		movs	r3, #0
 4916 004c 0022     		movs	r2, #0
 4917 004e C4F24E03 		movt	r3, 16462
 4918 0052 FFF7FEFF 		bl	__aeabi_dmul
 4919 0056 0646     		mov	r6, r0
 4920 0058 206A     		ldr	r0, [r4, #32]	@ float
 4921 005a 0F46     		mov	r7, r1
 4922 005c FFF7FEFF 		bl	__aeabi_f2d
 4923 0060 0246     		mov	r2, r0
 4924 0062 0B46     		mov	r3, r1
 4925 0064 3046     		mov	r0, r6
 4926 0066 3946     		mov	r1, r7
 4927 0068 FFF7FEFF 		bl	__aeabi_ddiv
 4928 006c FFF7FEFF 		bl	__aeabi_d2f
 4929 0070 2063     		str	r0, [r4, #48]	@ float
 4930              		.loc 1 950 0
 4931 0072 F8BD     		pop	{r3, r4, r5, r6, r7, pc}
 4932              	.L453:
 4933 0074 AFF30080 		.align	3
 4934              	.L452:
 4935 0078 00000000 		.word	0
 4936 007c 00408F40 		.word	1083129856
 4937              		.cfi_endproc
 4938              	.LFE95:
 4939              		.size	SmartMotorSpeed, .-SmartMotorSpeed
 4940              		.global	__aeabi_fadd
 4941              		.section	.text.SmartMotorSimulateSpeed,"ax",%progbits
 4942              		.align	2
ARM GAS  /tmp/ccdUEzgz.s 			page 88


 4943              		.p2align 4,,15
 4944              		.global	SmartMotorSimulateSpeed
 4945              		.thumb
 4946              		.thumb_func
 4947              		.type	SmartMotorSimulateSpeed, %function
 4948              	SmartMotorSimulateSpeed:
 4949              	.LFB96:
 4950              		.loc 1 964 0
 4951              		.cfi_startproc
 4952              		@ args = 0, pretend = 0, frame = 0
 4953              		@ frame_needed = 0, uses_anonymous_args = 0
 4954              	.LVL362:
 4955 0000 2DE9F84F 		push	{r3, r4, r5, r6, r7, r8, r9, sl, fp, lr}
 4956              	.LCFI18:
 4957              		.cfi_def_cfa_offset 40
 4958              		.cfi_offset 14, -4
 4959              		.cfi_offset 11, -8
 4960              		.cfi_offset 10, -12
 4961              		.cfi_offset 9, -16
 4962              		.cfi_offset 8, -20
 4963              		.cfi_offset 7, -24
 4964              		.cfi_offset 6, -28
 4965              		.cfi_offset 5, -32
 4966              		.cfi_offset 4, -36
 4967              		.cfi_offset 3, -40
 4968              		.loc 1 964 0
 4969 0004 0546     		mov	r5, r0
 4970              		.loc 1 972 0
 4971 0006 90F90000 		ldrsb	r0, [r0, #0]
 4972              	.LVL363:
 4973 000a FFF7FEFF 		bl	vexMotorGet
 4974 000e 0646     		mov	r6, r0
 4975              	.LVL364:
 4976              		.loc 1 981 0
 4977 0010 A86C     		ldr	r0, [r5, #72]	@ float
 4978              	.LVL365:
 4979 0012 FFF7FEFF 		bl	__aeabi_f2d
 4980 0016 0023     		movs	r3, #0
 4981 0018 0022     		movs	r2, #0
 4982 001a C4F25903 		movt	r3, 16473
 4983 001e FFF7FEFF 		bl	__aeabi_ddiv
 4984 0022 2BA3     		adr	r3, .L461
 4985 0024 D3E90023 		ldrd	r2, [r3]
 4986 0028 FFF7FEFF 		bl	__aeabi_dmul
 4987 002c FFF7FEFF 		bl	__aeabi_d2f
 4988              		.loc 1 974 0
 4989 0030 86EAE677 		eor	r7, r6, r6, asr #31
 4990 0034 A7EBE677 		sub	r7, r7, r6, asr #31
 4991              	.LVL366:
 4992              		.loc 1 982 0
 4993 0038 40F20004 		movw	r4, #:lower16:.LANCHOR4
 4994              		.loc 1 976 0
 4995 003c 47F30F1A 		sbfx	sl, r7, #4, #16
 4996              	.LVL367:
 4997              		.loc 1 982 0
 4998 0040 C0F20004 		movt	r4, #:upper16:.LANCHOR4
 4999 0044 34F91AB0 		ldrsh	fp, [r4, sl, lsl #1]
ARM GAS  /tmp/ccdUEzgz.s 			page 89


 5000              		.loc 1 981 0
 5001 0048 8146     		mov	r9, r0
 5002              	.LVL368:
 5003              		.loc 1 982 0
 5004 004a 5846     		mov	r0, fp
 5005              	.LVL369:
 5006 004c FFF7FEFF 		bl	__aeabi_i2f
 5007 0050 0AF10103 		add	r3, sl, #1
 5008 0054 8046     		mov	r8, r0
 5009 0056 34F91300 		ldrsh	r0, [r4, r3, lsl #1]
 5010 005a CBEB0000 		rsb	r0, fp, r0
 5011 005e FFF7FEFF 		bl	__aeabi_i2f
 5012 0062 0446     		mov	r4, r0
 5013              		.loc 1 976 0
 5014 0064 A7EB0A10 		sub	r0, r7, sl, lsl #4
 5015 0068 FFF7FEFF 		bl	__aeabi_i2d
 5016 006c 0023     		movs	r3, #0
 5017 006e 0022     		movs	r2, #0
 5018 0070 C3F6B073 		movt	r3, 16304
 5019 0074 FFF7FEFF 		bl	__aeabi_dmul
 5020 0078 FFF7FEFF 		bl	__aeabi_d2f
 5021 007c 0146     		mov	r1, r0
 5022              		.loc 1 982 0
 5023 007e 2046     		mov	r0, r4
 5024 0080 FFF7FEFF 		bl	__aeabi_fmul
 5025 0084 0146     		mov	r1, r0
 5026 0086 4046     		mov	r0, r8
 5027 0088 FFF7FEFF 		bl	__aeabi_fadd
 5028 008c 0446     		mov	r4, r0
 5029              	.LVL370:
 5030              		.loc 1 984 0
 5031 008e 3046     		mov	r0, r6
 5032              	.LVL371:
 5033 0090 FFF7FEFF 		bl	__aeabi_i2f
 5034              	.LBB141:
 5035              	.LBB142:
 5036              		.loc 1 142 0
 5037 0094 0021     		movs	r1, #0
 5038              	.LBE142:
 5039              	.LBE141:
 5040              		.loc 1 984 0
 5041 0096 0646     		mov	r6, r0
 5042              	.LVL372:
 5043              	.LBB145:
 5044              	.LBB143:
 5045              		.loc 1 142 0
 5046 0098 FFF7FEFF 		bl	__aeabi_fcmpeq
 5047              	.LVL373:
 5048 009c 98B9     		cbnz	r0, .L457
 5049              		.loc 1 143 0
 5050 009e 3046     		mov	r0, r6
 5051 00a0 0021     		movs	r1, #0
 5052 00a2 FFF7FEFF 		bl	__aeabi_fcmpgt
 5053 00a6 4FF07E56 		mov	r6, #1065353216
 5054              	.LVL374:
 5055 00aa 10B9     		cbnz	r0, .L455
 5056 00ac 0026     		movs	r6, #0
ARM GAS  /tmp/ccdUEzgz.s 			page 90


 5057 00ae CBF68076 		movt	r6, 49024
 5058              	.L455:
 5059              	.LBE143:
 5060              	.LBE145:
 5061              		.loc 1 984 0
 5062 00b2 4946     		mov	r1, r9
 5063 00b4 2046     		mov	r0, r4
 5064 00b6 FFF7FEFF 		bl	__aeabi_fmul
 5065 00ba 3146     		mov	r1, r6
 5066 00bc FFF7FEFF 		bl	__aeabi_fmul
 5067 00c0 2863     		str	r0, [r5, #48]	@ float
 5068              		.loc 1 985 0
 5069 00c2 BDE8F88F 		pop	{r3, r4, r5, r6, r7, r8, r9, sl, fp, pc}
 5070              	.LVL375:
 5071              	.L457:
 5072              	.LBB146:
 5073              	.LBB144:
 5074              		.loc 1 142 0
 5075 00c6 0026     		movs	r6, #0
 5076              	.LVL376:
 5077 00c8 F3E7     		b	.L455
 5078              	.L462:
 5079 00ca 00BFAFF3 		.align	3
 5079      0080
 5080              	.L461:
 5081 00d0 CDCCCCCC 		.word	-858993459
 5082 00d4 CCCCEC3F 		.word	1072483532
 5083              	.LBE144:
 5084              	.LBE146:
 5085              		.cfi_endproc
 5086              	.LFE96:
 5087              		.size	SmartMotorSimulateSpeed, .-SmartMotorSimulateSpeed
 5088              		.global	__aeabi_fcmplt
 5089              		.global	__aeabi_f2iz
 5090              		.global	__aeabi_f2uiz
 5091              		.global	__aeabi_dadd
 5092              		.global	__aeabi_ui2f
 5093 00d8 AFF30080 		.section	.text.SmartMotorCurrent,"ax",%progbits
 5093      AFF30080 
 5094              		.align	2
 5095              		.p2align 4,,15
 5096              		.global	SmartMotorCurrent
 5097              		.thumb
 5098              		.thumb_func
 5099              		.type	SmartMotorCurrent, %function
 5100              	SmartMotorCurrent:
 5101              	.LFB98:
 5102              		.loc 1 1035 0
 5103              		.cfi_startproc
 5104              		@ args = 0, pretend = 0, frame = 32
 5105              		@ frame_needed = 0, uses_anonymous_args = 0
 5106              	.LVL377:
 5107 0000 2DE9F04F 		push	{r4, r5, r6, r7, r8, r9, sl, fp, lr}
 5108              	.LCFI19:
 5109              		.cfi_def_cfa_offset 36
 5110              		.cfi_offset 14, -4
 5111              		.cfi_offset 11, -8
ARM GAS  /tmp/ccdUEzgz.s 			page 91


 5112              		.cfi_offset 10, -12
 5113              		.cfi_offset 9, -16
 5114              		.cfi_offset 8, -20
 5115              		.cfi_offset 7, -24
 5116              		.cfi_offset 6, -28
 5117              		.cfi_offset 5, -32
 5118              		.cfi_offset 4, -36
 5119 0004 0646     		mov	r6, r0
 5120 0006 89B0     		sub	sp, sp, #36
 5121              	.LCFI20:
 5122              		.cfi_def_cfa_offset 72
 5123              		.loc 1 1048 0
 5124 0008 90F90000 		ldrsb	r0, [r0, #0]
 5125              	.LVL378:
 5126              		.loc 1 1035 0
 5127 000c 0791     		str	r1, [sp, #28]	@ float
 5128              		.loc 1 1048 0
 5129 000e FFF7FEFF 		bl	vexMotorGet
 5130              	.LVL379:
 5131              		.loc 1 1052 0
 5132 0012 3278     		ldrb	r2, [r6, #0]	@ zero_extendqisi2
 5133              		.loc 1 1048 0
 5134 0014 0446     		mov	r4, r0
 5135              	.LVL380:
 5136              		.loc 1 1052 0
 5137 0016 511E     		subs	r1, r2, #1
 5138 0018 CBB2     		uxtb	r3, r1
 5139 001a 072B     		cmp	r3, #7
 5140 001c 0AD8     		bhi	.L464
 5141              		.loc 1 1053 0
 5142 001e 46F2B703 		movw	r3, #24759
 5143 0022 C701     		lsls	r7, r0, #7
 5144 0024 CBF20B63 		movt	r3, 46603
 5145 0028 83FB0715 		smull	r1, r5, r3, r7
 5146 002c F817     		asrs	r0, r7, #31
 5147              	.LVL381:
 5148 002e EC19     		adds	r4, r5, r7
 5149              	.LVL382:
 5150 0030 C0EBA414 		rsb	r4, r0, r4, asr #6
 5151              	.LVL383:
 5152              	.L464:
 5153              		.loc 1 1056 0
 5154 0034 84EAE475 		eor	r5, r4, r4, asr #31
 5155 0038 A5EBE475 		sub	r5, r5, r4, asr #31
 5156 003c 7F2D     		cmp	r5, #127
 5157 003e 00F3EC81 		bgt	.L465
 5158 0042 2846     		mov	r0, r5
 5159 0044 FFF7FEFF 		bl	__aeabi_i2d
 5160 0048 B1A3     		adr	r3, .L521
 5161 004a D3E90023 		ldrd	r2, [r3]
 5162 004e FFF7FEFF 		bl	__aeabi_ddiv
 5163 0052 FFF7FEFF 		bl	__aeabi_d2f
 5164 0056 0146     		mov	r1, r0
 5165 0058 8346     		mov	fp, r0
 5166 005a 4FF07E50 		mov	r0, #1065353216
 5167 005e FFF7FEFF 		bl	__aeabi_fsub
 5168              		.loc 1 1061 0
ARM GAS  /tmp/ccdUEzgz.s 			page 92


 5169 0062 0A2D     		cmp	r5, #10
 5170              		.loc 1 1056 0
 5171 0064 0290     		str	r0, [sp, #8]	@ float
 5172              		.loc 1 1061 0
 5173 0066 40F3E581 		ble	.L469
 5174              		.loc 1 1062 0
 5175 006a 2046     		mov	r0, r4
 5176 006c FFF7FEFF 		bl	__aeabi_i2f
 5177              	.LBB167:
 5178              	.LBB168:
 5179              		.loc 1 142 0
 5180 0070 0021     		movs	r1, #0
 5181              	.LBE168:
 5182              	.LBE167:
 5183              		.loc 1 1062 0
 5184 0072 0446     		mov	r4, r0
 5185              	.LVL384:
 5186              	.LBB175:
 5187              	.LBB169:
 5188              		.loc 1 142 0
 5189 0074 FFF7FEFF 		bl	__aeabi_fcmpeq
 5190              	.LVL385:
 5191 0078 0028     		cmp	r0, #0
 5192 007a 00F0FE81 		beq	.L517
 5193              	.L491:
 5194 007e 0023     		movs	r3, #0
 5195 0080 0022     		movs	r2, #0
 5196 0082 CDE90423 		strd	r2, [sp, #16]
 5197 0086 0023     		movs	r3, #0
 5198 0088 0393     		str	r3, [sp, #12]	@ float
 5199              	.L470:
 5200              		.loc 1 143 0
 5201 008a D6F83080 		ldr	r8, [r6, #48]	@ float
 5202              	.LVL386:
 5203              	.L472:
 5204              	.LBE169:
 5205              	.LBE175:
 5206              		.loc 1 1070 0
 5207 008e 4FF44041 		mov	r1, #49152
 5208 0092 C4F28F41 		movt	r1, 17551
 5209 0096 306C     		ldr	r0, [r6, #64]	@ float
 5210 0098 FFF7FEFF 		bl	__aeabi_fmul
 5211 009c F56B     		ldr	r5, [r6, #60]	@ float
 5212 009e 0146     		mov	r1, r0
 5213 00a0 2846     		mov	r0, r5
 5214 00a2 FFF7FEFF 		bl	__aeabi_fdiv
 5215 00a6 0690     		str	r0, [sp, #24]	@ float
 5216              	.LVL387:
 5217              		.loc 1 1071 0
 5218 00a8 069F     		ldr	r7, [sp, #24]
 5219 00aa 5946     		mov	r1, fp
 5220 00ac 07F10047 		add	r7, r7, #-2147483648
 5221              	.LVL388:
 5222 00b0 3846     		mov	r0, r7
 5223              	.LVL389:
 5224 00b2 FFF7FEFF 		bl	__aeabi_fmul
 5225              	.LBB176:
ARM GAS  /tmp/ccdUEzgz.s 			page 93


 5226              	.LBB177:
 5227              		.file 2 "../convex/cortex/opt/fastmath.c"
 5228              		.loc 2 86 0
 5229 00b6 4AF63B21 		movw	r1, #43579
 5230 00ba C3F6B871 		movt	r1, 16312
 5231 00be FFF7FEFF 		bl	__aeabi_fmul
 5232              	.LBB178:
 5233              	.LBB179:
 5234              		.loc 2 61 0
 5235 00c2 0021     		movs	r1, #0
 5236              	.LBE179:
 5237              	.LBE178:
 5238              		.loc 2 86 0
 5239 00c4 0446     		mov	r4, r0
 5240              	.LVL390:
 5241              	.LBB182:
 5242              	.LBB180:
 5243              		.loc 2 61 0
 5244 00c6 FFF7FEFF 		bl	__aeabi_fcmplt
 5245              	.LVL391:
 5246 00ca 4FF07E5A 		mov	sl, #1065353216
 5247 00ce 08B9     		cbnz	r0, .L475
 5248 00d0 4FF0000A 		mov	sl, #0
 5249              	.L475:
 5250              	.LVL392:
 5251              		.loc 2 62 0
 5252 00d4 0021     		movs	r1, #0
 5253 00d6 2046     		mov	r0, r4
 5254 00d8 CCF2FC21 		movt	r1, 49916
 5255 00dc FFF7FEFF 		bl	__aeabi_fcmplt
 5256 00e0 0028     		cmp	r0, #0
 5257 00e2 40F0E981 		bne	.L496
 5258 00e6 2046     		mov	r0, r4
 5259 00e8 FFF7FEFF 		bl	__aeabi_f2iz
 5260 00ec FFF7FEFF 		bl	__aeabi_i2f
 5261 00f0 0146     		mov	r1, r0
 5262 00f2 2046     		mov	r0, r4
 5263 00f4 FFF7FEFF 		bl	__aeabi_fsub
 5264 00f8 48F65141 		movw	r1, #35921
 5265 00fc 8146     		mov	r9, r0
 5266 00fe C4F2F221 		movt	r1, 17138
 5267 0102 2046     		mov	r0, r4
 5268 0104 FFF7FEFF 		bl	__aeabi_fadd
 5269 0108 0446     		mov	r4, r0
 5270              	.LVL393:
 5271              	.L477:
 5272              		.loc 2 64 0
 5273 010a 4946     		mov	r1, r9
 5274 010c 5046     		mov	r0, sl
 5275 010e FFF7FEFF 		bl	__aeabi_fadd
 5276              		.loc 2 65 0
 5277 0112 0146     		mov	r1, r0
 5278              		.loc 2 64 0
 5279 0114 8146     		mov	r9, r0
 5280              	.LVL394:
 5281              		.loc 2 65 0
 5282 0116 4FF2F850 		movw	r0, #62968
ARM GAS  /tmp/ccdUEzgz.s 			page 94


 5283              	.LVL395:
 5284 011a C4F29A00 		movt	r0, 16538
 5285 011e FFF7FEFF 		bl	__aeabi_fsub
 5286              	.LVL396:
 5287 0122 0146     		mov	r1, r0
 5288 0124 4DF2FE20 		movw	r0, #54014
 5289 0128 C4F2DD10 		movt	r0, 16861
 5290 012c FFF7FEFF 		bl	__aeabi_fdiv
 5291 0130 2146     		mov	r1, r4
 5292 0132 FFF7FEFF 		bl	__aeabi_fadd
 5293 0136 4BF68D41 		movw	r1, #48269
 5294 013a 8246     		mov	sl, r0
 5295              	.LVL397:
 5296 013c C3F6BE71 		movt	r1, 16318
 5297 0140 4846     		mov	r0, r9
 5298 0142 FFF7FEFF 		bl	__aeabi_fmul
 5299 0146 0146     		mov	r1, r0
 5300 0148 5046     		mov	r0, sl
 5301 014a FFF7FEFF 		bl	__aeabi_fsub
 5302 014e 4FF09641 		mov	r1, #1258291200
 5303 0152 FFF7FEFF 		bl	__aeabi_fmul
 5304 0156 FFF7FEFF 		bl	__aeabi_f2uiz
 5305              	.LBE180:
 5306              	.LBE182:
 5307              	.LBE177:
 5308              	.LBE176:
 5309              		.loc 1 1072 0
 5310 015a 0299     		ldr	r1, [sp, #8]	@ float
 5311              	.LBB185:
 5312              		.loc 2 65 0
 5313 015c 8246     		mov	sl, r0
 5314              	.LVL398:
 5315              	.LBE185:
 5316              		.loc 1 1072 0
 5317 015e 3846     		mov	r0, r7
 5318              	.LVL399:
 5319 0160 FFF7FEFF 		bl	__aeabi_fmul
 5320              	.LBB186:
 5321              	.LBB187:
 5322              		.loc 2 86 0
 5323 0164 4AF63B21 		movw	r1, #43579
 5324 0168 C3F6B871 		movt	r1, 16312
 5325 016c FFF7FEFF 		bl	__aeabi_fmul
 5326              	.LBB188:
 5327              	.LBB189:
 5328              		.loc 2 61 0
 5329 0170 0021     		movs	r1, #0
 5330              	.LBE189:
 5331              	.LBE188:
 5332              		.loc 2 86 0
 5333 0172 0446     		mov	r4, r0
 5334              	.LVL400:
 5335              	.LBB192:
 5336              	.LBB190:
 5337              		.loc 2 61 0
 5338 0174 FFF7FEFF 		bl	__aeabi_fcmplt
 5339              	.LVL401:
ARM GAS  /tmp/ccdUEzgz.s 			page 95


 5340 0178 4FF07E57 		mov	r7, #1065353216
 5341              	.LVL402:
 5342 017c 00B9     		cbnz	r0, .L478
 5343 017e 0027     		movs	r7, #0
 5344              	.L478:
 5345              	.LVL403:
 5346              		.loc 2 62 0
 5347 0180 0021     		movs	r1, #0
 5348 0182 2046     		mov	r0, r4
 5349 0184 CCF2FC21 		movt	r1, 49916
 5350 0188 FFF7FEFF 		bl	__aeabi_fcmplt
 5351 018c 0028     		cmp	r0, #0
 5352 018e 40F09A81 		bne	.L498
 5353 0192 2046     		mov	r0, r4
 5354 0194 FFF7FEFF 		bl	__aeabi_f2iz
 5355 0198 FFF7FEFF 		bl	__aeabi_i2f
 5356 019c 0146     		mov	r1, r0
 5357 019e 2046     		mov	r0, r4
 5358 01a0 FFF7FEFF 		bl	__aeabi_fsub
 5359 01a4 48F65141 		movw	r1, #35921
 5360 01a8 8146     		mov	r9, r0
 5361              	.LVL404:
 5362 01aa C4F2F221 		movt	r1, 17138
 5363 01ae 2046     		mov	r0, r4
 5364 01b0 FFF7FEFF 		bl	__aeabi_fadd
 5365 01b4 0446     		mov	r4, r0
 5366              	.LVL405:
 5367              	.L480:
 5368              		.loc 2 64 0
 5369 01b6 4946     		mov	r1, r9
 5370 01b8 3846     		mov	r0, r7
 5371 01ba FFF7FEFF 		bl	__aeabi_fadd
 5372 01be 0746     		mov	r7, r0
 5373              	.LVL406:
 5374              		.loc 2 65 0
 5375 01c0 0146     		mov	r1, r0
 5376 01c2 4FF2F850 		movw	r0, #62968
 5377              	.LVL407:
 5378 01c6 C4F29A00 		movt	r0, 16538
 5379 01ca FFF7FEFF 		bl	__aeabi_fsub
 5380              	.LVL408:
 5381 01ce 0146     		mov	r1, r0
 5382 01d0 4DF2FE20 		movw	r0, #54014
 5383 01d4 C4F2DD10 		movt	r0, 16861
 5384 01d8 FFF7FEFF 		bl	__aeabi_fdiv
 5385 01dc 2146     		mov	r1, r4
 5386 01de FFF7FEFF 		bl	__aeabi_fadd
 5387 01e2 4BF68D41 		movw	r1, #48269
 5388 01e6 0446     		mov	r4, r0
 5389 01e8 C3F6BE71 		movt	r1, 16318
 5390 01ec 3846     		mov	r0, r7
 5391 01ee FFF7FEFF 		bl	__aeabi_fmul
 5392 01f2 0146     		mov	r1, r0
 5393 01f4 2046     		mov	r0, r4
 5394 01f6 FFF7FEFF 		bl	__aeabi_fsub
 5395 01fa 4FF09641 		mov	r1, #1258291200
 5396 01fe FFF7FEFF 		bl	__aeabi_fmul
ARM GAS  /tmp/ccdUEzgz.s 			page 96


 5397 0202 FFF7FEFF 		bl	__aeabi_f2uiz
 5398              	.LBE190:
 5399              	.LBE192:
 5400              	.LBE187:
 5401              	.LBE186:
 5402              		.loc 1 1075 0
 5403 0206 716C     		ldr	r1, [r6, #68]	@ float
 5404              	.LBB195:
 5405              		.loc 2 65 0
 5406 0208 0746     		mov	r7, r0
 5407              	.LVL409:
 5408              	.LBE195:
 5409              		.loc 1 1075 0
 5410 020a 4046     		mov	r0, r8
 5411              	.LVL410:
 5412 020c FFF7FEFF 		bl	__aeabi_fmul
 5413              		.loc 1 1078 0
 5414 0210 D6F84C90 		ldr	r9, [r6, #76]	@ float
 5415              		.loc 1 1075 0
 5416 0214 8046     		mov	r8, r0
 5417              		.loc 1 1078 0
 5418 0216 4946     		mov	r1, r9
 5419 0218 20F00040 		bic	r0, r0, #-2147483648
 5420              		.loc 1 1075 0
 5421 021c 4446     		mov	r4, r8
 5422              	.LVL411:
 5423              		.loc 1 1078 0
 5424 021e FFF7FEFF 		bl	__aeabi_fcmpgt
 5425 0222 90B1     		cbz	r0, .L481
 5426              	.LVL412:
 5427              	.LBB196:
 5428              	.LBB197:
 5429              		.loc 1 142 0
 5430 0224 0021     		movs	r1, #0
 5431 0226 4046     		mov	r0, r8
 5432 0228 FFF7FEFF 		bl	__aeabi_fcmpeq
 5433 022c 0021     		movs	r1, #0
 5434 022e 40B9     		cbnz	r0, .L483
 5435              		.loc 1 143 0
 5436 0230 0021     		movs	r1, #0
 5437 0232 4046     		mov	r0, r8
 5438 0234 FFF7FEFF 		bl	__aeabi_fcmpgt
 5439 0238 4FF07E51 		mov	r1, #1065353216
 5440 023c 0028     		cmp	r0, #0
 5441 023e 00F05481 		beq	.L518
 5442              	.L483:
 5443              	.LBE197:
 5444              	.LBE196:
 5445              		.loc 1 1079 0
 5446 0242 4846     		mov	r0, r9
 5447 0244 FFF7FEFF 		bl	__aeabi_fmul
 5448 0248 0446     		mov	r4, r0
 5449              	.LVL413:
 5450              	.L481:
 5451              		.loc 1 1082 0
 5452 024a 2846     		mov	r0, r5
 5453 024c FFF7FEFF 		bl	__aeabi_f2d
ARM GAS  /tmp/ccdUEzgz.s 			page 97


 5454 0250 CDE90001 		strd	r0, [sp]
 5455 0254 0399     		ldr	r1, [sp, #12]	@ float
 5456 0256 0798     		ldr	r0, [sp, #28]	@ float
 5457 0258 FFF7FEFF 		bl	__aeabi_fmul
 5458 025c 2146     		mov	r1, r4
 5459 025e FFF7FEFF 		bl	__aeabi_fsub
 5460 0262 FFF7FEFF 		bl	__aeabi_f2d
 5461 0266 2CA3     		adr	r3, .L521+8
 5462 0268 D3E90023 		ldrd	r2, [r3]
 5463 026c 8046     		mov	r8, r0
 5464 026e 8946     		mov	r9, r1
 5465 0270 DDE90001 		ldrd	r0, [sp]
 5466 0274 FFF7FEFF 		bl	__aeabi_dadd
 5467 0278 0246     		mov	r2, r0
 5468 027a 0B46     		mov	r3, r1
 5469 027c 4046     		mov	r0, r8
 5470 027e 4946     		mov	r1, r9
 5471 0280 FFF7FEFF 		bl	__aeabi_ddiv
 5472 0284 FFF7FEFF 		bl	__aeabi_d2f
 5473 0288 8046     		mov	r8, r0
 5474              	.LVL414:
 5475              		.loc 1 1083 0
 5476 028a 2046     		mov	r0, r4
 5477              	.LVL415:
 5478 028c FFF7FEFF 		bl	__aeabi_f2d
 5479 0290 DDE90423 		ldrd	r2, [sp, #16]
 5480 0294 FFF7FEFF 		bl	__aeabi_dadd
 5481 0298 DDE90023 		ldrd	r2, [sp]
 5482 029c 01F10045 		add	r5, r1, #-2147483648
 5483 02a0 2946     		mov	r1, r5
 5484 02a2 FFF7FEFF 		bl	__aeabi_ddiv
 5485 02a6 FFF7FEFF 		bl	__aeabi_d2f
 5486              		.loc 1 1086 0
 5487 02aa 5146     		mov	r1, sl
 5488              		.loc 1 1083 0
 5489 02ac 0446     		mov	r4, r0
 5490              	.LVL416:
 5491              		.loc 1 1086 0
 5492 02ae 4FF07E50 		mov	r0, #1065353216
 5493              	.LVL417:
 5494 02b2 FFF7FEFF 		bl	__aeabi_fsub
 5495 02b6 4146     		mov	r1, r8
 5496 02b8 FFF7FEFF 		bl	__aeabi_fmul
 5497 02bc 3946     		mov	r1, r7
 5498 02be 8146     		mov	r9, r0
 5499              	.LVL418:
 5500 02c0 FFF7FEFF 		bl	__aeabi_fmul
 5501              	.LVL419:
 5502 02c4 3946     		mov	r1, r7
 5503 02c6 0546     		mov	r5, r0
 5504 02c8 4FF07E50 		mov	r0, #1065353216
 5505 02cc FFF7FEFF 		bl	__aeabi_fsub
 5506 02d0 2146     		mov	r1, r4
 5507 02d2 FFF7FEFF 		bl	__aeabi_fmul
 5508 02d6 0146     		mov	r1, r0
 5509 02d8 2846     		mov	r0, r5
 5510 02da FFF7FEFF 		bl	__aeabi_fadd
ARM GAS  /tmp/ccdUEzgz.s 			page 98


 5511 02de 3946     		mov	r1, r7
 5512 02e0 0546     		mov	r5, r0
 5513 02e2 5046     		mov	r0, sl
 5514 02e4 FFF7FEFF 		bl	__aeabi_fmul
 5515 02e8 0146     		mov	r1, r0
 5516 02ea 4FF07E50 		mov	r0, #1065353216
 5517 02ee FFF7FEFF 		bl	__aeabi_fsub
 5518 02f2 0146     		mov	r1, r0
 5519 02f4 2846     		mov	r0, r5
 5520 02f6 FFF7FEFF 		bl	__aeabi_fdiv
 5521              		.loc 1 1089 0
 5522 02fa 0399     		ldr	r1, [sp, #12]	@ float
 5523 02fc FFF7FEFF 		bl	__aeabi_fmul
 5524 0300 0021     		movs	r1, #0
 5525 0302 FFF7FEFF 		bl	__aeabi_fcmplt
 5526 0306 0028     		cmp	r0, #0
 5527 0308 51D0     		beq	.L485
 5528 030a 09E0     		b	.L522
 5529              	.L523:
 5530 030c AFF30080 		.align	3
 5531              	.L521:
 5532 0310 00000000 		.word	0
 5533 0314 00C05F40 		.word	1080016896
 5534 0318 33333333 		.word	858993459
 5535 031c 3333D33F 		.word	1070805811
 5536              	.L522:
 5537              	.LVL420:
 5538              		.loc 1 1100 0
 5539 0320 4846     		mov	r0, r9
 5540 0322 2146     		mov	r1, r4
 5541 0324 FFF7FEFF 		bl	__aeabi_fsub
 5542 0328 04F10047 		add	r7, r4, #-2147483648
 5543              	.LVL421:
 5544 032c 0146     		mov	r1, r0
 5545 032e 3846     		mov	r0, r7
 5546 0330 FFF7FEFF 		bl	__aeabi_fdiv
 5547              	.LBB199:
 5548              	.LBB200:
 5549              	.LBB201:
 5550              	.LBB202:
 5551              		.loc 2 74 0
 5552 0334 20F07F41 		bic	r1, r0, #-16777216
 5553 0338 21F40003 		bic	r3, r1, #8388608
 5554              	.LBE202:
 5555              	.LBE201:
 5556              	.LBE200:
 5557 033c 43F07C55 		orr	r5, r3, #1056964608
 5558              	.LVL422:
 5559              	.LBB205:
 5560              	.LBB204:
 5561              	.LBB203:
 5562              		.loc 2 75 0
 5563 0340 FFF7FEFF 		bl	__aeabi_ui2f
 5564              		.loc 2 76 0
 5565 0344 4FF05051 		mov	r1, #872415232
 5566 0348 FFF7FEFF 		bl	__aeabi_fmul
 5567              		.loc 2 78 0
ARM GAS  /tmp/ccdUEzgz.s 			page 99


 5568 034c 47F27731 		movw	r1, #29559
 5569 0350 C4F2F821 		movt	r1, 17144
 5570 0354 FFF7FEFF 		bl	__aeabi_fsub
 5571              		.loc 2 79 0
 5572 0358 4BF67571 		movw	r1, #49013
 5573              		.loc 2 78 0
 5574 035c 8146     		mov	r9, r0
 5575              	.LVL423:
 5576              		.loc 2 79 0
 5577 035e C3F6BF71 		movt	r1, 16319
 5578 0362 2846     		mov	r0, r5
 5579 0364 FFF7FEFF 		bl	__aeabi_fmul
 5580 0368 0146     		mov	r1, r0
 5581 036a 4846     		mov	r0, r9
 5582 036c FFF7FEFF 		bl	__aeabi_fsub
 5583              		.loc 2 80 0
 5584 0370 44F2F941 		movw	r1, #17657
 5585              		.loc 2 79 0
 5586 0374 0746     		mov	r7, r0
 5587              		.loc 2 80 0
 5588 0376 C3F6B461 		movt	r1, 16052
 5589 037a 2846     		mov	r0, r5
 5590 037c FFF7FEFF 		bl	__aeabi_fadd
 5591 0380 0146     		mov	r1, r0
 5592 0382 4EF6A310 		movw	r0, #59811
 5593 0386 C3F6DC70 		movt	r0, 16348
 5594 038a FFF7FEFF 		bl	__aeabi_fdiv
 5595 038e 0146     		mov	r1, r0
 5596              		.loc 2 78 0
 5597 0390 3846     		mov	r0, r7
 5598 0392 FFF7FEFF 		bl	__aeabi_fsub
 5599              	.LBE203:
 5600              	.LBE204:
 5601              		.loc 2 99 0
 5602 0396 47F21821 		movw	r1, #29208
 5603 039a C3F63171 		movt	r1, 16177
 5604 039e FFF7FEFF 		bl	__aeabi_fmul
 5605              	.LBE205:
 5606              	.LBE199:
 5607              		.loc 1 1100 0
 5608 03a2 0699     		ldr	r1, [sp, #24]	@ float
 5609 03a4 00F10040 		add	r0, r0, #-2147483648
 5610 03a8 FFF7FEFF 		bl	__aeabi_fdiv
 5611 03ac 0290     		str	r0, [sp, #8]	@ float
 5612              	.LVL424:
 5613              	.L485:
 5614              		.loc 1 1112 0
 5615 03ae 4046     		mov	r0, r8
 5616 03b0 5946     		mov	r1, fp
 5617 03b2 FFF7FEFF 		bl	__aeabi_fmul
 5618 03b6 0299     		ldr	r1, [sp, #8]	@ float
 5619 03b8 0546     		mov	r5, r0
 5620 03ba 2046     		mov	r0, r4
 5621 03bc FFF7FEFF 		bl	__aeabi_fmul
 5622 03c0 0146     		mov	r1, r0
 5623 03c2 2846     		mov	r0, r5
 5624 03c4 FFF7FEFF 		bl	__aeabi_fadd
ARM GAS  /tmp/ccdUEzgz.s 			page 100


 5625 03c8 0446     		mov	r4, r0
 5626              	.LVL425:
 5627              		.loc 1 1115 0
 5628 03ca 3065     		str	r0, [r6, #80]	@ float
 5629              		.loc 1 1118 0
 5630 03cc 706D     		ldr	r0, [r6, #84]	@ float
 5631              	.LVL426:
 5632 03ce FFF7FEFF 		bl	__aeabi_f2d
 5633 03d2 57A3     		adr	r3, .L524
 5634 03d4 D3E90023 		ldrd	r2, [r3]
 5635 03d8 FFF7FEFF 		bl	__aeabi_dmul
 5636 03dc 8046     		mov	r8, r0
 5637              	.LVL427:
 5638 03de 2046     		mov	r0, r4
 5639 03e0 8946     		mov	r9, r1
 5640 03e2 FFF7FEFF 		bl	__aeabi_f2d
 5641 03e6 54A3     		adr	r3, .L524+8
 5642 03e8 D3E90023 		ldrd	r2, [r3]
 5643 03ec FFF7FEFF 		bl	__aeabi_dmul
 5644 03f0 0246     		mov	r2, r0
 5645 03f2 0B46     		mov	r3, r1
 5646 03f4 4046     		mov	r0, r8
 5647 03f6 4946     		mov	r1, r9
 5648 03f8 FFF7FEFF 		bl	__aeabi_dadd
 5649 03fc FFF7FEFF 		bl	__aeabi_d2f
 5650              		.loc 1 1121 0
 5651 0400 24F00045 		bic	r5, r4, #-2147483648
 5652              		.loc 1 1118 0
 5653 0404 7065     		str	r0, [r6, #84]	@ float
 5654              		.loc 1 1121 0
 5655 0406 B16D     		ldr	r1, [r6, #88]	@ float
 5656 0408 2846     		mov	r0, r5
 5657 040a FFF7FEFF 		bl	__aeabi_fcmpgt
 5658 040e 00B1     		cbz	r0, .L487
 5659              		.loc 1 1122 0
 5660 0410 B565     		str	r5, [r6, #88]	@ float
 5661              	.L487:
 5662              		.loc 1 1125 0
 5663 0412 2046     		mov	r0, r4
 5664 0414 09B0     		add	sp, sp, #36
 5665 0416 BDE8F08F 		pop	{r4, r5, r6, r7, r8, r9, sl, fp, pc}
 5666              	.LVL428:
 5667              	.L465:
 5668              		.loc 1 1057 0
 5669 041a 2046     		mov	r0, r4
 5670 041c FFF7FEFF 		bl	__aeabi_i2f
 5671              	.LBB206:
 5672              	.LBB207:
 5673              		.loc 1 142 0
 5674 0420 0021     		movs	r1, #0
 5675              	.LBE207:
 5676              	.LBE206:
 5677              		.loc 1 1057 0
 5678 0422 0446     		mov	r4, r0
 5679              	.LVL429:
 5680              	.LBB214:
 5681              	.LBB208:
ARM GAS  /tmp/ccdUEzgz.s 			page 101


 5682              		.loc 1 142 0
 5683 0424 FFF7FEFF 		bl	__aeabi_fcmpeq
 5684              	.LVL430:
 5685 0428 90B1     		cbz	r0, .L519
 5686 042a 4FF07E52 		mov	r2, #1065353216
 5687 042e 0292     		str	r2, [sp, #8]	@ float
 5688 0430 4FF0000B 		mov	fp, #0
 5689              	.LVL431:
 5690              	.L469:
 5691              	.LBE208:
 5692              	.LBE214:
 5693              		.loc 1 1064 0
 5694 0434 D6F83080 		ldr	r8, [r6, #48]	@ float
 5695              	.LVL432:
 5696              	.LBB215:
 5697              	.LBB216:
 5698              		.loc 1 142 0
 5699 0438 0021     		movs	r1, #0
 5700 043a 4046     		mov	r0, r8
 5701 043c FFF7FEFF 		bl	__aeabi_fcmpeq
 5702              	.LVL433:
 5703 0440 58B3     		cbz	r0, .L520
 5704 0442 0023     		movs	r3, #0
 5705 0444 0022     		movs	r2, #0
 5706 0446 CDE90423 		strd	r2, [sp, #16]
 5707 044a 0023     		movs	r3, #0
 5708 044c 0393     		str	r3, [sp, #12]	@ float
 5709 044e 1EE6     		b	.L472
 5710              	.LVL434:
 5711              	.L519:
 5712              	.LBE216:
 5713              	.LBE215:
 5714              	.LBB219:
 5715              	.LBB209:
 5716              		.loc 1 143 0
 5717 0450 2046     		mov	r0, r4
 5718 0452 0021     		movs	r1, #0
 5719 0454 FFF7FEFF 		bl	__aeabi_fcmpgt
 5720 0458 0028     		cmp	r0, #0
 5721 045a 55D0     		beq	.L511
 5722 045c 7F24     		movs	r4, #127
 5723              	.LVL435:
 5724 045e 0021     		movs	r1, #0
 5725              	.LBE209:
 5726              	.LBE219:
 5727              		.loc 1 1062 0
 5728 0460 2046     		mov	r0, r4
 5729              	.LBB220:
 5730              	.LBB210:
 5731              		.loc 1 143 0
 5732 0462 0291     		str	r1, [sp, #8]	@ float
 5733              	.LBE210:
 5734              	.LBE220:
 5735              		.loc 1 1062 0
 5736 0464 FFF7FEFF 		bl	__aeabi_i2f
 5737              	.LBB221:
 5738              	.LBB170:
ARM GAS  /tmp/ccdUEzgz.s 			page 102


 5739              		.loc 1 142 0
 5740 0468 0021     		movs	r1, #0
 5741              	.LBE170:
 5742              	.LBE221:
 5743              	.LBB222:
 5744              	.LBB211:
 5745              		.loc 1 143 0
 5746 046a 4FF07E5B 		mov	fp, #1065353216
 5747              	.LBE211:
 5748              	.LBE222:
 5749              		.loc 1 1062 0
 5750 046e 0446     		mov	r4, r0
 5751              	.LVL436:
 5752              	.LBB223:
 5753              	.LBB171:
 5754              		.loc 1 142 0
 5755 0470 FFF7FEFF 		bl	__aeabi_fcmpeq
 5756              	.LVL437:
 5757 0474 0028     		cmp	r0, #0
 5758 0476 7FF402AE 		bne	.L491
 5759              	.L517:
 5760              		.loc 1 143 0
 5761 047a 2046     		mov	r0, r4
 5762 047c 0021     		movs	r1, #0
 5763 047e FFF7FEFF 		bl	__aeabi_fcmpgt
 5764 0482 0028     		cmp	r0, #0
 5765 0484 35D0     		beq	.L512
 5766 0486 0023     		movs	r3, #0
 5767 0488 C3F6E873 		movt	r3, 16360
 5768 048c 0022     		movs	r2, #0
 5769 048e CDE90423 		strd	r2, [sp, #16]
 5770 0492 4FF07E53 		mov	r3, #1065353216
 5771 0496 0393     		str	r3, [sp, #12]	@ float
 5772 0498 F7E5     		b	.L470
 5773              	.LVL438:
 5774              	.L520:
 5775              	.LBE171:
 5776              	.LBE223:
 5777              	.LBB224:
 5778              	.LBB217:
 5779 049a 4046     		mov	r0, r8
 5780 049c 0021     		movs	r1, #0
 5781 049e FFF7FEFF 		bl	__aeabi_fcmpgt
 5782 04a2 B8B1     		cbz	r0, .L513
 5783 04a4 0023     		movs	r3, #0
 5784 04a6 C3F6E873 		movt	r3, 16360
 5785 04aa 0022     		movs	r2, #0
 5786 04ac CDE90423 		strd	r2, [sp, #16]
 5787 04b0 4FF07E53 		mov	r3, #1065353216
 5788 04b4 0393     		str	r3, [sp, #12]	@ float
 5789 04b6 EAE5     		b	.L472
 5790              	.LVL439:
 5791              	.L496:
 5792              	.LBE217:
 5793              	.LBE224:
 5794              	.LBB225:
 5795              	.LBB184:
ARM GAS  /tmp/ccdUEzgz.s 			page 103


 5796              	.LBB183:
 5797              	.LBB181:
 5798              		.loc 2 62 0
 5799 04b8 43F6F024 		movw	r4, #15088
 5800              	.LVL440:
 5801 04bc CCF29704 		movt	r4, 49303
 5802 04c0 4FF00009 		mov	r9, #0
 5803 04c4 21E6     		b	.L477
 5804              	.LVL441:
 5805              	.L498:
 5806              	.LBE181:
 5807              	.LBE183:
 5808              	.LBE184:
 5809              	.LBE225:
 5810              	.LBB226:
 5811              	.LBB194:
 5812              	.LBB193:
 5813              	.LBB191:
 5814 04c6 43F6F024 		movw	r4, #15088
 5815              	.LVL442:
 5816 04ca CCF29704 		movt	r4, 49303
 5817 04ce 4FF00009 		mov	r9, #0
 5818              	.LVL443:
 5819 04d2 70E6     		b	.L480
 5820              	.LVL444:
 5821              	.L513:
 5822              	.LBE191:
 5823              	.LBE193:
 5824              	.LBE194:
 5825              	.LBE226:
 5826              	.LBB227:
 5827              	.LBB218:
 5828              		.loc 1 143 0
 5829 04d4 0025     		movs	r5, #0
 5830 04d6 0023     		movs	r3, #0
 5831 04d8 CBF68075 		movt	r5, 49024
 5832 04dc 0022     		movs	r2, #0
 5833 04de CBF6E873 		movt	r3, 49128
 5834 04e2 0395     		str	r5, [sp, #12]	@ float
 5835 04e4 CDE90423 		strd	r2, [sp, #16]
 5836 04e8 D1E5     		b	.L472
 5837              	.LVL445:
 5838              	.L518:
 5839              	.LBE218:
 5840              	.LBE227:
 5841              	.LBB228:
 5842              	.LBB198:
 5843 04ea 0021     		movs	r1, #0
 5844 04ec CBF68071 		movt	r1, 49024
 5845 04f0 A7E6     		b	.L483
 5846              	.LVL446:
 5847              	.L512:
 5848              	.LBE198:
 5849              	.LBE228:
 5850              	.LBB229:
 5851              	.LBB172:
 5852 04f2 0020     		movs	r0, #0
ARM GAS  /tmp/ccdUEzgz.s 			page 104


 5853 04f4 0023     		movs	r3, #0
 5854 04f6 CBF68070 		movt	r0, 49024
 5855 04fa 0022     		movs	r2, #0
 5856 04fc CBF6E873 		movt	r3, 49128
 5857 0500 0390     		str	r0, [sp, #12]	@ float
 5858 0502 CDE90423 		strd	r2, [sp, #16]
 5859 0506 C0E5     		b	.L470
 5860              	.LVL447:
 5861              	.L511:
 5862              	.LBE172:
 5863              	.LBE229:
 5864              	.LBB230:
 5865              	.LBB212:
 5866 0508 0024     		movs	r4, #0
 5867              	.LVL448:
 5868 050a 0294     		str	r4, [sp, #8]	@ float
 5869 050c 6FF07E04 		mvn	r4, #126
 5870              	.LVL449:
 5871              	.LBE212:
 5872              	.LBE230:
 5873              		.loc 1 1062 0
 5874 0510 2046     		mov	r0, r4
 5875 0512 FFF7FEFF 		bl	__aeabi_i2f
 5876              	.LBB231:
 5877              	.LBB173:
 5878              		.loc 1 142 0
 5879 0516 0021     		movs	r1, #0
 5880              	.LBE173:
 5881              	.LBE231:
 5882              	.LBB232:
 5883              	.LBB213:
 5884              		.loc 1 143 0
 5885 0518 4FF07E5B 		mov	fp, #1065353216
 5886              	.LBE213:
 5887              	.LBE232:
 5888              		.loc 1 1062 0
 5889 051c 0446     		mov	r4, r0
 5890              	.LVL450:
 5891              	.LBB233:
 5892              	.LBB174:
 5893              		.loc 1 142 0
 5894 051e FFF7FEFF 		bl	__aeabi_fcmpeq
 5895              	.LVL451:
 5896 0522 0028     		cmp	r0, #0
 5897 0524 7FF4ABAD 		bne	.L491
 5898 0528 A7E7     		b	.L517
 5899              	.L525:
 5900 052a 00BFAFF3 		.align	3
 5900      0080
 5901              	.L524:
 5902 0530 9A999999 		.word	-1717986918
 5903 0534 9999E93F 		.word	1072273817
 5904 0538 9A999999 		.word	-1717986918
 5905 053c 9999C93F 		.word	1070176665
 5906              	.LBE174:
 5907              	.LBE233:
 5908              		.cfi_endproc
ARM GAS  /tmp/ccdUEzgz.s 			page 105


 5909              	.LFE98:
 5910              		.size	SmartMotorCurrent, .-SmartMotorCurrent
 5911              		.section	.text.SmartMotorControllerCurrent,"ax",%progbits
 5912              		.align	2
 5913              		.p2align 4,,15
 5914              		.global	SmartMotorControllerCurrent
 5915              		.thumb
 5916              		.thumb_func
 5917              		.type	SmartMotorControllerCurrent, %function
 5918              	SmartMotorControllerCurrent:
 5919              	.LFB99:
 5920              		.loc 1 1137 0
 5921              		.cfi_startproc
 5922              		@ args = 0, pretend = 0, frame = 0
 5923              		@ frame_needed = 0, uses_anonymous_args = 0
 5924              	.LVL452:
 5925 0000 38B5     		push	{r3, r4, r5, lr}
 5926              	.LCFI21:
 5927              		.cfi_def_cfa_offset 16
 5928              		.cfi_offset 14, -4
 5929              		.cfi_offset 5, -8
 5930              		.cfi_offset 4, -12
 5931              		.cfi_offset 3, -16
 5932              		.loc 1 1146 0
 5933 0002 0368     		ldr	r3, [r0, #0]
 5934              		.loc 1 1140 0
 5935 0004 0021     		movs	r1, #0
 5936              		.loc 1 1137 0
 5937 0006 0446     		mov	r4, r0
 5938              		.loc 1 1140 0
 5939 0008 4161     		str	r1, [r0, #20]	@ float
 5940              	.LVL453:
 5941              		.loc 1 1146 0
 5942 000a 13B1     		cbz	r3, .L535
 5943              		.loc 1 1148 0
 5944 000c 9A78     		ldrb	r2, [r3, #2]	@ zero_extendqisi2
 5945 000e 002A     		cmp	r2, #0
 5946 0010 3DD1     		bne	.L537
 5947              	.L535:
 5948 0012 0D46     		mov	r5, r1
 5949              	.LVL454:
 5950              	.L527:
 5951              		.loc 1 1146 0
 5952 0014 6368     		ldr	r3, [r4, #4]
 5953 0016 13B1     		cbz	r3, .L528
 5954              		.loc 1 1148 0
 5955 0018 9978     		ldrb	r1, [r3, #2]	@ zero_extendqisi2
 5956 001a 0029     		cmp	r1, #0
 5957 001c 2ED1     		bne	.L538
 5958              	.L528:
 5959              	.LVL455:
 5960              		.loc 1 1146 0
 5961 001e A368     		ldr	r3, [r4, #8]
 5962 0020 0BB1     		cbz	r3, .L529
 5963              		.loc 1 1148 0
 5964 0022 9A78     		ldrb	r2, [r3, #2]	@ zero_extendqisi2
 5965 0024 0ABB     		cbnz	r2, .L539
ARM GAS  /tmp/ccdUEzgz.s 			page 106


 5966              	.L529:
 5967              	.LVL456:
 5968              		.loc 1 1146 0
 5969 0026 E368     		ldr	r3, [r4, #12]
 5970 0028 0BB1     		cbz	r3, .L530
 5971              		.loc 1 1148 0
 5972 002a 9878     		ldrb	r0, [r3, #2]	@ zero_extendqisi2
 5973 002c A0B9     		cbnz	r0, .L540
 5974              	.L530:
 5975              	.LVL457:
 5976              		.loc 1 1146 0
 5977 002e 2369     		ldr	r3, [r4, #16]
 5978 0030 0BB1     		cbz	r3, .L531
 5979              		.loc 1 1148 0
 5980 0032 9A78     		ldrb	r2, [r3, #2]	@ zero_extendqisi2
 5981 0034 3AB9     		cbnz	r2, .L541
 5982              	.L531:
 5983              	.LVL458:
 5984              		.loc 1 1154 0
 5985 0036 A069     		ldr	r0, [r4, #24]	@ float
 5986 0038 2946     		mov	r1, r5
 5987 003a FFF7FEFF 		bl	__aeabi_fcmplt
 5988 003e 00B1     		cbz	r0, .L532
 5989              		.loc 1 1155 0
 5990 0040 A561     		str	r5, [r4, #24]	@ float
 5991              	.L532:
 5992              		.loc 1 1158 0
 5993 0042 2846     		mov	r0, r5
 5994 0044 38BD     		pop	{r3, r4, r5, pc}
 5995              	.LVL459:
 5996              	.L541:
 5997              		.loc 1 1149 0
 5998 0046 196D     		ldr	r1, [r3, #80]
 5999 0048 2846     		mov	r0, r5
 6000 004a 21F00041 		bic	r1, r1, #-2147483648
 6001 004e FFF7FEFF 		bl	__aeabi_fadd
 6002 0052 0546     		mov	r5, r0
 6003 0054 6061     		str	r0, [r4, #20]	@ float
 6004 0056 EEE7     		b	.L531
 6005              	.LVL460:
 6006              	.L540:
 6007 0058 1B6D     		ldr	r3, [r3, #80]
 6008 005a 2846     		mov	r0, r5
 6009 005c 23F00041 		bic	r1, r3, #-2147483648
 6010 0060 FFF7FEFF 		bl	__aeabi_fadd
 6011 0064 0546     		mov	r5, r0
 6012 0066 6061     		str	r0, [r4, #20]	@ float
 6013 0068 E1E7     		b	.L530
 6014              	.LVL461:
 6015              	.L539:
 6016 006a 196D     		ldr	r1, [r3, #80]
 6017 006c 2846     		mov	r0, r5
 6018 006e 21F00041 		bic	r1, r1, #-2147483648
 6019 0072 FFF7FEFF 		bl	__aeabi_fadd
 6020 0076 0546     		mov	r5, r0
 6021 0078 6061     		str	r0, [r4, #20]	@ float
 6022 007a D4E7     		b	.L529
ARM GAS  /tmp/ccdUEzgz.s 			page 107


 6023              	.LVL462:
 6024              	.L538:
 6025 007c 1B6D     		ldr	r3, [r3, #80]
 6026 007e 2846     		mov	r0, r5
 6027 0080 23F00041 		bic	r1, r3, #-2147483648
 6028 0084 FFF7FEFF 		bl	__aeabi_fadd
 6029 0088 0546     		mov	r5, r0
 6030 008a 6061     		str	r0, [r4, #20]	@ float
 6031 008c C7E7     		b	.L528
 6032              	.LVL463:
 6033              	.L537:
 6034 008e 186D     		ldr	r0, [r3, #80]
 6035 0090 20F00040 		bic	r0, r0, #-2147483648
 6036 0094 FFF7FEFF 		bl	__aeabi_fadd
 6037 0098 0546     		mov	r5, r0
 6038 009a 6061     		str	r0, [r4, #20]	@ float
 6039 009c BAE7     		b	.L527
 6040              		.cfi_endproc
 6041              	.LFE99:
 6042              		.size	SmartMotorControllerCurrent, .-SmartMotorControllerCurrent
 6043              		.global	__aeabi_fcmpge
 6044              		.global	__aeabi_d2iz
 6045              		.global	__aeabi_fcmple
 6046              		.global	__aeabi_dsub
 6047 009e 00BF     		.section	.text.SmartMotorSafeCommand,"ax",%progbits
 6048              		.align	2
 6049              		.p2align 4,,15
 6050              		.global	SmartMotorSafeCommand
 6051              		.thumb
 6052              		.thumb_func
 6053              		.type	SmartMotorSafeCommand, %function
 6054              	SmartMotorSafeCommand:
 6055              	.LFB100:
 6056              		.loc 1 1183 0
 6057              		.cfi_startproc
 6058              		@ args = 0, pretend = 0, frame = 0
 6059              		@ frame_needed = 0, uses_anonymous_args = 0
 6060              	.LVL464:
 6061 0000 2DE9704F 		push	{r4, r5, r6, r8, r9, sl, fp, lr}
 6062              	.LCFI22:
 6063              		.cfi_def_cfa_offset 32
 6064              		.cfi_offset 14, -4
 6065              		.cfi_offset 11, -8
 6066              		.cfi_offset 10, -12
 6067              		.cfi_offset 9, -16
 6068              		.cfi_offset 8, -20
 6069              		.cfi_offset 6, -24
 6070              		.cfi_offset 5, -28
 6071              		.cfi_offset 4, -32
 6072              		.loc 1 1183 0
 6073 0004 0446     		mov	r4, r0
 6074              		.loc 1 1185 0
 6075 0006 90F90000 		ldrsb	r0, [r0, #0]
 6076              	.LVL465:
 6077              		.loc 1 1183 0
 6078 000a 0E46     		mov	r6, r1
 6079              		.loc 1 1185 0
ARM GAS  /tmp/ccdUEzgz.s 			page 108


 6080 000c FFF7FEFF 		bl	vexMotorGet
 6081              	.LVL466:
 6082              		.loc 1 1191 0
 6083 0010 256B     		ldr	r5, [r4, #48]	@ float
 6084 0012 0021     		movs	r1, #0
 6085              		.loc 1 1189 0
 6086 0014 0028     		cmp	r0, #0
 6087              		.loc 1 1191 0
 6088 0016 2846     		mov	r0, r5
 6089              	.LVL467:
 6090              		.loc 1 1189 0
 6091 0018 62DB     		blt	.L543
 6092              		.loc 1 1191 0
 6093 001a FFF7FEFF 		bl	__aeabi_fcmpge
 6094 001e D0B9     		cbnz	r0, .L560
 6095 0020 256E     		ldr	r5, [r4, #96]	@ float
 6096              		.loc 1 1194 0
 6097 0022 7F26     		movs	r6, #127
 6098              	.LVL468:
 6099              	.L546:
 6100              		.loc 1 1213 0
 6101 0024 0021     		movs	r1, #0
 6102 0026 2846     		mov	r0, r5
 6103 0028 FFF7FEFF 		bl	__aeabi_fcmpeq
 6104              		.loc 1 1217 0
 6105 002c 2278     		ldrb	r2, [r4, #0]	@ zero_extendqisi2
 6106              		.loc 1 1214 0
 6107 002e 0028     		cmp	r0, #0
 6108 0030 0CBF     		ite	eq
 6109 0032 3046     		moveq	r0, r6
 6110 0034 0020     		movne	r0, #0
 6111              		.loc 1 1217 0
 6112 0036 511E     		subs	r1, r2, #1
 6113 0038 CBB2     		uxtb	r3, r1
 6114 003a 072B     		cmp	r3, #7
 6115 003c 09D8     		bhi	.L550
 6116              		.loc 1 1218 0
 6117 003e 5A26     		movs	r6, #90
 6118 0040 06FB00F0 		mul	r0, r6, r0
 6119 0044 00F17F06 		add	r6, r0, #127
 6120 0048 30EA2000 		bics	r0, r0, r0, asr #32
 6121 004c 28BF     		it	cs
 6122 004e 3046     		movcs	r0, r6
 6123 0050 C011     		asrs	r0, r0, #7
 6124              	.L550:
 6125              		.loc 1 1221 0
 6126 0052 BDE8708F 		pop	{r4, r5, r6, r8, r9, sl, fp, pc}
 6127              	.LVL469:
 6128              	.L560:
 6129              		.loc 1 1192 0
 6130 0056 616C     		ldr	r1, [r4, #68]	@ float
 6131 0058 2846     		mov	r0, r5
 6132 005a FFF7FEFF 		bl	__aeabi_fmul
 6133 005e FFF7FEFF 		bl	__aeabi_f2d
 6134 0062 256E     		ldr	r5, [r4, #96]	@ float
 6135 0064 8246     		mov	sl, r0
 6136 0066 2846     		mov	r0, r5
ARM GAS  /tmp/ccdUEzgz.s 			page 109


 6137 0068 8B46     		mov	fp, r1
 6138 006a FFF7FEFF 		bl	__aeabi_f2d
 6139 006e 8046     		mov	r8, r0
 6140 0070 E06B     		ldr	r0, [r4, #60]	@ float
 6141 0072 8946     		mov	r9, r1
 6142 0074 FFF7FEFF 		bl	__aeabi_f2d
 6143 0078 41A3     		adr	r3, .L561
 6144 007a D3E90023 		ldrd	r2, [r3]
 6145 007e FFF7FEFF 		bl	__aeabi_dadd
 6146 0082 0246     		mov	r2, r0
 6147 0084 0B46     		mov	r3, r1
 6148 0086 4046     		mov	r0, r8
 6149 0088 4946     		mov	r1, r9
 6150 008a FFF7FEFF 		bl	__aeabi_dmul
 6151 008e 0246     		mov	r2, r0
 6152 0090 0B46     		mov	r3, r1
 6153 0092 5046     		mov	r0, sl
 6154 0094 5946     		mov	r1, fp
 6155 0096 FFF7FEFF 		bl	__aeabi_dadd
 6156 009a 0023     		movs	r3, #0
 6157 009c 0022     		movs	r2, #0
 6158 009e C3F6E873 		movt	r3, 16360
 6159 00a2 FFF7FEFF 		bl	__aeabi_dadd
 6160 00a6 38A3     		adr	r3, .L561+8
 6161 00a8 D3E90023 		ldrd	r2, [r3]
 6162 00ac FFF7FEFF 		bl	__aeabi_dmul
 6163 00b0 8046     		mov	r8, r0
 6164 00b2 3046     		mov	r0, r6
 6165 00b4 8946     		mov	r9, r1
 6166 00b6 FFF7FEFF 		bl	__aeabi_f2d
 6167 00ba 0023     		movs	r3, #0
 6168 00bc 0022     		movs	r2, #0
 6169 00be C3F6E873 		movt	r3, 16360
 6170 00c2 FFF7FEFF 		bl	__aeabi_dadd
 6171 00c6 0246     		mov	r2, r0
 6172 00c8 0B46     		mov	r3, r1
 6173 00ca 4046     		mov	r0, r8
 6174 00cc 4946     		mov	r1, r9
 6175 00ce FFF7FEFF 		bl	__aeabi_ddiv
 6176 00d2 FFF7FEFF 		bl	__aeabi_d2iz
 6177              	.LVL470:
 6178              		.loc 1 1198 0
 6179 00d6 7F28     		cmp	r0, #127
 6180 00d8 B4BF     		ite	lt
 6181 00da 0646     		movlt	r6, r0
 6182 00dc 7F26     		movge	r6, #127
 6183              	.LVL471:
 6184 00de A1E7     		b	.L546
 6185              	.LVL472:
 6186              	.L543:
 6187              		.loc 1 1202 0
 6188 00e0 FFF7FEFF 		bl	__aeabi_fcmple
 6189 00e4 0028     		cmp	r0, #0
 6190 00e6 45D0     		beq	.L559
 6191              		.loc 1 1203 0
 6192 00e8 616C     		ldr	r1, [r4, #68]	@ float
 6193 00ea 2846     		mov	r0, r5
ARM GAS  /tmp/ccdUEzgz.s 			page 110


 6194 00ec FFF7FEFF 		bl	__aeabi_fmul
 6195 00f0 FFF7FEFF 		bl	__aeabi_f2d
 6196 00f4 256E     		ldr	r5, [r4, #96]	@ float
 6197 00f6 8246     		mov	sl, r0
 6198 00f8 2846     		mov	r0, r5
 6199 00fa 8B46     		mov	fp, r1
 6200 00fc FFF7FEFF 		bl	__aeabi_f2d
 6201 0100 8046     		mov	r8, r0
 6202 0102 E06B     		ldr	r0, [r4, #60]	@ float
 6203 0104 8946     		mov	r9, r1
 6204 0106 FFF7FEFF 		bl	__aeabi_f2d
 6205 010a 1DA3     		adr	r3, .L561
 6206 010c D3E90023 		ldrd	r2, [r3]
 6207 0110 FFF7FEFF 		bl	__aeabi_dadd
 6208 0114 0246     		mov	r2, r0
 6209 0116 0B46     		mov	r3, r1
 6210 0118 4046     		mov	r0, r8
 6211 011a 4946     		mov	r1, r9
 6212 011c FFF7FEFF 		bl	__aeabi_dmul
 6213 0120 0246     		mov	r2, r0
 6214 0122 0B46     		mov	r3, r1
 6215 0124 5046     		mov	r0, sl
 6216 0126 5946     		mov	r1, fp
 6217 0128 FFF7FEFF 		bl	__aeabi_dsub
 6218 012c 0023     		movs	r3, #0
 6219 012e 0022     		movs	r2, #0
 6220 0130 C3F6E873 		movt	r3, 16360
 6221 0134 FFF7FEFF 		bl	__aeabi_dsub
 6222 0138 13A3     		adr	r3, .L561+8
 6223 013a D3E90023 		ldrd	r2, [r3]
 6224 013e FFF7FEFF 		bl	__aeabi_dmul
 6225 0142 8046     		mov	r8, r0
 6226 0144 3046     		mov	r0, r6
 6227 0146 8946     		mov	r9, r1
 6228 0148 FFF7FEFF 		bl	__aeabi_f2d
 6229 014c 0023     		movs	r3, #0
 6230 014e 0022     		movs	r2, #0
 6231 0150 C3F6E873 		movt	r3, 16360
 6232 0154 FFF7FEFF 		bl	__aeabi_dadd
 6233 0158 0246     		mov	r2, r0
 6234 015a 0B46     		mov	r3, r1
 6235 015c 4046     		mov	r0, r8
 6236 015e 4946     		mov	r1, r9
 6237 0160 FFF7FEFF 		bl	__aeabi_ddiv
 6238 0164 FFF7FEFF 		bl	__aeabi_d2iz
 6239              		.loc 1 1209 0
 6240 0168 6FF07E06 		mvn	r6, #126
 6241              	.LVL473:
 6242 016c B042     		cmp	r0, r6
 6243 016e A8BF     		it	ge
 6244 0170 0646     		movge	r6, r0
 6245 0172 57E7     		b	.L546
 6246              	.LVL474:
 6247              	.L559:
 6248 0174 256E     		ldr	r5, [r4, #96]	@ float
 6249              		.loc 1 1205 0
 6250 0176 6FF07E06 		mvn	r6, #126
ARM GAS  /tmp/ccdUEzgz.s 			page 111


 6251              	.LVL475:
 6252 017a 53E7     		b	.L546
 6253              	.L562:
 6254 017c AFF30080 		.align	3
 6255              	.L561:
 6256 0180 33333333 		.word	858993459
 6257 0184 3333D33F 		.word	1070805811
 6258 0188 00000000 		.word	0
 6259 018c 00C05F40 		.word	1080016896
 6260              		.cfi_endproc
 6261              	.LFE100:
 6262              		.size	SmartMotorSafeCommand, .-SmartMotorSafeCommand
 6263              		.section	.text.SmartMotorTemperature,"ax",%progbits
 6264              		.align	2
 6265              		.p2align 4,,15
 6266              		.global	SmartMotorTemperature
 6267              		.thumb
 6268              		.thumb_func
 6269              		.type	SmartMotorTemperature, %function
 6270              	SmartMotorTemperature:
 6271              	.LFB101:
 6272              		.loc 1 1234 0
 6273              		.cfi_startproc
 6274              		@ args = 0, pretend = 0, frame = 0
 6275              		@ frame_needed = 0, uses_anonymous_args = 0
 6276              	.LVL476:
 6277 0000 F8B5     		push	{r3, r4, r5, r6, r7, lr}
 6278              	.LCFI23:
 6279              		.cfi_def_cfa_offset 24
 6280              		.cfi_offset 14, -4
 6281              		.cfi_offset 7, -8
 6282              		.cfi_offset 6, -12
 6283              		.cfi_offset 5, -16
 6284              		.cfi_offset 4, -20
 6285              		.cfi_offset 3, -24
 6286              		.loc 1 1234 0
 6287 0002 0446     		mov	r4, r0
 6288              		.loc 1 1237 0
 6289 0004 056D     		ldr	r5, [r0, #80]	@ float
 6290              		.loc 1 1239 0
 6291 0006 0846     		mov	r0, r1
 6292              	.LVL477:
 6293 0008 FFF7FEFF 		bl	__aeabi_i2f
 6294              	.LVL478:
 6295              		.loc 1 1237 0
 6296 000c 2946     		mov	r1, r5
 6297              		.loc 1 1239 0
 6298 000e 0646     		mov	r6, r0
 6299              		.loc 1 1237 0
 6300 0010 2846     		mov	r0, r5
 6301 0012 FFF7FEFF 		bl	__aeabi_fmul
 6302 0016 A16E     		ldr	r1, [r4, #104]	@ float
 6303 0018 FFF7FEFF 		bl	__aeabi_fmul
 6304 001c 656E     		ldr	r5, [r4, #100]	@ float
 6305 001e 0746     		mov	r7, r0
 6306 0020 216F     		ldr	r1, [r4, #112]	@ float
 6307 0022 2846     		mov	r0, r5
ARM GAS  /tmp/ccdUEzgz.s 			page 112


 6308 0024 FFF7FEFF 		bl	__aeabi_fsub
 6309 0028 0146     		mov	r1, r0
 6310 002a 3846     		mov	r0, r7
 6311 002c FFF7FEFF 		bl	__aeabi_fsub
 6312 0030 E16E     		ldr	r1, [r4, #108]	@ float
 6313 0032 FFF7FEFF 		bl	__aeabi_fmul
 6314 0036 0146     		mov	r1, r0
 6315              		.loc 1 1239 0
 6316 0038 3046     		mov	r0, r6
 6317 003a FFF7FEFF 		bl	__aeabi_fmul
 6318 003e 0146     		mov	r1, r0
 6319 0040 2846     		mov	r0, r5
 6320 0042 FFF7FEFF 		bl	__aeabi_fadd
 6321 0046 6066     		str	r0, [r4, #100]	@ float
 6322              		.loc 1 1242 0
 6323 0048 F8BD     		pop	{r3, r4, r5, r6, r7, pc}
 6324              		.cfi_endproc
 6325              	.LFE101:
 6326              		.size	SmartMotorTemperature, .-SmartMotorTemperature
 6327 004a 00BFAFF3 		.section	.text.SmartMotorControllerTemperature,"ax",%progbits
 6327      0080
 6328              		.align	2
 6329              		.p2align 4,,15
 6330              		.global	SmartMotorControllerTemperature
 6331              		.thumb
 6332              		.thumb_func
 6333              		.type	SmartMotorControllerTemperature, %function
 6334              	SmartMotorControllerTemperature:
 6335              	.LFB102:
 6336              		.loc 1 1255 0
 6337              		.cfi_startproc
 6338              		@ args = 0, pretend = 0, frame = 0
 6339              		@ frame_needed = 0, uses_anonymous_args = 0
 6340              	.LVL479:
 6341 0000 F8B5     		push	{r3, r4, r5, r6, r7, lr}
 6342              	.LCFI24:
 6343              		.cfi_def_cfa_offset 24
 6344              		.cfi_offset 14, -4
 6345              		.cfi_offset 7, -8
 6346              		.cfi_offset 6, -12
 6347              		.cfi_offset 5, -16
 6348              		.cfi_offset 4, -20
 6349              		.cfi_offset 3, -24
 6350              		.loc 1 1255 0
 6351 0002 0446     		mov	r4, r0
 6352              		.loc 1 1258 0
 6353 0004 4569     		ldr	r5, [r0, #20]	@ float
 6354              		.loc 1 1260 0
 6355 0006 0846     		mov	r0, r1
 6356              	.LVL480:
 6357 0008 FFF7FEFF 		bl	__aeabi_i2f
 6358              	.LVL481:
 6359              		.loc 1 1258 0
 6360 000c 2946     		mov	r1, r5
 6361              		.loc 1 1260 0
 6362 000e 0646     		mov	r6, r0
 6363              		.loc 1 1258 0
ARM GAS  /tmp/ccdUEzgz.s 			page 113


 6364 0010 2846     		mov	r0, r5
 6365 0012 FFF7FEFF 		bl	__aeabi_fmul
 6366 0016 616A     		ldr	r1, [r4, #36]	@ float
 6367 0018 FFF7FEFF 		bl	__aeabi_fmul
 6368 001c 256A     		ldr	r5, [r4, #32]	@ float
 6369 001e 0746     		mov	r7, r0
 6370 0020 E16A     		ldr	r1, [r4, #44]	@ float
 6371 0022 2846     		mov	r0, r5
 6372 0024 FFF7FEFF 		bl	__aeabi_fsub
 6373 0028 0146     		mov	r1, r0
 6374 002a 3846     		mov	r0, r7
 6375 002c FFF7FEFF 		bl	__aeabi_fsub
 6376 0030 A16A     		ldr	r1, [r4, #40]	@ float
 6377 0032 FFF7FEFF 		bl	__aeabi_fmul
 6378 0036 0146     		mov	r1, r0
 6379              		.loc 1 1260 0
 6380 0038 3046     		mov	r0, r6
 6381 003a FFF7FEFF 		bl	__aeabi_fmul
 6382 003e 0146     		mov	r1, r0
 6383 0040 2846     		mov	r0, r5
 6384 0042 FFF7FEFF 		bl	__aeabi_fadd
 6385 0046 2062     		str	r0, [r4, #32]	@ float
 6386              		.loc 1 1263 0
 6387 0048 F8BD     		pop	{r3, r4, r5, r6, r7, pc}
 6388              		.cfi_endproc
 6389              	.LFE102:
 6390              		.size	SmartMotorControllerTemperature, .-SmartMotorControllerTemperature
 6391 004a 00BFAFF3 		.section	.text.SmartMotorMonitorPtc,"ax",%progbits
 6391      0080
 6392              		.align	2
 6393              		.p2align 4,,15
 6394              		.global	SmartMotorMonitorPtc
 6395              		.thumb
 6396              		.thumb_func
 6397              		.type	SmartMotorMonitorPtc, %function
 6398              	SmartMotorMonitorPtc:
 6399              	.LFB103:
 6400              		.loc 1 1278 0
 6401              		.cfi_startproc
 6402              		@ args = 0, pretend = 0, frame = 0
 6403              		@ frame_needed = 0, uses_anonymous_args = 0
 6404              	.LVL482:
 6405 0000 38B5     		push	{r3, r4, r5, lr}
 6406              	.LCFI25:
 6407              		.cfi_def_cfa_offset 16
 6408              		.cfi_offset 14, -4
 6409              		.cfi_offset 5, -8
 6410              		.cfi_offset 4, -12
 6411              		.cfi_offset 3, -16
 6412              		.loc 1 1279 0
 6413 0002 B0F97430 		ldrsh	r3, [r0, #116]
 6414              		.loc 1 1278 0
 6415 0006 0446     		mov	r4, r0
 6416 0008 0D46     		mov	r5, r1
 6417              		.loc 1 1280 0
 6418 000a 406E     		ldr	r0, [r0, #100]	@ float
 6419              	.LVL483:
ARM GAS  /tmp/ccdUEzgz.s 			page 114


 6420 000c 0021     		movs	r1, #0
 6421              	.LVL484:
 6422              		.loc 1 1279 0
 6423 000e 7BB9     		cbnz	r3, .L566
 6424              		.loc 1 1280 0
 6425 0010 C4F2C821 		movt	r1, 17096
 6426 0014 FFF7FEFF 		bl	__aeabi_fcmpgt
 6427 0018 A0B9     		cbnz	r0, .L575
 6428              	.L567:
 6429              		.loc 1 1291 0
 6430 001a A368     		ldr	r3, [r4, #8]
 6431 001c 13B1     		cbz	r3, .L570
 6432              		.loc 1 1293 0
 6433 001e B3F93020 		ldrsh	r2, [r3, #48]
 6434 0022 22B9     		cbnz	r2, .L565
 6435              	.L570:
 6436              		.loc 1 1298 0
 6437 0024 B4F97430 		ldrsh	r3, [r4, #116]
 6438 0028 83B9     		cbnz	r3, .L576
 6439              		.loc 1 1309 0
 6440 002a FF20     		movs	r0, #255
 6441 002c A082     		strh	r0, [r4, #20]	@ movhi
 6442              	.L565:
 6443 002e 38BD     		pop	{r3, r4, r5, pc}
 6444              	.L566:
 6445              		.loc 1 1285 0
 6446 0030 C4F2B421 		movt	r1, 17076
 6447 0034 FFF7FEFF 		bl	__aeabi_fcmplt
 6448 0038 0028     		cmp	r0, #0
 6449 003a EED0     		beq	.L567
 6450              		.loc 1 1286 0
 6451 003c 0021     		movs	r1, #0
 6452 003e A4F87410 		strh	r1, [r4, #116]	@ movhi
 6453 0042 EAE7     		b	.L567
 6454              	.L575:
 6455              		.loc 1 1281 0
 6456 0044 0120     		movs	r0, #1
 6457 0046 A4F87400 		strh	r0, [r4, #116]	@ movhi
 6458 004a E6E7     		b	.L567
 6459              	.L576:
 6460              		.loc 1 1302 0
 6461 004c E16D     		ldr	r1, [r4, #92]	@ float
 6462              		.loc 1 1304 0
 6463 004e 2046     		mov	r0, r4
 6464              		.loc 1 1302 0
 6465 0050 2166     		str	r1, [r4, #96]	@ float
 6466              		.loc 1 1304 0
 6467 0052 2946     		mov	r1, r5
 6468 0054 FFF7FEFF 		bl	SmartMotorSafeCommand
 6469 0058 A082     		strh	r0, [r4, #20]	@ movhi
 6470 005a 38BD     		pop	{r3, r4, r5, pc}
 6471              		.cfi_endproc
 6472              	.LFE103:
 6473              		.size	SmartMotorMonitorPtc, .-SmartMotorMonitorPtc
 6474              		.global	__aeabi_dcmpgt
 6475 005c AFF30080 		.section	.text.SmartMotorControllerMonitorPtc,"ax",%progbits
 6476              		.align	2
ARM GAS  /tmp/ccdUEzgz.s 			page 115


 6477              		.p2align 4,,15
 6478              		.global	SmartMotorControllerMonitorPtc
 6479              		.thumb
 6480              		.thumb_func
 6481              		.type	SmartMotorControllerMonitorPtc, %function
 6482              	SmartMotorControllerMonitorPtc:
 6483              	.LFB104:
 6484              		.loc 1 1327 0
 6485              		.cfi_startproc
 6486              		@ args = 0, pretend = 0, frame = 0
 6487              		@ frame_needed = 0, uses_anonymous_args = 0
 6488              	.LVL485:
 6489              		.loc 1 1331 0
 6490 0000 B0F93030 		ldrsh	r3, [r0, #48]
 6491              		.loc 1 1327 0
 6492 0004 2DE9F041 		push	{r4, r5, r6, r7, r8, lr}
 6493              	.LCFI26:
 6494              		.cfi_def_cfa_offset 24
 6495              		.cfi_offset 14, -4
 6496              		.cfi_offset 8, -8
 6497              		.cfi_offset 7, -12
 6498              		.cfi_offset 6, -16
 6499              		.cfi_offset 5, -20
 6500              		.cfi_offset 4, -24
 6501              		.loc 1 1327 0
 6502 0008 0446     		mov	r4, r0
 6503 000a 0F46     		mov	r7, r1
 6504              		.loc 1 1332 0
 6505 000c 006A     		ldr	r0, [r0, #32]	@ float
 6506              	.LVL486:
 6507 000e 0021     		movs	r1, #0
 6508              	.LVL487:
 6509              		.loc 1 1331 0
 6510 0010 002B     		cmp	r3, #0
 6511 0012 40F0B880 		bne	.L578
 6512              		.loc 1 1332 0
 6513 0016 C4F2C821 		movt	r1, 17096
 6514 001a FFF7FEFF 		bl	__aeabi_fcmpgt
 6515 001e 0028     		cmp	r0, #0
 6516 0020 00F0AF80 		beq	.L577
 6517              		.loc 1 1333 0
 6518 0024 0120     		movs	r0, #1
 6519 0026 2086     		strh	r0, [r4, #48]	@ movhi
 6520              	.L581:
 6521              	.LVL488:
 6522              	.LBB234:
 6523              		.loc 1 1351 0
 6524 0028 2668     		ldr	r6, [r4, #0]
 6525              	.LVL489:
 6526              		.loc 1 1352 0
 6527 002a B046     		mov	r8, r6
 6528 002c 76B1     		cbz	r6, .L583
 6529              		.loc 1 1354 0
 6530 002e 326D     		ldr	r2, [r6, #80]
 6531 0030 22F00040 		bic	r0, r2, #-2147483648
 6532 0034 FFF7FEFF 		bl	__aeabi_f2d
 6533              	.LVL490:
ARM GAS  /tmp/ccdUEzgz.s 			page 116


 6534 0038 69A3     		adr	r3, .L624
 6535 003a D3E90023 		ldrd	r2, [r3]
 6536 003e FFF7FEFF 		bl	__aeabi_dcmpgt
 6537 0042 10F10008 		adds	r8, r0, #0
 6538 0046 18BF     		it	ne
 6539 0048 4FF00108 		movne	r8, #1
 6540              	.L583:
 6541              	.LVL491:
 6542              		.loc 1 1351 0
 6543 004c 6568     		ldr	r5, [r4, #4]
 6544              	.LVL492:
 6545              		.loc 1 1352 0
 6546 004e 65B1     		cbz	r5, .L585
 6547              		.loc 1 1354 0
 6548 0050 2B6D     		ldr	r3, [r5, #80]
 6549 0052 23F00040 		bic	r0, r3, #-2147483648
 6550 0056 FFF7FEFF 		bl	__aeabi_f2d
 6551              	.LVL493:
 6552 005a 61A3     		adr	r3, .L624
 6553 005c D3E90023 		ldrd	r2, [r3]
 6554 0060 FFF7FEFF 		bl	__aeabi_dcmpgt
 6555 0064 0028     		cmp	r0, #0
 6556 0066 40F0A580 		bne	.L620
 6557              	.L585:
 6558              	.LVL494:
 6559              		.loc 1 1351 0
 6560 006a A368     		ldr	r3, [r4, #8]
 6561              	.LVL495:
 6562              		.loc 1 1352 0
 6563 006c 63B1     		cbz	r3, .L587
 6564              		.loc 1 1354 0
 6565 006e 186D     		ldr	r0, [r3, #80]
 6566 0070 20F00040 		bic	r0, r0, #-2147483648
 6567 0074 FFF7FEFF 		bl	__aeabi_f2d
 6568              	.LVL496:
 6569 0078 59A3     		adr	r3, .L624
 6570 007a D3E90023 		ldrd	r2, [r3]
 6571 007e FFF7FEFF 		bl	__aeabi_dcmpgt
 6572 0082 0028     		cmp	r0, #0
 6573 0084 40F09380 		bne	.L621
 6574              	.L587:
 6575              	.LVL497:
 6576              		.loc 1 1351 0
 6577 0088 E368     		ldr	r3, [r4, #12]
 6578              	.LVL498:
 6579              		.loc 1 1352 0
 6580 008a 63B1     		cbz	r3, .L589
 6581              		.loc 1 1354 0
 6582 008c 196D     		ldr	r1, [r3, #80]
 6583 008e 21F00040 		bic	r0, r1, #-2147483648
 6584 0092 FFF7FEFF 		bl	__aeabi_f2d
 6585              	.LVL499:
 6586 0096 52A3     		adr	r3, .L624
 6587 0098 D3E90023 		ldrd	r2, [r3]
 6588 009c FFF7FEFF 		bl	__aeabi_dcmpgt
 6589 00a0 0028     		cmp	r0, #0
 6590 00a2 40F08180 		bne	.L622
ARM GAS  /tmp/ccdUEzgz.s 			page 117


 6591              	.L589:
 6592              	.LVL500:
 6593              		.loc 1 1351 0
 6594 00a6 2369     		ldr	r3, [r4, #16]
 6595              	.LVL501:
 6596              		.loc 1 1352 0
 6597 00a8 5BB1     		cbz	r3, .L591
 6598              		.loc 1 1354 0
 6599 00aa 1A6D     		ldr	r2, [r3, #80]
 6600 00ac 22F00040 		bic	r0, r2, #-2147483648
 6601 00b0 FFF7FEFF 		bl	__aeabi_f2d
 6602              	.LVL502:
 6603 00b4 4AA3     		adr	r3, .L624
 6604 00b6 D3E90023 		ldrd	r2, [r3]
 6605 00ba FFF7FEFF 		bl	__aeabi_dcmpgt
 6606 00be 0028     		cmp	r0, #0
 6607 00c0 7BD1     		bne	.L623
 6608              	.L591:
 6609              	.LVL503:
 6610              		.loc 1 1360 0
 6611 00c2 4FF07E51 		mov	r1, #1065353216
 6612 00c6 B8F1000F 		cmp	r8, #0
 6613 00ca 78D1     		bne	.L593
 6614              	.L594:
 6615              	.LVL504:
 6616              		.loc 1 1364 0
 6617 00cc E069     		ldr	r0, [r4, #28]	@ float
 6618 00ce FFF7FEFF 		bl	__aeabi_fdiv
 6619 00d2 8046     		mov	r8, r0
 6620              	.LVL505:
 6621              		.loc 1 1369 0
 6622 00d4 5EB1     		cbz	r6, .L595
 6623              		.loc 1 1374 0
 6624 00d6 B6F97450 		ldrsh	r5, [r6, #116]
 6625 00da 002D     		cmp	r5, #0
 6626 00dc 74D1     		bne	.L596
 6627              		.loc 1 1377 0
 6628 00de 0546     		mov	r5, r0
 6629              	.LVL506:
 6630              	.L597:
 6631              		.loc 1 1374 0
 6632 00e0 3566     		str	r5, [r6, #96]	@ float
 6633              		.loc 1 1379 0
 6634 00e2 3046     		mov	r0, r6
 6635 00e4 3946     		mov	r1, r7
 6636 00e6 FFF7FEFF 		bl	SmartMotorSafeCommand
 6637 00ea 6568     		ldr	r5, [r4, #4]
 6638 00ec B082     		strh	r0, [r6, #20]	@ movhi
 6639              	.L595:
 6640              	.LVL507:
 6641              		.loc 1 1369 0
 6642 00ee 85B1     		cbz	r5, .L598
 6643              		.loc 1 1374 0
 6644 00f0 B5F97460 		ldrsh	r6, [r5, #116]
 6645 00f4 002E     		cmp	r6, #0
 6646 00f6 55D0     		beq	.L617
 6647 00f8 EE6D     		ldr	r6, [r5, #92]	@ float
ARM GAS  /tmp/ccdUEzgz.s 			page 118


 6648 00fa 4146     		mov	r1, r8
 6649 00fc 3046     		mov	r0, r6
 6650 00fe FFF7FEFF 		bl	__aeabi_fcmplt
 6651 0102 0028     		cmp	r0, #0
 6652 0104 4ED0     		beq	.L617
 6653              	.L600:
 6654 0106 2E66     		str	r6, [r5, #96]	@ float
 6655              		.loc 1 1379 0
 6656 0108 2846     		mov	r0, r5
 6657 010a 3946     		mov	r1, r7
 6658 010c FFF7FEFF 		bl	SmartMotorSafeCommand
 6659 0110 A882     		strh	r0, [r5, #20]	@ movhi
 6660              	.L598:
 6661              	.LVL508:
 6662              		.loc 1 1368 0
 6663 0112 A568     		ldr	r5, [r4, #8]
 6664              	.LVL509:
 6665              		.loc 1 1369 0
 6666 0114 85B1     		cbz	r5, .L601
 6667              		.loc 1 1374 0
 6668 0116 B5F97430 		ldrsh	r3, [r5, #116]
 6669 011a 002B     		cmp	r3, #0
 6670 011c 3ED0     		beq	.L618
 6671 011e EE6D     		ldr	r6, [r5, #92]	@ float
 6672 0120 4146     		mov	r1, r8
 6673 0122 3046     		mov	r0, r6
 6674 0124 FFF7FEFF 		bl	__aeabi_fcmplt
 6675              	.LVL510:
 6676 0128 0028     		cmp	r0, #0
 6677 012a 37D0     		beq	.L618
 6678              	.L603:
 6679 012c 2E66     		str	r6, [r5, #96]	@ float
 6680              		.loc 1 1379 0
 6681 012e 2846     		mov	r0, r5
 6682 0130 3946     		mov	r1, r7
 6683 0132 FFF7FEFF 		bl	SmartMotorSafeCommand
 6684 0136 A882     		strh	r0, [r5, #20]	@ movhi
 6685              	.L601:
 6686              	.LVL511:
 6687              		.loc 1 1368 0
