ARM GAS  /tmp/ccAgm8Tg.s 			page 1


   1              		.syntax unified
   2              		.cpu cortex-m3
   3              		.fpu softvfp
   4              		.eabi_attribute 20, 1
   5              		.eabi_attribute 21, 1
   6              		.eabi_attribute 23, 3
   7              		.eabi_attribute 24, 1
   8              		.eabi_attribute 25, 1
   9              		.eabi_attribute 26, 1
  10              		.eabi_attribute 30, 2
  11              		.eabi_attribute 34, 1
  12              		.eabi_attribute 18, 4
  13              		.thumb
  14              		.file	"stm32_dma.c"
  15              		.text
  16              	.Ltext0:
  17              		.cfi_sections	.debug_frame
  18              		.section	.text.Vector6C,"ax",%progbits
  19              		.align	2
  20              		.p2align 4,,15
  21              		.global	Vector6C
  22              		.thumb
  23              		.thumb_func
  24              		.type	Vector6C, %function
  25              	Vector6C:
  26              	.LFB63:
  27              		.file 1 "../ChibiOS_2.6.2/os/hal/platforms/STM32F1xx/stm32_dma.c"
  28              		.loc 1 126 0
  29              		.cfi_startproc
  30              		@ args = 0, pretend = 0, frame = 0
  31              		@ frame_needed = 0, uses_anonymous_args = 0
  32              		.loc 1 131 0
  33 0000 0020     		movs	r0, #0
  34 0002 C4F20200 		movt	r0, 16386
  35              		.loc 1 133 0
  36 0006 40F20002 		movw	r2, #:lower16:.LANCHOR0
  37              		.loc 1 131 0
  38 000a 0168     		ldr	r1, [r0, #0]
  39              		.loc 1 133 0
  40 000c C0F20002 		movt	r2, #:upper16:.LANCHOR0
  41              		.loc 1 126 0
  42 0010 08B5     		push	{r3, lr}
  43              	.LCFI0:
  44              		.cfi_def_cfa_offset 8
  45              		.cfi_offset 14, -4
  46              		.cfi_offset 3, -8
  47              		.loc 1 133 0
  48 0012 1368     		ldr	r3, [r2, #0]
  49              		.loc 1 131 0
  50 0014 01F00F01 		and	r1, r1, #15
  51              	.LVL0:
  52              		.loc 1 132 0
  53 0018 4160     		str	r1, [r0, #4]
  54              		.loc 1 133 0
  55 001a 0BB1     		cbz	r3, .L2
  56              		.loc 1 134 0
  57 001c 5068     		ldr	r0, [r2, #4]
ARM GAS  /tmp/ccAgm8Tg.s 			page 2


  58 001e 9847     		blx	r3
  59              	.LVL1:
  60              	.L2:
  61              		.loc 1 137 0
  62 0020 BDE80840 		pop	{r3, lr}
  63              		.loc 1 136 0
  64 0024 FFF7FEBF 		b	_port_irq_epilogue
  65              		.cfi_endproc
  66              	.LFE63:
  67              		.size	Vector6C, .-Vector6C
  68 0028 AFF30080 		.section	.text.Vector70,"ax",%progbits
  68      AFF30080 
  69              		.align	2
  70              		.p2align 4,,15
  71              		.global	Vector70
  72              		.thumb
  73              		.thumb_func
  74              		.type	Vector70, %function
  75              	Vector70:
  76              	.LFB64:
  77              		.loc 1 144 0
  78              		.cfi_startproc
  79              		@ args = 0, pretend = 0, frame = 0
  80              		@ frame_needed = 0, uses_anonymous_args = 0
  81              		.loc 1 149 0
  82 0000 0020     		movs	r0, #0
  83 0002 C4F20200 		movt	r0, 16386
  84 0006 0168     		ldr	r1, [r0, #0]
  85              		.loc 1 151 0
  86 0008 40F20002 		movw	r2, #:lower16:.LANCHOR0
  87 000c C0F20002 		movt	r2, #:upper16:.LANCHOR0
  88              		.loc 1 149 0
  89 0010 C1F30311 		ubfx	r1, r1, #4, #4
  90              	.LVL2:
  91              		.loc 1 151 0
  92 0014 9368     		ldr	r3, [r2, #8]
  93              		.loc 1 144 0
  94 0016 10B5     		push	{r4, lr}
  95              	.LCFI1:
  96              		.cfi_def_cfa_offset 8
  97              		.cfi_offset 14, -4
  98              		.cfi_offset 4, -8
  99              		.loc 1 150 0
 100 0018 0C01     		lsls	r4, r1, #4
 101 001a 4460     		str	r4, [r0, #4]
 102              		.loc 1 151 0
 103 001c 0BB1     		cbz	r3, .L5
 104              		.loc 1 152 0
 105 001e D068     		ldr	r0, [r2, #12]
 106 0020 9847     		blx	r3
 107              	.LVL3:
 108              	.L5:
 109              		.loc 1 155 0
 110 0022 BDE81040 		pop	{r4, lr}
 111              		.loc 1 154 0
 112 0026 FFF7FEBF 		b	_port_irq_epilogue
 113              		.cfi_endproc
ARM GAS  /tmp/ccAgm8Tg.s 			page 3


 114              	.LFE64:
 115              		.size	Vector70, .-Vector70
 116 002a 00BFAFF3 		.section	.text.Vector74,"ax",%progbits
 116      0080
 117              		.align	2
 118              		.p2align 4,,15
 119              		.global	Vector74
 120              		.thumb
 121              		.thumb_func
 122              		.type	Vector74, %function
 123              	Vector74:
 124              	.LFB65:
 125              		.loc 1 162 0
 126              		.cfi_startproc
 127              		@ args = 0, pretend = 0, frame = 0
 128              		@ frame_needed = 0, uses_anonymous_args = 0
 129              		.loc 1 167 0
 130 0000 0020     		movs	r0, #0
 131 0002 C4F20200 		movt	r0, 16386
 132 0006 0168     		ldr	r1, [r0, #0]
 133              		.loc 1 169 0
 134 0008 40F20002 		movw	r2, #:lower16:.LANCHOR0
 135 000c C0F20002 		movt	r2, #:upper16:.LANCHOR0
 136              		.loc 1 167 0
 137 0010 C1F30321 		ubfx	r1, r1, #8, #4
 138              	.LVL4:
 139              		.loc 1 169 0
 140 0014 1369     		ldr	r3, [r2, #16]
 141              		.loc 1 162 0
 142 0016 10B5     		push	{r4, lr}
 143              	.LCFI2:
 144              		.cfi_def_cfa_offset 8
 145              		.cfi_offset 14, -4
 146              		.cfi_offset 4, -8
 147              		.loc 1 168 0
 148 0018 0C02     		lsls	r4, r1, #8
 149 001a 4460     		str	r4, [r0, #4]
 150              		.loc 1 169 0
 151 001c 0BB1     		cbz	r3, .L7
 152              		.loc 1 170 0
 153 001e 5069     		ldr	r0, [r2, #20]
 154 0020 9847     		blx	r3
 155              	.LVL5:
 156              	.L7:
 157              		.loc 1 173 0
 158 0022 BDE81040 		pop	{r4, lr}
 159              		.loc 1 172 0
 160 0026 FFF7FEBF 		b	_port_irq_epilogue
 161              		.cfi_endproc
 162              	.LFE65:
 163              		.size	Vector74, .-Vector74
 164 002a 00BFAFF3 		.section	.text.Vector78,"ax",%progbits
 164      0080
 165              		.align	2
 166              		.p2align 4,,15
 167              		.global	Vector78
 168              		.thumb
ARM GAS  /tmp/ccAgm8Tg.s 			page 4


 169              		.thumb_func
 170              		.type	Vector78, %function
 171              	Vector78:
 172              	.LFB66:
 173              		.loc 1 180 0
 174              		.cfi_startproc
 175              		@ args = 0, pretend = 0, frame = 0
 176              		@ frame_needed = 0, uses_anonymous_args = 0
 177              		.loc 1 185 0
 178 0000 0020     		movs	r0, #0
 179 0002 C4F20200 		movt	r0, 16386
 180 0006 0168     		ldr	r1, [r0, #0]
 181              		.loc 1 187 0
 182 0008 40F20002 		movw	r2, #:lower16:.LANCHOR0
 183 000c C0F20002 		movt	r2, #:upper16:.LANCHOR0
 184              		.loc 1 185 0
 185 0010 C1F30331 		ubfx	r1, r1, #12, #4
 186              	.LVL6:
 187              		.loc 1 187 0
 188 0014 9369     		ldr	r3, [r2, #24]
 189              		.loc 1 180 0
 190 0016 10B5     		push	{r4, lr}
 191              	.LCFI3:
 192              		.cfi_def_cfa_offset 8
 193              		.cfi_offset 14, -4
 194              		.cfi_offset 4, -8
 195              		.loc 1 186 0
 196 0018 0C03     		lsls	r4, r1, #12
 197 001a 4460     		str	r4, [r0, #4]
 198              		.loc 1 187 0
 199 001c 0BB1     		cbz	r3, .L9
 200              		.loc 1 188 0
 201 001e D069     		ldr	r0, [r2, #28]
 202 0020 9847     		blx	r3
 203              	.LVL7:
 204              	.L9:
 205              		.loc 1 191 0
 206 0022 BDE81040 		pop	{r4, lr}
 207              		.loc 1 190 0
 208 0026 FFF7FEBF 		b	_port_irq_epilogue
 209              		.cfi_endproc
 210              	.LFE66:
 211              		.size	Vector78, .-Vector78
 212 002a 00BFAFF3 		.section	.text.Vector7C,"ax",%progbits
 212      0080
 213              		.align	2
 214              		.p2align 4,,15
 215              		.global	Vector7C
 216              		.thumb
 217              		.thumb_func
 218              		.type	Vector7C, %function
 219              	Vector7C:
 220              	.LFB67:
 221              		.loc 1 198 0
 222              		.cfi_startproc
 223              		@ args = 0, pretend = 0, frame = 0
 224              		@ frame_needed = 0, uses_anonymous_args = 0
ARM GAS  /tmp/ccAgm8Tg.s 			page 5


 225              		.loc 1 203 0
 226 0000 0020     		movs	r0, #0
 227 0002 C4F20200 		movt	r0, 16386
 228 0006 0168     		ldr	r1, [r0, #0]
 229              		.loc 1 205 0
 230 0008 40F20002 		movw	r2, #:lower16:.LANCHOR0
 231 000c C0F20002 		movt	r2, #:upper16:.LANCHOR0
 232              		.loc 1 203 0
 233 0010 C1F30341 		ubfx	r1, r1, #16, #4
 234              	.LVL8:
 235              		.loc 1 205 0
 236 0014 136A     		ldr	r3, [r2, #32]
 237              		.loc 1 198 0
 238 0016 10B5     		push	{r4, lr}
 239              	.LCFI4:
 240              		.cfi_def_cfa_offset 8
 241              		.cfi_offset 14, -4
 242              		.cfi_offset 4, -8
 243              		.loc 1 204 0
 244 0018 0C04     		lsls	r4, r1, #16
 245 001a 4460     		str	r4, [r0, #4]
 246              		.loc 1 205 0
 247 001c 0BB1     		cbz	r3, .L11
 248              		.loc 1 206 0
 249 001e 506A     		ldr	r0, [r2, #36]
 250 0020 9847     		blx	r3
 251              	.LVL9:
 252              	.L11:
 253              		.loc 1 209 0
 254 0022 BDE81040 		pop	{r4, lr}
 255              		.loc 1 208 0
 256 0026 FFF7FEBF 		b	_port_irq_epilogue
 257              		.cfi_endproc
 258              	.LFE67:
 259              		.size	Vector7C, .-Vector7C
 260 002a 00BFAFF3 		.section	.text.Vector80,"ax",%progbits
 260      0080
 261              		.align	2
 262              		.p2align 4,,15
 263              		.global	Vector80
 264              		.thumb
 265              		.thumb_func
 266              		.type	Vector80, %function
 267              	Vector80:
 268              	.LFB68:
 269              		.loc 1 216 0
 270              		.cfi_startproc
 271              		@ args = 0, pretend = 0, frame = 0
 272              		@ frame_needed = 0, uses_anonymous_args = 0
 273              		.loc 1 221 0
 274 0000 0020     		movs	r0, #0
 275 0002 C4F20200 		movt	r0, 16386
 276 0006 0168     		ldr	r1, [r0, #0]
 277              		.loc 1 223 0
 278 0008 40F20002 		movw	r2, #:lower16:.LANCHOR0
 279 000c C0F20002 		movt	r2, #:upper16:.LANCHOR0
 280              		.loc 1 221 0
ARM GAS  /tmp/ccAgm8Tg.s 			page 6


 281 0010 C1F30351 		ubfx	r1, r1, #20, #4
 282              	.LVL10:
 283              		.loc 1 223 0
 284 0014 936A     		ldr	r3, [r2, #40]
 285              		.loc 1 216 0
 286 0016 10B5     		push	{r4, lr}
 287              	.LCFI5:
 288              		.cfi_def_cfa_offset 8
 289              		.cfi_offset 14, -4
 290              		.cfi_offset 4, -8
 291              		.loc 1 222 0
 292 0018 0C05     		lsls	r4, r1, #20
 293 001a 4460     		str	r4, [r0, #4]
 294              		.loc 1 223 0
 295 001c 0BB1     		cbz	r3, .L13
 296              		.loc 1 224 0
 297 001e D06A     		ldr	r0, [r2, #44]
 298 0020 9847     		blx	r3
 299              	.LVL11:
 300              	.L13:
 301              		.loc 1 227 0
 302 0022 BDE81040 		pop	{r4, lr}
 303              		.loc 1 226 0
 304 0026 FFF7FEBF 		b	_port_irq_epilogue
 305              		.cfi_endproc
 306              	.LFE68:
 307              		.size	Vector80, .-Vector80
 308 002a 00BFAFF3 		.section	.text.Vector84,"ax",%progbits
 308      0080
 309              		.align	2
 310              		.p2align 4,,15
 311              		.global	Vector84
 312              		.thumb
 313              		.thumb_func
 314              		.type	Vector84, %function
 315              	Vector84:
 316              	.LFB69:
 317              		.loc 1 234 0
 318              		.cfi_startproc
 319              		@ args = 0, pretend = 0, frame = 0
 320              		@ frame_needed = 0, uses_anonymous_args = 0
 321              		.loc 1 239 0
 322 0000 0020     		movs	r0, #0
 323 0002 C4F20200 		movt	r0, 16386
 324 0006 0168     		ldr	r1, [r0, #0]
 325              		.loc 1 241 0
 326 0008 40F20002 		movw	r2, #:lower16:.LANCHOR0
 327 000c C0F20002 		movt	r2, #:upper16:.LANCHOR0
 328              		.loc 1 239 0
 329 0010 C1F30361 		ubfx	r1, r1, #24, #4
 330              	.LVL12:
 331              		.loc 1 241 0
 332 0014 136B     		ldr	r3, [r2, #48]
 333              		.loc 1 234 0
 334 0016 10B5     		push	{r4, lr}
 335              	.LCFI6:
 336              		.cfi_def_cfa_offset 8
ARM GAS  /tmp/ccAgm8Tg.s 			page 7


 337              		.cfi_offset 14, -4
 338              		.cfi_offset 4, -8
 339              		.loc 1 240 0
 340 0018 0C06     		lsls	r4, r1, #24
 341 001a 4460     		str	r4, [r0, #4]
 342              		.loc 1 241 0
 343 001c 0BB1     		cbz	r3, .L15
 344              		.loc 1 242 0
 345 001e 506B     		ldr	r0, [r2, #52]
 346 0020 9847     		blx	r3
 347              	.LVL13:
 348              	.L15:
 349              		.loc 1 245 0
 350 0022 BDE81040 		pop	{r4, lr}
 351              		.loc 1 244 0
 352 0026 FFF7FEBF 		b	_port_irq_epilogue
 353              		.cfi_endproc
 354              	.LFE69:
 355              		.size	Vector84, .-Vector84
 356 002a 00BFAFF3 		.section	.text.Vector120,"ax",%progbits
 356      0080
 357              		.align	2
 358              		.p2align 4,,15
 359              		.global	Vector120
 360              		.thumb
 361              		.thumb_func
 362              		.type	Vector120, %function
 363              	Vector120:
 364              	.LFB70:
 365              		.loc 1 253 0
 366              		.cfi_startproc
 367              		@ args = 0, pretend = 0, frame = 0
 368              		@ frame_needed = 0, uses_anonymous_args = 0
 369              		.loc 1 258 0
 370 0000 4FF48060 		mov	r0, #1024
 371 0004 C4F20200 		movt	r0, 16386
 372              		.loc 1 260 0
 373 0008 40F20002 		movw	r2, #:lower16:.LANCHOR0
 374              		.loc 1 258 0
 375 000c 0168     		ldr	r1, [r0, #0]
 376              		.loc 1 260 0
 377 000e C0F20002 		movt	r2, #:upper16:.LANCHOR0
 378              		.loc 1 253 0
 379 0012 08B5     		push	{r3, lr}
 380              	.LCFI7:
 381              		.cfi_def_cfa_offset 8
 382              		.cfi_offset 14, -4
 383              		.cfi_offset 3, -8
 384              		.loc 1 260 0
 385 0014 936B     		ldr	r3, [r2, #56]
 386              		.loc 1 258 0
 387 0016 01F00F01 		and	r1, r1, #15
 388              	.LVL14:
 389              		.loc 1 259 0
 390 001a 4160     		str	r1, [r0, #4]
 391              		.loc 1 260 0
 392 001c 0BB1     		cbz	r3, .L17
ARM GAS  /tmp/ccAgm8Tg.s 			page 8


 393              		.loc 1 261 0
 394 001e D06B     		ldr	r0, [r2, #60]
 395 0020 9847     		blx	r3
 396              	.LVL15:
 397              	.L17:
 398              		.loc 1 264 0
 399 0022 BDE80840 		pop	{r3, lr}
 400              		.loc 1 263 0
 401 0026 FFF7FEBF 		b	_port_irq_epilogue
 402              		.cfi_endproc
 403              	.LFE70:
 404              		.size	Vector120, .-Vector120
 405 002a 00BFAFF3 		.section	.text.Vector124,"ax",%progbits
 405      0080
 406              		.align	2
 407              		.p2align 4,,15
 408              		.global	Vector124
 409              		.thumb
 410              		.thumb_func
 411              		.type	Vector124, %function
 412              	Vector124:
 413              	.LFB71:
 414              		.loc 1 271 0
 415              		.cfi_startproc
 416              		@ args = 0, pretend = 0, frame = 0
 417              		@ frame_needed = 0, uses_anonymous_args = 0
 418              		.loc 1 276 0
 419 0000 4FF48060 		mov	r0, #1024
 420 0004 C4F20200 		movt	r0, 16386
 421 0008 0168     		ldr	r1, [r0, #0]
 422              		.loc 1 278 0
 423 000a 40F20002 		movw	r2, #:lower16:.LANCHOR0
 424 000e C0F20002 		movt	r2, #:upper16:.LANCHOR0
 425              		.loc 1 276 0
 426 0012 C1F30311 		ubfx	r1, r1, #4, #4
 427              	.LVL16:
 428              		.loc 1 278 0
 429 0016 136C     		ldr	r3, [r2, #64]
 430              		.loc 1 271 0
 431 0018 10B5     		push	{r4, lr}
 432              	.LCFI8:
 433              		.cfi_def_cfa_offset 8
 434              		.cfi_offset 14, -4
 435              		.cfi_offset 4, -8
 436              		.loc 1 277 0
 437 001a 0C01     		lsls	r4, r1, #4
 438 001c 4460     		str	r4, [r0, #4]
 439              		.loc 1 278 0
 440 001e 0BB1     		cbz	r3, .L19
 441              		.loc 1 279 0
 442 0020 506C     		ldr	r0, [r2, #68]
 443 0022 9847     		blx	r3
 444              	.LVL17:
 445              	.L19:
 446              		.loc 1 282 0
 447 0024 BDE81040 		pop	{r4, lr}
 448              		.loc 1 281 0
ARM GAS  /tmp/ccAgm8Tg.s 			page 9


 449 0028 FFF7FEBF 		b	_port_irq_epilogue
 450              		.cfi_endproc
 451              	.LFE71:
 452              		.size	Vector124, .-Vector124
 453 002c AFF30080 		.section	.text.Vector128,"ax",%progbits
 454              		.align	2
 455              		.p2align 4,,15
 456              		.global	Vector128
 457              		.thumb
 458              		.thumb_func
 459              		.type	Vector128, %function
 460              	Vector128:
 461              	.LFB72:
 462              		.loc 1 289 0
 463              		.cfi_startproc
 464              		@ args = 0, pretend = 0, frame = 0
 465              		@ frame_needed = 0, uses_anonymous_args = 0
 466              		.loc 1 294 0
 467 0000 4FF48060 		mov	r0, #1024
 468 0004 C4F20200 		movt	r0, 16386
 469 0008 0168     		ldr	r1, [r0, #0]
 470              		.loc 1 296 0
 471 000a 40F20002 		movw	r2, #:lower16:.LANCHOR0
 472 000e C0F20002 		movt	r2, #:upper16:.LANCHOR0
 473              		.loc 1 294 0
 474 0012 C1F30321 		ubfx	r1, r1, #8, #4
 475              	.LVL18:
 476              		.loc 1 296 0
 477 0016 936C     		ldr	r3, [r2, #72]
 478              		.loc 1 289 0
 479 0018 10B5     		push	{r4, lr}
 480              	.LCFI9:
 481              		.cfi_def_cfa_offset 8
 482              		.cfi_offset 14, -4
 483              		.cfi_offset 4, -8
 484              		.loc 1 295 0
 485 001a 0C02     		lsls	r4, r1, #8
 486 001c 4460     		str	r4, [r0, #4]
 487              		.loc 1 296 0
 488 001e 0BB1     		cbz	r3, .L21
 489              		.loc 1 297 0
 490 0020 D06C     		ldr	r0, [r2, #76]
 491 0022 9847     		blx	r3
 492              	.LVL19:
 493              	.L21:
 494              		.loc 1 300 0
 495 0024 BDE81040 		pop	{r4, lr}
 496              		.loc 1 299 0
 497 0028 FFF7FEBF 		b	_port_irq_epilogue
 498              		.cfi_endproc
 499              	.LFE72:
 500              		.size	Vector128, .-Vector128
 501 002c AFF30080 		.section	.text.Vector12C,"ax",%progbits
 502              		.align	2
 503              		.p2align 4,,15
 504              		.global	Vector12C
 505              		.thumb
ARM GAS  /tmp/ccAgm8Tg.s 			page 10


 506              		.thumb_func
 507              		.type	Vector12C, %function
 508              	Vector12C:
 509              	.LFB73:
 510              		.loc 1 346 0
 511              		.cfi_startproc
 512              		@ args = 0, pretend = 0, frame = 0
 513              		@ frame_needed = 0, uses_anonymous_args = 0
 514              		.loc 1 352 0
 515 0000 4FF48062 		mov	r2, #1024
 516 0004 C4F20202 		movt	r2, 16386
 517 0008 1168     		ldr	r1, [r2, #0]
 518              		.loc 1 346 0
 519 000a 10B5     		push	{r4, lr}
 520              	.LCFI10:
 521              		.cfi_def_cfa_offset 8
 522              		.cfi_offset 14, -4
 523              		.cfi_offset 4, -8
 524              		.loc 1 352 0
 525 000c C1F30331 		ubfx	r1, r1, #12, #4
 526              	.LVL20:
 527              		.loc 1 353 0
 528 0010 49B1     		cbz	r1, .L23
 529              		.loc 1 355 0
 530 0012 40F20000 		movw	r0, #:lower16:.LANCHOR0
 531 0016 C0F20000 		movt	r0, #:upper16:.LANCHOR0
 532 001a 036D     		ldr	r3, [r0, #80]
 533              		.loc 1 354 0
 534 001c 0C03     		lsls	r4, r1, #12
 535 001e 5460     		str	r4, [r2, #4]
 536              		.loc 1 355 0
 537 0020 0BB1     		cbz	r3, .L23
 538              		.loc 1 356 0
 539 0022 406D     		ldr	r0, [r0, #84]
 540 0024 9847     		blx	r3
 541              	.LVL21:
 542              	.L23:
 543              		.loc 1 360 0
 544 0026 4FF48062 		mov	r2, #1024
 545 002a C4F20202 		movt	r2, 16386
 546 002e 1068     		ldr	r0, [r2, #0]
 547 0030 C0F30341 		ubfx	r1, r0, #16, #4
 548              	.LVL22:
 549              		.loc 1 361 0
 550 0034 49B1     		cbz	r1, .L24
 551              		.loc 1 363 0
 552 0036 40F20000 		movw	r0, #:lower16:.LANCHOR0
 553 003a C0F20000 		movt	r0, #:upper16:.LANCHOR0
 554 003e 836D     		ldr	r3, [r0, #88]
 555              		.loc 1 362 0
 556 0040 0C04     		lsls	r4, r1, #16
 557 0042 5460     		str	r4, [r2, #4]
 558              		.loc 1 363 0
 559 0044 0BB1     		cbz	r3, .L24
 560              		.loc 1 364 0
 561 0046 C06D     		ldr	r0, [r0, #92]
 562 0048 9847     		blx	r3
ARM GAS  /tmp/ccAgm8Tg.s 			page 11


 563              	.LVL23:
 564              	.L24:
 565              		.loc 1 368 0
 566 004a BDE81040 		pop	{r4, lr}
 567              		.loc 1 367 0
 568 004e FFF7FEBF 		b	_port_irq_epilogue
 569              		.cfi_endproc
 570              	.LFE73:
 571              		.size	Vector12C, .-Vector12C
 572 0052 00BFAFF3 		.section	.text.dmaInit,"ax",%progbits
 572      0080AFF3 
 572      0080AFF3 
 572      0080
 573              		.align	2
 574              		.p2align 4,,15
 575              		.global	dmaInit
 576              		.thumb
 577              		.thumb_func
 578              		.type	dmaInit, %function
 579              	dmaInit:
 580              	.LFB74:
 581              		.loc 1 381 0
 582              		.cfi_startproc
 583              		@ args = 0, pretend = 0, frame = 24
 584              		@ frame_needed = 0, uses_anonymous_args = 0
 585              		@ link register save eliminated.
 586 0000 2DE9F00F 		push	{r4, r5, r6, r7, r8, r9, sl, fp}
 587              	.LCFI11:
 588              		.cfi_def_cfa_offset 32
 589              		.cfi_offset 11, -4
 590              		.cfi_offset 10, -8
 591              		.cfi_offset 9, -12
 592              		.cfi_offset 8, -16
 593              		.cfi_offset 7, -20
 594              		.cfi_offset 6, -24
 595              		.cfi_offset 5, -28
 596              		.cfi_offset 4, -32
 597              		.loc 1 384 0
 598 0004 40F20001 		movw	r1, #:lower16:.LANCHOR1
 599              		.loc 1 381 0
 600 0008 86B0     		sub	sp, sp, #24
 601              	.LCFI12:
 602              		.cfi_def_cfa_offset 56
 603              		.loc 1 384 0
 604 000a C0F20001 		movt	r1, #:upper16:.LANCHOR1
 605              		.loc 1 386 0
 606 000e 4FF48662 		mov	r2, #1072
 607              		.loc 1 384 0
 608 0012 0391     		str	r1, [sp, #12]
 609              		.loc 1 386 0
 610 0014 C4F20202 		movt	r2, 16386
 611 0018 40F24441 		movw	r1, #1092
 612 001c 0292     		str	r2, [sp, #8]
 613 001e C4F20201 		movt	r1, 16386
 614              		.loc 1 389 0
 615 0022 0022     		movs	r2, #0
 616              		.loc 1 386 0
ARM GAS  /tmp/ccAgm8Tg.s 			page 12


 617 0024 0191     		str	r1, [sp, #4]
 618              		.loc 1 389 0
 619 0026 C4F20202 		movt	r2, 16386
 620              		.loc 1 391 0
 621 002a 4FF48061 		mov	r1, #1024
 622              		.loc 1 389 0
 623 002e 0492     		str	r2, [sp, #16]
 624              		.loc 1 391 0
 625 0030 C4F20201 		movt	r1, 16386
 626              		.loc 1 384 0
 627 0034 039A     		ldr	r2, [sp, #12]
 628              		.loc 1 386 0
 629 0036 4FF0080A 		mov	sl, #8
 630              		.loc 1 387 0
 631 003a 40F20003 		movw	r3, #:lower16:.LANCHOR0
 632              		.loc 1 386 0
 633 003e 4FF01C09 		mov	r9, #28
 634 0042 4FF03008 		mov	r8, #48
 635 0046 4FF0440C 		mov	ip, #68
 636 004a 5827     		movs	r7, #88
 637 004c 6C26     		movs	r6, #108
 638 004e 8025     		movs	r5, #128
 639 0050 4FF48164 		mov	r4, #1032
 640 0054 40F21C40 		movw	r0, #1052
 641              		.loc 1 391 0
 642 0058 0591     		str	r1, [sp, #20]
 643              		.loc 1 387 0
 644 005a C0F20003 		movt	r3, #:upper16:.LANCHOR0
 645              		.loc 1 384 0
 646 005e 0021     		movs	r1, #0
 647              		.loc 1 386 0
 648 0060 C4F20200 		movt	r0, 16386
 649 0064 C4F2020A 		movt	sl, 16386
 650 0068 C4F20209 		movt	r9, 16386
 651 006c C4F20208 		movt	r8, 16386
 652 0070 C4F2020C 		movt	ip, 16386
 653 0074 C4F20207 		movt	r7, 16386
 654 0078 C4F20206 		movt	r6, 16386
 655 007c C4F20205 		movt	r5, 16386
 656 0080 C4F20204 		movt	r4, 16386
 657              		.loc 1 384 0
 658 0084 1160     		str	r1, [r2, #0]
 659              	.LVL24:
 660              		.loc 1 386 0
 661 0086 4FF48B6B 		mov	fp, #1112
 662 008a CAF80010 		str	r1, [sl, #0]
 663 008e 029A     		ldr	r2, [sp, #8]
 664              		.loc 1 387 0
 665 0090 1960     		str	r1, [r3, #0]
 666              	.LVL25:
 667              		.loc 1 386 0
 668 0092 C9F80010 		str	r1, [r9, #0]
 669              		.loc 1 387 0
 670 0096 9960     		str	r1, [r3, #8]
 671              	.LVL26:
 672              		.loc 1 386 0
 673 0098 C8F80010 		str	r1, [r8, #0]
ARM GAS  /tmp/ccAgm8Tg.s 			page 13


 674              		.loc 1 387 0
 675 009c 1961     		str	r1, [r3, #16]
 676              	.LVL27:
 677              		.loc 1 386 0
 678 009e CCF80010 		str	r1, [ip, #0]
 679              		.loc 1 387 0
 680 00a2 9961     		str	r1, [r3, #24]
 681              	.LVL28:
 682              		.loc 1 386 0
 683 00a4 3960     		str	r1, [r7, #0]
 684              		.loc 1 387 0
 685 00a6 1962     		str	r1, [r3, #32]
 686              	.LVL29:
 687              		.loc 1 386 0
 688 00a8 3160     		str	r1, [r6, #0]
 689              		.loc 1 387 0
 690 00aa 9962     		str	r1, [r3, #40]
 691              	.LVL30:
 692              		.loc 1 386 0
 693 00ac 2960     		str	r1, [r5, #0]
 694              		.loc 1 387 0
 695 00ae 1963     		str	r1, [r3, #48]
 696              	.LVL31:
 697              		.loc 1 386 0
 698 00b0 2160     		str	r1, [r4, #0]
 699              		.loc 1 387 0
 700 00b2 9963     		str	r1, [r3, #56]
 701              	.LVL32:
 702              		.loc 1 386 0
 703 00b4 0160     		str	r1, [r0, #0]
 704 00b6 0198     		ldr	r0, [sp, #4]
 705 00b8 C4F2020B 		movt	fp, 16386
 706              		.loc 1 387 0
 707 00bc 1964     		str	r1, [r3, #64]
 708              	.LVL33:
 709              		.loc 1 386 0
 710 00be 1160     		str	r1, [r2, #0]
 711              		.loc 1 387 0
 712 00c0 9964     		str	r1, [r3, #72]
 713              	.LVL34:
 714              		.loc 1 386 0
 715 00c2 0160     		str	r1, [r0, #0]
 716              		.loc 1 387 0
 717 00c4 1965     		str	r1, [r3, #80]
 718              	.LVL35:
 719              		.loc 1 386 0
 720 00c6 CBF80010 		str	r1, [fp, #0]
 721              		.loc 1 387 0
 722 00ca 9965     		str	r1, [r3, #88]
 723              	.LVL36:
 724              		.loc 1 389 0
 725 00cc 0499     		ldr	r1, [sp, #16]
 726              		.loc 1 391 0
 727 00ce 059A     		ldr	r2, [sp, #20]
 728              		.loc 1 389 0
 729 00d0 4FF0FF33 		mov	r3, #-1
 730 00d4 4B60     		str	r3, [r1, #4]
ARM GAS  /tmp/ccAgm8Tg.s 			page 14


 731              		.loc 1 391 0
 732 00d6 5360     		str	r3, [r2, #4]
 733              		.loc 1 393 0
 734 00d8 06B0     		add	sp, sp, #24
 735 00da BDE8F00F 		pop	{r4, r5, r6, r7, r8, r9, sl, fp}
 736 00de 7047     		bx	lr
 737              		.cfi_endproc
 738              	.LFE74:
 739              		.size	dmaInit, .-dmaInit
 740              		.section	.text.dmaStreamAllocate,"ax",%progbits
 741              		.align	2
 742              		.p2align 4,,15
 743              		.global	dmaStreamAllocate
 744              		.thumb
 745              		.thumb_func
 746              		.type	dmaStreamAllocate, %function
 747              	dmaStreamAllocate:
 748              	.LFB75:
 749              		.loc 1 422 0
 750              		.cfi_startproc
 751              		@ args = 0, pretend = 0, frame = 0
 752              		@ frame_needed = 0, uses_anonymous_args = 0
 753              	.LVL37:
 754 0000 2DE9F041 		push	{r4, r5, r6, r7, r8, lr}
 755              	.LCFI13:
 756              		.cfi_def_cfa_offset 24
 757              		.cfi_offset 14, -4
 758              		.cfi_offset 8, -8
 759              		.cfi_offset 7, -12
 760              		.cfi_offset 6, -16
 761              		.cfi_offset 5, -20
 762              		.cfi_offset 4, -24
 763              		.loc 1 427 0
 764 0004 457A     		ldrb	r5, [r0, #9]	@ zero_extendqisi2
 765 0006 4FF0010C 		mov	ip, #1
 766 000a 0CFA05F7 		lsl	r7, ip, r5
 767 000e 40F20004 		movw	r4, #:lower16:.LANCHOR1
 768 0012 C0F20004 		movt	r4, #:upper16:.LANCHOR1
 769 0016 2668     		ldr	r6, [r4, #0]
 770 0018 3742     		tst	r7, r6
 771 001a 38D1     		bne	.L30
 772              		.loc 1 431 0
 773 001c 40F2000C 		movw	ip, #:lower16:.LANCHOR0
 774              		.loc 1 433 0
 775 0020 3E43     		orrs	r6, r6, r7
 776              		.loc 1 431 0
 777 0022 C0F2000C 		movt	ip, #:upper16:.LANCHOR0
 778 0026 4CF83520 		str	r2, [ip, r5, lsl #3]
 779              		.loc 1 432 0
 780 002a 0CEBC508 		add	r8, ip, r5, lsl #3
 781              		.loc 1 436 0
 782 002e 7506     		lsls	r5, r6, #25
 783              		.loc 1 437 0
 784 0030 18BF     		it	ne
 785 0032 4FF48055 		movne	r5, #4096
 786              		.loc 1 433 0
 787 0036 2660     		str	r6, [r4, #0]
ARM GAS  /tmp/ccAgm8Tg.s 			page 15


 788              		.loc 1 437 0
 789 0038 1CBF     		itt	ne
 790 003a C4F20205 		movtne	r5, 16386
 791 003e 6C69     		ldrne	r4, [r5, #20]
 792              		.loc 1 432 0
 793 0040 C8F80430 		str	r3, [r8, #4]
 794              		.loc 1 437 0
 795 0044 1CBF     		itt	ne
 796 0046 44F00104 		orrne	r4, r4, #1
 797 004a 6C61     		strne	r4, [r5, #20]
 798              		.loc 1 439 0
 799 004c 16F4786F 		tst	r6, #3968
 800              		.loc 1 440 0
 801 0050 1EBF     		ittt	ne
 802 0052 4FF48055 		movne	r5, #4096
 803 0056 C4F20205 		movtne	r5, 16386
 804 005a 6C69     		ldrne	r4, [r5, #20]
 805              		.loc 1 444 0
 806 005c 0368     		ldr	r3, [r0, #0]
 807              	.LVL38:
 808              		.loc 1 440 0
 809 005e 1CBF     		itt	ne
 810 0060 44F00204 		orrne	r4, r4, #2
 811 0064 6C61     		strne	r4, [r5, #20]
 812              		.loc 1 444 0
 813 0066 1F68     		ldr	r7, [r3, #0]
 814 0068 4568     		ldr	r5, [r0, #4]
 815 006a 27F00F04 		bic	r4, r7, #15
 816 006e 1C60     		str	r4, [r3, #0]
 817 0070 067A     		ldrb	r6, [r0, #8]	@ zero_extendqisi2
 818 0072 0F27     		movs	r7, #15
 819 0074 07FA06F6 		lsl	r6, r7, r6
 820              		.loc 1 445 0
 821 0078 0024     		movs	r4, #0
 822              		.loc 1 444 0
 823 007a 2E60     		str	r6, [r5, #0]
 824              		.loc 1 445 0
 825 007c 1C60     		str	r4, [r3, #0]
 826              		.loc 1 448 0
 827 007e 4AB1     		cbz	r2, .L31
 828              		.loc 1 449 0
 829 0080 807A     		ldrb	r0, [r0, #10]	@ zero_extendqisi2
 830              	.LVL39:
 831 0082 0901     		lsls	r1, r1, #4
 832              	.LVL40:
 833 0084 FFF7FEFF 		bl	nvicEnableVector
 834              	.LVL41:
 835              		.loc 1 451 0
 836 0088 2046     		mov	r0, r4
 837 008a BDE8F081 		pop	{r4, r5, r6, r7, r8, pc}
 838              	.LVL42:
 839              	.L30:
 840              		.loc 1 428 0
 841 008e 6046     		mov	r0, ip
 842              	.LVL43:
 843 0090 BDE8F081 		pop	{r4, r5, r6, r7, r8, pc}
 844              	.LVL44:
ARM GAS  /tmp/ccAgm8Tg.s 			page 16


 845              	.L31:
 846              		.loc 1 451 0
 847 0094 1046     		mov	r0, r2
 848              	.LVL45:
 849              		.loc 1 452 0
 850 0096 BDE8F081 		pop	{r4, r5, r6, r7, r8, pc}
 851              		.cfi_endproc
 852              	.LFE75:
 853              		.size	dmaStreamAllocate, .-dmaStreamAllocate
 854 009a 00BFAFF3 		.section	.text.dmaStreamRelease,"ax",%progbits
 854      0080
 855              		.align	2
 856              		.p2align 4,,15
 857              		.global	dmaStreamRelease
 858              		.thumb
 859              		.thumb_func
 860              		.type	dmaStreamRelease, %function
 861              	dmaStreamRelease:
 862              	.LFB76:
 863              		.loc 1 467 0
 864              		.cfi_startproc
 865              		@ args = 0, pretend = 0, frame = 0
 866              		@ frame_needed = 0, uses_anonymous_args = 0
 867              	.LVL46:
 868 0000 10B5     		push	{r4, lr}
 869              	.LCFI14:
 870              		.cfi_def_cfa_offset 8
 871              		.cfi_offset 14, -4
 872              		.cfi_offset 4, -8
 873              		.loc 1 467 0
 874 0002 0446     		mov	r4, r0
 875              		.loc 1 476 0
 876 0004 807A     		ldrb	r0, [r0, #10]	@ zero_extendqisi2
 877              	.LVL47:
 878 0006 FFF7FEFF 		bl	nvicDisableVector
 879              		.loc 1 479 0
 880 000a 94F809C0 		ldrb	ip, [r4, #9]	@ zero_extendqisi2
 881 000e 0121     		movs	r1, #1
 882 0010 01FA0CF0 		lsl	r0, r1, ip
 883 0014 40F20003 		movw	r3, #:lower16:.LANCHOR1
 884 0018 C0F20003 		movt	r3, #:upper16:.LANCHOR1
 885 001c 1A68     		ldr	r2, [r3, #0]
 886 001e 22EA0002 		bic	r2, r2, r0
 887              		.loc 1 482 0
 888 0022 5106     		lsls	r1, r2, #25
 889              		.loc 1 479 0
 890 0024 1A60     		str	r2, [r3, #0]
 891              		.loc 1 483 0
 892 0026 01BF     		itttt	eq
 893 0028 4FF48053 		moveq	r3, #4096
 894 002c C4F20203 		movteq	r3, 16386
 895 0030 5969     		ldreq	r1, [r3, #20]
 896 0032 21F00101 		biceq	r1, r1, #1
 897 0036 08BF     		it	eq
 898 0038 5961     		streq	r1, [r3, #20]
 899              		.loc 1 485 0
 900 003a 12F4786F 		tst	r2, #3968
ARM GAS  /tmp/ccAgm8Tg.s 			page 17


 901              		.loc 1 486 0
 902 003e 01BF     		itttt	eq
 903 0040 4FF48053 		moveq	r3, #4096
 904 0044 C4F20203 		movteq	r3, 16386
 905 0048 5A69     		ldreq	r2, [r3, #20]
 906 004a 22F00202 		biceq	r2, r2, #2
 907 004e 08BF     		it	eq
 908 0050 5A61     		streq	r2, [r3, #20]
 909 0052 10BD     		pop	{r4, pc}
 910              		.cfi_endproc
 911              	.LFE76:
 912              		.size	dmaStreamRelease, .-dmaStreamRelease
 913              		.global	_stm32_dma_streams
 914 0054 AFF30080 		.section	.bss.dma_isr_redir,"aw",%nobits
 914      AFF30080 
 914      AFF30080 
 915              		.align	2
 916              		.set	.LANCHOR0,. + 0
 917              		.type	dma_isr_redir, %object
 918              		.size	dma_isr_redir, 96
 919              	dma_isr_redir:
 920 0000 00000000 		.space	96
 920      00000000 
 920      00000000 
 920      00000000 
 920      00000000 
 921              		.section	.rodata._stm32_dma_streams,"a",%progbits
 922              		.align	2
 923              		.type	_stm32_dma_streams, %object
 924              		.size	_stm32_dma_streams, 144
 925              	_stm32_dma_streams:
 926 0000 08000240 		.word	1073872904
 927 0004 04000240 		.word	1073872900
 928 0008 00       		.byte	0
 929 0009 00       		.byte	0
 930 000a 0B       		.byte	11
 931 000b 00       		.space	1
 932 000c 1C000240 		.word	1073872924
 933 0010 04000240 		.word	1073872900
 934 0014 04       		.byte	4
 935 0015 01       		.byte	1
 936 0016 0C       		.byte	12
 937 0017 00       		.space	1
 938 0018 30000240 		.word	1073872944
 939 001c 04000240 		.word	1073872900
 940 0020 08       		.byte	8
 941 0021 02       		.byte	2
 942 0022 0D       		.byte	13
 943 0023 00       		.space	1
 944 0024 44000240 		.word	1073872964
 945 0028 04000240 		.word	1073872900
 946 002c 0C       		.byte	12
 947 002d 03       		.byte	3
 948 002e 0E       		.byte	14
 949 002f 00       		.space	1
 950 0030 58000240 		.word	1073872984
 951 0034 04000240 		.word	1073872900
ARM GAS  /tmp/ccAgm8Tg.s 			page 18


 952 0038 10       		.byte	16
 953 0039 04       		.byte	4
 954 003a 0F       		.byte	15
 955 003b 00       		.space	1
 956 003c 6C000240 		.word	1073873004
 957 0040 04000240 		.word	1073872900
 958 0044 14       		.byte	20
 959 0045 05       		.byte	5
 960 0046 10       		.byte	16
 961 0047 00       		.space	1
 962 0048 80000240 		.word	1073873024
 963 004c 04000240 		.word	1073872900
 964 0050 18       		.byte	24
 965 0051 06       		.byte	6
 966 0052 11       		.byte	17
 967 0053 00       		.space	1
 968 0054 08040240 		.word	1073873928
 969 0058 04040240 		.word	1073873924
 970 005c 00       		.byte	0
 971 005d 07       		.byte	7
 972 005e 38       		.byte	56
 973 005f 00       		.space	1
 974 0060 1C040240 		.word	1073873948
 975 0064 04040240 		.word	1073873924
 976 0068 04       		.byte	4
 977 0069 08       		.byte	8
 978 006a 39       		.byte	57
 979 006b 00       		.space	1
 980 006c 30040240 		.word	1073873968
 981 0070 04040240 		.word	1073873924
 982 0074 08       		.byte	8
 983 0075 09       		.byte	9
 984 0076 3A       		.byte	58
 985 0077 00       		.space	1
 986 0078 44040240 		.word	1073873988
 987 007c 04040240 		.word	1073873924
 988 0080 0C       		.byte	12
 989 0081 0A       		.byte	10
 990 0082 3B       		.byte	59
 991 0083 00       		.space	1
 992 0084 58040240 		.word	1073874008
 993 0088 04040240 		.word	1073873924
 994 008c 10       		.byte	16
 995 008d 0B       		.byte	11
 996 008e 3B       		.byte	59
 997 008f 00       		.space	1
 998              		.section	.bss.dma_streams_mask,"aw",%nobits
 999              		.align	2
 1000              		.set	.LANCHOR1,. + 0
 1001              		.type	dma_streams_mask, %object
 1002              		.size	dma_streams_mask, 4
 1003              	dma_streams_mask:
 1004 0000 00000000 		.space	4
 1005              		.text
 1006              	.Letext0:
 1007              		.file 2 "/opt/pros/toolchain/bin/../lib/gcc/arm-none-eabi/4.6.3/../../../../arm-none-eabi/include/
 1008              		.file 3 "../ChibiOS_2.6.2/os/ports/GCC/ARMCMx/chtypes.h"
ARM GAS  /tmp/ccAgm8Tg.s 			page 19


 1009              		.file 4 "../ChibiOS_2.6.2/os/hal/platforms/STM32F1xx/stm32f10x.h"
 1010              		.file 5 "../ChibiOS_2.6.2/os/hal/platforms/STM32F1xx/stm32_dma.h"
 1011              		.file 6 "../ChibiOS_2.6.2/os/ports/common/ARMCMx/CMSIS/include/core_cm3.h"