ARM GAS  /tmp/ccv33KnP.s 			page 1


   1              		.syntax unified
   2              		.cpu cortex-m3
   3              		.fpu softvfp
   4              		.eabi_attribute 20, 1
   5              		.eabi_attribute 21, 1
   6              		.eabi_attribute 23, 3
   7              		.eabi_attribute 24, 1
   8              		.eabi_attribute 25, 1
   9              		.eabi_attribute 26, 1
  10              		.eabi_attribute 30, 2
  11              		.eabi_attribute 34, 1
  12              		.eabi_attribute 18, 4
  13              		.thumb
  14              		.file	"tm.c"
  15              		.text
  16              	.Ltext0:
  17              		.cfi_sections	.debug_frame
  18              		.section	.text.tm_start,"ax",%progbits
  19              		.align	2
  20              		.p2align 4,,15
  21              		.thumb
  22              		.thumb_func
  23              		.type	tm_start, %function
  24              	tm_start:
  25              	.LFB63:
  26              		.file 1 "../ChibiOS_2.6.2/os/hal/src/tm.c"
  27              		.loc 1 69 0
  28              		.cfi_startproc
  29              		@ args = 0, pretend = 0, frame = 0
  30              		@ frame_needed = 0, uses_anonymous_args = 0
  31              		@ link register save eliminated.
  32              	.LVL0:
  33              		.loc 1 71 0
  34 0000 4FF48051 		mov	r1, #4096
  35 0004 CEF20001 		movt	r1, 57344
  36 0008 4B68     		ldr	r3, [r1, #4]
  37 000a 8360     		str	r3, [r0, #8]
  38              		.loc 1 72 0
  39 000c 7047     		bx	lr
  40              		.cfi_endproc
  41              	.LFE63:
  42              		.size	tm_start, .-tm_start
  43 000e 00BF     		.section	.text.tm_stop,"ax",%progbits
  44              		.align	2
  45              		.p2align 4,,15
  46              		.thumb
  47              		.thumb_func
  48              		.type	tm_stop, %function
  49              	tm_stop:
  50              	.LFB64:
  51              		.loc 1 81 0
  52              		.cfi_startproc
  53              		@ args = 0, pretend = 0, frame = 0
  54              		@ frame_needed = 0, uses_anonymous_args = 0
  55              		@ link register save eliminated.
  56              	.LVL1:
  57 0000 10B4     		push	{r4}
ARM GAS  /tmp/ccv33KnP.s 			page 2


  58              	.LCFI0:
  59              		.cfi_def_cfa_offset 4
  60              		.cfi_offset 4, -4
  61              		.loc 1 83 0
  62 0002 4FF48054 		mov	r4, #4096
  63 0006 CEF20004 		movt	r4, 57344
  64              		.loc 1 84 0
  65 000a 40F2000C 		movw	ip, #:lower16:.LANCHOR0
  66              		.loc 1 83 0
  67 000e 6468     		ldr	r4, [r4, #4]
  68              	.LVL2:
  69              		.loc 1 84 0
  70 0010 8368     		ldr	r3, [r0, #8]
  71 0012 C0F2000C 		movt	ip, #:upper16:.LANCHOR0
  72 0016 DCF80010 		ldr	r1, [ip, #0]
  73              		.loc 1 85 0
  74 001a C268     		ldr	r2, [r0, #12]
  75              		.loc 1 84 0
  76 001c E31A     		subs	r3, r4, r3
  77 001e 5B1A     		subs	r3, r3, r1
  78              		.loc 1 85 0
  79 0020 9342     		cmp	r3, r2
  80              		.loc 1 84 0
  81 0022 8360     		str	r3, [r0, #8]
  82              		.loc 1 86 0
  83 0024 88BF     		it	hi
  84 0026 C360     		strhi	r3, [r0, #12]
  85              		.loc 1 85 0
  86 0028 03D8     		bhi	.L2
  87              	.LVL3:
  88              	.LBB6:
  89              	.LBB7:
  90              		.loc 1 87 0
  91 002a 0269     		ldr	r2, [r0, #16]
  92 002c 9342     		cmp	r3, r2
  93              		.loc 1 88 0
  94 002e 38BF     		it	cc
  95 0030 0361     		strcc	r3, [r0, #16]
  96              	.LVL4:
  97              	.L2:
  98              	.LBE7:
  99              	.LBE6:
 100              		.loc 1 89 0
 101 0032 10BC     		pop	{r4}
 102 0034 7047     		bx	lr
 103              		.cfi_endproc
 104              	.LFE64:
 105              		.size	tm_stop, .-tm_stop
 106 0036 00BFAFF3 		.section	.text.tmInit,"ax",%progbits
 106      0080AFF3 
 106      0080
 107              		.align	2
 108              		.p2align 4,,15
 109              		.global	tmInit
 110              		.thumb
 111              		.thumb_func
 112              		.type	tmInit, %function
ARM GAS  /tmp/ccv33KnP.s 			page 3


 113              	tmInit:
 114              	.LFB65:
 115              		.loc 1 104 0
 116              		.cfi_startproc
 117              		@ args = 0, pretend = 0, frame = 24
 118              		@ frame_needed = 0, uses_anonymous_args = 0
 119 0000 10B5     		push	{r4, lr}
 120              	.LCFI1:
 121              		.cfi_def_cfa_offset 8
 122              		.cfi_offset 14, -4
 123              		.cfi_offset 4, -8
 124              	.LBB8:
 125              	.LBB9:
 126              		.loc 1 127 0
 127 0002 40F20002 		movw	r2, #:lower16:tm_stop
 128              	.LBE9:
 129              	.LBE8:
 130              		.loc 1 104 0
 131 0006 86B0     		sub	sp, sp, #24
 132              	.LCFI2:
 133              		.cfi_def_cfa_offset 32
 134              	.LBB15:
 135              	.LBB10:
 136              		.loc 1 127 0
 137 0008 C0F20002 		movt	r2, #:upper16:tm_stop
 138              	.LBE10:
 139              	.LBE15:
 140              		.loc 1 110 0
 141 000c 40F20004 		movw	r4, #:lower16:.LANCHOR0
 142              	.LBB16:
 143              	.LBB11:
 144              		.loc 1 126 0
 145 0010 40F20001 		movw	r1, #:lower16:tm_start
 146              	.LBE11:
 147              	.LBE16:
 148              		.loc 1 110 0
 149 0014 0023     		movs	r3, #0
 150              	.LBB17:
 151              	.LBB12:
 152              		.loc 1 126 0
 153 0016 C0F20001 		movt	r1, #:upper16:tm_start
 154              	.LBE12:
 155              	.LBE17:
 156              		.loc 1 110 0
 157 001a C0F20004 		movt	r4, #:upper16:.LANCHOR0
 158              		.loc 1 112 0
 159 001e 01A8     		add	r0, sp, #4
 160              	.LBB18:
 161              	.LBB13:
 162              		.loc 1 127 0
 163 0020 0292     		str	r2, [sp, #8]
 164              		.loc 1 130 0
 165 0022 4FF0FF32 		mov	r2, #-1
 166              	.LBE13:
 167              	.LBE18:
 168              		.loc 1 110 0
 169 0026 2360     		str	r3, [r4, #0]
ARM GAS  /tmp/ccv33KnP.s 			page 4


 170              	.LVL5:
 171              	.LBB19:
 172              	.LBB14:
 173              		.loc 1 128 0
 174 0028 0393     		str	r3, [sp, #12]
 175              		.loc 1 129 0
 176 002a 0493     		str	r3, [sp, #16]
 177              		.loc 1 126 0
 178 002c 0191     		str	r1, [sp, #4]
 179              		.loc 1 130 0
 180 002e 0592     		str	r2, [sp, #20]
 181              	.LBE14:
 182              	.LBE19:
 183              		.loc 1 112 0
 184 0030 FFF7FEFF 		bl	tm_start
 185              	.LVL6:
 186              		.loc 1 113 0
 187 0034 01A8     		add	r0, sp, #4
 188              	.LVL7:
 189 0036 0299     		ldr	r1, [sp, #8]
 190 0038 8847     		blx	r1
 191              	.LVL8:
 192              		.loc 1 114 0
 193 003a 039B     		ldr	r3, [sp, #12]
 194 003c 2360     		str	r3, [r4, #0]
 195              		.loc 1 115 0
 196 003e 06B0     		add	sp, sp, #24
 197 0040 10BD     		pop	{r4, pc}
 198              		.cfi_endproc
 199              	.LFE65:
 200              		.size	tmInit, .-tmInit
 201 0042 00BFAFF3 		.section	.text.tmObjectInit,"ax",%progbits
 201      0080AFF3 
 201      0080AFF3 
 201      0080
 202              		.align	2
 203              		.p2align 4,,15
 204              		.global	tmObjectInit
 205              		.thumb
 206              		.thumb_func
 207              		.type	tmObjectInit, %function
 208              	tmObjectInit:
 209              	.LFB66:
 210              		.loc 1 124 0
 211              		.cfi_startproc
 212              		@ args = 0, pretend = 0, frame = 0
 213              		@ frame_needed = 0, uses_anonymous_args = 0
 214              		@ link register save eliminated.
 215              	.LVL9:
 216              		.loc 1 126 0
 217 0000 40F20002 		movw	r2, #:lower16:tm_start
 218              		.loc 1 127 0
 219 0004 40F20003 		movw	r3, #:lower16:tm_stop
 220 0008 C0F20003 		movt	r3, #:upper16:tm_stop
 221              		.loc 1 126 0
 222 000c C0F20002 		movt	r2, #:upper16:tm_start
 223              		.loc 1 128 0
ARM GAS  /tmp/ccv33KnP.s 			page 5


 224 0010 0021     		movs	r1, #0
 225              		.loc 1 127 0
 226 0012 80E80C00 		stmia	r0, {r2, r3}
 227              		.loc 1 130 0
 228 0016 4FF0FF33 		mov	r3, #-1
 229              		.loc 1 128 0
 230 001a 8160     		str	r1, [r0, #8]
 231              		.loc 1 129 0
 232 001c C160     		str	r1, [r0, #12]
 233              		.loc 1 130 0
 234 001e 0361     		str	r3, [r0, #16]
 235              		.loc 1 131 0
 236 0020 7047     		bx	lr
 237              		.cfi_endproc
 238              	.LFE66:
 239              		.size	tmObjectInit, .-tmObjectInit
 240 0022 00BFAFF3 		.section	.bss.measurement_offset,"aw",%nobits
 240      0080AFF3 
 240      0080AFF3 
 240      0080
 241              		.align	2
 242              		.set	.LANCHOR0,. + 0
 243              		.type	measurement_offset, %object
 244              		.size	measurement_offset, 4
 245              	measurement_offset:
 246 0000 00000000 		.space	4
 247              		.text
 248              	.Letext0:
 249              		.file 2 "/opt/pros/toolchain/bin/../lib/gcc/arm-none-eabi/4.6.3/../../../../arm-none-eabi/include/
 250              		.file 3 "../ChibiOS_2.6.2/os/ports/common/ARMCMx/nvic.h"
 251              		.file 4 "../ChibiOS_2.6.2/os/hal/platforms/STM32F1xx/hal_lld.h"
 252              		.file 5 "../ChibiOS_2.6.2/os/hal/include/tm.h"
 253              		.file 6 "../ChibiOS_2.6.2/os/ports/common/ARMCMx/CMSIS/include/core_cm3.h"