ARM GAS  /tmp/ccqA8Rs1.s 			page 1


   1              		.syntax unified
   2              		.cpu cortex-m3
   3              		.fpu softvfp
   4              		.eabi_attribute 20, 1
   5              		.eabi_attribute 21, 1
   6              		.eabi_attribute 23, 3
   7              		.eabi_attribute 24, 1
   8              		.eabi_attribute 25, 1
   9              		.eabi_attribute 26, 1
  10              		.eabi_attribute 30, 2
  11              		.eabi_attribute 34, 1
  12              		.eabi_attribute 18, 4
  13              		.thumb
  14              		.file	"vexanalog.c"
  15              		.text
  16              	.Ltext0:
  17              		.cfi_sections	.debug_frame
  18              		.section	.text.vexAdcInit,"ax",%progbits
  19              		.align	2
  20              		.p2align 4,,15
  21              		.global	vexAdcInit
  22              		.thumb
  23              		.thumb_func
  24              		.type	vexAdcInit, %function
  25              	vexAdcInit:
  26              	.LFB63:
  27              		.file 1 "../convex/cortex/fw/vexanalog.c"
  28              		.loc 1 104 0
  29              		.cfi_startproc
  30              		@ args = 0, pretend = 0, frame = 0
  31              		@ frame_needed = 0, uses_anonymous_args = 0
  32 0000 10B5     		push	{r4, lr}
  33              	.LCFI0:
  34              		.cfi_def_cfa_offset 8
  35              		.cfi_offset 14, -4
  36              		.cfi_offset 4, -8
  37              		.loc 1 107 0
  38 0002 40F20004 		movw	r4, #:lower16:ADCD1
  39              		.loc 1 106 0
  40 0006 FFF7FEFF 		bl	adcInit
  41              		.loc 1 107 0
  42 000a C0F20004 		movt	r4, #:upper16:ADCD1
  43 000e 40F20001 		movw	r1, #:lower16:.LANCHOR0
  44 0012 2046     		mov	r0, r4
  45 0014 C0F20001 		movt	r1, #:upper16:.LANCHOR0
  46 0018 FFF7FEFF 		bl	adcStart
  47              		.loc 1 110 0
  48 001c 40F20001 		movw	r1, #:lower16:.LANCHOR1
  49 0020 40F20002 		movw	r2, #:lower16:.LANCHOR2
  50 0024 2046     		mov	r0, r4
  51 0026 C0F20001 		movt	r1, #:upper16:.LANCHOR1
  52 002a C0F20002 		movt	r2, #:upper16:.LANCHOR2
  53 002e 0123     		movs	r3, #1
  54              		.loc 1 111 0
  55 0030 BDE81040 		pop	{r4, lr}
  56              		.loc 1 110 0
  57 0034 FFF7FEBF 		b	adcStartConversion
ARM GAS  /tmp/ccqA8Rs1.s 			page 2


  58              		.cfi_endproc
  59              	.LFE63:
  60              		.size	vexAdcInit, .-vexAdcInit
  61 0038 AFF30080 		.section	.text.vexAdcGet,"ax",%progbits
  61      AFF30080 
  62              		.align	2
  63              		.p2align 4,,15
  64              		.global	vexAdcGet
  65              		.thumb
  66              		.thumb_func
  67              		.type	vexAdcGet, %function
  68              	vexAdcGet:
  69              	.LFB64:
  70              		.loc 1 121 0
  71              		.cfi_startproc
  72              		@ args = 0, pretend = 0, frame = 0
  73              		@ frame_needed = 0, uses_anonymous_args = 0
  74              		@ link register save eliminated.
  75              	.LVL0:
  76              		.loc 1 122 0
  77 0000 83B2     		uxth	r3, r0
  78 0002 072B     		cmp	r3, #7
  79              		.loc 1 125 0
  80 0004 9DBF     		ittte	ls
  81 0006 40F20003 		movwls	r3, #:lower16:.LANCHOR2
  82 000a C0F20003 		movtls	r3, #:upper16:.LANCHOR2
  83 000e 33F81000 		ldrhls	r0, [r3, r0, lsl #1]
  84              	.LVL1:
  85              		.loc 1 123 0
  86 0012 4FF6FF70 		movwhi	r0, #65535
  87              		.loc 1 126 0
  88 0016 00B2     		sxth	r0, r0
  89 0018 7047     		bx	lr
  90              		.cfi_endproc
  91              	.LFE64:
  92              		.size	vexAdcGet, .-vexAdcGet
  93 001a 00BFAFF3 		.section	.text.vexAdcDebug,"ax",%progbits
  93      0080
  94              		.align	2
  95              		.p2align 4,,15
  96              		.global	vexAdcDebug
  97              		.thumb
  98              		.thumb_func
  99              		.type	vexAdcDebug, %function
 100              	vexAdcDebug:
 101              	.LFB65:
 102              		.loc 1 137 0
 103              		.cfi_startproc
 104              		@ args = 0, pretend = 0, frame = 0
 105              		@ frame_needed = 0, uses_anonymous_args = 0
 106              	.LVL2:
 107 0000 70B5     		push	{r4, r5, r6, lr}
 108              	.LCFI1:
 109              		.cfi_def_cfa_offset 16
 110              		.cfi_offset 14, -4
 111              		.cfi_offset 6, -8
 112              		.cfi_offset 5, -12
ARM GAS  /tmp/ccqA8Rs1.s 			page 3


 113              		.cfi_offset 4, -16
 114              		.loc 1 144 0
 115 0002 40F20005 		movw	r5, #:lower16:.LC0
 116              	.LBB4:
 117              	.LBB5:
 118              		.loc 1 125 0
 119 0006 40F20004 		movw	r4, #:lower16:.LANCHOR2
 120              	.LBE5:
 121              	.LBE4:
 122              		.loc 1 144 0
 123 000a C0F20005 		movt	r5, #:upper16:.LC0
 124              	.LBB7:
 125              	.LBB6:
 126              		.loc 1 125 0
 127 000e C0F20004 		movt	r4, #:upper16:.LANCHOR2
 128              	.LBE6:
 129              	.LBE7:
 130              		.loc 1 137 0
 131 0012 0646     		mov	r6, r0
 132              		.loc 1 144 0
 133 0014 0022     		movs	r2, #0
 134              	.LVL3:
 135 0016 B4F90030 		ldrsh	r3, [r4, #0]
 136 001a 2946     		mov	r1, r5
 137              	.LVL4:
 138 001c FFF7FEFF 		bl	vex_chprintf
 139              	.LVL5:
 140 0020 2946     		mov	r1, r5
 141 0022 0122     		movs	r2, #1
 142 0024 B4F90230 		ldrsh	r3, [r4, #2]
 143 0028 3046     		mov	r0, r6
 144 002a FFF7FEFF 		bl	vex_chprintf
 145              	.LVL6:
 146 002e 2946     		mov	r1, r5
 147 0030 0222     		movs	r2, #2
 148 0032 B4F90430 		ldrsh	r3, [r4, #4]
 149 0036 3046     		mov	r0, r6
 150 0038 FFF7FEFF 		bl	vex_chprintf
 151              	.LVL7:
 152 003c 2946     		mov	r1, r5
 153 003e 0322     		movs	r2, #3
 154 0040 B4F90630 		ldrsh	r3, [r4, #6]
 155 0044 3046     		mov	r0, r6
 156 0046 FFF7FEFF 		bl	vex_chprintf
 157              	.LVL8:
 158 004a 2946     		mov	r1, r5
 159 004c 0422     		movs	r2, #4
 160 004e B4F90830 		ldrsh	r3, [r4, #8]
 161 0052 3046     		mov	r0, r6
 162 0054 FFF7FEFF 		bl	vex_chprintf
 163              	.LVL9:
 164 0058 2946     		mov	r1, r5
 165 005a 0522     		movs	r2, #5
 166 005c B4F90A30 		ldrsh	r3, [r4, #10]
 167 0060 3046     		mov	r0, r6
 168 0062 FFF7FEFF 		bl	vex_chprintf
 169              	.LVL10:
ARM GAS  /tmp/ccqA8Rs1.s 			page 4


 170 0066 2946     		mov	r1, r5
 171 0068 0622     		movs	r2, #6
 172 006a B4F90C30 		ldrsh	r3, [r4, #12]
 173 006e 3046     		mov	r0, r6
 174 0070 FFF7FEFF 		bl	vex_chprintf
 175              	.LVL11:
 176 0074 B4F90E30 		ldrsh	r3, [r4, #14]
 177 0078 3046     		mov	r0, r6
 178 007a 2946     		mov	r1, r5
 179 007c 0722     		movs	r2, #7
 180              		.loc 1 145 0
 181 007e BDE87040 		pop	{r4, r5, r6, lr}
 182              		.loc 1 144 0
 183 0082 FFF7FEBF 		b	vex_chprintf
 184              		.cfi_endproc
 185              	.LFE65:
 186              		.size	vexAdcDebug, .-vexAdcDebug
 187 0086 00BFAFF3 		.section	.bss.adccfg,"aw",%nobits
 187      0080AFF3 
 187      0080
 188              		.align	2
 189              		.set	.LANCHOR0,. + 0
 190              		.type	adccfg, %object
 191              		.size	adccfg, 4
 192              	adccfg:
 193 0000 00000000 		.space	4
 194              		.section	.rodata.str1.4,"aMS",%progbits,1
 195              		.align	2
 196              	.LC0:
 197 0000 6368616E 		.ascii	"channel %d = %4d\015\012\000"
 197      6E656C20 
 197      2564203D 
 197      20253464 
 197      0D0A00
 198 0013 00       		.section	.data.adccg,"aw",%progbits
 199              		.align	2
 200              		.set	.LANCHOR1,. + 0
 201              		.type	adccg, %object
 202              		.size	adccg, 40
 203              	adccg:
 204 0000 01       		.byte	1
 205 0001 00       		.space	1
 206 0002 0800     		.short	8
 207 0004 00000000 		.word	0
 208 0008 00000000 		.word	0
 209 000c 00000000 		.word	0
 210 0010 00000000 		.word	0
 211 0014 6D0B0000 		.word	2925
 212 0018 6D0B0000 		.word	2925
 213 001c 00007000 		.word	7340032
 214 0020 6A010000 		.word	362
 215 0024 2088C11A 		.word	448890912
 216              		.section	.bss.samples_buf,"aw",%nobits
 217              		.align	2
 218              		.set	.LANCHOR2,. + 0
 219              		.type	samples_buf, %object
 220              		.size	samples_buf, 16
ARM GAS  /tmp/ccqA8Rs1.s 			page 5


 221              	samples_buf:
 222 0000 00000000 		.space	16
 222      00000000 
 222      00000000 
 222      00000000 
 223              		.text
 224              	.Letext0:
 225              		.file 2 "/opt/pros/toolchain/bin/../lib/gcc/arm-none-eabi/4.6.3/include/stddef.h"
 226              		.file 3 "/opt/pros/toolchain/bin/../lib/gcc/arm-none-eabi/4.6.3/../../../../arm-none-eabi/include/
 227              		.file 4 "../ChibiOS_2.6.2/os/ports/GCC/ARMCMx/chtypes.h"
 228              		.file 5 "../ChibiOS_2.6.2/os/kernel/include/chlists.h"
 229              		.file 6 "../ChibiOS_2.6.2/os/kernel/include/chthreads.h"
 230              		.file 7 "../ChibiOS_2.6.2/os/ports/GCC/ARMCMx/chcore_v7m.h"
 231              		.file 8 "../ChibiOS_2.6.2/os/kernel/include/chmtx.h"
 232              		.file 9 "../ChibiOS_2.6.2/os/kernel/include/chstreams.h"
 233              		.file 10 "../ChibiOS_2.6.2/os/hal/platforms/STM32F1xx/stm32f10x.h"
 234              		.file 11 "../ChibiOS_2.6.2/os/hal/platforms/STM32F1xx/stm32_dma.h"
 235              		.file 12 "../ChibiOS_2.6.2/os/hal/include/adc.h"
 236              		.file 13 "../ChibiOS_2.6.2/os/hal/platforms/STM32F1xx/adc_lld.h"
 237              		.file 14 "../convex/cortex/fw/vexcompat.h"
 238              		.file 15 "../convex/cortex/fw/vexdigital.h"
 239              		.file 16 "../convex/cortex/fw/vexime.h"
 240              		.file 17 "../ChibiOS_2.6.2/os/ports/common/ARMCMx/CMSIS/include/core_cm3.h"
 241              		.section	.debug_info,"",%progbits
 242              	.Ldebug_info0:
 243 0000 420B0000 		.4byte	0xb42
 244 0004 0200     		.2byte	0x2
 245 0006 00000000 		.4byte	.Ldebug_abbrev0
 246 000a 04       		.byte	0x4
 247 000b 01       		.uleb128 0x1
 248 000c B8040000 		.4byte	.LASF157
 249 0010 01       		.byte	0x1
 250 0011 1A030000 		.4byte	.LASF158
 251 0015 F9010000 		.4byte	.LASF159
 252 0019 00000000 		.4byte	0
 253 001d 00000000 		.4byte	0
 254 0021 18000000 		.4byte	.Ldebug_ranges0+0x18
 255 0025 00000000 		.4byte	.Ldebug_line0
 256 0029 02       		.uleb128 0x2
 257 002a 04       		.byte	0x4
 258 002b 05       		.byte	0x5
 259 002c 696E7400 		.ascii	"int\000"
 260 0030 03       		.uleb128 0x3
 261 0031 00000000 		.4byte	.LASF2
 262 0035 02       		.byte	0x2
 263 0036 D4       		.byte	0xd4
 264 0037 3B000000 		.4byte	0x3b
 265 003b 04       		.uleb128 0x4
 266 003c 04       		.byte	0x4
 267 003d 07       		.byte	0x7
 268 003e EC010000 		.4byte	.LASF0
 269 0042 04       		.uleb128 0x4
 270 0043 01       		.byte	0x1
 271 0044 06       		.byte	0x6
 272 0045 C1000000 		.4byte	.LASF1
 273 0049 03       		.uleb128 0x3
 274 004a FC050000 		.4byte	.LASF3
ARM GAS  /tmp/ccqA8Rs1.s 			page 6


 275 004e 03       		.byte	0x3
 276 004f 2A       		.byte	0x2a
 277 0050 54000000 		.4byte	0x54
 278 0054 04       		.uleb128 0x4
 279 0055 01       		.byte	0x1
 280 0056 08       		.byte	0x8
 281 0057 03040000 		.4byte	.LASF4
 282 005b 03       		.uleb128 0x3
 283 005c AB000000 		.4byte	.LASF5
 284 0060 03       		.byte	0x3
 285 0061 35       		.byte	0x35
 286 0062 66000000 		.4byte	0x66
 287 0066 04       		.uleb128 0x4
 288 0067 02       		.byte	0x2
 289 0068 05       		.byte	0x5
 290 0069 1B040000 		.4byte	.LASF6
 291 006d 03       		.uleb128 0x3
 292 006e 55010000 		.4byte	.LASF7
 293 0072 03       		.byte	0x3
 294 0073 36       		.byte	0x36
 295 0074 78000000 		.4byte	0x78
 296 0078 04       		.uleb128 0x4
 297 0079 02       		.byte	0x2
 298 007a 07       		.byte	0x7
 299 007b 5B020000 		.4byte	.LASF8
 300 007f 03       		.uleb128 0x3
 301 0080 FB030000 		.4byte	.LASF9
 302 0084 03       		.byte	0x3
 303 0085 4F       		.byte	0x4f
 304 0086 8A000000 		.4byte	0x8a
 305 008a 04       		.uleb128 0x4
 306 008b 04       		.byte	0x4
 307 008c 05       		.byte	0x5
 308 008d 05010000 		.4byte	.LASF10
 309 0091 03       		.uleb128 0x3
 310 0092 97040000 		.4byte	.LASF11
 311 0096 03       		.byte	0x3
 312 0097 50       		.byte	0x50
 313 0098 9C000000 		.4byte	0x9c
 314 009c 04       		.uleb128 0x4
 315 009d 04       		.byte	0x4
 316 009e 07       		.byte	0x7
 317 009f CA040000 		.4byte	.LASF12
 318 00a3 04       		.uleb128 0x4
 319 00a4 08       		.byte	0x8
 320 00a5 05       		.byte	0x5
 321 00a6 B3000000 		.4byte	.LASF13
 322 00aa 04       		.uleb128 0x4
 323 00ab 08       		.byte	0x8
 324 00ac 07       		.byte	0x7
 325 00ad 60000000 		.4byte	.LASF14
 326 00b1 03       		.uleb128 0x3
 327 00b2 D5000000 		.4byte	.LASF15
 328 00b6 04       		.byte	0x4
 329 00b7 2B       		.byte	0x2b
 330 00b8 BC000000 		.4byte	0xbc
 331 00bc 04       		.uleb128 0x4
ARM GAS  /tmp/ccqA8Rs1.s 			page 7


 332 00bd 01       		.byte	0x1
 333 00be 02       		.byte	0x2
 334 00bf F5030000 		.4byte	.LASF16
 335 00c3 03       		.uleb128 0x3
 336 00c4 50060000 		.4byte	.LASF17
 337 00c8 04       		.byte	0x4
 338 00c9 2C       		.byte	0x2c
 339 00ca 49000000 		.4byte	0x49
 340 00ce 03       		.uleb128 0x3
 341 00cf 34010000 		.4byte	.LASF18
 342 00d3 04       		.byte	0x4
 343 00d4 2D       		.byte	0x2d
 344 00d5 49000000 		.4byte	0x49
 345 00d9 03       		.uleb128 0x3
 346 00da B0040000 		.4byte	.LASF19
 347 00de 04       		.byte	0x4
 348 00df 2E       		.byte	0x2e
 349 00e0 49000000 		.4byte	0x49
 350 00e4 03       		.uleb128 0x3
 351 00e5 E2010000 		.4byte	.LASF20
 352 00e9 04       		.byte	0x4
 353 00ea 2F       		.byte	0x2f
 354 00eb 49000000 		.4byte	0x49
 355 00ef 03       		.uleb128 0x3
 356 00f0 E7030000 		.4byte	.LASF21
 357 00f4 04       		.byte	0x4
 358 00f5 30       		.byte	0x30
 359 00f6 91000000 		.4byte	0x91
 360 00fa 03       		.uleb128 0x3
 361 00fb 7E020000 		.4byte	.LASF22
 362 00ff 04       		.byte	0x4
 363 0100 31       		.byte	0x31
 364 0101 7F000000 		.4byte	0x7f
 365 0105 03       		.uleb128 0x3
 366 0106 0E030000 		.4byte	.LASF23
 367 010a 04       		.byte	0x4
 368 010b 33       		.byte	0x33
 369 010c 91000000 		.4byte	0x91
 370 0110 03       		.uleb128 0x3
 371 0111 7D050000 		.4byte	.LASF24
 372 0115 04       		.byte	0x4
 373 0116 35       		.byte	0x35
 374 0117 91000000 		.4byte	0x91
 375 011b 03       		.uleb128 0x3
 376 011c C6010000 		.4byte	.LASF25
 377 0120 05       		.byte	0x5
 378 0121 2A       		.byte	0x2a
 379 0122 26010000 		.4byte	0x126
 380 0126 05       		.uleb128 0x5
 381 0127 C6010000 		.4byte	.LASF25
 382 012b 48       		.byte	0x48
 383 012c 06       		.byte	0x6
 384 012d 5E       		.byte	0x5e
 385 012e 4B020000 		.4byte	0x24b
 386 0132 06       		.uleb128 0x6
 387 0133 47040000 		.4byte	.LASF26
 388 0137 06       		.byte	0x6
ARM GAS  /tmp/ccqA8Rs1.s 			page 8


 389 0138 5F       		.byte	0x5f
 390 0139 70020000 		.4byte	0x270
 391 013d 02       		.byte	0x2
 392 013e 23       		.byte	0x23
 393 013f 00       		.uleb128 0
 394 0140 06       		.uleb128 0x6
 395 0141 CD030000 		.4byte	.LASF27
 396 0145 06       		.byte	0x6
 397 0146 61       		.byte	0x61
 398 0147 70020000 		.4byte	0x270
 399 014b 02       		.byte	0x2
 400 014c 23       		.byte	0x23
 401 014d 04       		.uleb128 0x4
 402 014e 06       		.uleb128 0x6
 403 014f 9F000000 		.4byte	.LASF28
 404 0153 06       		.byte	0x6
 405 0154 63       		.byte	0x63
 406 0155 EF000000 		.4byte	0xef
 407 0159 02       		.byte	0x2
 408 015a 23       		.byte	0x23
 409 015b 08       		.uleb128 0x8
 410 015c 06       		.uleb128 0x6
 411 015d 6B060000 		.4byte	.LASF29
 412 0161 06       		.byte	0x6
 413 0162 64       		.byte	0x64
 414 0163 3E030000 		.4byte	0x33e
 415 0167 02       		.byte	0x2
 416 0168 23       		.byte	0x23
 417 0169 0C       		.uleb128 0xc
 418 016a 06       		.uleb128 0x6
 419 016b 71010000 		.4byte	.LASF30
 420 016f 06       		.byte	0x6
 421 0170 66       		.byte	0x66
 422 0171 70020000 		.4byte	0x270
 423 0175 02       		.byte	0x2
 424 0176 23       		.byte	0x23
 425 0177 10       		.uleb128 0x10
 426 0178 06       		.uleb128 0x6
 427 0179 7A030000 		.4byte	.LASF31
 428 017d 06       		.byte	0x6
 429 017e 67       		.byte	0x67
 430 017f 70020000 		.4byte	0x270
 431 0183 02       		.byte	0x2
 432 0184 23       		.byte	0x23
 433 0185 14       		.uleb128 0x14
 434 0186 06       		.uleb128 0x6
 435 0187 C0050000 		.4byte	.LASF32
 436 018b 06       		.byte	0x6
 437 018c 6E       		.byte	0x6e
 438 018d E8030000 		.4byte	0x3e8
 439 0191 02       		.byte	0x2
 440 0192 23       		.byte	0x23
 441 0193 18       		.uleb128 0x18
 442 0194 06       		.uleb128 0x6
 443 0195 25040000 		.4byte	.LASF33
 444 0199 06       		.byte	0x6
 445 019a 79       		.byte	0x79
ARM GAS  /tmp/ccqA8Rs1.s 			page 9


 446 019b CE000000 		.4byte	0xce
 447 019f 02       		.byte	0x2
 448 01a0 23       		.byte	0x23
 449 01a1 1C       		.uleb128 0x1c
 450 01a2 06       		.uleb128 0x6
 451 01a3 66040000 		.4byte	.LASF34
 452 01a7 06       		.byte	0x6
 453 01a8 7D       		.byte	0x7d
 454 01a9 C3000000 		.4byte	0xc3
 455 01ad 02       		.byte	0x2
 456 01ae 23       		.byte	0x23
 457 01af 1D       		.uleb128 0x1d
 458 01b0 06       		.uleb128 0x6
 459 01b1 C7050000 		.4byte	.LASF35
 460 01b5 06       		.byte	0x6
 461 01b6 82       		.byte	0x82
 462 01b7 D9000000 		.4byte	0xd9
 463 01bb 02       		.byte	0x2
 464 01bc 23       		.byte	0x23
 465 01bd 1E       		.uleb128 0x1e
 466 01be 06       		.uleb128 0x6
 467 01bf 2D040000 		.4byte	.LASF36
 468 01c3 06       		.byte	0x6
 469 01c4 88       		.byte	0x88
 470 01c5 E4000000 		.4byte	0xe4
 471 01c9 02       		.byte	0x2
 472 01ca 23       		.byte	0x23
 473 01cb 1F       		.uleb128 0x1f
 474 01cc 06       		.uleb128 0x6
 475 01cd 5E010000 		.4byte	.LASF37
 476 01d1 06       		.byte	0x6
 477 01d2 8F       		.byte	0x8f
 478 01d3 66030000 		.4byte	0x366
 479 01d7 02       		.byte	0x2
 480 01d8 23       		.byte	0x23
 481 01d9 20       		.uleb128 0x20
 482 01da 07       		.uleb128 0x7
 483 01db 705F7500 		.ascii	"p_u\000"
 484 01df 06       		.byte	0x6
 485 01e0 B4       		.byte	0xb4
 486 01e1 B3030000 		.4byte	0x3b3
 487 01e5 02       		.byte	0x2
 488 01e6 23       		.byte	0x23
 489 01e7 24       		.uleb128 0x24
 490 01e8 06       		.uleb128 0x6
 491 01e9 71060000 		.4byte	.LASF38
 492 01ed 06       		.byte	0x6
 493 01ee B9       		.byte	0xb9
 494 01ef 98020000 		.4byte	0x298
 495 01f3 02       		.byte	0x2
 496 01f4 23       		.byte	0x23
 497 01f5 28       		.uleb128 0x28
 498 01f6 06       		.uleb128 0x6
 499 01f7 21020000 		.4byte	.LASF39
 500 01fb 06       		.byte	0x6
 501 01fc BF       		.byte	0xbf
 502 01fd 76020000 		.4byte	0x276
ARM GAS  /tmp/ccqA8Rs1.s 			page 10


 503 0201 02       		.byte	0x2
 504 0202 23       		.byte	0x23
 505 0203 2C       		.uleb128 0x2c
 506 0204 06       		.uleb128 0x6
 507 0205 58060000 		.4byte	.LASF40
 508 0209 06       		.byte	0x6
 509 020a C3       		.byte	0xc3
 510 020b FA000000 		.4byte	0xfa
 511 020f 02       		.byte	0x2
 512 0210 23       		.byte	0x23
 513 0211 34       		.uleb128 0x34
 514 0212 06       		.uleb128 0x6
 515 0213 87040000 		.4byte	.LASF41
 516 0217 06       		.byte	0x6
 517 0218 C9       		.byte	0xc9
 518 0219 05010000 		.4byte	0x105
 519 021d 02       		.byte	0x2
 520 021e 23       		.byte	0x23
 521 021f 38       		.uleb128 0x38
 522 0220 06       		.uleb128 0x6
 523 0221 11040000 		.4byte	.LASF42
 524 0225 06       		.byte	0x6
 525 0226 D0       		.byte	0xd0
 526 0227 FA030000 		.4byte	0x3fa
 527 022b 02       		.byte	0x2
 528 022c 23       		.byte	0x23
 529 022d 3C       		.uleb128 0x3c
 530 022e 06       		.uleb128 0x6
 531 022f 87050000 		.4byte	.LASF43
 532 0233 06       		.byte	0x6
 533 0234 D4       		.byte	0xd4
 534 0235 EF000000 		.4byte	0xef
 535 0239 02       		.byte	0x2
 536 023a 23       		.byte	0x23
 537 023b 40       		.uleb128 0x40
 538 023c 06       		.uleb128 0x6
 539 023d CD000000 		.4byte	.LASF44
 540 0241 06       		.byte	0x6
 541 0242 DA       		.byte	0xda
 542 0243 AE020000 		.4byte	0x2ae
 543 0247 02       		.byte	0x2
 544 0248 23       		.byte	0x23
 545 0249 44       		.uleb128 0x44
 546 024a 00       		.byte	0
 547 024b 08       		.uleb128 0x8
 548 024c 08       		.byte	0x8
 549 024d 05       		.byte	0x5
 550 024e 61       		.byte	0x61
 551 024f 70020000 		.4byte	0x270
 552 0253 06       		.uleb128 0x6
 553 0254 47040000 		.4byte	.LASF26
 554 0258 05       		.byte	0x5
 555 0259 62       		.byte	0x62
 556 025a 70020000 		.4byte	0x270
 557 025e 02       		.byte	0x2
 558 025f 23       		.byte	0x23
 559 0260 00       		.uleb128 0
ARM GAS  /tmp/ccqA8Rs1.s 			page 11


 560 0261 06       		.uleb128 0x6
 561 0262 CD030000 		.4byte	.LASF27
 562 0266 05       		.byte	0x5
 563 0267 64       		.byte	0x64
 564 0268 70020000 		.4byte	0x270
 565 026c 02       		.byte	0x2
 566 026d 23       		.byte	0x23
 567 026e 04       		.uleb128 0x4
 568 026f 00       		.byte	0
 569 0270 09       		.uleb128 0x9
 570 0271 04       		.byte	0x4
 571 0272 1B010000 		.4byte	0x11b
 572 0276 03       		.uleb128 0x3
 573 0277 82030000 		.4byte	.LASF45
 574 027b 05       		.byte	0x5
 575 027c 66       		.byte	0x66
 576 027d 4B020000 		.4byte	0x24b
 577 0281 08       		.uleb128 0x8
 578 0282 04       		.byte	0x4
 579 0283 05       		.byte	0x5
 580 0284 6B       		.byte	0x6b
 581 0285 98020000 		.4byte	0x298
 582 0289 06       		.uleb128 0x6
 583 028a 47040000 		.4byte	.LASF26
 584 028e 05       		.byte	0x5
 585 028f 6D       		.byte	0x6d
 586 0290 70020000 		.4byte	0x270
 587 0294 02       		.byte	0x2
 588 0295 23       		.byte	0x23
 589 0296 00       		.uleb128 0
 590 0297 00       		.byte	0
 591 0298 03       		.uleb128 0x3
 592 0299 02030000 		.4byte	.LASF46
 593 029d 05       		.byte	0x5
 594 029e 70       		.byte	0x70
 595 029f 81020000 		.4byte	0x281
 596 02a3 03       		.uleb128 0x3
 597 02a4 A3010000 		.4byte	.LASF47
 598 02a8 07       		.byte	0x7
 599 02a9 E5       		.byte	0xe5
 600 02aa AE020000 		.4byte	0x2ae
 601 02ae 0A       		.uleb128 0xa
 602 02af 04       		.byte	0x4
 603 02b0 0B       		.uleb128 0xb
 604 02b1 AF050000 		.4byte	.LASF48
 605 02b5 24       		.byte	0x24
 606 02b6 07       		.byte	0x7
 607 02b7 0C01     		.2byte	0x10c
 608 02b9 3E030000 		.4byte	0x33e
 609 02bd 0C       		.uleb128 0xc
 610 02be 723400   		.ascii	"r4\000"
 611 02c1 07       		.byte	0x7
 612 02c2 1F01     		.2byte	0x11f
 613 02c4 A3020000 		.4byte	0x2a3
 614 02c8 02       		.byte	0x2
 615 02c9 23       		.byte	0x23
 616 02ca 00       		.uleb128 0
ARM GAS  /tmp/ccqA8Rs1.s 			page 12


 617 02cb 0C       		.uleb128 0xc
 618 02cc 723500   		.ascii	"r5\000"
 619 02cf 07       		.byte	0x7
 620 02d0 2001     		.2byte	0x120
 621 02d2 A3020000 		.4byte	0x2a3
 622 02d6 02       		.byte	0x2
 623 02d7 23       		.byte	0x23
 624 02d8 04       		.uleb128 0x4
 625 02d9 0C       		.uleb128 0xc
 626 02da 723600   		.ascii	"r6\000"
 627 02dd 07       		.byte	0x7
 628 02de 2101     		.2byte	0x121
 629 02e0 A3020000 		.4byte	0x2a3
 630 02e4 02       		.byte	0x2
 631 02e5 23       		.byte	0x23
 632 02e6 08       		.uleb128 0x8
 633 02e7 0C       		.uleb128 0xc
 634 02e8 723700   		.ascii	"r7\000"
 635 02eb 07       		.byte	0x7
 636 02ec 2201     		.2byte	0x122
 637 02ee A3020000 		.4byte	0x2a3
 638 02f2 02       		.byte	0x2
 639 02f3 23       		.byte	0x23
 640 02f4 0C       		.uleb128 0xc
 641 02f5 0C       		.uleb128 0xc
 642 02f6 723800   		.ascii	"r8\000"
 643 02f9 07       		.byte	0x7
 644 02fa 2301     		.2byte	0x123
 645 02fc A3020000 		.4byte	0x2a3
 646 0300 02       		.byte	0x2
 647 0301 23       		.byte	0x23
 648 0302 10       		.uleb128 0x10
 649 0303 0C       		.uleb128 0xc
 650 0304 723900   		.ascii	"r9\000"
 651 0307 07       		.byte	0x7
 652 0308 2401     		.2byte	0x124
 653 030a A3020000 		.4byte	0x2a3
 654 030e 02       		.byte	0x2
 655 030f 23       		.byte	0x23
 656 0310 14       		.uleb128 0x14
 657 0311 0C       		.uleb128 0xc
 658 0312 72313000 		.ascii	"r10\000"
 659 0316 07       		.byte	0x7
 660 0317 2501     		.2byte	0x125
 661 0319 A3020000 		.4byte	0x2a3
 662 031d 02       		.byte	0x2
 663 031e 23       		.byte	0x23
 664 031f 18       		.uleb128 0x18
 665 0320 0C       		.uleb128 0xc
 666 0321 72313100 		.ascii	"r11\000"
 667 0325 07       		.byte	0x7
 668 0326 2601     		.2byte	0x126
 669 0328 A3020000 		.4byte	0x2a3
 670 032c 02       		.byte	0x2
 671 032d 23       		.byte	0x23
 672 032e 1C       		.uleb128 0x1c
 673 032f 0C       		.uleb128 0xc
ARM GAS  /tmp/ccqA8Rs1.s 			page 13


 674 0330 6C7200   		.ascii	"lr\000"
 675 0333 07       		.byte	0x7
 676 0334 2701     		.2byte	0x127
 677 0336 A3020000 		.4byte	0x2a3
 678 033a 02       		.byte	0x2
 679 033b 23       		.byte	0x23
 680 033c 20       		.uleb128 0x20
 681 033d 00       		.byte	0
 682 033e 0B       		.uleb128 0xb
 683 033f 9D050000 		.4byte	.LASF49
 684 0343 04       		.byte	0x4
 685 0344 07       		.byte	0x7
 686 0345 3101     		.2byte	0x131
 687 0347 5B030000 		.4byte	0x35b
 688 034b 0C       		.uleb128 0xc
 689 034c 72313300 		.ascii	"r13\000"
 690 0350 07       		.byte	0x7
 691 0351 3201     		.2byte	0x132
 692 0353 5B030000 		.4byte	0x35b
 693 0357 02       		.byte	0x2
 694 0358 23       		.byte	0x23
 695 0359 00       		.uleb128 0
 696 035a 00       		.byte	0
 697 035b 09       		.uleb128 0x9
 698 035c 04       		.byte	0x4
 699 035d B0020000 		.4byte	0x2b0
 700 0361 0D       		.uleb128 0xd
 701 0362 91000000 		.4byte	0x91
 702 0366 0D       		.uleb128 0xd
 703 0367 10010000 		.4byte	0x110
 704 036b 05       		.uleb128 0x5
 705 036c 64030000 		.4byte	.LASF50
 706 0370 10       		.byte	0x10
 707 0371 08       		.byte	0x8
 708 0372 2C       		.byte	0x2c
 709 0373 A2030000 		.4byte	0x3a2
 710 0377 06       		.uleb128 0x6
 711 0378 DC000000 		.4byte	.LASF51
 712 037c 08       		.byte	0x8
 713 037d 2D       		.byte	0x2d
 714 037e 76020000 		.4byte	0x276
 715 0382 02       		.byte	0x2
 716 0383 23       		.byte	0x23
 717 0384 00       		.uleb128 0
 718 0385 06       		.uleb128 0x6
 719 0386 63060000 		.4byte	.LASF52
 720 038a 08       		.byte	0x8
 721 038b 2F       		.byte	0x2f
 722 038c 70020000 		.4byte	0x270
 723 0390 02       		.byte	0x2
 724 0391 23       		.byte	0x23
 725 0392 08       		.uleb128 0x8
 726 0393 06       		.uleb128 0x6
 727 0394 9B030000 		.4byte	.LASF53
 728 0398 08       		.byte	0x8
 729 0399 31       		.byte	0x31
 730 039a A2030000 		.4byte	0x3a2
ARM GAS  /tmp/ccqA8Rs1.s 			page 14


 731 039e 02       		.byte	0x2
 732 039f 23       		.byte	0x23
 733 03a0 0C       		.uleb128 0xc
 734 03a1 00       		.byte	0
 735 03a2 09       		.uleb128 0x9
 736 03a3 04       		.byte	0x4
 737 03a4 6B030000 		.4byte	0x36b
 738 03a8 03       		.uleb128 0x3
 739 03a9 64030000 		.4byte	.LASF50
 740 03ad 08       		.byte	0x8
 741 03ae 33       		.byte	0x33
 742 03af 6B030000 		.4byte	0x36b
 743 03b3 0E       		.uleb128 0xe
 744 03b4 04       		.byte	0x4
 745 03b5 06       		.byte	0x6
 746 03b6 96       		.byte	0x96
 747 03b7 E8030000 		.4byte	0x3e8
 748 03bb 0F       		.uleb128 0xf
 749 03bc 07000000 		.4byte	.LASF54
 750 03c0 06       		.byte	0x6
 751 03c1 9D       		.byte	0x9d
 752 03c2 FA000000 		.4byte	0xfa
 753 03c6 0F       		.uleb128 0xf
 754 03c7 8E010000 		.4byte	.LASF55
 755 03cb 06       		.byte	0x6
 756 03cc A4       		.byte	0xa4
 757 03cd FA000000 		.4byte	0xfa
 758 03d1 0F       		.uleb128 0xf
 759 03d2 2B060000 		.4byte	.LASF56
 760 03d6 06       		.byte	0x6
 761 03d7 AB       		.byte	0xab
 762 03d8 AE020000 		.4byte	0x2ae
 763 03dc 0F       		.uleb128 0xf
 764 03dd 40040000 		.4byte	.LASF57
 765 03e1 06       		.byte	0x6
 766 03e2 B2       		.byte	0xb2
 767 03e3 05010000 		.4byte	0x105
 768 03e7 00       		.byte	0
 769 03e8 09       		.uleb128 0x9
 770 03e9 04       		.byte	0x4
 771 03ea EE030000 		.4byte	0x3ee
 772 03ee 10       		.uleb128 0x10
 773 03ef F3030000 		.4byte	0x3f3
 774 03f3 04       		.uleb128 0x4
 775 03f4 01       		.byte	0x1
 776 03f5 08       		.byte	0x8
 777 03f6 E1040000 		.4byte	.LASF58
 778 03fa 09       		.uleb128 0x9
 779 03fb 04       		.byte	0x4
 780 03fc A8030000 		.4byte	0x3a8
 781 0400 09       		.uleb128 0x9
 782 0401 04       		.byte	0x4
 783 0402 06040000 		.4byte	0x406
 784 0406 11       		.uleb128 0x11
 785 0407 01       		.byte	0x1
 786 0408 FA000000 		.4byte	0xfa
 787 040c 16040000 		.4byte	0x416
ARM GAS  /tmp/ccqA8Rs1.s 			page 15


 788 0410 12       		.uleb128 0x12
 789 0411 AE020000 		.4byte	0x2ae
 790 0415 00       		.byte	0
 791 0416 09       		.uleb128 0x9
 792 0417 04       		.byte	0x4
 793 0418 49000000 		.4byte	0x49
 794 041c 05       		.uleb128 0x5
 795 041d 4E040000 		.4byte	.LASF59
 796 0421 10       		.byte	0x10
 797 0422 09       		.byte	0x9
 798 0423 48       		.byte	0x48
 799 0424 61040000 		.4byte	0x461
 800 0428 06       		.uleb128 0x6
 801 0429 3F030000 		.4byte	.LASF60
 802 042d 09       		.byte	0x9
 803 042e 49       		.byte	0x49
 804 042f 86040000 		.4byte	0x486
 805 0433 02       		.byte	0x2
 806 0434 23       		.byte	0x23
 807 0435 00       		.uleb128 0
 808 0436 06       		.uleb128 0x6
 809 0437 DC040000 		.4byte	.LASF61
 810 043b 09       		.byte	0x9
 811 043c 49       		.byte	0x49
 812 043d A6040000 		.4byte	0x4a6
 813 0441 02       		.byte	0x2
 814 0442 23       		.byte	0x23
 815 0443 04       		.uleb128 0x4
 816 0444 07       		.uleb128 0x7
 817 0445 70757400 		.ascii	"put\000"
 818 0449 09       		.byte	0x9
 819 044a 49       		.byte	0x49
 820 044b C1040000 		.4byte	0x4c1
 821 044f 02       		.byte	0x2
 822 0450 23       		.byte	0x23
 823 0451 08       		.uleb128 0x8
 824 0452 07       		.uleb128 0x7
 825 0453 67657400 		.ascii	"get\000"
 826 0457 09       		.byte	0x9
 827 0458 49       		.byte	0x49
 828 0459 00040000 		.4byte	0x400
 829 045d 02       		.byte	0x2
 830 045e 23       		.byte	0x23
 831 045f 0C       		.uleb128 0xc
 832 0460 00       		.byte	0
 833 0461 11       		.uleb128 0x11
 834 0462 01       		.byte	0x1
 835 0463 30000000 		.4byte	0x30
 836 0467 7B040000 		.4byte	0x47b
 837 046b 12       		.uleb128 0x12
 838 046c AE020000 		.4byte	0x2ae
 839 0470 12       		.uleb128 0x12
 840 0471 7B040000 		.4byte	0x47b
 841 0475 12       		.uleb128 0x12
 842 0476 30000000 		.4byte	0x30
 843 047a 00       		.byte	0
 844 047b 09       		.uleb128 0x9
ARM GAS  /tmp/ccqA8Rs1.s 			page 16


 845 047c 04       		.byte	0x4
 846 047d 81040000 		.4byte	0x481
 847 0481 10       		.uleb128 0x10
 848 0482 49000000 		.4byte	0x49
 849 0486 09       		.uleb128 0x9
 850 0487 04       		.byte	0x4
 851 0488 61040000 		.4byte	0x461
 852 048c 11       		.uleb128 0x11
 853 048d 01       		.byte	0x1
 854 048e 30000000 		.4byte	0x30
 855 0492 A6040000 		.4byte	0x4a6
 856 0496 12       		.uleb128 0x12
 857 0497 AE020000 		.4byte	0x2ae
 858 049b 12       		.uleb128 0x12
 859 049c 16040000 		.4byte	0x416
 860 04a0 12       		.uleb128 0x12
 861 04a1 30000000 		.4byte	0x30
 862 04a5 00       		.byte	0
 863 04a6 09       		.uleb128 0x9
 864 04a7 04       		.byte	0x4
 865 04a8 8C040000 		.4byte	0x48c
 866 04ac 11       		.uleb128 0x11
 867 04ad 01       		.byte	0x1
 868 04ae FA000000 		.4byte	0xfa
 869 04b2 C1040000 		.4byte	0x4c1
 870 04b6 12       		.uleb128 0x12
 871 04b7 AE020000 		.4byte	0x2ae
 872 04bb 12       		.uleb128 0x12
 873 04bc 49000000 		.4byte	0x49
 874 04c0 00       		.byte	0
 875 04c1 09       		.uleb128 0x9
 876 04c2 04       		.byte	0x4
 877 04c3 AC040000 		.4byte	0x4ac
 878 04c7 08       		.uleb128 0x8
 879 04c8 04       		.byte	0x4
 880 04c9 09       		.byte	0x9
 881 04ca 51       		.byte	0x51
 882 04cb DE040000 		.4byte	0x4de
 883 04cf 07       		.uleb128 0x7
 884 04d0 766D7400 		.ascii	"vmt\000"
 885 04d4 09       		.byte	0x9
 886 04d5 53       		.byte	0x53
 887 04d6 DE040000 		.4byte	0x4de
 888 04da 02       		.byte	0x2
 889 04db 23       		.byte	0x23
 890 04dc 00       		.uleb128 0
 891 04dd 00       		.byte	0
 892 04de 09       		.uleb128 0x9
 893 04df 04       		.byte	0x4
 894 04e0 E4040000 		.4byte	0x4e4
 895 04e4 10       		.uleb128 0x10
 896 04e5 1C040000 		.4byte	0x41c
 897 04e9 03       		.uleb128 0x3
 898 04ea CD010000 		.4byte	.LASF62
 899 04ee 09       		.byte	0x9
 900 04ef 55       		.byte	0x55
 901 04f0 C7040000 		.4byte	0x4c7
ARM GAS  /tmp/ccqA8Rs1.s 			page 17


 902 04f4 0D       		.uleb128 0xd
 903 04f5 7F000000 		.4byte	0x7f
 904 04f9 13       		.uleb128 0x13
 905 04fa 50       		.byte	0x50
 906 04fb 0A       		.byte	0xa
 907 04fc 2D02     		.2byte	0x22d
 908 04fe 2D060000 		.4byte	0x62d
 909 0502 0C       		.uleb128 0xc
 910 0503 535200   		.ascii	"SR\000"
 911 0506 0A       		.byte	0xa
 912 0507 2F02     		.2byte	0x22f
 913 0509 61030000 		.4byte	0x361
 914 050d 02       		.byte	0x2
 915 050e 23       		.byte	0x23
 916 050f 00       		.uleb128 0
 917 0510 0C       		.uleb128 0xc
 918 0511 43523100 		.ascii	"CR1\000"
 919 0515 0A       		.byte	0xa
 920 0516 3002     		.2byte	0x230
 921 0518 61030000 		.4byte	0x361
 922 051c 02       		.byte	0x2
 923 051d 23       		.byte	0x23
 924 051e 04       		.uleb128 0x4
 925 051f 0C       		.uleb128 0xc
 926 0520 43523200 		.ascii	"CR2\000"
 927 0524 0A       		.byte	0xa
 928 0525 3102     		.2byte	0x231
 929 0527 61030000 		.4byte	0x361
 930 052b 02       		.byte	0x2
 931 052c 23       		.byte	0x23
 932 052d 08       		.uleb128 0x8
 933 052e 14       		.uleb128 0x14
 934 052f 8F030000 		.4byte	.LASF63
 935 0533 0A       		.byte	0xa
 936 0534 3202     		.2byte	0x232
 937 0536 61030000 		.4byte	0x361
 938 053a 02       		.byte	0x2
 939 053b 23       		.byte	0x23
 940 053c 0C       		.uleb128 0xc
 941 053d 14       		.uleb128 0x14
 942 053e 95030000 		.4byte	.LASF64
 943 0542 0A       		.byte	0xa
 944 0543 3302     		.2byte	0x233
 945 0545 61030000 		.4byte	0x361
 946 0549 02       		.byte	0x2
 947 054a 23       		.byte	0x23
 948 054b 10       		.uleb128 0x10
 949 054c 14       		.uleb128 0x14
 950 054d 4A030000 		.4byte	.LASF65
 951 0551 0A       		.byte	0xa
 952 0552 3402     		.2byte	0x234
 953 0554 61030000 		.4byte	0x361
 954 0558 02       		.byte	0x2
 955 0559 23       		.byte	0x23
 956 055a 14       		.uleb128 0x14
 957 055b 14       		.uleb128 0x14
 958 055c 50030000 		.4byte	.LASF66
ARM GAS  /tmp/ccqA8Rs1.s 			page 18


 959 0560 0A       		.byte	0xa
 960 0561 3502     		.2byte	0x235
 961 0563 61030000 		.4byte	0x361
 962 0567 02       		.byte	0x2
 963 0568 23       		.byte	0x23
 964 0569 18       		.uleb128 0x18
 965 056a 14       		.uleb128 0x14
 966 056b 56030000 		.4byte	.LASF67
 967 056f 0A       		.byte	0xa
 968 0570 3602     		.2byte	0x236
 969 0572 61030000 		.4byte	0x361
 970 0576 02       		.byte	0x2
 971 0577 23       		.byte	0x23
 972 0578 1C       		.uleb128 0x1c
 973 0579 14       		.uleb128 0x14
 974 057a 79040000 		.4byte	.LASF68
 975 057e 0A       		.byte	0xa
 976 057f 3702     		.2byte	0x237
 977 0581 61030000 		.4byte	0x361
 978 0585 02       		.byte	0x2
 979 0586 23       		.byte	0x23
 980 0587 20       		.uleb128 0x20
 981 0588 0C       		.uleb128 0xc
 982 0589 48545200 		.ascii	"HTR\000"
 983 058d 0A       		.byte	0xa
 984 058e 3802     		.2byte	0x238
 985 0590 61030000 		.4byte	0x361
 986 0594 02       		.byte	0x2
 987 0595 23       		.byte	0x23
 988 0596 24       		.uleb128 0x24
 989 0597 0C       		.uleb128 0xc
 990 0598 4C545200 		.ascii	"LTR\000"
 991 059c 0A       		.byte	0xa
 992 059d 3902     		.2byte	0x239
 993 059f 61030000 		.4byte	0x361
 994 05a3 02       		.byte	0x2
 995 05a4 23       		.byte	0x23
 996 05a5 28       		.uleb128 0x28
 997 05a6 14       		.uleb128 0x14
 998 05a7 A2030000 		.4byte	.LASF69
 999 05ab 0A       		.byte	0xa
 1000 05ac 3A02     		.2byte	0x23a
 1001 05ae 61030000 		.4byte	0x361
 1002 05b2 02       		.byte	0x2
 1003 05b3 23       		.byte	0x23
 1004 05b4 2C       		.uleb128 0x2c
 1005 05b5 14       		.uleb128 0x14
 1006 05b6 A7030000 		.4byte	.LASF70
 1007 05ba 0A       		.byte	0xa
 1008 05bb 3B02     		.2byte	0x23b
 1009 05bd 61030000 		.4byte	0x361
 1010 05c1 02       		.byte	0x2
 1011 05c2 23       		.byte	0x23
 1012 05c3 30       		.uleb128 0x30
 1013 05c4 14       		.uleb128 0x14
 1014 05c5 AC030000 		.4byte	.LASF71
 1015 05c9 0A       		.byte	0xa
ARM GAS  /tmp/ccqA8Rs1.s 			page 19


 1016 05ca 3C02     		.2byte	0x23c
 1017 05cc 61030000 		.4byte	0x361
 1018 05d0 02       		.byte	0x2
 1019 05d1 23       		.byte	0x23
 1020 05d2 34       		.uleb128 0x34
 1021 05d3 14       		.uleb128 0x14
 1022 05d4 A6000000 		.4byte	.LASF72
 1023 05d8 0A       		.byte	0xa
 1024 05d9 3D02     		.2byte	0x23d
 1025 05db 61030000 		.4byte	0x361
 1026 05df 02       		.byte	0x2
 1027 05e0 23       		.byte	0x23
 1028 05e1 38       		.uleb128 0x38
 1029 05e2 14       		.uleb128 0x14
 1030 05e3 17060000 		.4byte	.LASF73
 1031 05e7 0A       		.byte	0xa
 1032 05e8 3E02     		.2byte	0x23e
 1033 05ea 61030000 		.4byte	0x361
 1034 05ee 02       		.byte	0x2
 1035 05ef 23       		.byte	0x23
 1036 05f0 3C       		.uleb128 0x3c
 1037 05f1 14       		.uleb128 0x14
 1038 05f2 1C060000 		.4byte	.LASF74
 1039 05f6 0A       		.byte	0xa
 1040 05f7 3F02     		.2byte	0x23f
 1041 05f9 61030000 		.4byte	0x361
 1042 05fd 02       		.byte	0x2
 1043 05fe 23       		.byte	0x23
 1044 05ff 40       		.uleb128 0x40
 1045 0600 14       		.uleb128 0x14
 1046 0601 21060000 		.4byte	.LASF75
 1047 0605 0A       		.byte	0xa
 1048 0606 4002     		.2byte	0x240
 1049 0608 61030000 		.4byte	0x361
 1050 060c 02       		.byte	0x2
 1051 060d 23       		.byte	0x23
 1052 060e 44       		.uleb128 0x44
 1053 060f 14       		.uleb128 0x14
 1054 0610 26060000 		.4byte	.LASF76
 1055 0614 0A       		.byte	0xa
 1056 0615 4102     		.2byte	0x241
 1057 0617 61030000 		.4byte	0x361
 1058 061b 02       		.byte	0x2
 1059 061c 23       		.byte	0x23
 1060 061d 48       		.uleb128 0x48
 1061 061e 0C       		.uleb128 0xc
 1062 061f 445200   		.ascii	"DR\000"
 1063 0622 0A       		.byte	0xa
 1064 0623 4202     		.2byte	0x242
 1065 0625 61030000 		.4byte	0x361
 1066 0629 02       		.byte	0x2
 1067 062a 23       		.byte	0x23
 1068 062b 4C       		.uleb128 0x4c
 1069 062c 00       		.byte	0
 1070 062d 15       		.uleb128 0x15
 1071 062e 65010000 		.4byte	.LASF77
 1072 0632 0A       		.byte	0xa
ARM GAS  /tmp/ccqA8Rs1.s 			page 20


 1073 0633 4302     		.2byte	0x243
 1074 0635 F9040000 		.4byte	0x4f9
 1075 0639 13       		.uleb128 0x13
 1076 063a 10       		.byte	0x10
 1077 063b 0A       		.byte	0xa
 1078 063c 2D03     		.2byte	0x32d
 1079 063e 7F060000 		.4byte	0x67f
 1080 0642 0C       		.uleb128 0xc
 1081 0643 43435200 		.ascii	"CCR\000"
 1082 0647 0A       		.byte	0xa
 1083 0648 2F03     		.2byte	0x32f
 1084 064a 61030000 		.4byte	0x361
 1085 064e 02       		.byte	0x2
 1086 064f 23       		.byte	0x23
 1087 0650 00       		.uleb128 0
 1088 0651 14       		.uleb128 0x14
 1089 0652 CE050000 		.4byte	.LASF78
 1090 0656 0A       		.byte	0xa
 1091 0657 3003     		.2byte	0x330
 1092 0659 61030000 		.4byte	0x361
 1093 065d 02       		.byte	0x2
 1094 065e 23       		.byte	0x23
 1095 065f 04       		.uleb128 0x4
 1096 0660 14       		.uleb128 0x14
 1097 0661 1C020000 		.4byte	.LASF79
 1098 0665 0A       		.byte	0xa
 1099 0666 3103     		.2byte	0x331
 1100 0668 61030000 		.4byte	0x361
 1101 066c 02       		.byte	0x2
 1102 066d 23       		.byte	0x23
 1103 066e 08       		.uleb128 0x8
 1104 066f 14       		.uleb128 0x14
 1105 0670 3A030000 		.4byte	.LASF80
 1106 0674 0A       		.byte	0xa
 1107 0675 3203     		.2byte	0x332
 1108 0677 61030000 		.4byte	0x361
 1109 067b 02       		.byte	0x2
 1110 067c 23       		.byte	0x23
 1111 067d 0C       		.uleb128 0xc
 1112 067e 00       		.byte	0
 1113 067f 15       		.uleb128 0x15
 1114 0680 36020000 		.4byte	.LASF81
 1115 0684 0A       		.byte	0xa
 1116 0685 3303     		.2byte	0x333
 1117 0687 39060000 		.4byte	0x639
 1118 068b 08       		.uleb128 0x8
 1119 068c 0C       		.byte	0xc
 1120 068d 0B       		.byte	0xb
 1121 068e C1       		.byte	0xc1
 1122 068f DA060000 		.4byte	0x6da
 1123 0693 06       		.uleb128 0x6
 1124 0694 7F040000 		.4byte	.LASF82
 1125 0698 0B       		.byte	0xb
 1126 0699 C2       		.byte	0xc2
 1127 069a DA060000 		.4byte	0x6da
 1128 069e 02       		.byte	0x2
 1129 069f 23       		.byte	0x23
ARM GAS  /tmp/ccqA8Rs1.s 			page 21


 1130 06a0 00       		.uleb128 0
 1131 06a1 06       		.uleb128 0x6
 1132 06a2 92040000 		.4byte	.LASF83
 1133 06a6 0B       		.byte	0xb
 1134 06a7 C3       		.byte	0xc3
 1135 06a8 E0060000 		.4byte	0x6e0
 1136 06ac 02       		.byte	0x2
 1137 06ad 23       		.byte	0x23
 1138 06ae 04       		.uleb128 0x4
 1139 06af 06       		.uleb128 0x6
 1140 06b0 4A020000 		.4byte	.LASF84
 1141 06b4 0B       		.byte	0xb
 1142 06b5 C4       		.byte	0xc4
 1143 06b6 49000000 		.4byte	0x49
 1144 06ba 02       		.byte	0x2
 1145 06bb 23       		.byte	0x23
 1146 06bc 08       		.uleb128 0x8
 1147 06bd 06       		.uleb128 0x6
 1148 06be AC010000 		.4byte	.LASF85
 1149 06c2 0B       		.byte	0xb
 1150 06c3 C6       		.byte	0xc6
 1151 06c4 49000000 		.4byte	0x49
 1152 06c8 02       		.byte	0x2
 1153 06c9 23       		.byte	0x23
 1154 06ca 09       		.uleb128 0x9
 1155 06cb 06       		.uleb128 0x6
 1156 06cc 21000000 		.4byte	.LASF86
 1157 06d0 0B       		.byte	0xb
 1158 06d1 C7       		.byte	0xc7
 1159 06d2 49000000 		.4byte	0x49
 1160 06d6 02       		.byte	0x2
 1161 06d7 23       		.byte	0x23
 1162 06d8 0A       		.uleb128 0xa
 1163 06d9 00       		.byte	0
 1164 06da 09       		.uleb128 0x9
 1165 06db 04       		.byte	0x4
 1166 06dc 7F060000 		.4byte	0x67f
 1167 06e0 09       		.uleb128 0x9
 1168 06e1 04       		.byte	0x4
 1169 06e2 61030000 		.4byte	0x361
 1170 06e6 03       		.uleb128 0x3
 1171 06e7 D4030000 		.4byte	.LASF87
 1172 06eb 0B       		.byte	0xb
 1173 06ec C8       		.byte	0xc8
 1174 06ed 8B060000 		.4byte	0x68b
 1175 06f1 16       		.uleb128 0x16
 1176 06f2 01       		.byte	0x1
 1177 06f3 0C       		.byte	0xc
 1178 06f4 55       		.byte	0x55
 1179 06f5 1E070000 		.4byte	0x71e
 1180 06f9 17       		.uleb128 0x17
 1181 06fa 87000000 		.4byte	.LASF88
 1182 06fe 00       		.sleb128 0
 1183 06ff 17       		.uleb128 0x17
 1184 0700 6A030000 		.4byte	.LASF89
 1185 0704 01       		.sleb128 1
 1186 0705 17       		.uleb128 0x17
ARM GAS  /tmp/ccqA8Rs1.s 			page 22


 1187 0706 6E020000 		.4byte	.LASF90
 1188 070a 02       		.sleb128 2
 1189 070b 17       		.uleb128 0x17
 1190 070c 6E040000 		.4byte	.LASF91
 1191 0710 03       		.sleb128 3
 1192 0711 17       		.uleb128 0x17
 1193 0712 34000000 		.4byte	.LASF92
 1194 0716 04       		.sleb128 4
 1195 0717 17       		.uleb128 0x17
 1196 0718 B6050000 		.4byte	.LASF93
 1197 071c 05       		.sleb128 5
 1198 071d 00       		.byte	0
 1199 071e 03       		.uleb128 0x3
 1200 071f 16000000 		.4byte	.LASF94
 1201 0723 0C       		.byte	0xc
 1202 0724 5C       		.byte	0x5c
 1203 0725 F1060000 		.4byte	0x6f1
 1204 0729 03       		.uleb128 0x3
 1205 072a 97010000 		.4byte	.LASF95
 1206 072e 0D       		.byte	0xd
 1207 072f 87       		.byte	0x87
 1208 0730 6D000000 		.4byte	0x6d
 1209 0734 03       		.uleb128 0x3
 1210 0735 3D060000 		.4byte	.LASF96
 1211 0739 0D       		.byte	0xd
 1212 073a 8C       		.byte	0x8c
 1213 073b 6D000000 		.4byte	0x6d
 1214 073f 16       		.uleb128 0x16
 1215 0740 01       		.byte	0x1
 1216 0741 0D       		.byte	0xd
 1217 0742 93       		.byte	0x93
 1218 0743 4E070000 		.4byte	0x74e
 1219 0747 17       		.uleb128 0x17
 1220 0748 0E010000 		.4byte	.LASF97
 1221 074c 00       		.sleb128 0
 1222 074d 00       		.byte	0
 1223 074e 03       		.uleb128 0x3
 1224 074f E4000000 		.4byte	.LASF98
 1225 0753 0D       		.byte	0xd
 1226 0754 95       		.byte	0x95
 1227 0755 3F070000 		.4byte	0x73f
 1228 0759 03       		.uleb128 0x3
 1229 075a 2C020000 		.4byte	.LASF99
 1230 075e 0D       		.byte	0xd
 1231 075f 9A       		.byte	0x9a
 1232 0760 64070000 		.4byte	0x764
 1233 0764 05       		.uleb128 0x5
 1234 0765 2C020000 		.4byte	.LASF99
 1235 0769 34       		.byte	0x34
 1236 076a 0D       		.byte	0xd
 1237 076b FE       		.byte	0xfe
 1238 076c 07080000 		.4byte	0x807
 1239 0770 14       		.uleb128 0x14
 1240 0771 F6000000 		.4byte	.LASF100
 1241 0775 0D       		.byte	0xd
 1242 0776 0201     		.2byte	0x102
 1243 0778 1E070000 		.4byte	0x71e
ARM GAS  /tmp/ccqA8Rs1.s 			page 23


 1244 077c 02       		.byte	0x2
 1245 077d 23       		.byte	0x23
 1246 077e 00       		.uleb128 0
 1247 077f 14       		.uleb128 0x14
 1248 0780 1E050000 		.4byte	.LASF101
 1249 0784 0D       		.byte	0xd
 1250 0785 0601     		.2byte	0x106
 1251 0787 2C090000 		.4byte	0x92c
 1252 078b 02       		.byte	0x2
 1253 078c 23       		.byte	0x23
 1254 078d 04       		.uleb128 0x4
 1255 078e 14       		.uleb128 0x14
 1256 078f 5C030000 		.4byte	.LASF102
 1257 0793 0D       		.byte	0xd
 1258 0794 0A01     		.2byte	0x10a
 1259 0796 34080000 		.4byte	0x834
 1260 079a 02       		.byte	0x2
 1261 079b 23       		.byte	0x23
 1262 079c 08       		.uleb128 0x8
 1263 079d 14       		.uleb128 0x14
 1264 079e 78020000 		.4byte	.LASF103
 1265 07a2 0D       		.byte	0xd
 1266 07a3 0E01     		.2byte	0x10e
 1267 07a5 30000000 		.4byte	0x30
 1268 07a9 02       		.byte	0x2
 1269 07aa 23       		.byte	0x23
 1270 07ab 0C       		.uleb128 0xc
 1271 07ac 14       		.uleb128 0x14
 1272 07ad 45030000 		.4byte	.LASF104
 1273 07b1 0D       		.byte	0xd
 1274 07b2 1201     		.2byte	0x112
 1275 07b4 37090000 		.4byte	0x937
 1276 07b8 02       		.byte	0x2
 1277 07b9 23       		.byte	0x23
 1278 07ba 10       		.uleb128 0x10
 1279 07bb 14       		.uleb128 0x14
 1280 07bc 4E010000 		.4byte	.LASF105
 1281 07c0 0D       		.byte	0xd
 1282 07c1 1701     		.2byte	0x117
 1283 07c3 70020000 		.4byte	0x270
 1284 07c7 02       		.byte	0x2
 1285 07c8 23       		.byte	0x23
 1286 07c9 14       		.uleb128 0x14
 1287 07ca 14       		.uleb128 0x14
 1288 07cb EF030000 		.4byte	.LASF106
 1289 07cf 0D       		.byte	0xd
 1290 07d0 1E01     		.2byte	0x11e
 1291 07d2 A8030000 		.4byte	0x3a8
 1292 07d6 02       		.byte	0x2
 1293 07d7 23       		.byte	0x23
 1294 07d8 18       		.uleb128 0x18
 1295 07d9 0C       		.uleb128 0xc
 1296 07da 61646300 		.ascii	"adc\000"
 1297 07de 0D       		.byte	0xd
 1298 07df 2A01     		.2byte	0x12a
 1299 07e1 42090000 		.4byte	0x942
 1300 07e5 02       		.byte	0x2
ARM GAS  /tmp/ccqA8Rs1.s 			page 24


 1301 07e6 23       		.byte	0x23
 1302 07e7 28       		.uleb128 0x28
 1303 07e8 14       		.uleb128 0x14
 1304 07e9 EF000000 		.4byte	.LASF107
 1305 07ed 0D       		.byte	0xd
 1306 07ee 2E01     		.2byte	0x12e
 1307 07f0 48090000 		.4byte	0x948
 1308 07f4 02       		.byte	0x2
 1309 07f5 23       		.byte	0x23
 1310 07f6 2C       		.uleb128 0x2c
 1311 07f7 14       		.uleb128 0x14
 1312 07f8 0E000000 		.4byte	.LASF108
 1313 07fc 0D       		.byte	0xd
 1314 07fd 3201     		.2byte	0x132
 1315 07ff 91000000 		.4byte	0x91
 1316 0803 02       		.byte	0x2
 1317 0804 23       		.byte	0x23
 1318 0805 30       		.uleb128 0x30
 1319 0806 00       		.byte	0
 1320 0807 03       		.uleb128 0x3
 1321 0808 80010000 		.4byte	.LASF109
 1322 080c 0D       		.byte	0xd
 1323 080d A4       		.byte	0xa4
 1324 080e 12080000 		.4byte	0x812
 1325 0812 09       		.uleb128 0x9
 1326 0813 04       		.byte	0x4
 1327 0814 18080000 		.4byte	0x818
 1328 0818 18       		.uleb128 0x18
 1329 0819 01       		.byte	0x1
 1330 081a 2E080000 		.4byte	0x82e
 1331 081e 12       		.uleb128 0x12
 1332 081f 2E080000 		.4byte	0x82e
 1333 0823 12       		.uleb128 0x12
 1334 0824 34080000 		.4byte	0x834
 1335 0828 12       		.uleb128 0x12
 1336 0829 30000000 		.4byte	0x30
 1337 082d 00       		.byte	0
 1338 082e 09       		.uleb128 0x9
 1339 082f 04       		.byte	0x4
 1340 0830 59070000 		.4byte	0x759
 1341 0834 09       		.uleb128 0x9
 1342 0835 04       		.byte	0x4
 1343 0836 29070000 		.4byte	0x729
 1344 083a 03       		.uleb128 0x3
 1345 083b 21010000 		.4byte	.LASF110
 1346 083f 0D       		.byte	0xd
 1347 0840 AD       		.byte	0xad
 1348 0841 45080000 		.4byte	0x845
 1349 0845 09       		.uleb128 0x9
 1350 0846 04       		.byte	0x4
 1351 0847 4B080000 		.4byte	0x84b
 1352 084b 18       		.uleb128 0x18
 1353 084c 01       		.byte	0x1
 1354 084d 5C080000 		.4byte	0x85c
 1355 0851 12       		.uleb128 0x12
 1356 0852 2E080000 		.4byte	0x82e
 1357 0856 12       		.uleb128 0x12
ARM GAS  /tmp/ccqA8Rs1.s 			page 25


 1358 0857 4E070000 		.4byte	0x74e
 1359 085b 00       		.byte	0
 1360 085c 08       		.uleb128 0x8
 1361 085d 28       		.byte	0x28
 1362 085e 0D       		.byte	0xd
 1363 085f B7       		.byte	0xb7
 1364 0860 FF080000 		.4byte	0x8ff
 1365 0864 06       		.uleb128 0x6
 1366 0865 FC000000 		.4byte	.LASF111
 1367 0869 0D       		.byte	0xd
 1368 086a BB       		.byte	0xbb
 1369 086b B1000000 		.4byte	0xb1
 1370 086f 02       		.byte	0x2
 1371 0870 23       		.byte	0x23
 1372 0871 00       		.uleb128 0
 1373 0872 06       		.uleb128 0x6
 1374 0873 41000000 		.4byte	.LASF112
 1375 0877 0D       		.byte	0xd
 1376 0878 BF       		.byte	0xbf
 1377 0879 34070000 		.4byte	0x734
 1378 087d 02       		.byte	0x2
 1379 087e 23       		.byte	0x23
 1380 087f 02       		.uleb128 0x2
 1381 0880 06       		.uleb128 0x6
 1382 0881 79010000 		.4byte	.LASF113
 1383 0885 0D       		.byte	0xd
 1384 0886 C3       		.byte	0xc3
 1385 0887 07080000 		.4byte	0x807
 1386 088b 02       		.byte	0x2
 1387 088c 23       		.byte	0x23
 1388 088d 04       		.uleb128 0x4
 1389 088e 06       		.uleb128 0x6
 1390 088f 37040000 		.4byte	.LASF114
 1391 0893 0D       		.byte	0xd
 1392 0894 C7       		.byte	0xc7
 1393 0895 3A080000 		.4byte	0x83a
 1394 0899 02       		.byte	0x2
 1395 089a 23       		.byte	0x23
 1396 089b 08       		.uleb128 0x8
 1397 089c 07       		.uleb128 0x7
 1398 089d 63723100 		.ascii	"cr1\000"
 1399 08a1 0D       		.byte	0xd
 1400 08a2 CE       		.byte	0xce
 1401 08a3 91000000 		.4byte	0x91
 1402 08a7 02       		.byte	0x2
 1403 08a8 23       		.byte	0x23
 1404 08a9 0C       		.uleb128 0xc
 1405 08aa 07       		.uleb128 0x7
 1406 08ab 63723200 		.ascii	"cr2\000"
 1407 08af 0D       		.byte	0xd
 1408 08b0 D5       		.byte	0xd5
 1409 08b1 91000000 		.4byte	0x91
 1410 08b5 02       		.byte	0x2
 1411 08b6 23       		.byte	0x23
 1412 08b7 10       		.uleb128 0x10
 1413 08b8 06       		.uleb128 0x6
 1414 08b9 C4040000 		.4byte	.LASF115
ARM GAS  /tmp/ccqA8Rs1.s 			page 26


 1415 08bd 0D       		.byte	0xd
 1416 08be DB       		.byte	0xdb
 1417 08bf 91000000 		.4byte	0x91
 1418 08c3 02       		.byte	0x2
 1419 08c4 23       		.byte	0x23
 1420 08c5 14       		.uleb128 0x14
 1421 08c6 06       		.uleb128 0x6
 1422 08c7 D4050000 		.4byte	.LASF116
 1423 08cb 0D       		.byte	0xd
 1424 08cc E1       		.byte	0xe1
 1425 08cd 91000000 		.4byte	0x91
 1426 08d1 02       		.byte	0x2
 1427 08d2 23       		.byte	0x23
 1428 08d3 18       		.uleb128 0x18
 1429 08d4 06       		.uleb128 0x6
 1430 08d5 6E050000 		.4byte	.LASF117
 1431 08d9 0D       		.byte	0xd
 1432 08da E6       		.byte	0xe6
 1433 08db 91000000 		.4byte	0x91
 1434 08df 02       		.byte	0x2
 1435 08e0 23       		.byte	0x23
 1436 08e1 1C       		.uleb128 0x1c
 1437 08e2 06       		.uleb128 0x6
 1438 08e3 73050000 		.4byte	.LASF118
 1439 08e7 0D       		.byte	0xd
 1440 08e8 EB       		.byte	0xeb
 1441 08e9 91000000 		.4byte	0x91
 1442 08ed 02       		.byte	0x2
 1443 08ee 23       		.byte	0x23
 1444 08ef 20       		.uleb128 0x20
 1445 08f0 06       		.uleb128 0x6
 1446 08f1 78050000 		.4byte	.LASF119
 1447 08f5 0D       		.byte	0xd
 1448 08f6 F0       		.byte	0xf0
 1449 08f7 91000000 		.4byte	0x91
 1450 08fb 02       		.byte	0x2
 1451 08fc 23       		.byte	0x23
 1452 08fd 24       		.uleb128 0x24
 1453 08fe 00       		.byte	0
 1454 08ff 03       		.uleb128 0x3
 1455 0900 04060000 		.4byte	.LASF120
 1456 0904 0D       		.byte	0xd
 1457 0905 F1       		.byte	0xf1
 1458 0906 5C080000 		.4byte	0x85c
 1459 090a 08       		.uleb128 0x8
 1460 090b 04       		.byte	0x4
 1461 090c 0D       		.byte	0xd
 1462 090d F7       		.byte	0xf7
 1463 090e 21090000 		.4byte	0x921
 1464 0912 06       		.uleb128 0x6
 1465 0913 C0010000 		.4byte	.LASF121
 1466 0917 0D       		.byte	0xd
 1467 0918 F8       		.byte	0xf8
 1468 0919 91000000 		.4byte	0x91
 1469 091d 02       		.byte	0x2
 1470 091e 23       		.byte	0x23
 1471 091f 00       		.uleb128 0
ARM GAS  /tmp/ccqA8Rs1.s 			page 27


 1472 0920 00       		.byte	0
 1473 0921 03       		.uleb128 0x3
 1474 0922 A6040000 		.4byte	.LASF122
 1475 0926 0D       		.byte	0xd
 1476 0927 F9       		.byte	0xf9
 1477 0928 0A090000 		.4byte	0x90a
 1478 092c 09       		.uleb128 0x9
 1479 092d 04       		.byte	0x4
 1480 092e 32090000 		.4byte	0x932
 1481 0932 10       		.uleb128 0x10
 1482 0933 21090000 		.4byte	0x921
 1483 0937 09       		.uleb128 0x9
 1484 0938 04       		.byte	0x4
 1485 0939 3D090000 		.4byte	0x93d
 1486 093d 10       		.uleb128 0x10
 1487 093e FF080000 		.4byte	0x8ff
 1488 0942 09       		.uleb128 0x9
 1489 0943 04       		.byte	0x4
 1490 0944 2D060000 		.4byte	0x62d
 1491 0948 09       		.uleb128 0x9
 1492 0949 04       		.byte	0x4
 1493 094a 4E090000 		.4byte	0x94e
 1494 094e 10       		.uleb128 0x10
 1495 094f E6060000 		.4byte	0x6e6
 1496 0953 03       		.uleb128 0x3
 1497 0954 A5050000 		.4byte	.LASF123
 1498 0958 0E       		.byte	0xe
 1499 0959 39       		.byte	0x39
 1500 095a E9040000 		.4byte	0x4e9
 1501 095e 16       		.uleb128 0x16
 1502 095f 01       		.byte	0x1
 1503 0960 0F       		.byte	0xf
 1504 0961 8D       		.byte	0x8d
 1505 0962 BB090000 		.4byte	0x9bb
 1506 0966 17       		.uleb128 0x17
 1507 0967 3D010000 		.4byte	.LASF124
 1508 096b 7F       		.sleb128 -1
 1509 096c 17       		.uleb128 0x17
 1510 096d 84020000 		.4byte	.LASF125
 1511 0971 00       		.sleb128 0
 1512 0972 17       		.uleb128 0x17
 1513 0973 92020000 		.4byte	.LASF126
 1514 0977 01       		.sleb128 1
 1515 0978 17       		.uleb128 0x17
 1516 0979 A0020000 		.4byte	.LASF127
 1517 097d 02       		.sleb128 2
 1518 097e 17       		.uleb128 0x17
 1519 097f AE020000 		.4byte	.LASF128
 1520 0983 03       		.sleb128 3
 1521 0984 17       		.uleb128 0x17
 1522 0985 BC020000 		.4byte	.LASF129
 1523 0989 04       		.sleb128 4
 1524 098a 17       		.uleb128 0x17
 1525 098b CA020000 		.4byte	.LASF130
 1526 098f 05       		.sleb128 5
 1527 0990 17       		.uleb128 0x17
 1528 0991 D8020000 		.4byte	.LASF131
ARM GAS  /tmp/ccqA8Rs1.s 			page 28


 1529 0995 06       		.sleb128 6
 1530 0996 17       		.uleb128 0x17
 1531 0997 E6020000 		.4byte	.LASF132
 1532 099b 07       		.sleb128 7
 1533 099c 17       		.uleb128 0x17
 1534 099d F4020000 		.4byte	.LASF133
 1535 09a1 08       		.sleb128 8
 1536 09a2 17       		.uleb128 0x17
 1537 09a3 41050000 		.4byte	.LASF134
 1538 09a7 09       		.sleb128 9
 1539 09a8 17       		.uleb128 0x17
 1540 09a9 50050000 		.4byte	.LASF135
 1541 09ad 0A       		.sleb128 10
 1542 09ae 17       		.uleb128 0x17
 1543 09af 5F050000 		.4byte	.LASF136
 1544 09b3 0B       		.sleb128 11
 1545 09b4 17       		.uleb128 0x17
 1546 09b5 77000000 		.4byte	.LASF137
 1547 09b9 0C       		.sleb128 12
 1548 09ba 00       		.byte	0
 1549 09bb 16       		.uleb128 0x16
 1550 09bc 01       		.byte	0x1
 1551 09bd 0F       		.byte	0xf
 1552 09be A2       		.byte	0xa2
 1553 09bf D0090000 		.4byte	0x9d0
 1554 09c3 17       		.uleb128 0x17
 1555 09c4 7B060000 		.4byte	.LASF138
 1556 09c8 00       		.sleb128 0
 1557 09c9 17       		.uleb128 0x17
 1558 09ca 4E000000 		.4byte	.LASF139
 1559 09ce 01       		.sleb128 1
 1560 09cf 00       		.byte	0
 1561 09d0 16       		.uleb128 0x16
 1562 09d1 01       		.byte	0x1
 1563 09d2 10       		.byte	0x10
 1564 09d3 46       		.byte	0x46
 1565 09d4 160A0000 		.4byte	0xa16
 1566 09d8 17       		.uleb128 0x17
 1567 09d9 B1030000 		.4byte	.LASF140
 1568 09dd 00       		.sleb128 0
 1569 09de 17       		.uleb128 0x17
 1570 09df E6040000 		.4byte	.LASF141
 1571 09e3 01       		.sleb128 1
 1572 09e4 17       		.uleb128 0x17
 1573 09e5 F4040000 		.4byte	.LASF142
 1574 09e9 02       		.sleb128 2
 1575 09ea 17       		.uleb128 0x17
 1576 09eb 02050000 		.4byte	.LASF143
 1577 09ef 03       		.sleb128 3
 1578 09f0 17       		.uleb128 0x17
 1579 09f1 10050000 		.4byte	.LASF144
 1580 09f5 04       		.sleb128 4
 1581 09f6 17       		.uleb128 0x17
 1582 09f7 BF030000 		.4byte	.LASF145
 1583 09fb 05       		.sleb128 5
 1584 09fc 17       		.uleb128 0x17
 1585 09fd 25050000 		.4byte	.LASF146
ARM GAS  /tmp/ccqA8Rs1.s 			page 29


 1586 0a01 06       		.sleb128 6
 1587 0a02 17       		.uleb128 0x17
 1588 0a03 33050000 		.4byte	.LASF147
 1589 0a07 07       		.sleb128 7
 1590 0a08 17       		.uleb128 0x17
 1591 0a09 B6010000 		.4byte	.LASF148
 1592 0a0d 08       		.sleb128 8
 1593 0a0e 17       		.uleb128 0x17
 1594 0a0f EC050000 		.4byte	.LASF149
 1595 0a13 E300     		.sleb128 99
 1596 0a15 00       		.byte	0
 1597 0a16 09       		.uleb128 0x9
 1598 0a17 04       		.byte	0x4
 1599 0a18 53090000 		.4byte	0x953
 1600 0a1c 09       		.uleb128 0x9
 1601 0a1d 04       		.byte	0x4
 1602 0a1e 220A0000 		.4byte	0xa22
 1603 0a22 09       		.uleb128 0x9
 1604 0a23 04       		.byte	0x4
 1605 0a24 F3030000 		.4byte	0x3f3
 1606 0a28 19       		.uleb128 0x19
 1607 0a29 01       		.byte	0x1
 1608 0a2a 51020000 		.4byte	.LASF160
 1609 0a2e 01       		.byte	0x1
 1610 0a2f 78       		.byte	0x78
 1611 0a30 01       		.byte	0x1
 1612 0a31 5B000000 		.4byte	0x5b
 1613 0a35 01       		.byte	0x1
 1614 0a36 460A0000 		.4byte	0xa46
 1615 0a3a 1A       		.uleb128 0x1a
 1616 0a3b 32060000 		.4byte	.LASF161
 1617 0a3f 01       		.byte	0x1
 1618 0a40 78       		.byte	0x78
 1619 0a41 5B000000 		.4byte	0x5b
 1620 0a45 00       		.byte	0
 1621 0a46 1B       		.uleb128 0x1b
 1622 0a47 01       		.byte	0x1
 1623 0a48 92050000 		.4byte	.LASF162
 1624 0a4c 01       		.byte	0x1
 1625 0a4d 67       		.byte	0x67
 1626 0a4e 01       		.byte	0x1
 1627 0a4f 00000000 		.4byte	.LFB63
 1628 0a53 38000000 		.4byte	.LFE63
 1629 0a57 00000000 		.4byte	.LLST0
 1630 0a5b 1C       		.uleb128 0x1c
 1631 0a5c 280A0000 		.4byte	0xa28
 1632 0a60 00000000 		.4byte	.LFB64
 1633 0a64 1A000000 		.4byte	.LFE64
 1634 0a68 02       		.byte	0x2
 1635 0a69 7D       		.byte	0x7d
 1636 0a6a 00       		.sleb128 0
 1637 0a6b 790A0000 		.4byte	0xa79
 1638 0a6f 1D       		.uleb128 0x1d
 1639 0a70 3A0A0000 		.4byte	0xa3a
 1640 0a74 20000000 		.4byte	.LLST1
 1641 0a78 00       		.byte	0
 1642 0a79 1E       		.uleb128 0x1e
ARM GAS  /tmp/ccqA8Rs1.s 			page 30


 1643 0a7a 01       		.byte	0x1
 1644 0a7b DA050000 		.4byte	.LASF163
 1645 0a7f 01       		.byte	0x1
 1646 0a80 88       		.byte	0x88
 1647 0a81 01       		.byte	0x1
 1648 0a82 00000000 		.4byte	.LFB65
 1649 0a86 86000000 		.4byte	.LFE65
 1650 0a8a 33000000 		.4byte	.LLST2
 1651 0a8e E60A0000 		.4byte	0xae6
 1652 0a92 1F       		.uleb128 0x1f
 1653 0a93 63687000 		.ascii	"chp\000"
 1654 0a97 01       		.byte	0x1
 1655 0a98 88       		.byte	0x88
 1656 0a99 160A0000 		.4byte	0xa16
 1657 0a9d 53000000 		.4byte	.LLST3
 1658 0aa1 20       		.uleb128 0x20
 1659 0aa2 38060000 		.4byte	.LASF150
 1660 0aa6 01       		.byte	0x1
 1661 0aa7 88       		.byte	0x88
 1662 0aa8 29000000 		.4byte	0x29
 1663 0aac 71000000 		.4byte	.LLST4
 1664 0ab0 20       		.uleb128 0x20
 1665 0ab1 5E060000 		.4byte	.LASF151
 1666 0ab5 01       		.byte	0x1
 1667 0ab6 88       		.byte	0x88
 1668 0ab7 1C0A0000 		.4byte	0xa1c
 1669 0abb 84000000 		.4byte	.LLST5
 1670 0abf 21       		.uleb128 0x21
 1671 0ac0 6900     		.ascii	"i\000"
 1672 0ac2 01       		.byte	0x1
 1673 0ac3 8A       		.byte	0x8a
 1674 0ac4 29000000 		.4byte	0x29
 1675 0ac8 97000000 		.4byte	.LLST6
 1676 0acc 22       		.uleb128 0x22
 1677 0acd 280A0000 		.4byte	0xa28
 1678 0ad1 06000000 		.4byte	.LBB4
 1679 0ad5 00000000 		.4byte	.Ldebug_ranges0+0
 1680 0ad9 01       		.byte	0x1
 1681 0ada 90       		.byte	0x90
 1682 0adb 1D       		.uleb128 0x1d
 1683 0adc 3A0A0000 		.4byte	0xa3a
 1684 0ae0 97000000 		.4byte	.LLST6
 1685 0ae4 00       		.byte	0
 1686 0ae5 00       		.byte	0
 1687 0ae6 23       		.uleb128 0x23
 1688 0ae7 73030000 		.4byte	.LASF152
 1689 0aeb 01       		.byte	0x1
 1690 0aec 38       		.byte	0x38
 1691 0aed 21090000 		.4byte	0x921
 1692 0af1 05       		.byte	0x5
 1693 0af2 03       		.byte	0x3
 1694 0af3 00000000 		.4byte	adccfg
 1695 0af7 24       		.uleb128 0x24
 1696 0af8 29070000 		.4byte	0x729
 1697 0afc 070B0000 		.4byte	0xb07
 1698 0b00 25       		.uleb128 0x25
 1699 0b01 3B000000 		.4byte	0x3b
ARM GAS  /tmp/ccqA8Rs1.s 			page 31


 1700 0b05 07       		.byte	0x7
 1701 0b06 00       		.byte	0
 1702 0b07 23       		.uleb128 0x23
 1703 0b08 28000000 		.4byte	.LASF153
 1704 0b0c 01       		.byte	0x1
 1705 0b0d 3C       		.byte	0x3c
 1706 0b0e F70A0000 		.4byte	0xaf7
 1707 0b12 05       		.byte	0x5
 1708 0b13 03       		.byte	0x3
 1709 0b14 00000000 		.4byte	samples_buf
 1710 0b18 23       		.uleb128 0x23
 1711 0b19 A0040000 		.4byte	.LASF154
 1712 0b1d 01       		.byte	0x1
 1713 0b1e 3F       		.byte	0x3f
 1714 0b1f FF080000 		.4byte	0x8ff
 1715 0b23 05       		.byte	0x5
 1716 0b24 03       		.byte	0x3
 1717 0b25 00000000 		.4byte	adccg
 1718 0b29 26       		.uleb128 0x26
 1719 0b2a 92000000 		.4byte	.LASF155
 1720 0b2e 11       		.byte	0x11
 1721 0b2f 0706     		.2byte	0x607
 1722 0b31 F4040000 		.4byte	0x4f4
 1723 0b35 01       		.byte	0x1
 1724 0b36 01       		.byte	0x1
 1725 0b37 26       		.uleb128 0x26
 1726 0b38 E6050000 		.4byte	.LASF156
 1727 0b3c 0D       		.byte	0xd
 1728 0b3d 7601     		.2byte	0x176
 1729 0b3f 59070000 		.4byte	0x759
 1730 0b43 01       		.byte	0x1
 1731 0b44 01       		.byte	0x1
 1732 0b45 00       		.byte	0
 1733              		.section	.debug_abbrev,"",%progbits
 1734              	.Ldebug_abbrev0:
 1735 0000 01       		.uleb128 0x1
 1736 0001 11       		.uleb128 0x11
 1737 0002 01       		.byte	0x1
 1738 0003 25       		.uleb128 0x25
 1739 0004 0E       		.uleb128 0xe
 1740 0005 13       		.uleb128 0x13
 1741 0006 0B       		.uleb128 0xb
 1742 0007 03       		.uleb128 0x3
 1743 0008 0E       		.uleb128 0xe
 1744 0009 1B       		.uleb128 0x1b
 1745 000a 0E       		.uleb128 0xe
 1746 000b 11       		.uleb128 0x11
 1747 000c 01       		.uleb128 0x1
 1748 000d 52       		.uleb128 0x52
 1749 000e 01       		.uleb128 0x1
 1750 000f 55       		.uleb128 0x55
 1751 0010 06       		.uleb128 0x6
 1752 0011 10       		.uleb128 0x10
 1753 0012 06       		.uleb128 0x6
 1754 0013 00       		.byte	0
 1755 0014 00       		.byte	0
 1756 0015 02       		.uleb128 0x2
ARM GAS  /tmp/ccqA8Rs1.s 			page 32


 1757 0016 24       		.uleb128 0x24
 1758 0017 00       		.byte	0
 1759 0018 0B       		.uleb128 0xb
 1760 0019 0B       		.uleb128 0xb
 1761 001a 3E       		.uleb128 0x3e
 1762 001b 0B       		.uleb128 0xb
 1763 001c 03       		.uleb128 0x3
 1764 001d 08       		.uleb128 0x8
 1765 001e 00       		.byte	0
 1766 001f 00       		.byte	0
 1767 0020 03       		.uleb128 0x3
 1768 0021 16       		.uleb128 0x16
 1769 0022 00       		.byte	0
 1770 0023 03       		.uleb128 0x3
 1771 0024 0E       		.uleb128 0xe
 1772 0025 3A       		.uleb128 0x3a
 1773 0026 0B       		.uleb128 0xb
 1774 0027 3B       		.uleb128 0x3b
 1775 0028 0B       		.uleb128 0xb
 1776 0029 49       		.uleb128 0x49
 1777 002a 13       		.uleb128 0x13
 1778 002b 00       		.byte	0
 1779 002c 00       		.byte	0
 1780 002d 04       		.uleb128 0x4
 1781 002e 24       		.uleb128 0x24
 1782 002f 00       		.byte	0
 1783 0030 0B       		.uleb128 0xb
 1784 0031 0B       		.uleb128 0xb
 1785 0032 3E       		.uleb128 0x3e
 1786 0033 0B       		.uleb128 0xb
 1787 0034 03       		.uleb128 0x3
 1788 0035 0E       		.uleb128 0xe
 1789 0036 00       		.byte	0
 1790 0037 00       		.byte	0
 1791 0038 05       		.uleb128 0x5
 1792 0039 13       		.uleb128 0x13
 1793 003a 01       		.byte	0x1
 1794 003b 03       		.uleb128 0x3
 1795 003c 0E       		.uleb128 0xe
 1796 003d 0B       		.uleb128 0xb
 1797 003e 0B       		.uleb128 0xb
 1798 003f 3A       		.uleb128 0x3a
 1799 0040 0B       		.uleb128 0xb
 1800 0041 3B       		.uleb128 0x3b
 1801 0042 0B       		.uleb128 0xb
 1802 0043 01       		.uleb128 0x1
 1803 0044 13       		.uleb128 0x13
 1804 0045 00       		.byte	0
 1805 0046 00       		.byte	0
 1806 0047 06       		.uleb128 0x6
 1807 0048 0D       		.uleb128 0xd
 1808 0049 00       		.byte	0
 1809 004a 03       		.uleb128 0x3
 1810 004b 0E       		.uleb128 0xe
 1811 004c 3A       		.uleb128 0x3a
 1812 004d 0B       		.uleb128 0xb
 1813 004e 3B       		.uleb128 0x3b
ARM GAS  /tmp/ccqA8Rs1.s 			page 33


 1814 004f 0B       		.uleb128 0xb
 1815 0050 49       		.uleb128 0x49
 1816 0051 13       		.uleb128 0x13
 1817 0052 38       		.uleb128 0x38
 1818 0053 0A       		.uleb128 0xa
 1819 0054 00       		.byte	0
 1820 0055 00       		.byte	0
 1821 0056 07       		.uleb128 0x7
 1822 0057 0D       		.uleb128 0xd
 1823 0058 00       		.byte	0
 1824 0059 03       		.uleb128 0x3
 1825 005a 08       		.uleb128 0x8
 1826 005b 3A       		.uleb128 0x3a
 1827 005c 0B       		.uleb128 0xb
 1828 005d 3B       		.uleb128 0x3b
 1829 005e 0B       		.uleb128 0xb
 1830 005f 49       		.uleb128 0x49
 1831 0060 13       		.uleb128 0x13
 1832 0061 38       		.uleb128 0x38
 1833 0062 0A       		.uleb128 0xa
 1834 0063 00       		.byte	0
 1835 0064 00       		.byte	0
 1836 0065 08       		.uleb128 0x8
 1837 0066 13       		.uleb128 0x13
 1838 0067 01       		.byte	0x1
 1839 0068 0B       		.uleb128 0xb
 1840 0069 0B       		.uleb128 0xb
 1841 006a 3A       		.uleb128 0x3a
 1842 006b 0B       		.uleb128 0xb
 1843 006c 3B       		.uleb128 0x3b
 1844 006d 0B       		.uleb128 0xb
 1845 006e 01       		.uleb128 0x1
 1846 006f 13       		.uleb128 0x13
 1847 0070 00       		.byte	0
 1848 0071 00       		.byte	0
 1849 0072 09       		.uleb128 0x9
 1850 0073 0F       		.uleb128 0xf
 1851 0074 00       		.byte	0
 1852 0075 0B       		.uleb128 0xb
 1853 0076 0B       		.uleb128 0xb
 1854 0077 49       		.uleb128 0x49
 1855 0078 13       		.uleb128 0x13
 1856 0079 00       		.byte	0
 1857 007a 00       		.byte	0
 1858 007b 0A       		.uleb128 0xa
 1859 007c 0F       		.uleb128 0xf
 1860 007d 00       		.byte	0
 1861 007e 0B       		.uleb128 0xb
 1862 007f 0B       		.uleb128 0xb
 1863 0080 00       		.byte	0
 1864 0081 00       		.byte	0
 1865 0082 0B       		.uleb128 0xb
 1866 0083 13       		.uleb128 0x13
 1867 0084 01       		.byte	0x1
 1868 0085 03       		.uleb128 0x3
 1869 0086 0E       		.uleb128 0xe
 1870 0087 0B       		.uleb128 0xb
ARM GAS  /tmp/ccqA8Rs1.s 			page 34


 1871 0088 0B       		.uleb128 0xb
 1872 0089 3A       		.uleb128 0x3a
 1873 008a 0B       		.uleb128 0xb
 1874 008b 3B       		.uleb128 0x3b
 1875 008c 05       		.uleb128 0x5
 1876 008d 01       		.uleb128 0x1
 1877 008e 13       		.uleb128 0x13
 1878 008f 00       		.byte	0
 1879 0090 00       		.byte	0
 1880 0091 0C       		.uleb128 0xc
 1881 0092 0D       		.uleb128 0xd
 1882 0093 00       		.byte	0
 1883 0094 03       		.uleb128 0x3
 1884 0095 08       		.uleb128 0x8
 1885 0096 3A       		.uleb128 0x3a
 1886 0097 0B       		.uleb128 0xb
 1887 0098 3B       		.uleb128 0x3b
 1888 0099 05       		.uleb128 0x5
 1889 009a 49       		.uleb128 0x49
 1890 009b 13       		.uleb128 0x13
 1891 009c 38       		.uleb128 0x38
 1892 009d 0A       		.uleb128 0xa
 1893 009e 00       		.byte	0
 1894 009f 00       		.byte	0
 1895 00a0 0D       		.uleb128 0xd
 1896 00a1 35       		.uleb128 0x35
 1897 00a2 00       		.byte	0
 1898 00a3 49       		.uleb128 0x49
 1899 00a4 13       		.uleb128 0x13
 1900 00a5 00       		.byte	0
 1901 00a6 00       		.byte	0
 1902 00a7 0E       		.uleb128 0xe
 1903 00a8 17       		.uleb128 0x17
 1904 00a9 01       		.byte	0x1
 1905 00aa 0B       		.uleb128 0xb
 1906 00ab 0B       		.uleb128 0xb
 1907 00ac 3A       		.uleb128 0x3a
 1908 00ad 0B       		.uleb128 0xb
 1909 00ae 3B       		.uleb128 0x3b
 1910 00af 0B       		.uleb128 0xb
 1911 00b0 01       		.uleb128 0x1
 1912 00b1 13       		.uleb128 0x13
 1913 00b2 00       		.byte	0
 1914 00b3 00       		.byte	0
 1915 00b4 0F       		.uleb128 0xf
 1916 00b5 0D       		.uleb128 0xd
 1917 00b6 00       		.byte	0
 1918 00b7 03       		.uleb128 0x3
 1919 00b8 0E       		.uleb128 0xe
 1920 00b9 3A       		.uleb128 0x3a
 1921 00ba 0B       		.uleb128 0xb
 1922 00bb 3B       		.uleb128 0x3b
 1923 00bc 0B       		.uleb128 0xb
 1924 00bd 49       		.uleb128 0x49
 1925 00be 13       		.uleb128 0x13
 1926 00bf 00       		.byte	0
 1927 00c0 00       		.byte	0
ARM GAS  /tmp/ccqA8Rs1.s 			page 35


 1928 00c1 10       		.uleb128 0x10
 1929 00c2 26       		.uleb128 0x26
 1930 00c3 00       		.byte	0
 1931 00c4 49       		.uleb128 0x49
 1932 00c5 13       		.uleb128 0x13
 1933 00c6 00       		.byte	0
 1934 00c7 00       		.byte	0
 1935 00c8 11       		.uleb128 0x11
 1936 00c9 15       		.uleb128 0x15
 1937 00ca 01       		.byte	0x1
 1938 00cb 27       		.uleb128 0x27
 1939 00cc 0C       		.uleb128 0xc
 1940 00cd 49       		.uleb128 0x49
 1941 00ce 13       		.uleb128 0x13
 1942 00cf 01       		.uleb128 0x1
 1943 00d0 13       		.uleb128 0x13
 1944 00d1 00       		.byte	0
 1945 00d2 00       		.byte	0
 1946 00d3 12       		.uleb128 0x12
 1947 00d4 05       		.uleb128 0x5
 1948 00d5 00       		.byte	0
 1949 00d6 49       		.uleb128 0x49
 1950 00d7 13       		.uleb128 0x13
 1951 00d8 00       		.byte	0
 1952 00d9 00       		.byte	0
 1953 00da 13       		.uleb128 0x13
 1954 00db 13       		.uleb128 0x13
 1955 00dc 01       		.byte	0x1
 1956 00dd 0B       		.uleb128 0xb
 1957 00de 0B       		.uleb128 0xb
 1958 00df 3A       		.uleb128 0x3a
 1959 00e0 0B       		.uleb128 0xb
 1960 00e1 3B       		.uleb128 0x3b
 1961 00e2 05       		.uleb128 0x5
 1962 00e3 01       		.uleb128 0x1
 1963 00e4 13       		.uleb128 0x13
 1964 00e5 00       		.byte	0
 1965 00e6 00       		.byte	0
 1966 00e7 14       		.uleb128 0x14
 1967 00e8 0D       		.uleb128 0xd
 1968 00e9 00       		.byte	0
 1969 00ea 03       		.uleb128 0x3
 1970 00eb 0E       		.uleb128 0xe
 1971 00ec 3A       		.uleb128 0x3a
 1972 00ed 0B       		.uleb128 0xb
 1973 00ee 3B       		.uleb128 0x3b
 1974 00ef 05       		.uleb128 0x5
 1975 00f0 49       		.uleb128 0x49
 1976 00f1 13       		.uleb128 0x13
 1977 00f2 38       		.uleb128 0x38
 1978 00f3 0A       		.uleb128 0xa
 1979 00f4 00       		.byte	0
 1980 00f5 00       		.byte	0
 1981 00f6 15       		.uleb128 0x15
 1982 00f7 16       		.uleb128 0x16
 1983 00f8 00       		.byte	0
 1984 00f9 03       		.uleb128 0x3
ARM GAS  /tmp/ccqA8Rs1.s 			page 36


 1985 00fa 0E       		.uleb128 0xe
 1986 00fb 3A       		.uleb128 0x3a
 1987 00fc 0B       		.uleb128 0xb
 1988 00fd 3B       		.uleb128 0x3b
 1989 00fe 05       		.uleb128 0x5
 1990 00ff 49       		.uleb128 0x49
 1991 0100 13       		.uleb128 0x13
 1992 0101 00       		.byte	0
 1993 0102 00       		.byte	0
 1994 0103 16       		.uleb128 0x16
 1995 0104 04       		.uleb128 0x4
 1996 0105 01       		.byte	0x1
 1997 0106 0B       		.uleb128 0xb
 1998 0107 0B       		.uleb128 0xb
 1999 0108 3A       		.uleb128 0x3a
 2000 0109 0B       		.uleb128 0xb
 2001 010a 3B       		.uleb128 0x3b
 2002 010b 0B       		.uleb128 0xb
 2003 010c 01       		.uleb128 0x1
 2004 010d 13       		.uleb128 0x13
 2005 010e 00       		.byte	0
 2006 010f 00       		.byte	0
 2007 0110 17       		.uleb128 0x17
 2008 0111 28       		.uleb128 0x28
 2009 0112 00       		.byte	0
 2010 0113 03       		.uleb128 0x3
 2011 0114 0E       		.uleb128 0xe
 2012 0115 1C       		.uleb128 0x1c
 2013 0116 0D       		.uleb128 0xd
 2014 0117 00       		.byte	0
 2015 0118 00       		.byte	0
 2016 0119 18       		.uleb128 0x18
 2017 011a 15       		.uleb128 0x15
 2018 011b 01       		.byte	0x1
 2019 011c 27       		.uleb128 0x27
 2020 011d 0C       		.uleb128 0xc
 2021 011e 01       		.uleb128 0x1
 2022 011f 13       		.uleb128 0x13
 2023 0120 00       		.byte	0
 2024 0121 00       		.byte	0
 2025 0122 19       		.uleb128 0x19
 2026 0123 2E       		.uleb128 0x2e
 2027 0124 01       		.byte	0x1
 2028 0125 3F       		.uleb128 0x3f
 2029 0126 0C       		.uleb128 0xc
 2030 0127 03       		.uleb128 0x3
 2031 0128 0E       		.uleb128 0xe
 2032 0129 3A       		.uleb128 0x3a
 2033 012a 0B       		.uleb128 0xb
 2034 012b 3B       		.uleb128 0x3b
 2035 012c 0B       		.uleb128 0xb
 2036 012d 27       		.uleb128 0x27
 2037 012e 0C       		.uleb128 0xc
 2038 012f 49       		.uleb128 0x49
 2039 0130 13       		.uleb128 0x13
 2040 0131 20       		.uleb128 0x20
 2041 0132 0B       		.uleb128 0xb
ARM GAS  /tmp/ccqA8Rs1.s 			page 37


 2042 0133 01       		.uleb128 0x1
 2043 0134 13       		.uleb128 0x13
 2044 0135 00       		.byte	0
 2045 0136 00       		.byte	0
 2046 0137 1A       		.uleb128 0x1a
 2047 0138 05       		.uleb128 0x5
 2048 0139 00       		.byte	0
 2049 013a 03       		.uleb128 0x3
 2050 013b 0E       		.uleb128 0xe
 2051 013c 3A       		.uleb128 0x3a
 2052 013d 0B       		.uleb128 0xb
 2053 013e 3B       		.uleb128 0x3b
 2054 013f 0B       		.uleb128 0xb
 2055 0140 49       		.uleb128 0x49
 2056 0141 13       		.uleb128 0x13
 2057 0142 00       		.byte	0
 2058 0143 00       		.byte	0
 2059 0144 1B       		.uleb128 0x1b
 2060 0145 2E       		.uleb128 0x2e
 2061 0146 00       		.byte	0
 2062 0147 3F       		.uleb128 0x3f
 2063 0148 0C       		.uleb128 0xc
 2064 0149 03       		.uleb128 0x3
 2065 014a 0E       		.uleb128 0xe
 2066 014b 3A       		.uleb128 0x3a
 2067 014c 0B       		.uleb128 0xb
 2068 014d 3B       		.uleb128 0x3b
 2069 014e 0B       		.uleb128 0xb
 2070 014f 27       		.uleb128 0x27
 2071 0150 0C       		.uleb128 0xc
 2072 0151 11       		.uleb128 0x11
 2073 0152 01       		.uleb128 0x1
 2074 0153 12       		.uleb128 0x12
 2075 0154 01       		.uleb128 0x1
 2076 0155 40       		.uleb128 0x40
 2077 0156 06       		.uleb128 0x6
 2078 0157 00       		.byte	0
 2079 0158 00       		.byte	0
 2080 0159 1C       		.uleb128 0x1c
 2081 015a 2E       		.uleb128 0x2e
 2082 015b 01       		.byte	0x1
 2083 015c 31       		.uleb128 0x31
 2084 015d 13       		.uleb128 0x13
 2085 015e 11       		.uleb128 0x11
 2086 015f 01       		.uleb128 0x1
 2087 0160 12       		.uleb128 0x12
 2088 0161 01       		.uleb128 0x1
 2089 0162 40       		.uleb128 0x40
 2090 0163 0A       		.uleb128 0xa
 2091 0164 01       		.uleb128 0x1
 2092 0165 13       		.uleb128 0x13
 2093 0166 00       		.byte	0
 2094 0167 00       		.byte	0
 2095 0168 1D       		.uleb128 0x1d
 2096 0169 05       		.uleb128 0x5
 2097 016a 00       		.byte	0
 2098 016b 31       		.uleb128 0x31
ARM GAS  /tmp/ccqA8Rs1.s 			page 38


 2099 016c 13       		.uleb128 0x13
 2100 016d 02       		.uleb128 0x2
 2101 016e 06       		.uleb128 0x6
 2102 016f 00       		.byte	0
 2103 0170 00       		.byte	0
 2104 0171 1E       		.uleb128 0x1e
 2105 0172 2E       		.uleb128 0x2e
 2106 0173 01       		.byte	0x1
 2107 0174 3F       		.uleb128 0x3f
 2108 0175 0C       		.uleb128 0xc
 2109 0176 03       		.uleb128 0x3
 2110 0177 0E       		.uleb128 0xe
 2111 0178 3A       		.uleb128 0x3a
 2112 0179 0B       		.uleb128 0xb
 2113 017a 3B       		.uleb128 0x3b
 2114 017b 0B       		.uleb128 0xb
 2115 017c 27       		.uleb128 0x27
 2116 017d 0C       		.uleb128 0xc
 2117 017e 11       		.uleb128 0x11
 2118 017f 01       		.uleb128 0x1
 2119 0180 12       		.uleb128 0x12
 2120 0181 01       		.uleb128 0x1
 2121 0182 40       		.uleb128 0x40
 2122 0183 06       		.uleb128 0x6
 2123 0184 01       		.uleb128 0x1
 2124 0185 13       		.uleb128 0x13
 2125 0186 00       		.byte	0
 2126 0187 00       		.byte	0
 2127 0188 1F       		.uleb128 0x1f
 2128 0189 05       		.uleb128 0x5
 2129 018a 00       		.byte	0
 2130 018b 03       		.uleb128 0x3
 2131 018c 08       		.uleb128 0x8
 2132 018d 3A       		.uleb128 0x3a
 2133 018e 0B       		.uleb128 0xb
 2134 018f 3B       		.uleb128 0x3b
 2135 0190 0B       		.uleb128 0xb
 2136 0191 49       		.uleb128 0x49
 2137 0192 13       		.uleb128 0x13
 2138 0193 02       		.uleb128 0x2
 2139 0194 06       		.uleb128 0x6
 2140 0195 00       		.byte	0
 2141 0196 00       		.byte	0
 2142 0197 20       		.uleb128 0x20
 2143 0198 05       		.uleb128 0x5
 2144 0199 00       		.byte	0
 2145 019a 03       		.uleb128 0x3
 2146 019b 0E       		.uleb128 0xe
 2147 019c 3A       		.uleb128 0x3a
 2148 019d 0B       		.uleb128 0xb
 2149 019e 3B       		.uleb128 0x3b
 2150 019f 0B       		.uleb128 0xb
 2151 01a0 49       		.uleb128 0x49
 2152 01a1 13       		.uleb128 0x13
 2153 01a2 02       		.uleb128 0x2
 2154 01a3 06       		.uleb128 0x6
 2155 01a4 00       		.byte	0
ARM GAS  /tmp/ccqA8Rs1.s 			page 39


 2156 01a5 00       		.byte	0
 2157 01a6 21       		.uleb128 0x21
 2158 01a7 34       		.uleb128 0x34
 2159 01a8 00       		.byte	0
 2160 01a9 03       		.uleb128 0x3
 2161 01aa 08       		.uleb128 0x8
 2162 01ab 3A       		.uleb128 0x3a
 2163 01ac 0B       		.uleb128 0xb
 2164 01ad 3B       		.uleb128 0x3b
 2165 01ae 0B       		.uleb128 0xb
 2166 01af 49       		.uleb128 0x49
 2167 01b0 13       		.uleb128 0x13
 2168 01b1 02       		.uleb128 0x2
 2169 01b2 06       		.uleb128 0x6
 2170 01b3 00       		.byte	0
 2171 01b4 00       		.byte	0
 2172 01b5 22       		.uleb128 0x22
 2173 01b6 1D       		.uleb128 0x1d
 2174 01b7 01       		.byte	0x1
 2175 01b8 31       		.uleb128 0x31
 2176 01b9 13       		.uleb128 0x13
 2177 01ba 52       		.uleb128 0x52
 2178 01bb 01       		.uleb128 0x1
 2179 01bc 55       		.uleb128 0x55
 2180 01bd 06       		.uleb128 0x6
 2181 01be 58       		.uleb128 0x58
 2182 01bf 0B       		.uleb128 0xb
 2183 01c0 59       		.uleb128 0x59
 2184 01c1 0B       		.uleb128 0xb
 2185 01c2 00       		.byte	0
 2186 01c3 00       		.byte	0
 2187 01c4 23       		.uleb128 0x23
 2188 01c5 34       		.uleb128 0x34
 2189 01c6 00       		.byte	0
 2190 01c7 03       		.uleb128 0x3
 2191 01c8 0E       		.uleb128 0xe
 2192 01c9 3A       		.uleb128 0x3a
 2193 01ca 0B       		.uleb128 0xb
 2194 01cb 3B       		.uleb128 0x3b
 2195 01cc 0B       		.uleb128 0xb
 2196 01cd 49       		.uleb128 0x49
 2197 01ce 13       		.uleb128 0x13
 2198 01cf 02       		.uleb128 0x2
 2199 01d0 0A       		.uleb128 0xa
 2200 01d1 00       		.byte	0
 2201 01d2 00       		.byte	0
 2202 01d3 24       		.uleb128 0x24
 2203 01d4 01       		.uleb128 0x1
 2204 01d5 01       		.byte	0x1
 2205 01d6 49       		.uleb128 0x49
 2206 01d7 13       		.uleb128 0x13
 2207 01d8 01       		.uleb128 0x1
 2208 01d9 13       		.uleb128 0x13
 2209 01da 00       		.byte	0
 2210 01db 00       		.byte	0
 2211 01dc 25       		.uleb128 0x25
 2212 01dd 21       		.uleb128 0x21
ARM GAS  /tmp/ccqA8Rs1.s 			page 40


 2213 01de 00       		.byte	0
 2214 01df 49       		.uleb128 0x49
 2215 01e0 13       		.uleb128 0x13
 2216 01e1 2F       		.uleb128 0x2f
 2217 01e2 0B       		.uleb128 0xb
 2218 01e3 00       		.byte	0
 2219 01e4 00       		.byte	0
 2220 01e5 26       		.uleb128 0x26
 2221 01e6 34       		.uleb128 0x34
 2222 01e7 00       		.byte	0
 2223 01e8 03       		.uleb128 0x3
 2224 01e9 0E       		.uleb128 0xe
 2225 01ea 3A       		.uleb128 0x3a
 2226 01eb 0B       		.uleb128 0xb
 2227 01ec 3B       		.uleb128 0x3b
 2228 01ed 05       		.uleb128 0x5
 2229 01ee 49       		.uleb128 0x49
 2230 01ef 13       		.uleb128 0x13
 2231 01f0 3F       		.uleb128 0x3f
 2232 01f1 0C       		.uleb128 0xc
 2233 01f2 3C       		.uleb128 0x3c
 2234 01f3 0C       		.uleb128 0xc
 2235 01f4 00       		.byte	0
 2236 01f5 00       		.byte	0
 2237 01f6 00       		.byte	0
 2238              		.section	.debug_loc,"",%progbits
 2239              	.Ldebug_loc0:
 2240              	.LLST0:
 2241 0000 00000000 		.4byte	.LFB63
 2242 0004 02000000 		.4byte	.LCFI0
 2243 0008 0200     		.2byte	0x2
 2244 000a 7D       		.byte	0x7d
 2245 000b 00       		.sleb128 0
 2246 000c 02000000 		.4byte	.LCFI0
 2247 0010 38000000 		.4byte	.LFE63
 2248 0014 0200     		.2byte	0x2
 2249 0016 7D       		.byte	0x7d
 2250 0017 08       		.sleb128 8
 2251 0018 00000000 		.4byte	0
 2252 001c 00000000 		.4byte	0
 2253              	.LLST1:
 2254 0020 00000000 		.4byte	.LVL0
 2255 0024 12000000 		.4byte	.LVL1
 2256 0028 0100     		.2byte	0x1
 2257 002a 50       		.byte	0x50
 2258 002b 00000000 		.4byte	0
 2259 002f 00000000 		.4byte	0
 2260              	.LLST2:
 2261 0033 00000000 		.4byte	.LFB65
 2262 0037 02000000 		.4byte	.LCFI1
 2263 003b 0200     		.2byte	0x2
 2264 003d 7D       		.byte	0x7d
 2265 003e 00       		.sleb128 0
 2266 003f 02000000 		.4byte	.LCFI1
 2267 0043 86000000 		.4byte	.LFE65
 2268 0047 0200     		.2byte	0x2
 2269 0049 7D       		.byte	0x7d
ARM GAS  /tmp/ccqA8Rs1.s 			page 41


 2270 004a 10       		.sleb128 16
 2271 004b 00000000 		.4byte	0
 2272 004f 00000000 		.4byte	0
 2273              	.LLST3:
 2274 0053 00000000 		.4byte	.LVL2
 2275 0057 1F000000 		.4byte	.LVL5-1
 2276 005b 0100     		.2byte	0x1
 2277 005d 50       		.byte	0x50
 2278 005e 1F000000 		.4byte	.LVL5-1
 2279 0062 86000000 		.4byte	.LFE65
 2280 0066 0100     		.2byte	0x1
 2281 0068 56       		.byte	0x56
 2282 0069 00000000 		.4byte	0
 2283 006d 00000000 		.4byte	0
 2284              	.LLST4:
 2285 0071 00000000 		.4byte	.LVL2
 2286 0075 1C000000 		.4byte	.LVL4
 2287 0079 0100     		.2byte	0x1
 2288 007b 51       		.byte	0x51
 2289 007c 00000000 		.4byte	0
 2290 0080 00000000 		.4byte	0
 2291              	.LLST5:
 2292 0084 00000000 		.4byte	.LVL2
 2293 0088 16000000 		.4byte	.LVL3
 2294 008c 0100     		.2byte	0x1
 2295 008e 52       		.byte	0x52
 2296 008f 00000000 		.4byte	0
 2297 0093 00000000 		.4byte	0
 2298              	.LLST6:
 2299 0097 00000000 		.4byte	.LVL2
 2300 009b 20000000 		.4byte	.LVL5
 2301 009f 0200     		.2byte	0x2
 2302 00a1 30       		.byte	0x30
 2303 00a2 9F       		.byte	0x9f
 2304 00a3 20000000 		.4byte	.LVL5
 2305 00a7 2E000000 		.4byte	.LVL6
 2306 00ab 0200     		.2byte	0x2
 2307 00ad 31       		.byte	0x31
 2308 00ae 9F       		.byte	0x9f
 2309 00af 2E000000 		.4byte	.LVL6
 2310 00b3 3C000000 		.4byte	.LVL7
 2311 00b7 0200     		.2byte	0x2
 2312 00b9 32       		.byte	0x32
 2313 00ba 9F       		.byte	0x9f
 2314 00bb 3C000000 		.4byte	.LVL7
 2315 00bf 4A000000 		.4byte	.LVL8
 2316 00c3 0200     		.2byte	0x2
 2317 00c5 33       		.byte	0x33
 2318 00c6 9F       		.byte	0x9f
 2319 00c7 4A000000 		.4byte	.LVL8
 2320 00cb 58000000 		.4byte	.LVL9
 2321 00cf 0200     		.2byte	0x2
 2322 00d1 34       		.byte	0x34
 2323 00d2 9F       		.byte	0x9f
 2324 00d3 58000000 		.4byte	.LVL9
 2325 00d7 66000000 		.4byte	.LVL10
 2326 00db 0200     		.2byte	0x2
ARM GAS  /tmp/ccqA8Rs1.s 			page 42


 2327 00dd 35       		.byte	0x35
 2328 00de 9F       		.byte	0x9f
 2329 00df 66000000 		.4byte	.LVL10
 2330 00e3 74000000 		.4byte	.LVL11
 2331 00e7 0200     		.2byte	0x2
 2332 00e9 36       		.byte	0x36
 2333 00ea 9F       		.byte	0x9f
 2334 00eb 74000000 		.4byte	.LVL11
 2335 00ef 86000000 		.4byte	.LFE65
 2336 00f3 0200     		.2byte	0x2
 2337 00f5 37       		.byte	0x37
 2338 00f6 9F       		.byte	0x9f
 2339 00f7 00000000 		.4byte	0
 2340 00fb 00000000 		.4byte	0
 2341              		.section	.debug_aranges,"",%progbits
 2342 0000 2C000000 		.4byte	0x2c
 2343 0004 0200     		.2byte	0x2
 2344 0006 00000000 		.4byte	.Ldebug_info0
 2345 000a 04       		.byte	0x4
 2346 000b 00       		.byte	0
 2347 000c 0000     		.2byte	0
 2348 000e 0000     		.2byte	0
 2349 0010 00000000 		.4byte	.LFB63
 2350 0014 38000000 		.4byte	.LFE63-.LFB63
 2351 0018 00000000 		.4byte	.LFB64
 2352 001c 1A000000 		.4byte	.LFE64-.LFB64
 2353 0020 00000000 		.4byte	.LFB65
 2354 0024 86000000 		.4byte	.LFE65-.LFB65
 2355 0028 00000000 		.4byte	0
 2356 002c 00000000 		.4byte	0
 2357              		.section	.debug_ranges,"",%progbits
 2358              	.Ldebug_ranges0:
 2359 0000 06000000 		.4byte	.LBB4
 2360 0004 0A000000 		.4byte	.LBE4
 2361 0008 0E000000 		.4byte	.LBB7
 2362 000c 12000000 		.4byte	.LBE7
 2363 0010 00000000 		.4byte	0
 2364 0014 00000000 		.4byte	0
 2365 0018 00000000 		.4byte	.LFB63
 2366 001c 38000000 		.4byte	.LFE63
 2367 0020 00000000 		.4byte	.LFB64
 2368 0024 1A000000 		.4byte	.LFE64
 2369 0028 00000000 		.4byte	.LFB65
 2370 002c 86000000 		.4byte	.LFE65
 2371 0030 00000000 		.4byte	0
 2372 0034 00000000 		.4byte	0
 2373              		.section	.debug_line,"",%progbits
 2374              	.Ldebug_line0:
 2375 0000 C2020000 		.section	.debug_str,"MS",%progbits,1
 2375      02007002 
 2375      00000201 
 2375      FB0E0D00 
 2375      01010101 
 2376              	.LASF2:
 2377 0000 73697A65 		.ascii	"size_t\000"
 2377      5F7400
 2378              	.LASF54:
ARM GAS  /tmp/ccqA8Rs1.s 			page 43


 2379 0007 7264796D 		.ascii	"rdymsg\000"
 2379      736700
 2380              	.LASF108:
 2381 000e 646D616D 		.ascii	"dmamode\000"
 2381      6F646500 
 2382              	.LASF94:
 2383 0016 61646373 		.ascii	"adcstate_t\000"
 2383      74617465 
 2383      5F7400
 2384              	.LASF86:
 2385 0021 76656374 		.ascii	"vector\000"
 2385      6F7200
 2386              	.LASF153:
 2387 0028 73616D70 		.ascii	"samples_buf\000"
 2387      6C65735F 
 2387      62756600 
 2388              	.LASF92:
 2389 0034 4144435F 		.ascii	"ADC_COMPLETE\000"
 2389      434F4D50 
 2389      4C455445 
 2389      00
 2390              	.LASF112:
 2391 0041 6E756D5F 		.ascii	"num_channels\000"
 2391      6368616E 
 2391      6E656C73 
 2391      00
 2392              	.LASF139:
 2393 004e 6B566578 		.ascii	"kVexDigitalOutput\000"
 2393      44696769 
 2393      74616C4F 
 2393      75747075 
 2393      7400
 2394              	.LASF14:
 2395 0060 6C6F6E67 		.ascii	"long long unsigned int\000"
 2395      206C6F6E 
 2395      6720756E 
 2395      7369676E 
 2395      65642069 
 2396              	.LASF137:
 2397 0077 6B566578 		.ascii	"kVexDigital_Num\000"
 2397      44696769 
 2397      74616C5F 
 2397      4E756D00 
 2398              	.LASF88:
 2399 0087 4144435F 		.ascii	"ADC_UNINIT\000"
 2399      554E494E 
 2399      495400
 2400              	.LASF155:
 2401 0092 49544D5F 		.ascii	"ITM_RxBuffer\000"
 2401      52784275 
 2401      66666572 
 2401      00
 2402              	.LASF28:
 2403 009f 705F7072 		.ascii	"p_prio\000"
 2403      696F00
 2404              	.LASF72:
 2405 00a6 4A535152 		.ascii	"JSQR\000"
ARM GAS  /tmp/ccqA8Rs1.s 			page 44


 2405      00
 2406              	.LASF5:
 2407 00ab 696E7431 		.ascii	"int16_t\000"
 2407      365F7400 
 2408              	.LASF13:
 2409 00b3 6C6F6E67 		.ascii	"long long int\000"
 2409      206C6F6E 
 2409      6720696E 
 2409      7400
 2410              	.LASF1:
 2411 00c1 7369676E 		.ascii	"signed char\000"
 2411      65642063 
 2411      68617200 
 2412              	.LASF44:
 2413 00cd 705F6D70 		.ascii	"p_mpool\000"
 2413      6F6F6C00 
 2414              	.LASF15:
 2415 00d5 626F6F6C 		.ascii	"bool_t\000"
 2415      5F7400
 2416              	.LASF51:
 2417 00dc 6D5F7175 		.ascii	"m_queue\000"
 2417      65756500 
 2418              	.LASF98:
 2419 00e4 61646365 		.ascii	"adcerror_t\000"
 2419      72726F72 
 2419      5F7400
 2420              	.LASF107:
 2421 00ef 646D6173 		.ascii	"dmastp\000"
 2421      747000
 2422              	.LASF100:
 2423 00f6 73746174 		.ascii	"state\000"
 2423      6500
 2424              	.LASF111:
 2425 00fc 63697263 		.ascii	"circular\000"
 2425      756C6172 
 2425      00
 2426              	.LASF10:
 2427 0105 6C6F6E67 		.ascii	"long int\000"
 2427      20696E74 
 2427      00
 2428              	.LASF97:
 2429 010e 4144435F 		.ascii	"ADC_ERR_DMAFAILURE\000"
 2429      4552525F 
 2429      444D4146 
 2429      41494C55 
 2429      524500
 2430              	.LASF110:
 2431 0121 61646365 		.ascii	"adcerrorcallback_t\000"
 2431      72726F72 
 2431      63616C6C 
 2431      6261636B 
 2431      5F7400
 2432              	.LASF18:
 2433 0134 74737461 		.ascii	"tstate_t\000"
 2433      74655F74 
 2433      00
 2434              	.LASF124:
ARM GAS  /tmp/ccqA8Rs1.s 			page 45


 2435 013d 6B566578 		.ascii	"kVexDigital_None\000"
 2435      44696769 
 2435      74616C5F 
 2435      4E6F6E65 
 2435      00
 2436              	.LASF105:
 2437 014e 74687265 		.ascii	"thread\000"
 2437      616400
 2438              	.LASF7:
 2439 0155 75696E74 		.ascii	"uint16_t\000"
 2439      31365F74 
 2439      00
 2440              	.LASF37:
 2441 015e 705F7469 		.ascii	"p_time\000"
 2441      6D6500
 2442              	.LASF77:
 2443 0165 4144435F 		.ascii	"ADC_TypeDef\000"
 2443      54797065 
 2443      44656600 
 2444              	.LASF30:
 2445 0171 705F6E65 		.ascii	"p_newer\000"
 2445      77657200 
 2446              	.LASF113:
 2447 0179 656E645F 		.ascii	"end_cb\000"
 2447      636200
 2448              	.LASF109:
 2449 0180 61646363 		.ascii	"adccallback_t\000"
 2449      616C6C62 
 2449      61636B5F 
 2449      7400
 2450              	.LASF55:
 2451 018e 65786974 		.ascii	"exitcode\000"
 2451      636F6465 
 2451      00
 2452              	.LASF95:
 2453 0197 61646373 		.ascii	"adcsample_t\000"
 2453      616D706C 
 2453      655F7400 
 2454              	.LASF47:
 2455 01a3 72656761 		.ascii	"regarm_t\000"
 2455      726D5F74 
 2455      00
 2456              	.LASF85:
 2457 01ac 73656C66 		.ascii	"selfindex\000"
 2457      696E6465 
 2457      7800
 2458              	.LASF148:
 2459 01b6 6B496D65 		.ascii	"kImeTotal\000"
 2459      546F7461 
 2459      6C00
 2460              	.LASF121:
 2461 01c0 64756D6D 		.ascii	"dummy\000"
 2461      7900
 2462              	.LASF25:
 2463 01c6 54687265 		.ascii	"Thread\000"
 2463      616400
 2464              	.LASF62:
ARM GAS  /tmp/ccqA8Rs1.s 			page 46


 2465 01cd 42617365 		.ascii	"BaseSequentialStream\000"
 2465      53657175 
 2465      656E7469 
 2465      616C5374 
 2465      7265616D 
 2466              	.LASF20:
 2467 01e2 74736C69 		.ascii	"tslices_t\000"
 2467      6365735F 
 2467      7400
 2468              	.LASF0:
 2469 01ec 756E7369 		.ascii	"unsigned int\000"
 2469      676E6564 
 2469      20696E74 
 2469      00
 2470              	.LASF159:
 2471 01f9 2F686F6D 		.ascii	"/home/aolsen/vrc-9999/TossUp-Joker\000"
 2471      652F616F 
 2471      6C73656E 
 2471      2F767263 
 2471      2D393939 
 2472              	.LASF79:
 2473 021c 43504152 		.ascii	"CPAR\000"
 2473      00
 2474              	.LASF39:
 2475 0221 705F6D73 		.ascii	"p_msgqueue\000"
 2475      67717565 
 2475      756500
 2476              	.LASF99:
 2477 022c 41444344 		.ascii	"ADCDriver\000"
 2477      72697665 
 2477      7200
 2478              	.LASF81:
 2479 0236 444D415F 		.ascii	"DMA_Channel_TypeDef\000"
 2479      4368616E 
 2479      6E656C5F 
 2479      54797065 
 2479      44656600 
 2480              	.LASF84:
 2481 024a 69736869 		.ascii	"ishift\000"
 2481      667400
 2482              	.LASF160:
 2483 0251 76657841 		.ascii	"vexAdcGet\000"
 2483      64634765 
 2483      7400
 2484              	.LASF8:
 2485 025b 73686F72 		.ascii	"short unsigned int\000"
 2485      7420756E 
 2485      7369676E 
 2485      65642069 
 2485      6E7400
 2486              	.LASF90:
 2487 026e 4144435F 		.ascii	"ADC_READY\000"
 2487      52454144 
 2487      5900
 2488              	.LASF103:
 2489 0278 64657074 		.ascii	"depth\000"
 2489      6800
ARM GAS  /tmp/ccqA8Rs1.s 			page 47


 2490              	.LASF22:
 2491 027e 6D73675F 		.ascii	"msg_t\000"
 2491      7400
 2492              	.LASF125:
 2493 0284 6B566578 		.ascii	"kVexDigital_1\000"
 2493      44696769 
 2493      74616C5F 
 2493      3100
 2494              	.LASF126:
 2495 0292 6B566578 		.ascii	"kVexDigital_2\000"
 2495      44696769 
 2495      74616C5F 
 2495      3200
 2496              	.LASF127:
 2497 02a0 6B566578 		.ascii	"kVexDigital_3\000"
 2497      44696769 
 2497      74616C5F 
 2497      3300
 2498              	.LASF128:
 2499 02ae 6B566578 		.ascii	"kVexDigital_4\000"
 2499      44696769 
 2499      74616C5F 
 2499      3400
 2500              	.LASF129:
 2501 02bc 6B566578 		.ascii	"kVexDigital_5\000"
 2501      44696769 
 2501      74616C5F 
 2501      3500
 2502              	.LASF130:
 2503 02ca 6B566578 		.ascii	"kVexDigital_6\000"
 2503      44696769 
 2503      74616C5F 
 2503      3600
 2504              	.LASF131:
 2505 02d8 6B566578 		.ascii	"kVexDigital_7\000"
 2505      44696769 
 2505      74616C5F 
 2505      3700
 2506              	.LASF132:
 2507 02e6 6B566578 		.ascii	"kVexDigital_8\000"
 2507      44696769 
 2507      74616C5F 
 2507      3800
 2508              	.LASF133:
 2509 02f4 6B566578 		.ascii	"kVexDigital_9\000"
 2509      44696769 
 2509      74616C5F 
 2509      3900
 2510              	.LASF46:
 2511 0302 54687265 		.ascii	"ThreadsList\000"
 2511      6164734C 
 2511      69737400 
 2512              	.LASF23:
 2513 030e 6576656E 		.ascii	"eventmask_t\000"
 2513      746D6173 
 2513      6B5F7400 
 2514              	.LASF158:
ARM GAS  /tmp/ccqA8Rs1.s 			page 48


 2515 031a 2E2E2F63 		.ascii	"../convex/cortex/fw/vexanalog.c\000"
 2515      6F6E7665 
 2515      782F636F 
 2515      72746578 
 2515      2F66772F 
 2516              	.LASF80:
 2517 033a 434D4152 		.ascii	"CMAR\000"
 2517      00
 2518              	.LASF60:
 2519 033f 77726974 		.ascii	"write\000"
 2519      6500
 2520              	.LASF104:
 2521 0345 67727070 		.ascii	"grpp\000"
 2521      00
 2522              	.LASF65:
 2523 034a 4A4F4652 		.ascii	"JOFR1\000"
 2523      3100
 2524              	.LASF66:
 2525 0350 4A4F4652 		.ascii	"JOFR2\000"
 2525      3200
 2526              	.LASF67:
 2527 0356 4A4F4652 		.ascii	"JOFR3\000"
 2527      3300
 2528              	.LASF102:
 2529 035c 73616D70 		.ascii	"samples\000"
 2529      6C657300 
 2530              	.LASF50:
 2531 0364 4D757465 		.ascii	"Mutex\000"
 2531      7800
 2532              	.LASF89:
 2533 036a 4144435F 		.ascii	"ADC_STOP\000"
 2533      53544F50 
 2533      00
 2534              	.LASF152:
 2535 0373 61646363 		.ascii	"adccfg\000"
 2535      666700
 2536              	.LASF31:
 2537 037a 705F6F6C 		.ascii	"p_older\000"
 2537      64657200 
 2538              	.LASF45:
 2539 0382 54687265 		.ascii	"ThreadsQueue\000"
 2539      61647351 
 2539      75657565 
 2539      00
 2540              	.LASF63:
 2541 038f 534D5052 		.ascii	"SMPR1\000"
 2541      3100
 2542              	.LASF64:
 2543 0395 534D5052 		.ascii	"SMPR2\000"
 2543      3200
 2544              	.LASF53:
 2545 039b 6D5F6E65 		.ascii	"m_next\000"
 2545      787400
 2546              	.LASF69:
 2547 03a2 53515231 		.ascii	"SQR1\000"
 2547      00
 2548              	.LASF70:
ARM GAS  /tmp/ccqA8Rs1.s 			page 49


 2549 03a7 53515232 		.ascii	"SQR2\000"
 2549      00
 2550              	.LASF71:
 2551 03ac 53515233 		.ascii	"SQR3\000"
 2551      00
 2552              	.LASF140:
 2553 03b1 6B496D65 		.ascii	"kImeChannel_1\000"
 2553      4368616E 
 2553      6E656C5F 
 2553      3100
 2554              	.LASF145:
 2555 03bf 6B496D65 		.ascii	"kImeChannel_6\000"
 2555      4368616E 
 2555      6E656C5F 
 2555      3600
 2556              	.LASF27:
 2557 03cd 705F7072 		.ascii	"p_prev\000"
 2557      657600
 2558              	.LASF87:
 2559 03d4 73746D33 		.ascii	"stm32_dma_stream_t\000"
 2559      325F646D 
 2559      615F7374 
 2559      7265616D 
 2559      5F7400
 2560              	.LASF21:
 2561 03e7 74707269 		.ascii	"tprio_t\000"
 2561      6F5F7400 
 2562              	.LASF106:
 2563 03ef 6D757465 		.ascii	"mutex\000"
 2563      7800
 2564              	.LASF16:
 2565 03f5 5F426F6F 		.ascii	"_Bool\000"
 2565      6C00
 2566              	.LASF9:
 2567 03fb 696E7433 		.ascii	"int32_t\000"
 2567      325F7400 
 2568              	.LASF4:
 2569 0403 756E7369 		.ascii	"unsigned char\000"
 2569      676E6564 
 2569      20636861 
 2569      7200
 2570              	.LASF42:
 2571 0411 705F6D74 		.ascii	"p_mtxlist\000"
 2571      786C6973 
 2571      7400
 2572              	.LASF6:
 2573 041b 73686F72 		.ascii	"short int\000"
 2573      7420696E 
 2573      7400
 2574              	.LASF33:
 2575 0425 705F7374 		.ascii	"p_state\000"
 2575      61746500 
 2576              	.LASF36:
 2577 042d 705F7072 		.ascii	"p_preempt\000"
 2577      65656D70 
 2577      7400
 2578              	.LASF114:
ARM GAS  /tmp/ccqA8Rs1.s 			page 50


 2579 0437 6572726F 		.ascii	"error_cb\000"
 2579      725F6362 
 2579      00
 2580              	.LASF57:
 2581 0440 65776D61 		.ascii	"ewmask\000"
 2581      736B00
 2582              	.LASF26:
 2583 0447 705F6E65 		.ascii	"p_next\000"
 2583      787400
 2584              	.LASF59:
 2585 044e 42617365 		.ascii	"BaseSequentialStreamVMT\000"
 2585      53657175 
 2585      656E7469 
 2585      616C5374 
 2585      7265616D 
 2586              	.LASF34:
 2587 0466 705F666C 		.ascii	"p_flags\000"
 2587      61677300 
 2588              	.LASF91:
 2589 046e 4144435F 		.ascii	"ADC_ACTIVE\000"
 2589      41435449 
 2589      564500
 2590              	.LASF68:
 2591 0479 4A4F4652 		.ascii	"JOFR4\000"
 2591      3400
 2592              	.LASF82:
 2593 047f 6368616E 		.ascii	"channel\000"
 2593      6E656C00 
 2594              	.LASF41:
 2595 0487 705F6570 		.ascii	"p_epending\000"
 2595      656E6469 
 2595      6E6700
 2596              	.LASF83:
 2597 0492 69666372 		.ascii	"ifcr\000"
 2597      00
 2598              	.LASF11:
 2599 0497 75696E74 		.ascii	"uint32_t\000"
 2599      33325F74 
 2599      00
 2600              	.LASF154:
 2601 04a0 61646363 		.ascii	"adccg\000"
 2601      6700
 2602              	.LASF122:
 2603 04a6 41444343 		.ascii	"ADCConfig\000"
 2603      6F6E6669 
 2603      6700
 2604              	.LASF19:
 2605 04b0 74726566 		.ascii	"trefs_t\000"
 2605      735F7400 
 2606              	.LASF157:
 2607 04b8 474E5520 		.ascii	"GNU C 4.6.3\000"
 2607      4320342E 
 2607      362E3300 
 2608              	.LASF115:
 2609 04c4 736D7072 		.ascii	"smpr1\000"
 2609      3100
 2610              	.LASF12:
ARM GAS  /tmp/ccqA8Rs1.s 			page 51


 2611 04ca 6C6F6E67 		.ascii	"long unsigned int\000"
 2611      20756E73 
 2611      69676E65 
 2611      6420696E 
 2611      7400
 2612              	.LASF61:
 2613 04dc 72656164 		.ascii	"read\000"
 2613      00
 2614              	.LASF58:
 2615 04e1 63686172 		.ascii	"char\000"
 2615      00
 2616              	.LASF141:
 2617 04e6 6B496D65 		.ascii	"kImeChannel_2\000"
 2617      4368616E 
 2617      6E656C5F 
 2617      3200
 2618              	.LASF142:
 2619 04f4 6B496D65 		.ascii	"kImeChannel_3\000"
 2619      4368616E 
 2619      6E656C5F 
 2619      3300
 2620              	.LASF143:
 2621 0502 6B496D65 		.ascii	"kImeChannel_4\000"
 2621      4368616E 
 2621      6E656C5F 
 2621      3400
 2622              	.LASF144:
 2623 0510 6B496D65 		.ascii	"kImeChannel_5\000"
 2623      4368616E 
 2623      6E656C5F 
 2623      3500
 2624              	.LASF101:
 2625 051e 636F6E66 		.ascii	"config\000"
 2625      696700
 2626              	.LASF146:
 2627 0525 6B496D65 		.ascii	"kImeChannel_7\000"
 2627      4368616E 
 2627      6E656C5F 
 2627      3700
 2628              	.LASF147:
 2629 0533 6B496D65 		.ascii	"kImeChannel_8\000"
 2629      4368616E 
 2629      6E656C5F 
 2629      3800
 2630              	.LASF134:
 2631 0541 6B566578 		.ascii	"kVexDigital_10\000"
 2631      44696769 
 2631      74616C5F 
 2631      313000
 2632              	.LASF135:
 2633 0550 6B566578 		.ascii	"kVexDigital_11\000"
 2633      44696769 
 2633      74616C5F 
 2633      313100
 2634              	.LASF136:
 2635 055f 6B566578 		.ascii	"kVexDigital_12\000"
 2635      44696769 
ARM GAS  /tmp/ccqA8Rs1.s 			page 52


 2635      74616C5F 
 2635      313200
 2636              	.LASF117:
 2637 056e 73717231 		.ascii	"sqr1\000"
 2637      00
 2638              	.LASF118:
 2639 0573 73717232 		.ascii	"sqr2\000"
 2639      00
 2640              	.LASF119:
 2641 0578 73717233 		.ascii	"sqr3\000"
 2641      00
 2642              	.LASF24:
 2643 057d 73797374 		.ascii	"systime_t\000"
 2643      696D655F 
 2643      7400
 2644              	.LASF43:
 2645 0587 705F7265 		.ascii	"p_realprio\000"
 2645      616C7072 
 2645      696F00
 2646              	.LASF162:
 2647 0592 76657841 		.ascii	"vexAdcInit\000"
 2647      6463496E 
 2647      697400
 2648              	.LASF49:
 2649 059d 636F6E74 		.ascii	"context\000"
 2649      65787400 
 2650              	.LASF123:
 2651 05a5 76657853 		.ascii	"vexStream\000"
 2651      74726561 
 2651      6D00
 2652              	.LASF48:
 2653 05af 696E7463 		.ascii	"intctx\000"
 2653      747800
 2654              	.LASF93:
 2655 05b6 4144435F 		.ascii	"ADC_ERROR\000"
 2655      4552524F 
 2655      5200
 2656              	.LASF32:
 2657 05c0 705F6E61 		.ascii	"p_name\000"
 2657      6D6500
 2658              	.LASF35:
 2659 05c7 705F7265 		.ascii	"p_refs\000"
 2659      667300
 2660              	.LASF78:
 2661 05ce 434E4454 		.ascii	"CNDTR\000"
 2661      5200
 2662              	.LASF116:
 2663 05d4 736D7072 		.ascii	"smpr2\000"
 2663      3200
 2664              	.LASF163:
 2665 05da 76657841 		.ascii	"vexAdcDebug\000"
 2665      64634465 
 2665      62756700 
 2666              	.LASF156:
 2667 05e6 41444344 		.ascii	"ADCD1\000"
 2667      3100
 2668              	.LASF149:
ARM GAS  /tmp/ccqA8Rs1.s 			page 53


 2669 05ec 6B496D65 		.ascii	"kImeChannelNone\000"
 2669      4368616E 
 2669      6E656C4E 
 2669      6F6E6500 
 2670              	.LASF3:
 2671 05fc 75696E74 		.ascii	"uint8_t\000"
 2671      385F7400 
 2672              	.LASF120:
 2673 0604 41444343 		.ascii	"ADCConversionGroup\000"
 2673      6F6E7665 
 2673      7273696F 
 2673      6E47726F 
 2673      757000
 2674              	.LASF73:
 2675 0617 4A445231 		.ascii	"JDR1\000"
 2675      00
 2676              	.LASF74:
 2677 061c 4A445232 		.ascii	"JDR2\000"
 2677      00
 2678              	.LASF75:
 2679 0621 4A445233 		.ascii	"JDR3\000"
 2679      00
 2680              	.LASF76:
 2681 0626 4A445234 		.ascii	"JDR4\000"
 2681      00
 2682              	.LASF56:
 2683 062b 77746F62 		.ascii	"wtobjp\000"
 2683      6A7000
 2684              	.LASF161:
 2685 0632 696E6465 		.ascii	"index\000"
 2685      7800
 2686              	.LASF150:
 2687 0638 61726763 		.ascii	"argc\000"
 2687      00
 2688              	.LASF96:
 2689 063d 6164635F 		.ascii	"adc_channels_num_t\000"
 2689      6368616E 
 2689      6E656C73 
 2689      5F6E756D 
 2689      5F7400
 2690              	.LASF17:
 2691 0650 746D6F64 		.ascii	"tmode_t\000"
 2691      655F7400 
 2692              	.LASF40:
 2693 0658 705F6D73 		.ascii	"p_msg\000"
 2693      6700
 2694              	.LASF151:
 2695 065e 61726776 		.ascii	"argv\000"
 2695      00
 2696              	.LASF52:
 2697 0663 6D5F6F77 		.ascii	"m_owner\000"
 2697      6E657200 
 2698              	.LASF29:
 2699 066b 705F6374 		.ascii	"p_ctx\000"
 2699      7800
 2700              	.LASF38:
 2701 0671 705F7761 		.ascii	"p_waiting\000"
ARM GAS  /tmp/ccqA8Rs1.s 			page 54


 2701      6974696E 
 2701      6700
 2702              	.LASF138:
 2703 067b 6B566578 		.ascii	"kVexDigitalInput\000"
 2703      44696769 
 2703      74616C49 
 2703      6E707574 
 2703      00
 2704              		.ident	"GCC: (Sourcery CodeBench Lite 2012.03-56) 4.6.3"
ARM GAS  /tmp/ccqA8Rs1.s 			page 55


DEFINED SYMBOLS
                            *ABS*:00000000 vexanalog.c
     /tmp/ccqA8Rs1.s:19     .text.vexAdcInit:00000000 $t
     /tmp/ccqA8Rs1.s:25     .text.vexAdcInit:00000000 vexAdcInit
     /tmp/ccqA8Rs1.s:189    .bss.adccfg:00000000 .LANCHOR0
     /tmp/ccqA8Rs1.s:200    .data.adccg:00000000 .LANCHOR1
     /tmp/ccqA8Rs1.s:218    .bss.samples_buf:00000000 .LANCHOR2
     /tmp/ccqA8Rs1.s:62     .text.vexAdcGet:00000000 $t
     /tmp/ccqA8Rs1.s:68     .text.vexAdcGet:00000000 vexAdcGet
     /tmp/ccqA8Rs1.s:94     .text.vexAdcDebug:00000000 $t
     /tmp/ccqA8Rs1.s:100    .text.vexAdcDebug:00000000 vexAdcDebug
     /tmp/ccqA8Rs1.s:196    .rodata.str1.4:00000000 .LC0
     /tmp/ccqA8Rs1.s:188    .bss.adccfg:00000000 $d
     /tmp/ccqA8Rs1.s:192    .bss.adccfg:00000000 adccfg
     /tmp/ccqA8Rs1.s:195    .rodata.str1.4:00000000 $d
     /tmp/ccqA8Rs1.s:199    .data.adccg:00000000 $d
     /tmp/ccqA8Rs1.s:203    .data.adccg:00000000 adccg
     /tmp/ccqA8Rs1.s:217    .bss.samples_buf:00000000 $d
     /tmp/ccqA8Rs1.s:221    .bss.samples_buf:00000000 samples_buf
                     .debug_frame:00000010 $d

UNDEFINED SYMBOLS
ADCD1
adcInit
adcStart
adcStartConversion
vex_chprintf
