ARM GAS  /tmp/ccqA8Rs1.s 			page 1


   1              		.syntax unified
   2              		.cpu cortex-m3
   3              		.fpu softvfp
   4              		.eabi_attribute 20, 1
   5              		.eabi_attribute 21, 1
   6              		.eabi_attribute 23, 3
   7              		.eabi_attribute 24, 1
   8              		.eabi_attribute 25, 1
   9              		.eabi_attribute 26, 1
  10              		.eabi_attribute 30, 2
  11              		.eabi_attribute 34, 1
  12              		.eabi_attribute 18, 4
  13              		.thumb
  14              		.file	"vexanalog.c"
  15              		.text
  16              	.Ltext0:
  17              		.cfi_sections	.debug_frame
  18              		.section	.text.vexAdcInit,"ax",%progbits
  19              		.align	2
  20              		.p2align 4,,15
  21              		.global	vexAdcInit
  22              		.thumb
  23              		.thumb_func
  24              		.type	vexAdcInit, %function
  25              	vexAdcInit:
  26              	.LFB63:
  27              		.file 1 "../convex/cortex/fw/vexanalog.c"
  28              		.loc 1 104 0
  29              		.cfi_startproc
  30              		@ args = 0, pretend = 0, frame = 0
  31              		@ frame_needed = 0, uses_anonymous_args = 0
  32 0000 10B5     		push	{r4, lr}
  33              	.LCFI0:
  34              		.cfi_def_cfa_offset 8
  35              		.cfi_offset 14, -4
  36              		.cfi_offset 4, -8
  37              		.loc 1 107 0
  38 0002 40F20004 		movw	r4, #:lower16:ADCD1
  39              		.loc 1 106 0
  40 0006 FFF7FEFF 		bl	adcInit
  41              		.loc 1 107 0
  42 000a C0F20004 		movt	r4, #:upper16:ADCD1
  43 000e 40F20001 		movw	r1, #:lower16:.LANCHOR0
  44 0012 2046     		mov	r0, r4
  45 0014 C0F20001 		movt	r1, #:upper16:.LANCHOR0
  46 0018 FFF7FEFF 		bl	adcStart
  47              		.loc 1 110 0
  48 001c 40F20001 		movw	r1, #:lower16:.LANCHOR1
  49 0020 40F20002 		movw	r2, #:lower16:.LANCHOR2
  50 0024 2046     		mov	r0, r4
  51 0026 C0F20001 		movt	r1, #:upper16:.LANCHOR1
  52 002a C0F20002 		movt	r2, #:upper16:.LANCHOR2
  53 002e 0123     		movs	r3, #1
  54              		.loc 1 111 0
  55 0030 BDE81040 		pop	{r4, lr}
  56              		.loc 1 110 0
  57 0034 FFF7FEBF 		b	adcStartConversion
ARM GAS  /tmp/ccqA8Rs1.s 			page 2


  58              		.cfi_endproc
  59              	.LFE63:
  60              		.size	vexAdcInit, .-vexAdcInit
  61 0038 AFF30080 		.section	.text.vexAdcGet,"ax",%progbits
  61      AFF30080 
  62              		.align	2
  63              		.p2align 4,,15
  64              		.global	vexAdcGet
  65              		.thumb
  66              		.thumb_func
  67              		.type	vexAdcGet, %function
  68              	vexAdcGet:
  69              	.LFB64:
  70              		.loc 1 121 0
  71              		.cfi_startproc
  72              		@ args = 0, pretend = 0, frame = 0
  73              		@ frame_needed = 0, uses_anonymous_args = 0
  74              		@ link register save eliminated.
  75              	.LVL0:
  76              		.loc 1 122 0
  77 0000 83B2     		uxth	r3, r0
  78 0002 072B     		cmp	r3, #7
  79              		.loc 1 125 0
  80 0004 9DBF     		ittte	ls
  81 0006 40F20003 		movwls	r3, #:lower16:.LANCHOR2
  82 000a C0F20003 		movtls	r3, #:upper16:.LANCHOR2
  83 000e 33F81000 		ldrhls	r0, [r3, r0, lsl #1]
  84              	.LVL1:
  85              		.loc 1 123 0
  86 0012 4FF6FF70 		movwhi	r0, #65535
  87              		.loc 1 126 0
  88 0016 00B2     		sxth	r0, r0
  89 0018 7047     		bx	lr
  90              		.cfi_endproc
  91              	.LFE64:
  92              		.size	vexAdcGet, .-vexAdcGet
  93 001a 00BFAFF3 		.section	.text.vexAdcDebug,"ax",%progbits
  93      0080
  94              		.align	2
  95              		.p2align 4,,15
  96              		.global	vexAdcDebug
  97              		.thumb
  98              		.thumb_func
  99              		.type	vexAdcDebug, %function
 100              	vexAdcDebug:
 101              	.LFB65:
 102              		.loc 1 137 0
 103              		.cfi_startproc
 104              		@ args = 0, pretend = 0, frame = 0
 105              		@ frame_needed = 0, uses_anonymous_args = 0
 106              	.LVL2:
 107 0000 70B5     		push	{r4, r5, r6, lr}
 108              	.LCFI1:
 109              		.cfi_def_cfa_offset 16
 110              		.cfi_offset 14, -4
 111              		.cfi_offset 6, -8
 112              		.cfi_offset 5, -12
ARM GAS  /tmp/ccqA8Rs1.s 			page 3


 113              		.cfi_offset 4, -16
 114              		.loc 1 144 0
 115 0002 40F20005 		movw	r5, #:lower16:.LC0
 116              	.LBB4:
 117              	.LBB5:
 118              		.loc 1 125 0
 119 0006 40F20004 		movw	r4, #:lower16:.LANCHOR2
 120              	.LBE5:
 121              	.LBE4:
 122              		.loc 1 144 0
 123 000a C0F20005 		movt	r5, #:upper16:.LC0
 124              	.LBB7:
 125              	.LBB6:
 126              		.loc 1 125 0
 127 000e C0F20004 		movt	r4, #:upper16:.LANCHOR2
 128              	.LBE6:
 129              	.LBE7:
 130              		.loc 1 137 0
 131 0012 0646     		mov	r6, r0
 132              		.loc 1 144 0
 133 0014 0022     		movs	r2, #0
 134              	.LVL3:
 135 0016 B4F90030 		ldrsh	r3, [r4, #0]
 136 001a 2946     		mov	r1, r5
 137              	.LVL4:
 138 001c FFF7FEFF 		bl	vex_chprintf
 139              	.LVL5:
 140 0020 2946     		mov	r1, r5
 141 0022 0122     		movs	r2, #1
 142 0024 B4F90230 		ldrsh	r3, [r4, #2]
 143 0028 3046     		mov	r0, r6
 144 002a FFF7FEFF 		bl	vex_chprintf
 145              	.LVL6:
 146 002e 2946     		mov	r1, r5
 147 0030 0222     		movs	r2, #2
 148 0032 B4F90430 		ldrsh	r3, [r4, #4]
 149 0036 3046     		mov	r0, r6
 150 0038 FFF7FEFF 		bl	vex_chprintf
 151              	.LVL7:
 152 003c 2946     		mov	r1, r5
 153 003e 0322     		movs	r2, #3
 154 0040 B4F90630 		ldrsh	r3, [r4, #6]
 155 0044 3046     		mov	r0, r6
 156 0046 FFF7FEFF 		bl	vex_chprintf
 157              	.LVL8:
 158 004a 2946     		mov	r1, r5
 159 004c 0422     		movs	r2, #4
 160 004e B4F90830 		ldrsh	r3, [r4, #8]
 161 0052 3046     		mov	r0, r6
 162 0054 FFF7FEFF 		bl	vex_chprintf
 163              	.LVL9:
 164 0058 2946     		mov	r1, r5
 165 005a 0522     		movs	r2, #5
 166 005c B4F90A30 		ldrsh	r3, [r4, #10]
 167 0060 3046     		mov	r0, r6
 168 0062 FFF7FEFF 		bl	vex_chprintf
 169              	.LVL10:
ARM GAS  /tmp/ccqA8Rs1.s 			page 4


 170 0066 2946     		mov	r1, r5
 171 0068 0622     		movs	r2, #6
 172 006a B4F90C30 		ldrsh	r3, [r4, #12]
 173 006e 3046     		mov	r0, r6
 174 0070 FFF7FEFF 		bl	vex_chprintf
 175              	.LVL11:
 176 0074 B4F90E30 		ldrsh	r3, [r4, #14]
 177 0078 3046     		mov	r0, r6
 178 007a 2946     		mov	r1, r5
 179 007c 0722     		movs	r2, #7
 180              		.loc 1 145 0
 181 007e BDE87040 		pop	{r4, r5, r6, lr}
 182              		.loc 1 144 0
 183 0082 FFF7FEBF 		b	vex_chprintf
 184              		.cfi_endproc
 185              	.LFE65:
 186              		.size	vexAdcDebug, .-vexAdcDebug
 187 0086 00BFAFF3 		.section	.bss.adccfg,"aw",%nobits
 187      0080AFF3 
 187      0080
 188              		.align	2
 189              		.set	.LANCHOR0,. + 0
 190              		.type	adccfg, %object
 191              		.size	adccfg, 4
 192              	adccfg:
 193 0000 00000000 		.space	4
 194              		.section	.rodata.str1.4,"aMS",%progbits,1
 195              		.align	2
 196              	.LC0:
 197 0000 6368616E 		.ascii	"channel %d = %4d\015\012\000"
 197      6E656C20 
 197      2564203D 
 197      20253464 
 197      0D0A00
 198 0013 00       		.section	.data.adccg,"aw",%progbits
 199              		.align	2
 200              		.set	.LANCHOR1,. + 0
 201              		.type	adccg, %object
 202              		.size	adccg, 40
 203              	adccg:
 204 0000 01       		.byte	1
 205 0001 00       		.space	1
 206 0002 0800     		.short	8
 207 0004 00000000 		.word	0
 208 0008 00000000 		.word	0
 209 000c 00000000 		.word	0
 210 0010 00000000 		.word	0
 211 0014 6D0B0000 		.word	2925
 212 0018 6D0B0000 		.word	2925
 213 001c 00007000 		.word	7340032
 214 0020 6A010000 		.word	362
 215 0024 2088C11A 		.word	448890912
 216              		.section	.bss.samples_buf,"aw",%nobits
 217              		.align	2
 218              		.set	.LANCHOR2,. + 0
 219              		.type	samples_buf, %object
 220              		.size	samples_buf, 16
ARM GAS  /tmp/ccqA8Rs1.s 			page 5


 221              	samples_buf:
 222 0000 00000000 		.space	16
 222      00000000 
 222      00000000 
 222      00000000 
 223              		.text
 224              	.Letext0:
 225              		.file 2 "/opt/pros/toolchain/bin/../lib/gcc/arm-none-eabi/4.6.3/include/stddef.h"
 226              		.file 3 "/opt/pros/toolchain/bin/../lib/gcc/arm-none-eabi/4.6.3/../../../../arm-none-eabi/include/
 227              		.file 4 "../ChibiOS_2.6.2/os/ports/GCC/ARMCMx/chtypes.h"
 228              		.file 5 "../ChibiOS_2.6.2/os/kernel/include/chlists.h"
 229              		.file 6 "../ChibiOS_2.6.2/os/kernel/include/chthreads.h"
 230              		.file 7 "../ChibiOS_2.6.2/os/ports/GCC/ARMCMx/chcore_v7m.h"
 231              		.file 8 "../ChibiOS_2.6.2/os/kernel/include/chmtx.h"
 232              		.file 9 "../ChibiOS_2.6.2/os/kernel/include/chstreams.h"
 233              		.file 10 "../ChibiOS_2.6.2/os/hal/platforms/STM32F1xx/stm32f10x.h"
 234              		.file 11 "../ChibiOS_2.6.2/os/hal/platforms/STM32F1xx/stm32_dma.h"
 235              		.file 12 "../ChibiOS_2.6.2/os/hal/include/adc.h"
 236              		.file 13 "../ChibiOS_2.6.2/os/hal/platforms/STM32F1xx/adc_lld.h"
 237              		.file 14 "../convex/cortex/fw/vexcompat.h"
 238              		.file 15 "../convex/cortex/fw/vexdigital.h"
 239              		.file 16 "../convex/cortex/fw/vexime.h"
 240              		.file 17 "../ChibiOS_2.6.2/os/ports/common/ARMCMx/CMSIS/include/core_cm3.h"