ARM GAS  /tmp/ccX8xWkT.s 			page 1


   1              		.syntax unified
   2              		.cpu cortex-m3
   3              		.fpu softvfp
   4              		.eabi_attribute 20, 1
   5              		.eabi_attribute 21, 1
   6              		.eabi_attribute 23, 3
   7              		.eabi_attribute 24, 1
   8              		.eabi_attribute 25, 1
   9              		.eabi_attribute 26, 1
  10              		.eabi_attribute 30, 2
  11              		.eabi_attribute 34, 1
  12              		.eabi_attribute 18, 4
  13              		.thumb
  14              		.file	"vexbkup.c"
  15              		.text
  16              	.Ltext0:
  17              		.cfi_sections	.debug_frame
  18              		.section	.text.vexBkupInit,"ax",%progbits
  19              		.align	2
  20              		.p2align 4,,15
  21              		.global	vexBkupInit
  22              		.thumb
  23              		.thumb_func
  24              		.type	vexBkupInit, %function
  25              	vexBkupInit:
  26              	.LFB63:
  27              		.file 1 "../convex/cortex/fw/vexbkup.c"
  28              		.loc 1 62 0
  29              		.cfi_startproc
  30              		@ args = 0, pretend = 0, frame = 0
  31              		@ frame_needed = 0, uses_anonymous_args = 0
  32              		@ link register save eliminated.
  33              	.LVL0:
  34              		.loc 1 67 0
  35 0000 4FF4805C 		mov	ip, #4096
  36 0004 C4F2020C 		movt	ip, 16386
  37 0008 DCF81C20 		ldr	r2, [ip, #28]
  38              		.loc 1 69 0
  39 000c 4FF4E043 		mov	r3, #28672
  40              		.loc 1 67 0
  41 0010 42F0C051 		orr	r1, r2, #402653184
  42 0014 CCF81C10 		str	r1, [ip, #28]
  43              		.loc 1 69 0
  44 0018 C4F20003 		movt	r3, 16384
  45 001c 1868     		ldr	r0, [r3, #0]
  46 001e 40F48072 		orr	r2, r0, #256
  47 0022 1A60     		str	r2, [r3, #0]
  48              		.loc 1 70 0
  49 0024 7047     		bx	lr
  50              		.cfi_endproc
  51              	.LFE63:
  52              		.size	vexBkupInit, .-vexBkupInit
  53 0026 00BFAFF3 		.section	.text.vexBkupRegisterWrite,"ax",%progbits
  53      0080AFF3 
  53      0080
  54              		.align	2
  55              		.p2align 4,,15
ARM GAS  /tmp/ccX8xWkT.s 			page 2


  56              		.global	vexBkupRegisterWrite
  57              		.thumb
  58              		.thumb_func
  59              		.type	vexBkupRegisterWrite, %function
  60              	vexBkupRegisterWrite:
  61              	.LFB64:
  62              		.loc 1 80 0
  63              		.cfi_startproc
  64              		@ args = 0, pretend = 0, frame = 0
  65              		@ frame_needed = 0, uses_anonymous_args = 0
  66              		@ link register save eliminated.
  67              	.LVL1:
  68              		.loc 1 85 0
  69 0000 83B2     		uxth	r3, r0
  70 0002 092B     		cmp	r3, #9
  71 0004 0BD9     		bls	.L6
  72              		.loc 1 93 0
  73 0006 0A3B     		subs	r3, r3, #10
  74 0008 9AB2     		uxth	r2, r3
  75 000a 1F2A     		cmp	r2, #31
  76 000c 06D8     		bhi	.L2
  77              		.loc 1 95 0
  78 000e 46F6404C 		movw	ip, #27712
  79 0012 C4F2000C 		movt	ip, 16384
  80              	.LVL2:
  81              		.loc 1 96 0
  82 0016 0A38     		subs	r0, r0, #10
  83              	.LVL3:
  84              		.loc 1 98 0
  85 0018 2CF82010 		strh	r1, [ip, r0, lsl #2]	@ movhi
  86              	.LVL4:
  87              	.L2:
  88 001c 7047     		bx	lr
  89              	.LVL5:
  90              	.L6:
  91              		.loc 1 87 0
  92 001e 46F60443 		movw	r3, #27652
  93              	.LVL6:
  94 0022 C4F20003 		movt	r3, 16384
  95              	.LVL7:
  96              		.loc 1 90 0
  97 0026 23F82010 		strh	r1, [r3, r0, lsl #2]	@ movhi
  98 002a 7047     		bx	lr
  99              		.cfi_endproc
 100              	.LFE64:
 101              		.size	vexBkupRegisterWrite, .-vexBkupRegisterWrite
 102 002c AFF30080 		.section	.text.vexBkupRegisterRead,"ax",%progbits
 103              		.align	2
 104              		.p2align 4,,15
 105              		.global	vexBkupRegisterRead
 106              		.thumb
 107              		.thumb_func
 108              		.type	vexBkupRegisterRead, %function
 109              	vexBkupRegisterRead:
 110              	.LFB65:
 111              		.loc 1 110 0
 112              		.cfi_startproc
ARM GAS  /tmp/ccX8xWkT.s 			page 3


 113              		@ args = 0, pretend = 0, frame = 0
 114              		@ frame_needed = 0, uses_anonymous_args = 0
 115              		@ link register save eliminated.
 116              	.LVL8:
 117              		.loc 1 115 0
 118 0000 83B2     		uxth	r3, r0
 119 0002 092B     		cmp	r3, #9
 120 0004 0ED9     		bls	.L11
 121              		.loc 1 122 0
 122 0006 0A3B     		subs	r3, r3, #10
 123 0008 99B2     		uxth	r1, r3
 124 000a 1F29     		cmp	r1, #31
 125 000c 08D8     		bhi	.L10
 126              	.LVL9:
 127              	.LBB4:
 128              	.LBB5:
 129              		.loc 1 124 0
 130 000e 46F6404C 		movw	ip, #27712
 131              		.loc 1 125 0
 132 0012 0A38     		subs	r0, r0, #10
 133              	.LVL10:
 134              		.loc 1 124 0
 135 0014 C4F2000C 		movt	ip, 16384
 136              	.LVL11:
 137              		.loc 1 126 0
 138 0018 3CF82020 		ldrh	r2, [ip, r0, lsl #2]
 139 001c 90B2     		uxth	r0, r2
 140              	.LVL12:
 141 001e 7047     		bx	lr
 142              	.L10:
 143              	.LBE5:
 144              	.LBE4:
 145              		.loc 1 129 0
 146 0020 0020     		movs	r0, #0
 147              		.loc 1 130 0
 148 0022 7047     		bx	lr
 149              	.LVL13:
 150              	.L11:
 151              		.loc 1 117 0
 152 0024 46F60443 		movw	r3, #27652
 153              	.LVL14:
 154 0028 C4F20003 		movt	r3, 16384
 155              	.LVL15:
 156              		.loc 1 119 0
 157 002c 33F82000 		ldrh	r0, [r3, r0, lsl #2]
 158              	.LVL16:
 159 0030 80B2     		uxth	r0, r0
 160 0032 7047     		bx	lr
 161              		.cfi_endproc
 162              	.LFE65:
 163              		.size	vexBkupRegisterRead, .-vexBkupRegisterRead
 164 0034 AFF30080 		.section	.text.vexBkupDebug,"ax",%progbits
 164      AFF30080 
 164      AFF30080 
 165              		.align	2
 166              		.p2align 4,,15
 167              		.global	vexBkupDebug
ARM GAS  /tmp/ccX8xWkT.s 			page 4


 168              		.thumb
 169              		.thumb_func
 170              		.type	vexBkupDebug, %function
 171              	vexBkupDebug:
 172              	.LFB66:
 173              		.loc 1 141 0
 174              		.cfi_startproc
 175              		@ args = 0, pretend = 0, frame = 0
 176              		@ frame_needed = 0, uses_anonymous_args = 0
 177              	.LVL17:
 178              		.loc 1 147 0
 179 0000 40F20001 		movw	r1, #:lower16:.LC0
 180              	.LVL18:
 181              		.loc 1 141 0
 182 0004 70B5     		push	{r4, r5, r6, lr}
 183              	.LCFI0:
 184              		.cfi_def_cfa_offset 16
 185              		.cfi_offset 14, -4
 186              		.cfi_offset 6, -8
 187              		.cfi_offset 5, -12
 188              		.cfi_offset 4, -16
 189              		.loc 1 147 0
 190 0006 C0F20001 		movt	r1, #:upper16:.LC0
 191              		.loc 1 141 0
 192 000a 0446     		mov	r4, r0
 193              		.loc 1 147 0
 194 000c FFF7FEFF 		bl	vex_chprintf
 195              	.LVL19:
 196              		.loc 1 148 0
 197 0010 40F20001 		movw	r1, #:lower16:.LC1
 198 0014 C0F20001 		movt	r1, #:upper16:.LC1
 199 0018 2046     		mov	r0, r4
 200 001a FFF7FEFF 		bl	vex_chprintf
 201              	.LVL20:
 202              		.loc 1 150 0
 203 001e 0020     		movs	r0, #0
 204 0020 FFF7FEFF 		bl	vexBkupRegisterRead
 205 0024 40F20005 		movw	r5, #:lower16:.LC2
 206 0028 C0F20005 		movt	r5, #:upper16:.LC2
 207 002c 0246     		mov	r2, r0
 208 002e 2946     		mov	r1, r5
 209 0030 2046     		mov	r0, r4
 210 0032 FFF7FEFF 		bl	vex_chprintf
 211              	.LVL21:
 212 0036 0120     		movs	r0, #1
 213 0038 FFF7FEFF 		bl	vexBkupRegisterRead
 214 003c 2946     		mov	r1, r5
 215 003e 0246     		mov	r2, r0
 216 0040 2046     		mov	r0, r4
 217 0042 FFF7FEFF 		bl	vex_chprintf
 218              	.LVL22:
 219 0046 0220     		movs	r0, #2
 220 0048 FFF7FEFF 		bl	vexBkupRegisterRead
 221 004c 2946     		mov	r1, r5
 222 004e 0246     		mov	r2, r0
 223 0050 2046     		mov	r0, r4
 224 0052 FFF7FEFF 		bl	vex_chprintf
ARM GAS  /tmp/ccX8xWkT.s 			page 5


 225              	.LVL23:
 226 0056 0320     		movs	r0, #3
 227 0058 FFF7FEFF 		bl	vexBkupRegisterRead
 228 005c 2946     		mov	r1, r5
 229 005e 0246     		mov	r2, r0
 230 0060 2046     		mov	r0, r4
 231 0062 FFF7FEFF 		bl	vex_chprintf
 232              	.LVL24:
 233 0066 0420     		movs	r0, #4
 234 0068 FFF7FEFF 		bl	vexBkupRegisterRead
 235 006c 2946     		mov	r1, r5
 236 006e 0246     		mov	r2, r0
 237 0070 2046     		mov	r0, r4
 238 0072 FFF7FEFF 		bl	vex_chprintf
 239              	.LVL25:
 240 0076 0520     		movs	r0, #5
 241 0078 FFF7FEFF 		bl	vexBkupRegisterRead
 242 007c 2946     		mov	r1, r5
 243 007e 0246     		mov	r2, r0
 244 0080 2046     		mov	r0, r4
 245 0082 FFF7FEFF 		bl	vex_chprintf
 246              	.LVL26:
 247 0086 0620     		movs	r0, #6
 248 0088 FFF7FEFF 		bl	vexBkupRegisterRead
 249 008c 2946     		mov	r1, r5
 250 008e 0246     		mov	r2, r0
 251 0090 2046     		mov	r0, r4
 252 0092 FFF7FEFF 		bl	vex_chprintf
 253              	.LVL27:
 254 0096 0720     		movs	r0, #7
 255 0098 FFF7FEFF 		bl	vexBkupRegisterRead
 256 009c 2946     		mov	r1, r5
 257 009e 0246     		mov	r2, r0
 258 00a0 2046     		mov	r0, r4
 259 00a2 FFF7FEFF 		bl	vex_chprintf
 260              	.LVL28:
 261 00a6 0820     		movs	r0, #8
 262 00a8 FFF7FEFF 		bl	vexBkupRegisterRead
 263 00ac 2946     		mov	r1, r5
 264 00ae 0246     		mov	r2, r0
 265 00b0 2046     		mov	r0, r4
 266 00b2 FFF7FEFF 		bl	vex_chprintf
 267              	.LVL29:
 268 00b6 0920     		movs	r0, #9
 269 00b8 FFF7FEFF 		bl	vexBkupRegisterRead
 270 00bc 2946     		mov	r1, r5
 271 00be 0246     		mov	r2, r0
 272 00c0 2046     		mov	r0, r4
 273 00c2 FFF7FEFF 		bl	vex_chprintf
 274              	.LVL30:
 275 00c6 0A20     		movs	r0, #10
 276 00c8 FFF7FEFF 		bl	vexBkupRegisterRead
 277 00cc 2946     		mov	r1, r5
 278 00ce 0246     		mov	r2, r0
 279 00d0 2046     		mov	r0, r4
 280 00d2 FFF7FEFF 		bl	vex_chprintf
 281              	.LVL31:
ARM GAS  /tmp/ccX8xWkT.s 			page 6


 282 00d6 0B20     		movs	r0, #11
 283 00d8 FFF7FEFF 		bl	vexBkupRegisterRead
 284 00dc 2946     		mov	r1, r5
 285 00de 0246     		mov	r2, r0
 286 00e0 2046     		mov	r0, r4
 287 00e2 FFF7FEFF 		bl	vex_chprintf
 288              	.LVL32:
 289 00e6 0C20     		movs	r0, #12
 290 00e8 FFF7FEFF 		bl	vexBkupRegisterRead
 291 00ec 2946     		mov	r1, r5
 292 00ee 0246     		mov	r2, r0
 293 00f0 2046     		mov	r0, r4
 294 00f2 FFF7FEFF 		bl	vex_chprintf
 295              	.LVL33:
 296 00f6 0D20     		movs	r0, #13
 297 00f8 FFF7FEFF 		bl	vexBkupRegisterRead
 298 00fc 2946     		mov	r1, r5
 299 00fe 0246     		mov	r2, r0
 300 0100 2046     		mov	r0, r4
 301 0102 FFF7FEFF 		bl	vex_chprintf
 302              	.LVL34:
 303 0106 0E20     		movs	r0, #14
 304 0108 FFF7FEFF 		bl	vexBkupRegisterRead
 305 010c 2946     		mov	r1, r5
 306 010e 0246     		mov	r2, r0
 307 0110 2046     		mov	r0, r4
 308 0112 FFF7FEFF 		bl	vex_chprintf
 309              	.LVL35:
 310 0116 0F20     		movs	r0, #15
 311 0118 FFF7FEFF 		bl	vexBkupRegisterRead
 312              		.loc 1 151 0
 313 011c 40F20006 		movw	r6, #:lower16:.LC3
 314              		.loc 1 150 0
 315 0120 0246     		mov	r2, r0
 316              		.loc 1 151 0
 317 0122 C0F20006 		movt	r6, #:upper16:.LC3
 318              		.loc 1 150 0
 319 0126 2946     		mov	r1, r5
 320 0128 2046     		mov	r0, r4
 321 012a FFF7FEFF 		bl	vex_chprintf
 322              	.LVL36:
 323              		.loc 1 151 0
 324 012e 3146     		mov	r1, r6
 325 0130 2046     		mov	r0, r4
 326 0132 FFF7FEFF 		bl	vex_chprintf
 327              		.loc 1 152 0
 328 0136 40F20001 		movw	r1, #:lower16:.LC4
 329 013a C0F20001 		movt	r1, #:upper16:.LC4
 330 013e 2046     		mov	r0, r4
 331 0140 FFF7FEFF 		bl	vex_chprintf
 332              		.loc 1 154 0
 333 0144 1020     		movs	r0, #16
 334 0146 FFF7FEFF 		bl	vexBkupRegisterRead
 335 014a 2946     		mov	r1, r5
 336 014c 0246     		mov	r2, r0
 337 014e 2046     		mov	r0, r4
 338 0150 FFF7FEFF 		bl	vex_chprintf
ARM GAS  /tmp/ccX8xWkT.s 			page 7


 339              	.LVL37:
 340 0154 1120     		movs	r0, #17
 341 0156 FFF7FEFF 		bl	vexBkupRegisterRead
 342 015a 2946     		mov	r1, r5
 343 015c 0246     		mov	r2, r0
 344 015e 2046     		mov	r0, r4
 345 0160 FFF7FEFF 		bl	vex_chprintf
 346              	.LVL38:
 347 0164 1220     		movs	r0, #18
 348 0166 FFF7FEFF 		bl	vexBkupRegisterRead
 349 016a 2946     		mov	r1, r5
 350 016c 0246     		mov	r2, r0
 351 016e 2046     		mov	r0, r4
 352 0170 FFF7FEFF 		bl	vex_chprintf
 353              	.LVL39:
 354 0174 1320     		movs	r0, #19
 355 0176 FFF7FEFF 		bl	vexBkupRegisterRead
 356 017a 2946     		mov	r1, r5
 357 017c 0246     		mov	r2, r0
 358 017e 2046     		mov	r0, r4
 359 0180 FFF7FEFF 		bl	vex_chprintf
 360              	.LVL40:
 361 0184 1420     		movs	r0, #20
 362 0186 FFF7FEFF 		bl	vexBkupRegisterRead
 363 018a 2946     		mov	r1, r5
 364 018c 0246     		mov	r2, r0
 365 018e 2046     		mov	r0, r4
 366 0190 FFF7FEFF 		bl	vex_chprintf
 367              	.LVL41:
 368 0194 1520     		movs	r0, #21
 369 0196 FFF7FEFF 		bl	vexBkupRegisterRead
 370 019a 2946     		mov	r1, r5
 371 019c 0246     		mov	r2, r0
 372 019e 2046     		mov	r0, r4
 373 01a0 FFF7FEFF 		bl	vex_chprintf
 374              	.LVL42:
 375 01a4 1620     		movs	r0, #22
 376 01a6 FFF7FEFF 		bl	vexBkupRegisterRead
 377 01aa 2946     		mov	r1, r5
 378 01ac 0246     		mov	r2, r0
 379 01ae 2046     		mov	r0, r4
 380 01b0 FFF7FEFF 		bl	vex_chprintf
 381              	.LVL43:
 382 01b4 1720     		movs	r0, #23
 383 01b6 FFF7FEFF 		bl	vexBkupRegisterRead
 384 01ba 2946     		mov	r1, r5
 385 01bc 0246     		mov	r2, r0
 386 01be 2046     		mov	r0, r4
 387 01c0 FFF7FEFF 		bl	vex_chprintf
 388              	.LVL44:
 389 01c4 1820     		movs	r0, #24
 390 01c6 FFF7FEFF 		bl	vexBkupRegisterRead
 391 01ca 2946     		mov	r1, r5
 392 01cc 0246     		mov	r2, r0
 393 01ce 2046     		mov	r0, r4
 394 01d0 FFF7FEFF 		bl	vex_chprintf
 395              	.LVL45:
ARM GAS  /tmp/ccX8xWkT.s 			page 8


 396 01d4 1920     		movs	r0, #25
 397 01d6 FFF7FEFF 		bl	vexBkupRegisterRead
 398 01da 2946     		mov	r1, r5
 399 01dc 0246     		mov	r2, r0
 400 01de 2046     		mov	r0, r4
 401 01e0 FFF7FEFF 		bl	vex_chprintf
 402              	.LVL46:
 403 01e4 1A20     		movs	r0, #26
 404 01e6 FFF7FEFF 		bl	vexBkupRegisterRead
 405 01ea 2946     		mov	r1, r5
 406 01ec 0246     		mov	r2, r0
 407 01ee 2046     		mov	r0, r4
 408 01f0 FFF7FEFF 		bl	vex_chprintf
 409              	.LVL47:
 410 01f4 1B20     		movs	r0, #27
 411 01f6 FFF7FEFF 		bl	vexBkupRegisterRead
 412 01fa 2946     		mov	r1, r5
 413 01fc 0246     		mov	r2, r0
 414 01fe 2046     		mov	r0, r4
 415 0200 FFF7FEFF 		bl	vex_chprintf
 416              	.LVL48:
 417 0204 1C20     		movs	r0, #28
 418 0206 FFF7FEFF 		bl	vexBkupRegisterRead
 419 020a 2946     		mov	r1, r5
 420 020c 0246     		mov	r2, r0
 421 020e 2046     		mov	r0, r4
 422 0210 FFF7FEFF 		bl	vex_chprintf
 423              	.LVL49:
 424 0214 1D20     		movs	r0, #29
 425 0216 FFF7FEFF 		bl	vexBkupRegisterRead
 426 021a 2946     		mov	r1, r5
 427 021c 0246     		mov	r2, r0
 428 021e 2046     		mov	r0, r4
 429 0220 FFF7FEFF 		bl	vex_chprintf
 430              	.LVL50:
 431 0224 1E20     		movs	r0, #30
 432 0226 FFF7FEFF 		bl	vexBkupRegisterRead
 433 022a 2946     		mov	r1, r5
 434 022c 0246     		mov	r2, r0
 435 022e 2046     		mov	r0, r4
 436 0230 FFF7FEFF 		bl	vex_chprintf
 437              	.LVL51:
 438 0234 1F20     		movs	r0, #31
 439 0236 FFF7FEFF 		bl	vexBkupRegisterRead
 440 023a 2946     		mov	r1, r5
 441 023c 0246     		mov	r2, r0
 442 023e 2046     		mov	r0, r4
 443 0240 FFF7FEFF 		bl	vex_chprintf
 444              	.LVL52:
 445              		.loc 1 155 0
 446 0244 3146     		mov	r1, r6
 447 0246 2046     		mov	r0, r4
 448 0248 FFF7FEFF 		bl	vex_chprintf
 449              		.loc 1 156 0
 450 024c 40F20001 		movw	r1, #:lower16:.LC5
 451 0250 C0F20001 		movt	r1, #:upper16:.LC5
 452 0254 2046     		mov	r0, r4
ARM GAS  /tmp/ccX8xWkT.s 			page 9


 453 0256 FFF7FEFF 		bl	vex_chprintf
 454              		.loc 1 158 0
 455 025a 2020     		movs	r0, #32
 456 025c FFF7FEFF 		bl	vexBkupRegisterRead
 457 0260 2946     		mov	r1, r5
 458 0262 0246     		mov	r2, r0
 459 0264 2046     		mov	r0, r4
 460 0266 FFF7FEFF 		bl	vex_chprintf
 461              	.LVL53:
 462 026a 2120     		movs	r0, #33
 463 026c FFF7FEFF 		bl	vexBkupRegisterRead
 464 0270 2946     		mov	r1, r5
 465 0272 0246     		mov	r2, r0
 466 0274 2046     		mov	r0, r4
 467 0276 FFF7FEFF 		bl	vex_chprintf
 468              	.LVL54:
 469 027a 2220     		movs	r0, #34
 470 027c FFF7FEFF 		bl	vexBkupRegisterRead
 471 0280 2946     		mov	r1, r5
 472 0282 0246     		mov	r2, r0
 473 0284 2046     		mov	r0, r4
 474 0286 FFF7FEFF 		bl	vex_chprintf
 475              	.LVL55:
 476 028a 2320     		movs	r0, #35
 477 028c FFF7FEFF 		bl	vexBkupRegisterRead
 478 0290 2946     		mov	r1, r5
 479 0292 0246     		mov	r2, r0
 480 0294 2046     		mov	r0, r4
 481 0296 FFF7FEFF 		bl	vex_chprintf
 482              	.LVL56:
 483 029a 2420     		movs	r0, #36
 484 029c FFF7FEFF 		bl	vexBkupRegisterRead
 485 02a0 2946     		mov	r1, r5
 486 02a2 0246     		mov	r2, r0
 487 02a4 2046     		mov	r0, r4
 488 02a6 FFF7FEFF 		bl	vex_chprintf
 489              	.LVL57:
 490 02aa 2520     		movs	r0, #37
 491 02ac FFF7FEFF 		bl	vexBkupRegisterRead
 492 02b0 2946     		mov	r1, r5
 493 02b2 0246     		mov	r2, r0
 494 02b4 2046     		mov	r0, r4
 495 02b6 FFF7FEFF 		bl	vex_chprintf
 496              	.LVL58:
 497 02ba 2620     		movs	r0, #38
 498 02bc FFF7FEFF 		bl	vexBkupRegisterRead
 499 02c0 2946     		mov	r1, r5
 500 02c2 0246     		mov	r2, r0
 501 02c4 2046     		mov	r0, r4
 502 02c6 FFF7FEFF 		bl	vex_chprintf
 503              	.LVL59:
 504 02ca 2720     		movs	r0, #39
 505 02cc FFF7FEFF 		bl	vexBkupRegisterRead
 506 02d0 2946     		mov	r1, r5
 507 02d2 0246     		mov	r2, r0
 508 02d4 2046     		mov	r0, r4
 509 02d6 FFF7FEFF 		bl	vex_chprintf
ARM GAS  /tmp/ccX8xWkT.s 			page 10


 510              	.LVL60:
 511 02da 2820     		movs	r0, #40
 512 02dc FFF7FEFF 		bl	vexBkupRegisterRead
 513 02e0 2946     		mov	r1, r5
 514 02e2 0246     		mov	r2, r0
 515 02e4 2046     		mov	r0, r4
 516 02e6 FFF7FEFF 		bl	vex_chprintf
 517              	.LVL61:
 518 02ea 2920     		movs	r0, #41
 519 02ec FFF7FEFF 		bl	vexBkupRegisterRead
 520 02f0 2946     		mov	r1, r5
 521 02f2 0246     		mov	r2, r0
 522 02f4 2046     		mov	r0, r4
 523 02f6 FFF7FEFF 		bl	vex_chprintf
 524              	.LVL62:
 525              		.loc 1 159 0
 526 02fa 2046     		mov	r0, r4
 527 02fc 3146     		mov	r1, r6
 528              		.loc 1 160 0
 529 02fe BDE87040 		pop	{r4, r5, r6, lr}
 530              		.loc 1 159 0
 531 0302 FFF7FEBF 		b	vex_chprintf
 532              		.cfi_endproc
 533              	.LFE66:
 534              		.size	vexBkupDebug, .-vexBkupDebug
 535 0306 00BFAFF3 		.section	.rodata.str1.4,"aMS",%progbits,1
 535      0080AFF3 
 535      0080
 536              		.align	2
 537              	.LC0:
 538 0000 4261636B 		.ascii	"Backup Registers\015\012\000"
 538      75702052 
 538      65676973 
 538      74657273 
 538      0D0A00
 539 0013 00       		.space	1
 540              	.LC1:
 541 0014 30302D31 		.ascii	"00-15: \000"
 541      353A2000 
 542              	.LC2:
 543 001c 25303258 		.ascii	"%02X \000"
 543      2000
 544 0022 0000     		.space	2
 545              	.LC3:
 546 0024 0D0A00   		.ascii	"\015\012\000"
 547 0027 00       		.space	1
 548              	.LC4:
 549 0028 31362D33 		.ascii	"16-32: \000"
 549      323A2000 
 550              	.LC5:
 551 0030 33322D34 		.ascii	"32-41: \000"
 551      313A2000 
 552              		.text
 553              	.Letext0:
 554              		.file 2 "/opt/pros/toolchain/bin/../lib/gcc/arm-none-eabi/4.6.3/include/stddef.h"
 555              		.file 3 "/opt/pros/toolchain/bin/../lib/gcc/arm-none-eabi/4.6.3/../../../../arm-none-eabi/include/
 556              		.file 4 "../ChibiOS_2.6.2/os/ports/GCC/ARMCMx/chtypes.h"
ARM GAS  /tmp/ccX8xWkT.s 			page 11


 557              		.file 5 "../ChibiOS_2.6.2/os/kernel/include/chstreams.h"
 558              		.file 6 "../ChibiOS_2.6.2/os/hal/platforms/STM32F1xx/stm32f10x.h"
 559              		.file 7 "../convex/cortex/fw/vexcompat.h"
 560              		.file 8 "../ChibiOS_2.6.2/os/ports/common/ARMCMx/CMSIS/include/core_cm3.h"