ARM GAS  /tmp/ccFu5c3J.s 			page 1


   1              		.syntax unified
   2              		.cpu cortex-m3
   3              		.fpu softvfp
   4              		.eabi_attribute 20, 1
   5              		.eabi_attribute 21, 1
   6              		.eabi_attribute 23, 3
   7              		.eabi_attribute 24, 1
   8              		.eabi_attribute 25, 1
   9              		.eabi_attribute 26, 1
  10              		.eabi_attribute 30, 2
  11              		.eabi_attribute 34, 1
  12              		.eabi_attribute 18, 4
  13              		.thumb
  14              		.file	"vexcortex.c"
  15              		.text
  16              	.Ltext0:
  17              		.cfi_sections	.debug_frame
  18              		.section	.text.vexCortexMonitorTask,"ax",%progbits
  19              		.align	2
  20              		.p2align 4,,15
  21              		.thumb
  22              		.thumb_func
  23              		.type	vexCortexMonitorTask, %function
  24              	vexCortexMonitorTask:
  25              	.LFB71:
  26              		.file 1 "../convex/cortex/fw/vexcortex.c"
  27              		.loc 1 341 0
  28              		.cfi_startproc
  29              		@ args = 0, pretend = 0, frame = 0
  30              		@ frame_needed = 0, uses_anonymous_args = 0
  31              	.LVL0:
  32 0000 2DE9F047 		push	{r4, r5, r6, r7, r8, r9, sl, lr}
  33              	.LCFI0:
  34              		.cfi_def_cfa_offset 32
  35              		.cfi_offset 14, -4
  36              		.cfi_offset 10, -8
  37              		.cfi_offset 9, -12
  38              		.cfi_offset 8, -16
  39              		.cfi_offset 7, -20
  40              		.cfi_offset 6, -24
  41              		.cfi_offset 5, -28
  42              		.cfi_offset 4, -32
  43              		.loc 1 348 0
  44 0004 40F20003 		movw	r3, #:lower16:rlist
  45 0008 C0F20003 		movt	r3, #:upper16:rlist
  46 000c 9969     		ldr	r1, [r3, #24]
  47 000e 40F20002 		movw	r2, #:lower16:.LC0
  48              		.loc 1 349 0
  49 0012 40F20007 		movw	r7, #:lower16:.LANCHOR0
  50 0016 40F20003 		movw	r3, #:lower16:.LANCHOR1
  51              		.loc 1 348 0
  52 001a C0F20002 		movt	r2, #:upper16:.LC0
  53              		.loc 1 349 0
  54 001e C0F20007 		movt	r7, #:upper16:.LANCHOR0
  55 0022 C0F20003 		movt	r3, #:upper16:.LANCHOR1
  56              		.loc 1 348 0
  57 0026 8A61     		str	r2, [r1, #24]
ARM GAS  /tmp/ccFu5c3J.s 			page 2


  58              		.loc 1 341 0
  59 0028 82B0     		sub	sp, sp, #8
  60              	.LCFI1:
  61              		.cfi_def_cfa_offset 40
  62              		.loc 1 349 0
  63 002a 3F60     		str	r7, [r7, #0]
  64              	.LVL1:
  65              		.loc 1 340 0
  66 002c 03F5F071 		add	r1, r3, #480
  67              		.loc 1 354 0
  68 0030 0022     		movs	r2, #0
  69              	.LVL2:
  70              	.L2:
  71              		.loc 1 354 0 is_stmt 0 discriminator 2
  72 0032 1A60     		str	r2, [r3, #0]
  73              		.loc 1 355 0 is_stmt 1 discriminator 2
  74 0034 1A75     		strb	r2, [r3, #20]
  75              		.loc 1 354 0 discriminator 2
  76 0036 9A61     		str	r2, [r3, #24]
  77              		.loc 1 355 0 discriminator 2
  78 0038 03F11800 		add	r0, r3, #24
  79 003c 3033     		adds	r3, r3, #48
  80              		.loc 1 352 0 discriminator 2
  81 003e 8B42     		cmp	r3, r1
  82              		.loc 1 355 0 discriminator 2
  83 0040 0275     		strb	r2, [r0, #20]
  84              		.loc 1 352 0 discriminator 2
  85 0042 F6D1     		bne	.L2
  86              		.loc 1 361 0
  87 0044 7820     		movs	r0, #120
  88 0046 FFF7FEFF 		bl	chThdSleep
  89              	.L3:
  90              		.loc 1 365 0 discriminator 1
  91 004a FFF7FEFF 		bl	vexSpiGetOnlineStatus
  92 004e 18B9     		cbnz	r0, .L43
  93              		.loc 1 368 0
  94 0050 6420     		movs	r0, #100
  95 0052 FFF7FEFF 		bl	chThdSleep
  96 0056 F8E7     		b	.L3
  97              	.L43:
  98              		.loc 1 376 0
  99 0058 40F20004 		movw	r4, #:lower16:vexUserInit
 100              		.loc 1 373 0
 101 005c 4FF4FA60 		mov	r0, #2000
 102              		.loc 1 376 0
 103 0060 C0F20004 		movt	r4, #:upper16:vexUserInit
 104              		.loc 1 373 0
 105 0064 FFF7FEFF 		bl	chThdSleep
 106              		.loc 1 376 0
 107 0068 0CB1     		cbz	r4, .L41
 108              		.loc 1 377 0
 109 006a FFF7FEFF 		bl	vexUserInit
 110              	.L41:
 111              		.loc 1 423 0
 112 006e DFF86481 		ldr	r8, .L47
 113 0072 40F20006 		movw	r6, #:lower16:.LANCHOR3
 114 0076 C0F20006 		movt	r6, #:upper16:.LANCHOR3
ARM GAS  /tmp/ccFu5c3J.s 			page 3


 115              		.loc 1 340 0
 116 007a 08F5F074 		add	r4, r8, #480
 117              	.LVL3:
 118              	.L34:
 119              		.loc 1 381 0
 120 007e 1020     		movs	r0, #16
 121 0080 FFF7FEFF 		bl	chThdSleep
 122              		.loc 1 384 0
 123 0084 FFF7FEFF 		bl	vexControllerCompetitonState
 124 0088 10F08005 		ands	r5, r0, #128
 125 008c F7D1     		bne	.L34
 126              		.loc 1 386 0
 127 008e FFF7FEFF 		bl	vexControllerCompetitonState
 128 0092 10F0400E 		ands	lr, r0, #64
 129              		.loc 1 390 0
 130 0096 40F20000 		movw	r0, #:lower16:.LANCHOR2
 131              		.loc 1 386 0
 132 009a 40F08280 		bne	.L7
 133              		.loc 1 390 0
 134 009e 40F20003 		movw	r3, #:lower16:vexOperator
 135 00a2 C0F20000 		movt	r0, #:upper16:.LANCHOR2
 136 00a6 4FF42C71 		mov	r1, #688
 137 00aa 4122     		movs	r2, #65
 138 00ac C0F20003 		movt	r3, #:upper16:vexOperator
 139 00b0 CDF800E0 		str	lr, [sp, #0]
 140 00b4 7546     		mov	r5, lr
 141 00b6 FFF7FEFF 		bl	chThdCreateStatic
 142 00ba 8146     		mov	r9, r0
 143              	.LVL4:
 144              	.L37:
 145              		.loc 1 402 0 discriminator 1
 146 00bc FFF7FEFF 		bl	vexControllerCompetitonState
 147 00c0 00F0C002 		and	r2, r0, #192
 148 00c4 AA42     		cmp	r2, r5
 149 00c6 05D1     		bne	.L9
 150              		.loc 1 404 0
 151 00c8 1020     		movs	r0, #16
 152 00ca FFF7FEFF 		bl	chThdSleep
 153              		.loc 1 407 0
 154 00ce 3178     		ldrb	r1, [r6, #0]	@ zero_extendqisi2
 155 00d0 0029     		cmp	r1, #0
 156 00d2 F3D0     		beq	.L37
 157              	.L9:
 158              		.loc 1 412 0
 159 00d4 3220     		movs	r0, #50
 160 00d6 FFF7FEFF 		bl	chThdSleep
 161              	.LBB2:
 162              		.loc 1 413 0
 163 00da 2023     		movs	r3, #32
 164              	.LVL5:
 165              	@ 413 "../convex/cortex/fw/vexcortex.c" 1
 166 00dc 83F31188 		msr     BASEPRI, r3
 167              	@ 0 "" 2
 168              	.LVL6:
 169              		.thumb
 170              	.LBE2:
 171              		.loc 1 414 0
ARM GAS  /tmp/ccFu5c3J.s 			page 4


 172 00e0 3D68     		ldr	r5, [r7, #0]
 173 00e2 BD42     		cmp	r5, r7
 174 00e4 06D0     		beq	.L12
 175              		.loc 1 415 0
 176 00e6 40F20000 		movw	r0, #:lower16:.LANCHOR0
 177 00ea C0F20000 		movt	r0, #:upper16:.LANCHOR0
 178 00ee 0021     		movs	r1, #0
 179 00f0 FFF7FEFF 		bl	chEvtBroadcastFlagsI
 180              	.LVL7:
 181              	.L12:
 182              	.LBB3:
 183              		.loc 1 416 0
 184 00f4 0023     		movs	r3, #0
 185              	.LVL8:
 186              	@ 416 "../convex/cortex/fw/vexcortex.c" 1
 187 00f6 83F31188 		msr     BASEPRI, r3
 188              	@ 0 "" 2
 189              	.LVL9:
 190              		.thumb
 191              	.LBE3:
 192              		.loc 1 417 0
 193 00fa 3220     		movs	r0, #50
 194 00fc FFF7FEFF 		bl	chThdSleep
 195              	.LVL10:
 196              		.loc 1 420 0
 197 0100 4846     		mov	r0, r9
 198 0102 FFF7FEFF 		bl	chThdWait
 199              		.loc 1 423 0
 200 0106 FFF7FEFF 		bl	vexMotorStopAll
 201              	.LVL11:
 202              		.loc 1 428 0
 203 010a 58F8140C 		ldr	r0, [r8, #-20]
 204              		.loc 1 423 0
 205 010e 314D     		ldr	r5, .L47
 206              		.loc 1 428 0
 207 0110 20B1     		cbz	r0, .L24
 208 0112 95F80090 		ldrb	r9, [r5, #0]	@ zero_extendqisi2
 209 0116 B9F1000F 		cmp	r9, #0
 210 011a 51D0     		beq	.L44
 211              	.L24:
 212              	.LVL12:
 213 011c 0121     		movs	r1, #1
 214              		.loc 1 431 0
 215 011e 2E4D     		ldr	r5, .L47+4
 216 0120 A1B1     		cbz	r1, .L14
 217              		.loc 1 428 0
 218 0122 55F8140C 		ldr	r0, [r5, #-20]
 219 0126 20B1     		cbz	r0, .L26
 220 0128 95F80090 		ldrb	r9, [r5, #0]	@ zero_extendqisi2
 221 012c B9F1000F 		cmp	r9, #0
 222 0130 4BD0     		beq	.L45
 223              	.L26:
 224              		.loc 1 431 0
 225 0132 1835     		adds	r5, r5, #24
 226              		.loc 1 426 0
 227 0134 A542     		cmp	r5, r4
 228 0136 09D1     		bne	.L14
ARM GAS  /tmp/ccFu5c3J.s 			page 5


 229 0138 20E0     		b	.L40
 230              	.L13:
 231              		.loc 1 428 0
 232 013a 59F8140C 		ldr	r0, [r9, #-20]
 233 013e 08B1     		cbz	r0, .L29
 234 0140 2D7E     		ldrb	r5, [r5, #24]	@ zero_extendqisi2
 235 0142 9DB1     		cbz	r5, .L46
 236              	.L29:
 237              		.loc 1 431 0
 238 0144 09F11805 		add	r5, r9, #24
 239              		.loc 1 426 0
 240 0148 A542     		cmp	r5, r4
 241 014a 17D0     		beq	.L40
 242              	.L14:
 243              		.loc 1 428 0
 244 014c 55F8140C 		ldr	r0, [r5, #-20]
 245              		.loc 1 431 0
 246 0150 05F11809 		add	r9, r5, #24
 247              		.loc 1 428 0
 248 0154 0028     		cmp	r0, #0
 249 0156 F0D0     		beq	.L13
 250              		.loc 1 428 0 is_stmt 0 discriminator 1
 251 0158 95F800A0 		ldrb	sl, [r5, #0]	@ zero_extendqisi2
 252 015c BAF1000F 		cmp	sl, #0
 253 0160 EBD1     		bne	.L13
 254              		.loc 1 430 0 is_stmt 1
 255 0162 FFF7FEFF 		bl	chThdWait
 256              		.loc 1 431 0
 257 0166 45F814AC 		str	sl, [r5, #-20]
 258 016a E6E7     		b	.L13
 259              	.L46:
 260              		.loc 1 430 0
 261 016c FFF7FEFF 		bl	chThdWait
 262              		.loc 1 431 0
 263 0170 49F8145C 		str	r5, [r9, #-20]
 264 0174 09F11805 		add	r5, r9, #24
 265              		.loc 1 426 0
 266 0178 A542     		cmp	r5, r4
 267 017a E7D1     		bne	.L14
 268              	.L40:
 269              		.loc 1 436 0
 270 017c 3378     		ldrb	r3, [r6, #0]	@ zero_extendqisi2
 271 017e 002B     		cmp	r3, #0
 272 0180 3FF47DAF 		beq	.L34
 273              	.L20:
 274              		.loc 1 437 0
 275 0184 3220     		movs	r0, #50
 276 0186 FFF7FEFF 		bl	chThdSleep
 277              		.loc 1 436 0
 278 018a 3078     		ldrb	r0, [r6, #0]	@ zero_extendqisi2
 279 018c 0028     		cmp	r0, #0
 280 018e 3FF476AF 		beq	.L34
 281              		.loc 1 437 0
 282 0192 3220     		movs	r0, #50
 283 0194 FFF7FEFF 		bl	chThdSleep
 284              		.loc 1 436 0
 285 0198 3078     		ldrb	r0, [r6, #0]	@ zero_extendqisi2
ARM GAS  /tmp/ccFu5c3J.s 			page 6


 286 019a 0028     		cmp	r0, #0
 287 019c 3FF46FAF 		beq	.L34
 288 01a0 F0E7     		b	.L20
 289              	.L7:
 290              		.loc 1 397 0
 291 01a2 40F20003 		movw	r3, #:lower16:vexAutonomous
 292 01a6 C0F20000 		movt	r0, #:upper16:.LANCHOR2
 293 01aa 4FF42C71 		mov	r1, #688
 294 01ae 4122     		movs	r2, #65
 295 01b0 C0F20003 		movt	r3, #:upper16:vexAutonomous
 296 01b4 0095     		str	r5, [sp, #0]
 297 01b6 FFF7FEFF 		bl	chThdCreateStatic
 298 01ba 4025     		movs	r5, #64
 299 01bc 8146     		mov	r9, r0
 300              	.LVL13:
 301 01be 7DE7     		b	.L37
 302              	.LVL14:
 303              	.L44:
 304              		.loc 1 430 0
 305 01c0 FFF7FEFF 		bl	chThdWait
 306              		.loc 1 431 0
 307 01c4 45F8149C 		str	r9, [r5, #-20]
 308 01c8 A8E7     		b	.L24
 309              	.LVL15:
 310              	.L45:
 311              		.loc 1 430 0
 312 01ca FFF7FEFF 		bl	chThdWait
 313              		.loc 1 431 0
 314 01ce 45F8149C 		str	r9, [r5, #-20]
 315 01d2 AEE7     		b	.L26
 316              	.L48:
 317              		.align	2
 318              	.L47:
 319 01d4 14000000 		.word	.LANCHOR1+20
 320 01d8 2C000000 		.word	.LANCHOR1+44
 321              		.cfi_endproc
 322              	.LFE71:
 323              		.size	vexCortexMonitorTask, .-vexCortexMonitorTask
 324 01dc AFF30080 		.section	.text.vexCortexSystemTask,"ax",%progbits
 325              		.align	2
 326              		.p2align 4,,15
 327              		.thumb
 328              		.thumb_func
 329              		.type	vexCortexSystemTask, %function
 330              	vexCortexSystemTask:
 331              	.LFB72:
 332              		.loc 1 452 0
 333              		.cfi_startproc
 334              		@ args = 0, pretend = 0, frame = 0
 335              		@ frame_needed = 0, uses_anonymous_args = 0
 336              	.LVL16:
 337              		.loc 1 456 0
 338 0000 40F20000 		movw	r0, #:lower16:rlist
 339              	.LVL17:
 340 0004 C0F20000 		movt	r0, #:upper16:rlist
 341 0008 8269     		ldr	r2, [r0, #24]
 342 000a 40F20003 		movw	r3, #:lower16:.LC1
ARM GAS  /tmp/ccFu5c3J.s 			page 7


 343 000e C0F20003 		movt	r3, #:upper16:.LC1
 344              		.loc 1 452 0
 345 0012 10B5     		push	{r4, lr}
 346              	.LCFI2:
 347              		.cfi_def_cfa_offset 8
 348              		.cfi_offset 14, -4
 349              		.cfi_offset 4, -8
 350              		.loc 1 461 0
 351 0014 7820     		movs	r0, #120
 352              		.loc 1 456 0
 353 0016 9361     		str	r3, [r2, #24]
 354              		.loc 1 461 0
 355 0018 FFF7FEFF 		bl	chThdSleep
 356              	.L50:
 357              		.loc 1 465 0
 358 001c 1020     		movs	r0, #16
 359 001e FFF7FEFF 		bl	chThdSleep
 360              	.LVL18:
 361              		.loc 1 470 0
 362 0022 0120     		movs	r0, #1
 363 0024 FFF7FEFF 		bl	vexMotorGet
 364 0028 0446     		mov	r4, r0
 365 002a 0120     		movs	r0, #1
 366 002c FFF7FEFF 		bl	vexMotorDirectionGet
 367 0030 2146     		mov	r1, r4
 368 0032 0246     		mov	r2, r0
 369 0034 0020     		movs	r0, #0
 370 0036 FFF7FEFF 		bl	vexSpiSetMotor
 371              	.LVL19:
 372 003a 0220     		movs	r0, #2
 373 003c FFF7FEFF 		bl	vexMotorGet
 374 0040 0446     		mov	r4, r0
 375 0042 0220     		movs	r0, #2
 376 0044 FFF7FEFF 		bl	vexMotorDirectionGet
 377 0048 2146     		mov	r1, r4
 378 004a 0246     		mov	r2, r0
 379 004c 0120     		movs	r0, #1
 380 004e FFF7FEFF 		bl	vexSpiSetMotor
 381              	.LVL20:
 382 0052 0320     		movs	r0, #3
 383 0054 FFF7FEFF 		bl	vexMotorGet
 384 0058 0446     		mov	r4, r0
 385 005a 0320     		movs	r0, #3
 386 005c FFF7FEFF 		bl	vexMotorDirectionGet
 387 0060 2146     		mov	r1, r4
 388 0062 0246     		mov	r2, r0
 389 0064 0220     		movs	r0, #2
 390 0066 FFF7FEFF 		bl	vexSpiSetMotor
 391              	.LVL21:
 392 006a 0420     		movs	r0, #4
 393 006c FFF7FEFF 		bl	vexMotorGet
 394 0070 0446     		mov	r4, r0
 395 0072 0420     		movs	r0, #4
 396 0074 FFF7FEFF 		bl	vexMotorDirectionGet
 397 0078 2146     		mov	r1, r4
 398 007a 0246     		mov	r2, r0
 399 007c 0320     		movs	r0, #3
ARM GAS  /tmp/ccFu5c3J.s 			page 8


 400 007e FFF7FEFF 		bl	vexSpiSetMotor
 401              	.LVL22:
 402 0082 0520     		movs	r0, #5
 403 0084 FFF7FEFF 		bl	vexMotorGet
 404 0088 0446     		mov	r4, r0
 405 008a 0520     		movs	r0, #5
 406 008c FFF7FEFF 		bl	vexMotorDirectionGet
 407 0090 2146     		mov	r1, r4
 408 0092 0246     		mov	r2, r0
 409 0094 0420     		movs	r0, #4
 410 0096 FFF7FEFF 		bl	vexSpiSetMotor
 411              	.LVL23:
 412 009a 0620     		movs	r0, #6
 413 009c FFF7FEFF 		bl	vexMotorGet
 414 00a0 0446     		mov	r4, r0
 415 00a2 0620     		movs	r0, #6
 416 00a4 FFF7FEFF 		bl	vexMotorDirectionGet
 417 00a8 2146     		mov	r1, r4
 418 00aa 0246     		mov	r2, r0
 419 00ac 0520     		movs	r0, #5
 420 00ae FFF7FEFF 		bl	vexSpiSetMotor
 421              	.LVL24:
 422 00b2 0720     		movs	r0, #7
 423 00b4 FFF7FEFF 		bl	vexMotorGet
 424 00b8 0446     		mov	r4, r0
 425 00ba 0720     		movs	r0, #7
 426 00bc FFF7FEFF 		bl	vexMotorDirectionGet
 427 00c0 2146     		mov	r1, r4
 428 00c2 0246     		mov	r2, r0
 429 00c4 0620     		movs	r0, #6
 430 00c6 FFF7FEFF 		bl	vexSpiSetMotor
 431              	.LVL25:
 432 00ca 0820     		movs	r0, #8
 433 00cc FFF7FEFF 		bl	vexMotorGet
 434 00d0 0446     		mov	r4, r0
 435 00d2 0820     		movs	r0, #8
 436 00d4 FFF7FEFF 		bl	vexMotorDirectionGet
 437 00d8 2146     		mov	r1, r4
 438 00da 0246     		mov	r2, r0
 439 00dc 0720     		movs	r0, #7
 440 00de FFF7FEFF 		bl	vexSpiSetMotor
 441              	.LVL26:
 442              		.loc 1 473 0
 443 00e2 FFF7FEFF 		bl	vexSpiSend
 444 00e6 99E7     		b	.L50
 445              		.cfi_endproc
 446              	.LFE72:
 447              		.size	vexCortexSystemTask, .-vexCortexSystemTask
 448 00e8 AFF30080 		.section	.text.vexTaskRegisterPersistant,"ax",%progbits
 448      AFF30080 
 449              		.align	2
 450              		.p2align 4,,15
 451              		.global	vexTaskRegisterPersistant
 452              		.thumb
 453              		.thumb_func
 454              		.type	vexTaskRegisterPersistant, %function
 455              	vexTaskRegisterPersistant:
ARM GAS  /tmp/ccFu5c3J.s 			page 9


 456              	.LFB64:
 457              		.loc 1 129 0
 458              		.cfi_startproc
 459              		@ args = 0, pretend = 0, frame = 0
 460              		@ frame_needed = 0, uses_anonymous_args = 0
 461              		@ link register save eliminated.
 462              	.LVL27:
 463              		.loc 1 133 0
 464 0000 40F20003 		movw	r3, #:lower16:rlist
 465 0004 C0F20003 		movt	r3, #:upper16:rlist
 466 0008 9B69     		ldr	r3, [r3, #24]
 467              		.loc 1 129 0
 468 000a F0B4     		push	{r4, r5, r6, r7}
 469              	.LCFI3:
 470              		.cfi_def_cfa_offset 16
 471              		.cfi_offset 7, -4
 472              		.cfi_offset 6, -8
 473              		.cfi_offset 5, -12
 474              		.cfi_offset 4, -16
 475              		.loc 1 133 0
 476 000c 0022     		movs	r2, #0
 477 000e 40F20006 		movw	r6, #:lower16:.LANCHOR1
 478              		.loc 1 129 0
 479 0012 0D46     		mov	r5, r1
 480              		.loc 1 133 0
 481 0014 9861     		str	r0, [r3, #24]
 482              	.LVL28:
 483 0016 1146     		mov	r1, r2
 484              	.LVL29:
 485 0018 C0F20006 		movt	r6, #:upper16:.LANCHOR1
 486              	.LVL30:
 487              	.L54:
 488              		.loc 1 139 0
 489 001c B458     		ldr	r4, [r6, r2]
 490 001e 40F20000 		movw	r0, #:lower16:.LANCHOR1
 491 0022 A342     		cmp	r3, r4
 492              		.loc 1 143 0
 493 0024 02F11807 		add	r7, r2, #24
 494              		.loc 1 139 0
 495 0028 C0F20000 		movt	r0, #:upper16:.LANCHOR1
 496              		.loc 1 143 0
 497 002c 02F13002 		add	r2, r2, #48
 498              		.loc 1 139 0
 499 0030 19D0     		beq	.L63
 500 0032 F459     		ldr	r4, [r6, r7]
 501              		.loc 1 143 0
 502 0034 0131     		adds	r1, r1, #1
 503              		.loc 1 139 0
 504 0036 A342     		cmp	r3, r4
 505 0038 15D0     		beq	.L63
 506              		.loc 1 143 0
 507 003a 0131     		adds	r1, r1, #1
 508              		.loc 1 136 0
 509 003c 1429     		cmp	r1, #20
 510 003e EDD1     		bne	.L54
 511 0040 0022     		movs	r2, #0
 512 0042 1746     		mov	r7, r2
ARM GAS  /tmp/ccFu5c3J.s 			page 10


 513              	.L56:
 514              		.loc 1 150 0
 515 0044 B158     		ldr	r1, [r6, r2]
 516 0046 40F20004 		movw	r4, #:lower16:.LANCHOR1
 517              		.loc 1 154 0
 518 004a 02F11800 		add	r0, r2, #24
 519              		.loc 1 150 0
 520 004e C0F20004 		movt	r4, #:upper16:.LANCHOR1
 521              		.loc 1 154 0
 522 0052 3032     		adds	r2, r2, #48
 523              		.loc 1 150 0
 524 0054 69B1     		cbz	r1, .L64
 525 0056 3058     		ldr	r0, [r6, r0]
 526              		.loc 1 154 0
 527 0058 0137     		adds	r7, r7, #1
 528              		.loc 1 150 0
 529 005a 50B1     		cbz	r0, .L64
 530              		.loc 1 154 0
 531 005c 0137     		adds	r7, r7, #1
 532              		.loc 1 148 0
 533 005e 142F     		cmp	r7, #20
 534 0060 F0D1     		bne	.L56
 535              	.L51:
 536              		.loc 1 158 0
 537 0062 F0BC     		pop	{r4, r5, r6, r7}
 538 0064 7047     		bx	lr
 539              	.L63:
 540              		.loc 1 142 0
 541 0066 01EB4101 		add	r1, r1, r1, lsl #1
 542 006a 00EBC100 		add	r0, r0, r1, lsl #3
 543 006e 0575     		strb	r5, [r0, #20]
 544              		.loc 1 143 0
 545 0070 F7E7     		b	.L51
 546              	.L64:
 547              		.loc 1 152 0
 548 0072 07EB4707 		add	r7, r7, r7, lsl #1
 549 0076 FF00     		lsls	r7, r7, #3
 550 0078 E619     		adds	r6, r4, r7
 551              		.loc 1 154 0
 552 007a 40F20000 		movw	r0, #:lower16:.LANCHOR0
 553 007e C0F20000 		movt	r0, #:upper16:.LANCHOR0
 554 0082 311D     		adds	r1, r6, #4
 555 0084 0122     		movs	r2, #1
 556              		.loc 1 152 0
 557 0086 E351     		str	r3, [r4, r7]
 558              		.loc 1 153 0
 559 0088 3575     		strb	r5, [r6, #20]
 560              		.loc 1 158 0
 561 008a F0BC     		pop	{r4, r5, r6, r7}
 562              		.loc 1 154 0
 563 008c FFF7FEBF 		b	chEvtRegisterMask
 564              	.LVL31:
 565              		.cfi_endproc
 566              	.LFE64:
 567              		.size	vexTaskRegisterPersistant, .-vexTaskRegisterPersistant
 568              		.section	.text.vexTaskRegister,"ax",%progbits
 569              		.align	2
ARM GAS  /tmp/ccFu5c3J.s 			page 11


 570              		.p2align 4,,15
 571              		.global	vexTaskRegister
 572              		.thumb
 573              		.thumb_func
 574              		.type	vexTaskRegister, %function
 575              	vexTaskRegister:
 576              	.LFB63:
 577              		.loc 1 117 0
 578              		.cfi_startproc
 579              		@ args = 0, pretend = 0, frame = 0
 580              		@ frame_needed = 0, uses_anonymous_args = 0
 581              		@ link register save eliminated.
 582              	.LVL32:
 583              		.loc 1 118 0
 584 0000 0021     		movs	r1, #0
 585              		.loc 1 119 0
 586              		.loc 1 118 0
 587 0002 FFF7FEBF 		b	vexTaskRegisterPersistant
 588              	.LVL33:
 589              		.cfi_endproc
 590              	.LFE63:
 591              		.size	vexTaskRegister, .-vexTaskRegister
 592 0006 00BFAFF3 		.section	.text.vexTaskIsRegistered,"ax",%progbits
 592      0080AFF3 
 592      0080
 593              		.align	2
 594              		.p2align 4,,15
 595              		.global	vexTaskIsRegistered
 596              		.thumb
 597              		.thumb_func
 598              		.type	vexTaskIsRegistered, %function
 599              	vexTaskIsRegistered:
 600              	.LFB65:
 601              		.loc 1 168 0
 602              		.cfi_startproc
 603              		@ args = 0, pretend = 0, frame = 0
 604              		@ frame_needed = 0, uses_anonymous_args = 0
 605              		@ link register save eliminated.
 606              	.LVL34:
 607 0000 10B4     		push	{r4}
 608              	.LCFI4:
 609              		.cfi_def_cfa_offset 4
 610              		.cfi_offset 4, -4
 611 0002 40F20003 		movw	r3, #:lower16:.LANCHOR1
 612              		.loc 1 168 0
 613 0006 0022     		movs	r2, #0
 614 0008 C0F20003 		movt	r3, #:upper16:.LANCHOR1
 615              	.LVL35:
 616              	.L69:
 617              		.loc 1 175 0
 618 000c 9958     		ldr	r1, [r3, r2]
 619 000e 02F11804 		add	r4, r2, #24
 620 0012 3032     		adds	r2, r2, #48
 621 0014 8142     		cmp	r1, r0
 622 0016 08D0     		beq	.L70
 623 0018 1959     		ldr	r1, [r3, r4]
 624 001a 8142     		cmp	r1, r0
ARM GAS  /tmp/ccFu5c3J.s 			page 12


 625 001c 05D0     		beq	.L70
 626              		.loc 1 172 0
 627 001e B2F5F07F 		cmp	r2, #480
 628 0022 F3D1     		bne	.L69
 629              		.loc 1 170 0
 630 0024 0020     		movs	r0, #0
 631              	.LVL36:
 632              	.L68:
 633              		.loc 1 182 0
 634 0026 10BC     		pop	{r4}
 635 0028 7047     		bx	lr
 636              	.LVL37:
 637              	.L70:
 638              		.loc 1 177 0
 639 002a 0120     		movs	r0, #1
 640              	.LVL38:
 641 002c FBE7     		b	.L68
 642              		.cfi_endproc
 643              	.LFE65:
 644              		.size	vexTaskIsRegistered, .-vexTaskIsRegistered
 645 002e 00BF     		.section	.text.vexTaskPersistentGet,"ax",%progbits
 646              		.align	2
 647              		.p2align 4,,15
 648              		.global	vexTaskPersistentGet
 649              		.thumb
 650              		.thumb_func
 651              		.type	vexTaskPersistentGet, %function
 652              	vexTaskPersistentGet:
 653              	.LFB66:
 654              		.loc 1 192 0
 655              		.cfi_startproc
 656              		@ args = 0, pretend = 0, frame = 0
 657              		@ frame_needed = 0, uses_anonymous_args = 0
 658              		@ link register save eliminated.
 659              	.LVL39:
 660 0000 70B4     		push	{r4, r5, r6}
 661              	.LCFI5:
 662              		.cfi_def_cfa_offset 12
 663              		.cfi_offset 6, -4
 664              		.cfi_offset 5, -8
 665              		.cfi_offset 4, -12
 666              		.loc 1 192 0
 667 0002 0023     		movs	r3, #0
 668 0004 40F20002 		movw	r2, #:lower16:.LANCHOR1
 669 0008 1946     		mov	r1, r3
 670 000a C0F20002 		movt	r2, #:upper16:.LANCHOR1
 671              	.LVL40:
 672              	.L78:
 673              		.loc 1 199 0
 674 000e D558     		ldr	r5, [r2, r3]
 675 0010 40F20004 		movw	r4, #:lower16:.LANCHOR1
 676 0014 8542     		cmp	r5, r0
 677              		.loc 1 202 0
 678 0016 03F11806 		add	r6, r3, #24
 679              		.loc 1 199 0
 680 001a C0F20004 		movt	r4, #:upper16:.LANCHOR1
 681              		.loc 1 202 0
ARM GAS  /tmp/ccFu5c3J.s 			page 13


 682 001e 03F13003 		add	r3, r3, #48
 683              		.loc 1 199 0
 684 0022 09D0     		beq	.L82
 685 0024 9559     		ldr	r5, [r2, r6]
 686              		.loc 1 202 0
 687 0026 0131     		adds	r1, r1, #1
 688              		.loc 1 199 0
 689 0028 8542     		cmp	r5, r0
 690 002a 05D0     		beq	.L82
 691              		.loc 1 202 0
 692 002c 0131     		adds	r1, r1, #1
 693              		.loc 1 196 0
 694 002e 1429     		cmp	r1, #20
 695 0030 EDD1     		bne	.L78
 696              		.loc 1 194 0
 697 0032 0020     		movs	r0, #0
 698              	.LVL41:
 699              	.L77:
 700              		.loc 1 206 0
 701 0034 70BC     		pop	{r4, r5, r6}
 702 0036 7047     		bx	lr
 703              	.LVL42:
 704              	.L82:
 705              		.loc 1 201 0
 706 0038 01EB4101 		add	r1, r1, r1, lsl #1
 707 003c 04EBC104 		add	r4, r4, r1, lsl #3
 708 0040 207D     		ldrb	r0, [r4, #20]	@ zero_extendqisi2
 709              	.LVL43:
 710              		.loc 1 202 0
 711 0042 F7E7     		b	.L77
 712              		.cfi_endproc
 713              	.LFE66:
 714              		.size	vexTaskPersistentGet, .-vexTaskPersistentGet
 715 0044 AFF30080 		.section	.text.vexTaskPersistentSet,"ax",%progbits
 715      AFF30080 
 715      AFF30080 
 716              		.align	2
 717              		.p2align 4,,15
 718              		.global	vexTaskPersistentSet
 719              		.thumb
 720              		.thumb_func
 721              		.type	vexTaskPersistentSet, %function
 722              	vexTaskPersistentSet:
 723              	.LFB67:
 724              		.loc 1 216 0
 725              		.cfi_startproc
 726              		@ args = 0, pretend = 0, frame = 0
 727              		@ frame_needed = 0, uses_anonymous_args = 0
 728              		@ link register save eliminated.
 729              	.LVL44:
 730 0000 0023     		movs	r3, #0
 731 0002 40F20002 		movw	r2, #:lower16:.LANCHOR1
 732 0006 F0B4     		push	{r4, r5, r6, r7}
 733              	.LCFI6:
 734              		.cfi_def_cfa_offset 16
 735              		.cfi_offset 7, -4
 736              		.cfi_offset 6, -8
ARM GAS  /tmp/ccFu5c3J.s 			page 14


 737              		.cfi_offset 5, -12
 738              		.cfi_offset 4, -16
 739 0008 C0F20002 		movt	r2, #:upper16:.LANCHOR1
 740              		.loc 1 216 0
 741 000c 1C46     		mov	r4, r3
 742              	.LVL45:
 743              	.L87:
 744              		.loc 1 222 0
 745 000e D658     		ldr	r6, [r2, r3]
 746 0010 40F20005 		movw	r5, #:lower16:.LANCHOR1
 747 0014 8642     		cmp	r6, r0
 748              		.loc 1 225 0
 749 0016 03F11807 		add	r7, r3, #24
 750              		.loc 1 222 0
 751 001a C0F20005 		movt	r5, #:upper16:.LANCHOR1
 752              		.loc 1 225 0
 753 001e 03F13003 		add	r3, r3, #48
 754              		.loc 1 222 0
 755 0022 08D0     		beq	.L91
 756 0024 D659     		ldr	r6, [r2, r7]
 757              		.loc 1 225 0
 758 0026 0134     		adds	r4, r4, #1
 759              		.loc 1 222 0
 760 0028 8642     		cmp	r6, r0
 761 002a 04D0     		beq	.L91
 762              		.loc 1 225 0
 763 002c 0134     		adds	r4, r4, #1
 764              		.loc 1 219 0
 765 002e 142C     		cmp	r4, #20
 766 0030 EDD1     		bne	.L87
 767              	.L84:
 768              		.loc 1 228 0
 769 0032 F0BC     		pop	{r4, r5, r6, r7}
 770 0034 7047     		bx	lr
 771              	.L91:
 772              		.loc 1 224 0
 773 0036 04EB4404 		add	r4, r4, r4, lsl #1
 774 003a 05EBC405 		add	r5, r5, r4, lsl #3
 775 003e 2975     		strb	r1, [r5, #20]
 776              		.loc 1 225 0
 777 0040 F7E7     		b	.L84
 778              		.cfi_endproc
 779              	.LFE67:
 780              		.size	vexTaskPersistentSet, .-vexTaskPersistentSet
 781 0042 00BFAFF3 		.section	.text.vexTaskDebug,"ax",%progbits
 781      0080AFF3 
 781      0080AFF3 
 781      0080
 782              		.align	2
 783              		.p2align 4,,15
 784              		.global	vexTaskDebug
 785              		.thumb
 786              		.thumb_func
 787              		.type	vexTaskDebug, %function
 788              	vexTaskDebug:
 789              	.LFB68:
 790              		.loc 1 239 0
ARM GAS  /tmp/ccFu5c3J.s 			page 15


 791              		.cfi_startproc
 792              		@ args = 0, pretend = 0, frame = 0
 793              		@ frame_needed = 0, uses_anonymous_args = 0
 794              	.LVL46:
 795 0000 F0B5     		push	{r4, r5, r6, r7, lr}
 796              	.LCFI7:
 797              		.cfi_def_cfa_offset 20
 798              		.cfi_offset 14, -4
 799              		.cfi_offset 7, -8
 800              		.cfi_offset 6, -12
 801              		.cfi_offset 5, -16
 802              		.cfi_offset 4, -20
 803 0002 40F20004 		movw	r4, #:lower16:.LANCHOR1
 804 0006 83B0     		sub	sp, sp, #12
 805              	.LCFI8:
 806              		.cfi_def_cfa_offset 32
 807              		.loc 1 239 0
 808 0008 0646     		mov	r6, r0
 809 000a C0F20004 		movt	r4, #:upper16:.LANCHOR1
 810 000e 0025     		movs	r5, #0
 811 0010 31E0     		b	.L96
 812              	.LVL47:
 813              	.L107:
 814              		.loc 1 252 0
 815 0012 40F20001 		movw	r1, #:lower16:.LC2
 816 0016 3046     		mov	r0, r6
 817 0018 C0F20001 		movt	r1, #:upper16:.LC2
 818 001c FFF7FEFF 		bl	vex_chprintf
 819              	.L95:
 820              		.loc 1 256 0
 821 0020 94F814E0 		ldrb	lr, [r4, #20]	@ zero_extendqisi2
 822 0024 40F20001 		movw	r1, #:lower16:.LC4
 823 0028 3046     		mov	r0, r6
 824 002a C0F20001 		movt	r1, #:upper16:.LC4
 825 002e 2A46     		mov	r2, r5
 826 0030 3B46     		mov	r3, r7
 827 0032 CDF800E0 		str	lr, [sp, #0]
 828 0036 FFF7FEFF 		bl	vex_chprintf
 829              	.L93:
 830              		.loc 1 248 0
 831 003a A769     		ldr	r7, [r4, #24]
 832              	.LVL48:
 833              		.loc 1 256 0
 834 003c 0135     		adds	r5, r5, #1
 835 003e 1834     		adds	r4, r4, #24
 836              		.loc 1 249 0
 837 0040 AFB1     		cbz	r7, .L98
 838              		.loc 1 251 0
 839 0042 BA69     		ldr	r2, [r7, #24]
 840 0044 2AB3     		cbz	r2, .L105
 841              		.loc 1 252 0
 842 0046 40F20001 		movw	r1, #:lower16:.LC2
 843 004a 3046     		mov	r0, r6
 844 004c C0F20001 		movt	r1, #:upper16:.LC2
 845 0050 FFF7FEFF 		bl	vex_chprintf
 846              	.L103:
 847              		.loc 1 256 0
ARM GAS  /tmp/ccFu5c3J.s 			page 16


 848 0054 94F814C0 		ldrb	ip, [r4, #20]	@ zero_extendqisi2
 849 0058 40F20001 		movw	r1, #:lower16:.LC4
 850 005c 3046     		mov	r0, r6
 851 005e C0F20001 		movt	r1, #:upper16:.LC4
 852 0062 2A46     		mov	r2, r5
 853 0064 3B46     		mov	r3, r7
 854 0066 CDF800C0 		str	ip, [sp, #0]
 855 006a FFF7FEFF 		bl	vex_chprintf
 856              	.L98:
 857 006e 0135     		adds	r5, r5, #1
 858 0070 1834     		adds	r4, r4, #24
 859              		.loc 1 246 0
 860 0072 142D     		cmp	r5, #20
 861 0074 15D0     		beq	.L106
 862              	.L96:
 863              		.loc 1 248 0
 864 0076 2768     		ldr	r7, [r4, #0]
 865              	.LVL49:
 866              		.loc 1 249 0
 867 0078 002F     		cmp	r7, #0
 868 007a DED0     		beq	.L93
 869              		.loc 1 251 0
 870 007c BA69     		ldr	r2, [r7, #24]
 871 007e 002A     		cmp	r2, #0
 872 0080 C7D1     		bne	.L107
 873              		.loc 1 254 0
 874 0082 40F20001 		movw	r1, #:lower16:.LC3
 875 0086 3046     		mov	r0, r6
 876 0088 C0F20001 		movt	r1, #:upper16:.LC3
 877 008c FFF7FEFF 		bl	vex_chprintf
 878              	.LVL50:
 879 0090 C6E7     		b	.L95
 880              	.LVL51:
 881              	.L105:
 882 0092 40F20001 		movw	r1, #:lower16:.LC3
 883 0096 3046     		mov	r0, r6
 884 0098 C0F20001 		movt	r1, #:upper16:.LC3
 885 009c FFF7FEFF 		bl	vex_chprintf
 886 00a0 D8E7     		b	.L103
 887              	.L106:
 888              		.loc 1 259 0
 889 00a2 03B0     		add	sp, sp, #12
 890 00a4 F0BD     		pop	{r4, r5, r6, r7, pc}
 891              		.cfi_endproc
 892              	.LFE68:
 893              		.size	vexTaskDebug, .-vexTaskDebug
 894 00a6 00BFAFF3 		.section	.text.vexTaskEmergencyStop,"ax",%progbits
 894      0080AFF3 
 894      0080
 895              		.align	2
 896              		.p2align 4,,15
 897              		.global	vexTaskEmergencyStop
 898              		.thumb
 899              		.thumb_func
 900              		.type	vexTaskEmergencyStop, %function
 901              	vexTaskEmergencyStop:
 902              	.LFB69:
ARM GAS  /tmp/ccFu5c3J.s 			page 17


 903              		.loc 1 270 0
 904              		.cfi_startproc
 905              		@ args = 0, pretend = 0, frame = 0
 906              		@ frame_needed = 0, uses_anonymous_args = 0
 907              		@ link register save eliminated.
 908              	.LVL52:
 909              		.loc 1 270 0
 910 0000 40F20003 		movw	r3, #:lower16:.LANCHOR1
 911 0004 C0F20003 		movt	r3, #:upper16:.LANCHOR1
 912              		.loc 1 269 0
 913 0008 03F5F070 		add	r0, r3, #480
 914              		.loc 1 274 0
 915 000c 0022     		movs	r2, #0
 916              	.LVL53:
 917              	.L109:
 918              		.loc 1 274 0 is_stmt 0 discriminator 2
 919 000e 1A75     		strb	r2, [r3, #20]
 920 0010 03F11801 		add	r1, r3, #24
 921 0014 3033     		adds	r3, r3, #48
 922              		.loc 1 273 0 is_stmt 1 discriminator 2
 923 0016 8342     		cmp	r3, r0
 924              		.loc 1 274 0 discriminator 2
 925 0018 0A75     		strb	r2, [r1, #20]
 926              		.loc 1 273 0 discriminator 2
 927 001a F8D1     		bne	.L109
 928              		.loc 1 276 0
 929 001c 40F20003 		movw	r3, #:lower16:.LANCHOR3
 930 0020 C0F20003 		movt	r3, #:upper16:.LANCHOR3
 931 0024 0122     		movs	r2, #1
 932 0026 1A70     		strb	r2, [r3, #0]
 933              		.loc 1 277 0
 934 0028 7047     		bx	lr
 935              		.cfi_endproc
 936              	.LFE69:
 937              		.size	vexTaskEmergencyStop, .-vexTaskEmergencyStop
 938 002a 00BFAFF3 		.section	.text.vexSleep,"ax",%progbits
 938      0080
 939              		.align	2
 940              		.p2align 4,,15
 941              		.global	vexSleep
 942              		.thumb
 943              		.thumb_func
 944              		.type	vexSleep, %function
 945              	vexSleep:
 946              	.LFB70:
 947              		.loc 1 290 0
 948              		.cfi_startproc
 949              		@ args = 0, pretend = 0, frame = 0
 950              		@ frame_needed = 0, uses_anonymous_args = 0
 951              	.LVL54:
 952              		.loc 1 291 0
 953 0000 4FF47A71 		mov	r1, #1000
 954              		.loc 1 290 0
 955 0004 2DE9F041 		push	{r4, r5, r6, r7, r8, lr}
 956              	.LCFI9:
 957              		.cfi_def_cfa_offset 24
 958              		.cfi_offset 14, -4
ARM GAS  /tmp/ccFu5c3J.s 			page 18


 959              		.cfi_offset 8, -8
 960              		.cfi_offset 7, -12
 961              		.cfi_offset 6, -16
 962              		.cfi_offset 5, -20
 963              		.cfi_offset 4, -24
 964              		.loc 1 291 0
 965 0008 01FB00F7 		mul	r7, r1, r0
 966 000c 44F6D352 		movw	r2, #19923
 967 0010 7B1E     		subs	r3, r7, #1
 968 0012 C1F26202 		movt	r2, 4194
 969 0016 A2FB0330 		umull	r3, r0, r2, r3
 970              	.LVL55:
 971 001a 8109     		lsrs	r1, r0, #6
 972 001c 0131     		adds	r1, r1, #1
 973 001e 4FF0FF30 		mov	r0, #-1
 974 0022 FFF7FEFF 		bl	chEvtWaitAnyTimeout
 975 0026 40F20007 		movw	r7, #:lower16:rlist
 976 002a C0F20007 		movt	r7, #:upper16:rlist
 977 002e BA69     		ldr	r2, [r7, #24]
 978 0030 10B9     		cbnz	r0, .L114
 979              		.loc 1 291 0 is_stmt 0 discriminator 1
 980 0032 507F     		ldrb	r0, [r2, #29]	@ zero_extendqisi2
 981 0034 4107     		lsls	r1, r0, #29
 982 0036 26D5     		bpl	.L112
 983              	.L114:
 984 0038 40F20005 		movw	r5, #:lower16:.LANCHOR1
 985              		.loc 1 290 0 is_stmt 1
 986 003c 0024     		movs	r4, #0
 987 003e C0F20005 		movt	r5, #:upper16:.LANCHOR1
 988              	.L120:
 989              	.LBB4:
 990              		.loc 1 299 0
 991 0042 6600     		lsls	r6, r4, #1
 992 0044 06EB040C 		add	ip, r6, r4
 993 0048 55F83C10 		ldr	r1, [r5, ip, lsl #3]
 994              		.loc 1 297 0
 995 004c 601C     		adds	r0, r4, #1
 996              		.loc 1 299 0
 997 004e 9142     		cmp	r1, r2
 998 0050 05EBCC03 		add	r3, r5, ip, lsl #3
 999 0054 12D0     		beq	.L124
 1000              		.loc 1 297 0
 1001 0056 84B2     		uxth	r4, r0
 1002              	.LVL56:
 1003              		.loc 1 299 0
 1004 0058 6600     		lsls	r6, r4, #1
 1005 005a 06EB040E 		add	lr, r6, r4
 1006 005e 55F83E10 		ldr	r1, [r5, lr, lsl #3]
 1007              		.loc 1 297 0
 1008 0062 601C     		adds	r0, r4, #1
 1009              		.loc 1 299 0
 1010 0064 9142     		cmp	r1, r2
 1011 0066 05EBCE03 		add	r3, r5, lr, lsl #3
 1012 006a 07D0     		beq	.L124
 1013              		.loc 1 297 0
 1014 006c 84B2     		uxth	r4, r0
 1015              	.LVL57:
ARM GAS  /tmp/ccFu5c3J.s 			page 19


 1016 006e 142C     		cmp	r4, #20
 1017 0070 E7D1     		bne	.L120
 1018              	.LVL58:
 1019              	.L119:
 1020              		.loc 1 323 0
 1021 0072 0020     		movs	r0, #0
 1022              	.LBE4:
 1023              		.loc 1 325 0
 1024 0074 BDE8F041 		pop	{r4, r5, r6, r7, r8, lr}
 1025              	.LBB5:
 1026              		.loc 1 323 0
 1027 0078 FFF7FEBF 		b	chThdExit
 1028              	.L124:
 1029              		.loc 1 302 0
 1030 007c 1B7D     		ldrb	r3, [r3, #20]	@ zero_extendqisi2
 1031 007e 23B1     		cbz	r3, .L117
 1032              		.loc 1 305 0
 1033 0080 527F     		ldrb	r2, [r2, #29]	@ zero_extendqisi2
 1034 0082 5207     		lsls	r2, r2, #29
 1035 0084 01D4     		bmi	.L117
 1036              	.L112:
 1037 0086 BDE8F081 		pop	{r4, r5, r6, r7, r8, pc}
 1038              	.L117:
 1039              		.loc 1 309 0
 1040 008a 3319     		adds	r3, r6, r4
 1041 008c 4FEAC308 		lsl	r8, r3, #3
 1042 0090 05EB0801 		add	r1, r5, r8
 1043 0094 40F20000 		movw	r0, #:lower16:.LANCHOR0
 1044 0098 C0F20000 		movt	r0, #:upper16:.LANCHOR0
 1045 009c 0431     		adds	r1, r1, #4
 1046 009e FFF7FEFF 		bl	chEvtUnregister
 1047              		.loc 1 312 0
 1048 00a2 40F20000 		movw	r0, #:lower16:CleanupTask
 1049              		.loc 1 309 0
 1050 00a6 40F20003 		movw	r3, #:lower16:.LANCHOR1
 1051              		.loc 1 312 0
 1052 00aa C0F20000 		movt	r0, #:upper16:CleanupTask
 1053              		.loc 1 309 0
 1054 00ae C0F20003 		movt	r3, #:upper16:.LANCHOR1
 1055              		.loc 1 312 0
 1056 00b2 18B1     		cbz	r0, .L118
 1057              		.loc 1 313 0
 1058 00b4 53F80800 		ldr	r0, [r3, r8]
 1059 00b8 FFF7FEFF 		bl	CleanupTask
 1060              	.L118:
 1061              		.loc 1 316 0
 1062 00bc B869     		ldr	r0, [r7, #24]
 1063 00be 427F     		ldrb	r2, [r0, #29]	@ zero_extendqisi2
 1064 00c0 5307     		lsls	r3, r2, #29
 1065 00c2 D6D5     		bpl	.L119
 1066              		.loc 1 317 0
 1067 00c4 3219     		adds	r2, r6, r4
 1068 00c6 D300     		lsls	r3, r2, #3
 1069 00c8 0021     		movs	r1, #0
 1070 00ca E950     		str	r1, [r5, r3]
 1071 00cc D1E7     		b	.L119
 1072              	.LBE5:
ARM GAS  /tmp/ccFu5c3J.s 			page 20


 1073              		.cfi_endproc
 1074              	.LFE70:
 1075              		.size	vexSleep, .-vexSleep
 1076 00ce 00BF     		.section	.text.vexCortexInit,"ax",%progbits
 1077              		.align	2
 1078              		.p2align 4,,15
 1079              		.global	vexCortexInit
 1080              		.thumb
 1081              		.thumb_func
 1082              		.type	vexCortexInit, %function
 1083              	vexCortexInit:
 1084              	.LFB73:
 1085              		.loc 1 488 0
 1086              		.cfi_startproc
 1087              		@ args = 0, pretend = 0, frame = 0
 1088              		@ frame_needed = 0, uses_anonymous_args = 0
 1089 0000 10B5     		push	{r4, lr}
 1090              	.LCFI10:
 1091              		.cfi_def_cfa_offset 8
 1092              		.cfi_offset 14, -4
 1093              		.cfi_offset 4, -8
 1094 0002 82B0     		sub	sp, sp, #8
 1095              	.LCFI11:
 1096              		.cfi_def_cfa_offset 16
 1097              		.loc 1 490 0
 1098 0004 FFF7FEFF 		bl	vexSpiInit
 1099              		.loc 1 493 0
 1100 0008 FFF7FEFF 		bl	vexMotorInit
 1101              		.loc 1 497 0
 1102 000c FFF7FEFF 		bl	vexAdcInit
 1103              		.loc 1 501 0
 1104 0010 FFF7FEFF 		bl	vexTest
 1105              		.loc 1 505 0
 1106 0014 40F20000 		movw	r0, #:lower16:SD2
 1107 0018 40F20001 		movw	r1, #:lower16:.LANCHOR4
 1108 001c C0F20000 		movt	r0, #:upper16:SD2
 1109 0020 C0F20001 		movt	r1, #:upper16:.LANCHOR4
 1110 0024 FFF7FEFF 		bl	sdStart
 1111              		.loc 1 506 0
 1112 0028 40F20001 		movw	r1, #:lower16:SD2
 1113 002c 0020     		movs	r0, #0
 1114 002e C0F20001 		movt	r1, #:upper16:SD2
 1115 0032 FFF7FEFF 		bl	vexLcdInit
 1116              		.loc 1 507 0
 1117 0036 0020     		movs	r0, #0
 1118 0038 40F20002 		movw	r2, #:lower16:.LC5
 1119 003c 40F20003 		movw	r3, #:lower16:.LC6
 1120 0040 C0F20003 		movt	r3, #:upper16:.LC6
 1121 0044 0146     		mov	r1, r0
 1122 0046 C0F20002 		movt	r2, #:upper16:.LC5
 1123 004a FFF7FEFF 		bl	vexLcdPrintf
 1124              		.loc 1 508 0
 1125 004e 40F20002 		movw	r2, #:lower16:.LC7
 1126 0052 C0F20002 		movt	r2, #:upper16:.LC7
 1127 0056 0020     		movs	r0, #0
 1128 0058 0121     		movs	r1, #1
 1129 005a FFF7FEFF 		bl	vexLcdPrintf
ARM GAS  /tmp/ccFu5c3J.s 			page 21


 1130              		.loc 1 513 0
 1131 005e 40F20000 		movw	r0, #:lower16:SD3
 1132 0062 40F20001 		movw	r1, #:lower16:.LANCHOR4
 1133 0066 C0F20000 		movt	r0, #:upper16:SD3
 1134 006a C0F20001 		movt	r1, #:upper16:.LANCHOR4
 1135 006e FFF7FEFF 		bl	sdStart
 1136              		.loc 1 514 0
 1137 0072 40F20001 		movw	r1, #:lower16:SD3
 1138 0076 0120     		movs	r0, #1
 1139 0078 C0F20001 		movt	r1, #:upper16:SD3
 1140 007c FFF7FEFF 		bl	vexLcdInit
 1141              		.loc 1 515 0
 1142 0080 40F20002 		movw	r2, #:lower16:.LC5
 1143 0084 40F20003 		movw	r3, #:lower16:.LC6
 1144 0088 C0F20003 		movt	r3, #:upper16:.LC6
 1145 008c 0120     		movs	r0, #1
 1146 008e 0021     		movs	r1, #0
 1147 0090 C0F20002 		movt	r2, #:upper16:.LC5
 1148 0094 FFF7FEFF 		bl	vexLcdPrintf
 1149              		.loc 1 516 0
 1150 0098 0120     		movs	r0, #1
 1151 009a 40F20002 		movw	r2, #:lower16:.LC8
 1152 009e 0146     		mov	r1, r0
 1153 00a0 C0F20002 		movt	r2, #:upper16:.LC8
 1154 00a4 FFF7FEFF 		bl	vexLcdPrintf
 1155              		.loc 1 520 0
 1156 00a8 FFF7FEFF 		bl	vexEncoderInit
 1157              		.loc 1 523 0
 1158 00ac FFF7FEFF 		bl	i2cInit
 1159              		.loc 1 525 0
 1160 00b0 40F20000 		movw	r0, #:lower16:I2CD1
 1161 00b4 40F20001 		movw	r1, #:lower16:SD1
 1162 00b8 C0F20000 		movt	r0, #:upper16:I2CD1
 1163 00bc C0F20001 		movt	r1, #:upper16:SD1
 1164 00c0 FFF7FEFF 		bl	vexImeInit
 1165              		.loc 1 528 0
 1166 00c4 40F20003 		movw	r3, #:lower16:vexUserSetup
 1167 00c8 C0F20003 		movt	r3, #:upper16:vexUserSetup
 1168 00cc 0BB1     		cbz	r3, .L126
 1169              		.loc 1 529 0
 1170 00ce FFF7FEFF 		bl	vexUserSetup
 1171              	.L126:
 1172              		.loc 1 532 0
 1173 00d2 FFF7FEFF 		bl	vexExtIrqInit
 1174              		.loc 1 534 0
 1175 00d6 FFF7FEFF 		bl	vexEncoderStartAll
 1176              		.loc 1 536 0
 1177 00da FFF7FEFF 		bl	vexSonarStartAll
 1178              		.loc 1 537 0
 1179 00de FFF7FEFF 		bl	vexSonarRun
 1180              		.loc 1 540 0
 1181 00e2 FFF7FEFF 		bl	vexDigitalIntrRun
 1182              		.loc 1 547 0
 1183 00e6 40F20000 		movw	r0, #:lower16:.LANCHOR5
 1184 00ea 40F20003 		movw	r3, #:lower16:vexCortexSystemTask
 1185 00ee 0024     		movs	r4, #0
 1186 00f0 4A22     		movs	r2, #74
ARM GAS  /tmp/ccFu5c3J.s 			page 22


 1187 00f2 4FF4C071 		mov	r1, #384
 1188 00f6 C0F20003 		movt	r3, #:upper16:vexCortexSystemTask
 1189 00fa C0F20000 		movt	r0, #:upper16:.LANCHOR5
 1190 00fe 0094     		str	r4, [sp, #0]
 1191 0100 FFF7FEFF 		bl	chThdCreateStatic
 1192              		.loc 1 549 0
 1193 0104 40F20000 		movw	r0, #:lower16:.LANCHOR6
 1194 0108 40F20003 		movw	r3, #:lower16:vexCortexMonitorTask
 1195 010c 4FF42071 		mov	r1, #640
 1196 0110 4822     		movs	r2, #72
 1197 0112 C0F20003 		movt	r3, #:upper16:vexCortexMonitorTask
 1198 0116 C0F20000 		movt	r0, #:upper16:.LANCHOR6
 1199 011a 0094     		str	r4, [sp, #0]
 1200 011c FFF7FEFF 		bl	chThdCreateStatic
 1201              		.loc 1 550 0
 1202 0120 02B0     		add	sp, sp, #8
 1203 0122 10BD     		pop	{r4, pc}
 1204              		.cfi_endproc
 1205              	.LFE73:
 1206              		.size	vexCortexInit, .-vexCortexInit
 1207 0124 AFF30080 		.section	.text.vexConsoleInit,"ax",%progbits
 1207      AFF30080 
 1207      AFF30080 
 1208              		.align	2
 1209              		.p2align 4,,15
 1210              		.global	vexConsoleInit
 1211              		.thumb
 1212              		.thumb_func
 1213              		.type	vexConsoleInit, %function
 1214              	vexConsoleInit:
 1215              	.LFB74:
 1216              		.loc 1 558 0
 1217              		.cfi_startproc
 1218              		@ args = 0, pretend = 0, frame = 0
 1219              		@ frame_needed = 0, uses_anonymous_args = 0
 1220              		@ link register save eliminated.
 1221              		.loc 1 560 0
 1222 0000 40F20000 		movw	r0, #:lower16:SD1
 1223 0004 40F20001 		movw	r1, #:lower16:.LANCHOR7
 1224 0008 C0F20000 		movt	r0, #:upper16:SD1
 1225 000c C0F20001 		movt	r1, #:upper16:.LANCHOR7
 1226              		.loc 1 561 0
 1227              		.loc 1 560 0
 1228 0010 FFF7FEBF 		b	sdStart
 1229              		.cfi_endproc
 1230              	.LFE74:
 1231              		.size	vexConsoleInit, .-vexConsoleInit
 1232 0014 AFF30080 		.section	.text.vexWatchdogInit,"ax",%progbits
 1232      AFF30080 
 1232      AFF30080 
 1233              		.align	2
 1234              		.p2align 4,,15
 1235              		.global	vexWatchdogInit
 1236              		.thumb
 1237              		.thumb_func
 1238              		.type	vexWatchdogInit, %function
 1239              	vexWatchdogInit:
ARM GAS  /tmp/ccFu5c3J.s 			page 23


 1240              	.LFB75:
 1241              		.loc 1 592 0
 1242              		.cfi_startproc
 1243              		@ args = 0, pretend = 0, frame = 0
 1244              		@ frame_needed = 0, uses_anonymous_args = 0
 1245              		@ link register save eliminated.
 1246              	.LVL59:
 1247              		.loc 1 595 0
 1248 0000 4FF44053 		mov	r3, #12288
 1249 0004 C4F20003 		movt	r3, 16384
 1250 0008 45F25550 		movw	r0, #21845
 1251              		.loc 1 598 0
 1252 000c 0422     		movs	r2, #4
 1253              		.loc 1 595 0
 1254 000e 1860     		str	r0, [r3, #0]
 1255              		.loc 1 600 0
 1256 0010 40F27121 		movw	r1, #625
 1257              		.loc 1 598 0
 1258 0014 5A60     		str	r2, [r3, #4]
 1259              		.loc 1 602 0
 1260 0016 4AF6AA20 		movw	r0, #43690
 1261              		.loc 1 604 0
 1262 001a 4CF6CC42 		movw	r2, #52428
 1263              		.loc 1 600 0
 1264 001e 9960     		str	r1, [r3, #8]
 1265              		.loc 1 602 0
 1266 0020 1860     		str	r0, [r3, #0]
 1267              		.loc 1 604 0
 1268 0022 1A60     		str	r2, [r3, #0]
 1269              		.loc 1 605 0
 1270 0024 7047     		bx	lr
 1271              		.cfi_endproc
 1272              	.LFE75:
 1273              		.size	vexWatchdogInit, .-vexWatchdogInit
 1274 0026 00BFAFF3 		.section	.text.vexWatchdogReload,"ax",%progbits
 1274      0080AFF3 
 1274      0080
 1275              		.align	2
 1276              		.p2align 4,,15
 1277              		.global	vexWatchdogReload
 1278              		.thumb
 1279              		.thumb_func
 1280              		.type	vexWatchdogReload, %function
 1281              	vexWatchdogReload:
 1282              	.LFB76:
 1283              		.loc 1 613 0
 1284              		.cfi_startproc
 1285              		@ args = 0, pretend = 0, frame = 0
 1286              		@ frame_needed = 0, uses_anonymous_args = 0
 1287              		@ link register save eliminated.
 1288              	.LVL60:
 1289              		.loc 1 617 0
 1290 0000 4FF44053 		mov	r3, #12288
 1291 0004 C4F20003 		movt	r3, 16384
 1292 0008 4AF6AA22 		movw	r2, #43690
 1293 000c 1A60     		str	r2, [r3, #0]
 1294              		.loc 1 618 0
ARM GAS  /tmp/ccFu5c3J.s 			page 24


 1295 000e 7047     		bx	lr
 1296              		.cfi_endproc
 1297              	.LFE76:
 1298              		.size	vexWatchdogReload, .-vexWatchdogReload
 1299              		.section	.text.vexWatchdogResetFlagGet,"ax",%progbits
 1300              		.align	2
 1301              		.p2align 4,,15
 1302              		.global	vexWatchdogResetFlagGet
 1303              		.thumb
 1304              		.thumb_func
 1305              		.type	vexWatchdogResetFlagGet, %function
 1306              	vexWatchdogResetFlagGet:
 1307              	.LFB77:
 1308              		.loc 1 627 0
 1309              		.cfi_startproc
 1310              		@ args = 0, pretend = 0, frame = 0
 1311              		@ frame_needed = 0, uses_anonymous_args = 0
 1312              		@ link register save eliminated.
 1313              	.LVL61:
 1314              		.loc 1 631 0
 1315 0000 4FF48053 		mov	r3, #4096
 1316 0004 C4F20203 		movt	r3, 16386
 1317 0008 586A     		ldr	r0, [r3, #36]
 1318              		.loc 1 635 0
 1319 000a C0F34070 		ubfx	r0, r0, #29, #1
 1320 000e 7047     		bx	lr
 1321              		.cfi_endproc
 1322              	.LFE77:
 1323              		.size	vexWatchdogResetFlagGet, .-vexWatchdogResetFlagGet
 1324              		.section	.bss.waVexUserTask,"aw",%nobits
 1325              		.align	3
 1326              		.set	.LANCHOR2,. + 0
 1327              		.type	waVexUserTask, %object
 1328              		.size	waVexUserTask, 688
 1329              	waVexUserTask:
 1330 0000 00000000 		.space	688
 1330      00000000 
 1330      00000000 
 1330      00000000 
 1330      00000000 
 1331              		.section	.data.task_terminate,"aw",%progbits
 1332              		.align	2
 1333              		.set	.LANCHOR0,. + 0
 1334              		.type	task_terminate, %object
 1335              		.size	task_terminate, 4
 1336              	task_terminate:
 1337 0000 00000000 		.word	task_terminate
 1338              		.section	.rodata.lcd_config,"a",%progbits
 1339              		.align	2
 1340              		.set	.LANCHOR4,. + 0
 1341              		.type	lcd_config, %object
 1342              		.size	lcd_config, 12
 1343              	lcd_config:
 1344 0000 004B0000 		.word	19200
 1345 0004 0000     		.short	0
 1346 0006 0000     		.short	0
 1347 0008 0000     		.short	0
ARM GAS  /tmp/ccFu5c3J.s 			page 25


 1348 000a 0000     		.space	2
 1349              		.section	.bss.waVexCortexSystemTask,"aw",%nobits
 1350              		.align	3
 1351              		.set	.LANCHOR5,. + 0
 1352              		.type	waVexCortexSystemTask, %object
 1353              		.size	waVexCortexSystemTask, 384
 1354              	waVexCortexSystemTask:
 1355 0000 00000000 		.space	384
 1355      00000000 
 1355      00000000 
 1355      00000000 
 1355      00000000 
 1356              		.section	.rodata.console_config,"a",%progbits
 1357              		.align	2
 1358              		.set	.LANCHOR7,. + 0
 1359              		.type	console_config, %object
 1360              		.size	console_config, 12
 1361              	console_config:
 1362 0000 00840300 		.word	230400
 1363 0004 0000     		.short	0
 1364 0006 0000     		.short	0
 1365 0008 0000     		.short	0
 1366 000a 0000     		.space	2
 1367              		.section	.rodata.str1.4,"aMS",%progbits,1
 1368              		.align	2
 1369              	.LC0:
 1370 0000 6D6F6E69 		.ascii	"monitor\000"
 1370      746F7200 
 1371              	.LC1:
 1372 0008 73797374 		.ascii	"system\000"
 1372      656D00
 1373 000f 00       		.space	1
 1374              	.LC2:
 1375 0010 25313673 		.ascii	"%16s \000"
 1375      2000
 1376 0016 0000     		.space	2
 1377              	.LC3:
 1378 0018 20202020 		.ascii	"                 \000"
 1378      20202020 
 1378      20202020 
 1378      20202020 
 1378      2000
 1379 002a 0000     		.space	2
 1380              	.LC4:
 1381 002c 2532643A 		.ascii	"%2d: %.8X %d\015\012\000"
 1381      20252E38 
 1381      58202564 
 1381      0D0A00
 1382 003b 00       		.space	1
 1383              	.LC5:
 1384 003c 436F6E56 		.ascii	"ConVEX V%s\000"
 1384      45582056 
 1384      257300
 1385 0047 00       		.space	1
 1386              	.LC6:
 1387 0048 312E302E 		.ascii	"1.0.4\000"
 1387      3400
ARM GAS  /tmp/ccFu5c3J.s 			page 26


 1388 004e 0000     		.space	2
 1389              	.LC7:
 1390 0050 56455820 		.ascii	"VEX CORTEX LCD1\000"
 1390      434F5254 
 1390      4558204C 
 1390      43443100 
 1391              	.LC8:
 1392 0060 56455820 		.ascii	"VEX CORTEX LCD2\000"
 1392      434F5254 
 1392      4558204C 
 1392      43443200 
 1393              		.section	.bss.myThreads,"aw",%nobits
 1394              		.align	2
 1395              		.set	.LANCHOR1,. + 0
 1396              		.type	myThreads, %object
 1397              		.size	myThreads, 480
 1398              	myThreads:
 1399 0000 00000000 		.space	480
 1399      00000000 
 1399      00000000 
 1399      00000000 
 1399      00000000 
 1400              		.section	.bss.waVexCortexMonitorTask,"aw",%nobits
 1401              		.align	3
 1402              		.set	.LANCHOR6,. + 0
 1403              		.type	waVexCortexMonitorTask, %object
 1404              		.size	waVexCortexMonitorTask, 640
 1405              	waVexCortexMonitorTask:
 1406 0000 00000000 		.space	640
 1406      00000000 
 1406      00000000 
 1406      00000000 
 1406      00000000 
 1407              		.section	.bss.vexKillAll,"aw",%nobits
 1408              		.set	.LANCHOR3,. + 0
 1409              		.type	vexKillAll, %object
 1410              		.size	vexKillAll, 1
 1411              	vexKillAll:
 1412 0000 00       		.space	1
 1413              		.weak	vexUserSetup
 1414              		.weak	CleanupTask
 1415              		.weak	vexUserInit
 1416              		.text
 1417              	.Letext0:
 1418              		.file 2 "/opt/pros/toolchain/bin/../lib/gcc/arm-none-eabi/4.6.3/include/stddef.h"
 1419              		.file 3 "/opt/pros/toolchain/bin/../lib/gcc/arm-none-eabi/4.6.3/../../../../arm-none-eabi/include/
 1420              		.file 4 "../ChibiOS_2.6.2/os/ports/GCC/ARMCMx/chtypes.h"
 1421              		.file 5 "../ChibiOS_2.6.2/os/kernel/include/chlists.h"
 1422              		.file 6 "../ChibiOS_2.6.2/os/kernel/include/chthreads.h"
 1423              		.file 7 "../ChibiOS_2.6.2/os/ports/GCC/ARMCMx/chcore_v7m.h"
 1424              		.file 8 "../ChibiOS_2.6.2/os/kernel/include/chschd.h"
 1425              		.file 9 "../ChibiOS_2.6.2/os/kernel/include/chmtx.h"
 1426              		.file 10 "../ChibiOS_2.6.2/os/kernel/include/chevents.h"
 1427              		.file 11 "../ChibiOS_2.6.2/os/kernel/include/chqueues.h"
 1428              		.file 12 "../ChibiOS_2.6.2/os/kernel/include/chstreams.h"
 1429              		.file 13 "../ChibiOS_2.6.2/os/hal/platforms/STM32F1xx/stm32f10x.h"
 1430              		.file 14 "../ChibiOS_2.6.2/os/hal/platforms/STM32F1xx/stm32_dma.h"
ARM GAS  /tmp/ccFu5c3J.s 			page 27


 1431              		.file 15 "../ChibiOS_2.6.2/os/hal/include/i2c.h"
 1432              		.file 16 "../ChibiOS_2.6.2/os/hal/platforms/STM32/I2Cv1/i2c_lld.h"
 1433              		.file 17 "../ChibiOS_2.6.2/os/hal/include/serial.h"
 1434              		.file 18 "../ChibiOS_2.6.2/os/hal/platforms/STM32/USARTv1/serial_lld.h"
 1435              		.file 19 "../convex/cortex/fw/vexcompat.h"
 1436              		.file 20 "../convex/cortex/fw/vexdigital.h"
 1437              		.file 21 "../convex/cortex/fw/vexime.h"
 1438              		.file 22 "../convex/cortex/fw/vexctl.h"
 1439              		.file 23 "../ChibiOS_2.6.2/os/ports/common/ARMCMx/CMSIS/include/core_cm3.h"