ARM GAS  /tmp/ccnLMRw2.s 			page 1


   1              		.syntax unified
   2              		.cpu cortex-m3
   3              		.fpu softvfp
   4              		.eabi_attribute 20, 1
   5              		.eabi_attribute 21, 1
   6              		.eabi_attribute 23, 3
   7              		.eabi_attribute 24, 1
   8              		.eabi_attribute 25, 1
   9              		.eabi_attribute 26, 1
  10              		.eabi_attribute 30, 2
  11              		.eabi_attribute 34, 1
  12              		.eabi_attribute 18, 4
  13              		.thumb
  14              		.file	"vexconfig.c"
  15              		.text
  16              	.Ltext0:
  17              		.cfi_sections	.debug_frame
  18              		.section	.text.vexDigitalConfigure,"ax",%progbits
  19              		.align	2
  20              		.p2align 4,,15
  21              		.global	vexDigitalConfigure
  22              		.thumb
  23              		.thumb_func
  24              		.type	vexDigitalConfigure, %function
  25              	vexDigitalConfigure:
  26              	.LFB63:
  27              		.file 1 "../convex/cortex/fw/vexconfig.c"
  28              		.loc 1 83 0
  29              		.cfi_startproc
  30              		@ args = 0, pretend = 0, frame = 8
  31              		@ frame_needed = 0, uses_anonymous_args = 0
  32              	.LVL0:
  33 0000 2DE9F04F 		push	{r4, r5, r6, r7, r8, r9, sl, fp, lr}
  34              	.LCFI0:
  35              		.cfi_def_cfa_offset 36
  36              		.cfi_offset 14, -4
  37              		.cfi_offset 11, -8
  38              		.cfi_offset 10, -12
  39              		.cfi_offset 9, -16
  40              		.cfi_offset 8, -20
  41              		.cfi_offset 7, -24
  42              		.cfi_offset 6, -28
  43              		.cfi_offset 5, -32
  44              		.cfi_offset 4, -36
  45 0004 83B0     		sub	sp, sp, #12
  46              	.LCFI1:
  47              		.cfi_def_cfa_offset 48
  48              		.loc 1 89 0
  49 0006 0028     		cmp	r0, #0
  50 0008 00F03381 		beq	.L42
  51              	.LVL1:
  52              		.loc 1 98 0
  53 000c 0029     		cmp	r1, #0
  54 000e C4BF     		itt	gt
  55 0010 40F2000B 		movwgt	fp, #:lower16:.LANCHOR0
  56 0014 C0F2000B 		movtgt	fp, #:upper16:.LANCHOR0
  57 0018 40F3E980 		ble	.L1
ARM GAS  /tmp/ccnLMRw2.s 			page 2


  58              	.LVL2:
  59              	.L4:
  60              		.loc 1 82 0
  61 001c 00F1060A 		add	sl, r0, #6
  62 0020 5446     		mov	r4, sl
  63 0022 4FF00008 		mov	r8, #0
  64 0026 0DB2     		sxth	r5, r1
  65 0028 21E0     		b	.L3
  66              	.L6:
  67              		.loc 1 104 0
  68 002a 0129     		cmp	r1, #1
  69 002c 2BD0     		beq	.L43
  70              	.L7:
  71              		.loc 1 108 0
  72 002e 0A29     		cmp	r1, #10
  73 0030 31D0     		beq	.L44
  74              	.L8:
  75              		.loc 1 119 0
  76 0032 0C29     		cmp	r1, #12
  77 0034 00F08280 		beq	.L45
  78              	.L11:
  79              		.loc 1 130 0
  80 0038 0E29     		cmp	r1, #14
  81 003a 00F0D180 		beq	.L46
  82              	.L14:
  83              		.loc 1 138 0
  84 003e 14F9062C 		ldrsb	r2, [r4, #-6]
  85 0042 14F8050C 		ldrb	r0, [r4, #-5]	@ zero_extendqisi2
  86 0046 02EB4203 		add	r3, r2, r2, lsl #1
  87 004a 0BEB430C 		add	ip, fp, r3, lsl #1
  88              		.loc 1 140 0
  89 004e 08F10108 		add	r8, r8, #1
  90              		.loc 1 138 0
  91 0052 8CF80100 		strb	r0, [ip, #1]
  92              		.loc 1 139 0
  93 0056 8CF80210 		strb	r1, [ip, #2]
  94              		.loc 1 140 0
  95 005a 34F8021C 		ldrh	r1, [r4, #-2]
  96              		.loc 1 98 0
  97 005e 0FFA88F2 		sxth	r2, r8
  98              		.loc 1 140 0
  99 0062 0634     		adds	r4, r4, #6
 100              		.loc 1 98 0
 101 0064 9542     		cmp	r5, r2
 102              		.loc 1 140 0
 103 0066 ACF80410 		strh	r1, [ip, #4]	@ movhi
 104              		.loc 1 98 0
 105 006a 40F3C080 		ble	.L1
 106              	.L3:
 107              		.loc 1 101 0
 108 006e 14F8041C 		ldrb	r1, [r4, #-4]	@ zero_extendqisi2
 109 0072 0029     		cmp	r1, #0
 110 0074 D9D1     		bne	.L6
 111              		.loc 1 102 0
 112 0076 14F9060C 		ldrsb	r0, [r4, #-6]
 113 007a FFF7FEFF 		bl	vexDigitalModeSet
 114 007e 14F8041C 		ldrb	r1, [r4, #-4]	@ zero_extendqisi2
ARM GAS  /tmp/ccnLMRw2.s 			page 3


 115              		.loc 1 104 0
 116 0082 0129     		cmp	r1, #1
 117 0084 D3D1     		bne	.L7
 118              	.L43:
 119              		.loc 1 105 0
 120 0086 14F9060C 		ldrsb	r0, [r4, #-6]
 121 008a FFF7FEFF 		bl	vexDigitalModeSet
 122 008e 14F8041C 		ldrb	r1, [r4, #-4]	@ zero_extendqisi2
 123              		.loc 1 108 0
 124 0092 0A29     		cmp	r1, #10
 125 0094 CDD1     		bne	.L8
 126              	.L44:
 127              		.loc 1 113 0
 128 0096 1AF8042C 		ldrb	r2, [sl, #-4]	@ zero_extendqisi2
 129 009a 6B1E     		subs	r3, r5, #1
 130 009c 0B2A     		cmp	r2, #11
 131 009e 03F00103 		and	r3, r3, #1
 132 00a2 00F0A780 		beq	.L47
 133              	.L26:
 134              		.loc 1 114 0
 135 00a6 0127     		movs	r7, #1
 136              		.loc 1 111 0
 137 00a8 BD42     		cmp	r5, r7
 138              		.loc 1 114 0
 139 00aa 0AF10606 		add	r6, sl, #6
 140              		.loc 1 111 0
 141 00ae 40DD     		ble	.L40
 142 00b0 A3B1     		cbz	r3, .L10
 143              		.loc 1 113 0
 144 00b2 16F8041C 		ldrb	r1, [r6, #-4]	@ zero_extendqisi2
 145 00b6 0B29     		cmp	r1, #11
 146 00b8 00F0BD80 		beq	.L48
 147              	.L28:
 148              	.LVL3:
 149              		.loc 1 114 0
 150 00bc 0137     		adds	r7, r7, #1
 151              		.loc 1 111 0
 152 00be 38B2     		sxth	r0, r7
 153              		.loc 1 114 0
 154 00c0 0636     		adds	r6, r6, #6
 155              		.loc 1 111 0
 156 00c2 8542     		cmp	r5, r0
 157 00c4 0ADC     		bgt	.L10
 158 00c6 34E0     		b	.L40
 159              	.L9:
 160              		.loc 1 113 0
 161 00c8 19F8046C 		ldrb	r6, [r9, #-4]	@ zero_extendqisi2
 162 00cc 0B2E     		cmp	r6, #11
 163 00ce 1DD0     		beq	.L49
 164              	.L31:
 165              		.loc 1 114 0
 166 00d0 0137     		adds	r7, r7, #1
 167              		.loc 1 111 0
 168 00d2 3BB2     		sxth	r3, r7
 169 00d4 9D42     		cmp	r5, r3
 170              		.loc 1 114 0
 171 00d6 09F10606 		add	r6, r9, #6
ARM GAS  /tmp/ccnLMRw2.s 			page 4


 172              		.loc 1 111 0
 173 00da 2ADD     		ble	.L40
 174              	.L10:
 175              		.loc 1 113 0
 176 00dc 16F8040C 		ldrb	r0, [r6, #-4]	@ zero_extendqisi2
 177              		.loc 1 114 0
 178 00e0 0137     		adds	r7, r7, #1
 179              		.loc 1 113 0
 180 00e2 0B28     		cmp	r0, #11
 181              		.loc 1 114 0
 182 00e4 06F10609 		add	r9, r6, #6
 183              		.loc 1 113 0
 184 00e8 EED1     		bne	.L9
 185              		.loc 1 113 0 is_stmt 0 discriminator 1
 186 00ea 36F8020C 		ldrh	r0, [r6, #-2]
 187 00ee 34F8021C 		ldrh	r1, [r4, #-2]
 188 00f2 8842     		cmp	r0, r1
 189 00f4 E8D1     		bne	.L9
 190              		.loc 1 114 0 is_stmt 1
 191 00f6 16F9062C 		ldrsb	r2, [r6, #-6]
 192 00fa C0B2     		uxtb	r0, r0
 193 00fc 14F9061C 		ldrsb	r1, [r4, #-6]
 194 0100 FFF7FEFF 		bl	vexEncoderAdd
 195              		.loc 1 113 0
 196 0104 19F8046C 		ldrb	r6, [r9, #-4]	@ zero_extendqisi2
 197 0108 0B2E     		cmp	r6, #11
 198 010a E1D1     		bne	.L31
 199              	.L49:
 200 010c 39F8020C 		ldrh	r0, [r9, #-2]
 201 0110 34F8026C 		ldrh	r6, [r4, #-2]
 202 0114 B042     		cmp	r0, r6
 203 0116 DBD1     		bne	.L31
 204              		.loc 1 114 0
 205 0118 0137     		adds	r7, r7, #1
 206 011a C0B2     		uxtb	r0, r0
 207 011c 14F9061C 		ldrsb	r1, [r4, #-6]
 208 0120 19F9062C 		ldrsb	r2, [r9, #-6]
 209 0124 FFF7FEFF 		bl	vexEncoderAdd
 210              		.loc 1 111 0
 211 0128 3BB2     		sxth	r3, r7
 212 012a 9D42     		cmp	r5, r3
 213              		.loc 1 114 0
 214 012c 09F10606 		add	r6, r9, #6
 215              		.loc 1 111 0
 216 0130 D4DC     		bgt	.L10
 217              	.L40:
 218 0132 14F8041C 		ldrb	r1, [r4, #-4]	@ zero_extendqisi2
 219              		.loc 1 119 0
 220 0136 0C29     		cmp	r1, #12
 221 0138 7FF47EAF 		bne	.L11
 222              	.L45:
 223              		.loc 1 124 0
 224 013c 1AF8047C 		ldrb	r7, [sl, #-4]	@ zero_extendqisi2
 225 0140 6A1E     		subs	r2, r5, #1
 226 0142 0D2F     		cmp	r7, #13
 227 0144 02F00103 		and	r3, r2, #1
 228 0148 65D0     		beq	.L50
ARM GAS  /tmp/ccnLMRw2.s 			page 5


 229              	.L19:
 230              		.loc 1 125 0
 231 014a 0127     		movs	r7, #1
 232              		.loc 1 122 0
 233 014c BD42     		cmp	r5, r7
 234              		.loc 1 125 0
 235 014e 0AF10606 		add	r6, sl, #6
 236              		.loc 1 122 0
 237 0152 40DD     		ble	.L39
 238 0154 9BB1     		cbz	r3, .L13
 239              		.loc 1 124 0
 240 0156 16F8041C 		ldrb	r1, [r6, #-4]	@ zero_extendqisi2
 241 015a 0D29     		cmp	r1, #13
 242 015c 7AD0     		beq	.L51
 243              	.L21:
 244              		.loc 1 125 0
 245 015e 0137     		adds	r7, r7, #1
 246              		.loc 1 122 0
 247 0160 38B2     		sxth	r0, r7
 248              		.loc 1 125 0
 249 0162 0636     		adds	r6, r6, #6
 250              		.loc 1 122 0
 251 0164 8542     		cmp	r5, r0
 252 0166 0ADC     		bgt	.L13
 253 0168 35E0     		b	.L39
 254              	.L12:
 255              		.loc 1 124 0
 256 016a 19F8040C 		ldrb	r0, [r9, #-4]	@ zero_extendqisi2
 257 016e 0D28     		cmp	r0, #13
 258 0170 1ED0     		beq	.L52
 259              	.L24:
 260              		.loc 1 125 0
 261 0172 0137     		adds	r7, r7, #1
 262              		.loc 1 122 0
 263 0174 3AB2     		sxth	r2, r7
 264 0176 9542     		cmp	r5, r2
 265              		.loc 1 125 0
 266 0178 09F10606 		add	r6, r9, #6
 267              		.loc 1 122 0
 268 017c 2BDD     		ble	.L39
 269              	.L13:
 270              		.loc 1 124 0
 271 017e 16F804CC 		ldrb	ip, [r6, #-4]	@ zero_extendqisi2
 272              		.loc 1 125 0
 273 0182 0137     		adds	r7, r7, #1
 274              		.loc 1 124 0
 275 0184 BCF10D0F 		cmp	ip, #13
 276              		.loc 1 125 0
 277 0188 06F10609 		add	r9, r6, #6
 278              		.loc 1 124 0
 279 018c EDD1     		bne	.L12
 280              		.loc 1 124 0 is_stmt 0 discriminator 1
 281 018e 36F8020C 		ldrh	r0, [r6, #-2]
 282 0192 34F8023C 		ldrh	r3, [r4, #-2]
 283 0196 9842     		cmp	r0, r3
 284 0198 E7D1     		bne	.L12
 285              		.loc 1 125 0 is_stmt 1
ARM GAS  /tmp/ccnLMRw2.s 			page 6


 286 019a C0B2     		uxtb	r0, r0
 287 019c 16F9062C 		ldrsb	r2, [r6, #-6]
 288 01a0 14F9061C 		ldrsb	r1, [r4, #-6]
 289 01a4 FFF7FEFF 		bl	vexSonarAdd
 290              		.loc 1 124 0
 291 01a8 19F8040C 		ldrb	r0, [r9, #-4]	@ zero_extendqisi2
 292 01ac 0D28     		cmp	r0, #13
 293 01ae E0D1     		bne	.L24
 294              	.L52:
 295 01b0 39F8020C 		ldrh	r0, [r9, #-2]
 296 01b4 34F8023C 		ldrh	r3, [r4, #-2]
 297 01b8 9842     		cmp	r0, r3
 298 01ba DAD1     		bne	.L24
 299              		.loc 1 125 0
 300 01bc 19F9062C 		ldrsb	r2, [r9, #-6]
 301 01c0 0137     		adds	r7, r7, #1
 302 01c2 C0B2     		uxtb	r0, r0
 303 01c4 14F9061C 		ldrsb	r1, [r4, #-6]
 304 01c8 FFF7FEFF 		bl	vexSonarAdd
 305              		.loc 1 122 0
 306 01cc 3AB2     		sxth	r2, r7
 307 01ce 9542     		cmp	r5, r2
 308              		.loc 1 125 0
 309 01d0 09F10606 		add	r6, r9, #6
 310              		.loc 1 122 0
 311 01d4 D3DC     		bgt	.L13
 312              	.L39:
 313 01d6 14F8041C 		ldrb	r1, [r4, #-4]	@ zero_extendqisi2
 314              		.loc 1 130 0
 315 01da 0E29     		cmp	r1, #14
 316 01dc 7FF42FAF 		bne	.L14
 317              	.L46:
 318              		.loc 1 132 0
 319 01e0 14F9060C 		ldrsb	r0, [r4, #-6]
 320 01e4 FFF7FEFF 		bl	vexDigitalIntrSet
 321 01e8 14F8041C 		ldrb	r1, [r4, #-4]	@ zero_extendqisi2
 322 01ec 27E7     		b	.L14
 323              	.L1:
 324              		.loc 1 142 0
 325 01ee 03B0     		add	sp, sp, #12
 326 01f0 BDE8F08F 		pop	{r4, r5, r6, r7, r8, r9, sl, fp, pc}
 327              	.L47:
 328              		.loc 1 113 0
 329 01f4 34F8027C 		ldrh	r7, [r4, #-2]
 330 01f8 3AF8020C 		ldrh	r0, [sl, #-2]
 331 01fc B842     		cmp	r0, r7
 332 01fe 7FF452AF 		bne	.L26
 333              		.loc 1 114 0
 334 0202 14F9061C 		ldrsb	r1, [r4, #-6]
 335 0206 1AF9062C 		ldrsb	r2, [sl, #-6]
 336 020a C0B2     		uxtb	r0, r0
 337 020c 0193     		str	r3, [sp, #4]
 338 020e FFF7FEFF 		bl	vexEncoderAdd
 339 0212 019B     		ldr	r3, [sp, #4]
 340 0214 47E7     		b	.L26
 341              	.L50:
 342              		.loc 1 124 0
ARM GAS  /tmp/ccnLMRw2.s 			page 7


 343 0216 34F8026C 		ldrh	r6, [r4, #-2]
 344 021a 3AF8020C 		ldrh	r0, [sl, #-2]
 345 021e B042     		cmp	r0, r6
 346 0220 93D1     		bne	.L19
 347              		.loc 1 125 0
 348 0222 14F9061C 		ldrsb	r1, [r4, #-6]
 349 0226 1AF9062C 		ldrsb	r2, [sl, #-6]
 350 022a C0B2     		uxtb	r0, r0
 351 022c 0193     		str	r3, [sp, #4]
 352 022e FFF7FEFF 		bl	vexSonarAdd
 353 0232 019B     		ldr	r3, [sp, #4]
 354 0234 89E7     		b	.L19
 355              	.L48:
 356              		.loc 1 113 0
 357 0236 34F802CC 		ldrh	ip, [r4, #-2]
 358 023a 36F8020C 		ldrh	r0, [r6, #-2]
 359 023e 6045     		cmp	r0, ip
 360 0240 7FF43CAF 		bne	.L28
 361              		.loc 1 114 0
 362 0244 C0B2     		uxtb	r0, r0
 363 0246 14F9061C 		ldrsb	r1, [r4, #-6]
 364 024a 16F9062C 		ldrsb	r2, [r6, #-6]
 365 024e FFF7FEFF 		bl	vexEncoderAdd
 366 0252 33E7     		b	.L28
 367              	.L51:
 368              		.loc 1 124 0
 369 0254 34F802CC 		ldrh	ip, [r4, #-2]
 370 0258 36F8020C 		ldrh	r0, [r6, #-2]
 371 025c 6045     		cmp	r0, ip
 372 025e 7FF47EAF 		bne	.L21
 373              		.loc 1 125 0
 374 0262 C0B2     		uxtb	r0, r0
 375 0264 14F9061C 		ldrsb	r1, [r4, #-6]
 376 0268 16F9062C 		ldrsb	r2, [r6, #-6]
 377 026c FFF7FEFF 		bl	vexSonarAdd
 378 0270 75E7     		b	.L21
 379              	.LVL4:
 380              	.L42:
 381              		.loc 1 90 0
 382 0272 40F2000B 		movw	fp, #:lower16:.LANCHOR0
 383 0276 C0F2000B 		movt	fp, #:upper16:.LANCHOR0
 384              		.loc 1 91 0
 385 027a 0C21     		movs	r1, #12
 386              	.LVL5:
 387              		.loc 1 90 0
 388 027c 5846     		mov	r0, fp
 389              	.LVL6:
 390 027e CDE6     		b	.L4
 391              		.cfi_endproc
 392              	.LFE63:
 393              		.size	vexDigitalConfigure, .-vexDigitalConfigure
 394              		.section	.text.vexDigitalTypeGet,"ax",%progbits
 395              		.align	2
 396              		.p2align 4,,15
 397              		.global	vexDigitalTypeGet
 398              		.thumb
 399              		.thumb_func
ARM GAS  /tmp/ccnLMRw2.s 			page 8


 400              		.type	vexDigitalTypeGet, %function
 401              	vexDigitalTypeGet:
 402              	.LFB64:
 403              		.loc 1 152 0
 404              		.cfi_startproc
 405              		@ args = 0, pretend = 0, frame = 0
 406              		@ frame_needed = 0, uses_anonymous_args = 0
 407              		@ link register save eliminated.
 408              	.LVL7:
 409              		.loc 1 153 0
 410 0000 0B28     		cmp	r0, #11
 411              		.loc 1 156 0
 412 0002 DFBF     		itttt	le
 413 0004 40F20003 		movwle	r3, #:lower16:.LANCHOR0
 414 0008 C0F20003 		movtle	r3, #:upper16:.LANCHOR0
 415 000c 00EB4000 		addle	r0, r0, r0, lsl #1
 416              	.LVL8:
 417 0010 03EB4003 		addle	r3, r3, r0, lsl #1
 418 0014 D4BF     		ite	le
 419 0016 5878     		ldrble	r0, [r3, #1]	@ zero_extendqisi2
 420              		.loc 1 154 0
 421 0018 0020     		movgt	r0, #0
 422              		.loc 1 157 0
 423 001a 7047     		bx	lr
 424              		.cfi_endproc
 425              	.LFE64:
 426              		.size	vexDigitalTypeGet, .-vexDigitalTypeGet
 427 001c AFF30080 		.section	.text.vexDigitalTypeGetName,"ax",%progbits
 428              		.align	2
 429              		.p2align 4,,15
 430              		.global	vexDigitalTypeGetName
 431              		.thumb
 432              		.thumb_func
 433              		.type	vexDigitalTypeGetName, %function
 434              	vexDigitalTypeGetName:
 435              	.LFB65:
 436              		.loc 1 167 0
 437              		.cfi_startproc
 438              		@ args = 0, pretend = 0, frame = 0
 439              		@ frame_needed = 0, uses_anonymous_args = 0
 440              		@ link register save eliminated.
 441              	.LVL9:
 442              		.loc 1 170 0
 443 0000 0B28     		cmp	r0, #11
 444              		.loc 1 167 0
 445 0002 10B4     		push	{r4}
 446              	.LCFI2:
 447              		.cfi_def_cfa_offset 4
 448              		.cfi_offset 4, -4
 449              		.loc 1 170 0
 450 0004 5CDC     		bgt	.L65
 451              		.loc 1 173 0
 452 0006 40F20003 		movw	r3, #:lower16:.LANCHOR0
 453 000a 4100     		lsls	r1, r0, #1
 454 000c 0A18     		adds	r2, r1, r0
 455 000e C0F20003 		movt	r3, #:upper16:.LANCHOR0
 456 0012 03EB420C 		add	ip, r3, r2, lsl #1
ARM GAS  /tmp/ccnLMRw2.s 			page 9


 457 0016 9CF80140 		ldrb	r4, [ip, #1]	@ zero_extendqisi2
 458 001a 621E     		subs	r2, r4, #1
 459 001c 072A     		cmp	r2, #7
 460 001e 0BD8     		bhi	.L58
 461 0020 DFE802F0 		tbb	[pc, r2]
 462              	.L64:
 463 0024 0F       		.byte	(.L59-.L64)/2
 464 0025 14       		.byte	(.L66-.L64)/2
 465 0026 19       		.byte	(.L60-.L64)/2
 466 0027 2A       		.byte	(.L61-.L64)/2
 467 0028 3C       		.byte	(.L62-.L64)/2
 468 0029 0A       		.byte	(.L58-.L64)/2
 469 002a 0A       		.byte	(.L58-.L64)/2
 470 002b 04       		.byte	(.L63-.L64)/2
 471              		.align	1
 472              	.L63:
 473              	.LVL10:
 474              		.loc 1 182 0
 475 002c 40F20000 		movw	r0, #:lower16:.LC7
 476              	.LVL11:
 477 0030 C0F20000 		movt	r0, #:upper16:.LC7
 478              	.LVL12:
 479              	.L57:
 480              		.loc 1 209 0
 481 0034 10BC     		pop	{r4}
 482 0036 7047     		bx	lr
 483              	.LVL13:
 484              	.L58:
 485              		.loc 1 204 0
 486 0038 40F20000 		movw	r0, #:lower16:.LC5
 487              	.LVL14:
 488 003c C0F20000 		movt	r0, #:upper16:.LC5
 489              		.loc 1 205 0
 490 0040 F8E7     		b	.L57
 491              	.LVL15:
 492              	.L59:
 493              		.loc 1 176 0
 494 0042 40F20000 		movw	r0, #:lower16:.LC1
 495              	.LVL16:
 496 0046 C0F20000 		movt	r0, #:upper16:.LC1
 497 004a F3E7     		b	.L57
 498              	.LVL17:
 499              	.L66:
 500              		.loc 1 179 0
 501 004c 40F20000 		movw	r0, #:lower16:.LC0
 502              	.LVL18:
 503 0050 C0F20000 		movt	r0, #:upper16:.LC0
 504 0054 EEE7     		b	.L57
 505              	.LVL19:
 506              	.L60:
 507              		.loc 1 185 0
 508 0056 0A18     		adds	r2, r1, r0
 509 0058 03EB4204 		add	r4, r3, r2, lsl #1
 510 005c A078     		ldrb	r0, [r4, #2]	@ zero_extendqisi2
 511              	.LVL20:
 512              		.loc 1 186 0
 513 005e 40F20001 		movw	r1, #:lower16:.LC6
ARM GAS  /tmp/ccnLMRw2.s 			page 10


 514 0062 40F20003 		movw	r3, #:lower16:.LC4
 515 0066 C0F20001 		movt	r1, #:upper16:.LC6
 516 006a C0F20003 		movt	r3, #:upper16:.LC4
 517 006e 0A28     		cmp	r0, #10
 518 0070 14BF     		ite	ne
 519 0072 0846     		movne	r0, r1
 520 0074 1846     		moveq	r0, r3
 521 0076 DDE7     		b	.L57
 522              	.LVL21:
 523              	.L61:
 524              		.loc 1 191 0
 525 0078 0C18     		adds	r4, r1, r0
 526 007a 03EB4403 		add	r3, r3, r4, lsl #1
 527 007e 93F802C0 		ldrb	ip, [r3, #2]	@ zero_extendqisi2
 528              		.loc 1 192 0
 529 0082 40F20000 		movw	r0, #:lower16:.LC6
 530              	.LVL22:
 531 0086 40F20001 		movw	r1, #:lower16:.LC3
 532 008a C0F20000 		movt	r0, #:upper16:.LC6
 533 008e C0F20001 		movt	r1, #:upper16:.LC3
 534 0092 BCF10C0F 		cmp	ip, #12
 535 0096 08BF     		it	eq
 536 0098 0846     		moveq	r0, r1
 537 009a CBE7     		b	.L57
 538              	.LVL23:
 539              	.L62:
 540              		.loc 1 198 0
 541 009c 0C18     		adds	r4, r1, r0
 542 009e 03EB4401 		add	r1, r3, r4, lsl #1
 543 00a2 91F802C0 		ldrb	ip, [r1, #2]	@ zero_extendqisi2
 544              		.loc 1 199 0
 545 00a6 40F20002 		movw	r2, #:lower16:.LC6
 546 00aa 40F20000 		movw	r0, #:lower16:.LC2
 547              	.LVL24:
 548 00ae C0F20002 		movt	r2, #:upper16:.LC6
 549 00b2 C0F20000 		movt	r0, #:upper16:.LC2
 550 00b6 BCF10C0F 		cmp	ip, #12
 551 00ba 18BF     		it	ne
 552 00bc 1046     		movne	r0, r2
 553 00be B9E7     		b	.L57
 554              	.LVL25:
 555              	.L65:
 556              		.loc 1 171 0
 557 00c0 0020     		movs	r0, #0
 558              	.LVL26:
 559 00c2 B7E7     		b	.L57
 560              		.cfi_endproc
 561              	.LFE65:
 562              		.size	vexDigitalTypeGetName, .-vexDigitalTypeGetName
 563 00c4 AFF30080 		.section	.text.vexDigitalChannelGet,"ax",%progbits
 563      AFF30080 
 563      AFF30080 
 564              		.align	2
 565              		.p2align 4,,15
 566              		.global	vexDigitalChannelGet
 567              		.thumb
 568              		.thumb_func
ARM GAS  /tmp/ccnLMRw2.s 			page 11


 569              		.type	vexDigitalChannelGet, %function
 570              	vexDigitalChannelGet:
 571              	.LFB66:
 572              		.loc 1 219 0
 573              		.cfi_startproc
 574              		@ args = 0, pretend = 0, frame = 0
 575              		@ frame_needed = 0, uses_anonymous_args = 0
 576              		@ link register save eliminated.
 577              	.LVL27:
 578              		.loc 1 220 0
 579 0000 0B28     		cmp	r0, #11
 580              		.loc 1 223 0
 581 0002 DFBF     		itttt	le
 582 0004 40F20003 		movwle	r3, #:lower16:.LANCHOR0
 583 0008 C0F20003 		movtle	r3, #:upper16:.LANCHOR0
 584 000c 00EB4000 		addle	r0, r0, r0, lsl #1
 585              	.LVL28:
 586 0010 03EB4003 		addle	r3, r3, r0, lsl #1
 587 0014 D4BF     		ite	le
 588 0016 9888     		ldrhle	r0, [r3, #4]
 589              		.loc 1 221 0
 590 0018 0020     		movgt	r0, #0
 591              		.loc 1 224 0
 592 001a 7047     		bx	lr
 593              		.cfi_endproc
 594              	.LFE66:
 595              		.size	vexDigitalChannelGet, .-vexDigitalChannelGet
 596 001c AFF30080 		.section	.text.vexDigitalCfgGet,"ax",%progbits
 597              		.align	2
 598              		.p2align 4,,15
 599              		.global	vexDigitalCfgGet
 600              		.thumb
 601              		.thumb_func
 602              		.type	vexDigitalCfgGet, %function
 603              	vexDigitalCfgGet:
 604              	.LFB67:
 605              		.loc 1 236 0
 606              		.cfi_startproc
 607              		@ args = 0, pretend = 0, frame = 0
 608              		@ frame_needed = 0, uses_anonymous_args = 0
 609              		@ link register save eliminated.
 610              	.LVL29:
 611              		.loc 1 237 0
 612 0000 0B28     		cmp	r0, #11
 613              		.loc 1 240 0
 614 0002 DFBF     		itttt	le
 615 0004 40F20003 		movwle	r3, #:lower16:.LANCHOR0
 616 0008 C0F20003 		movtle	r3, #:upper16:.LANCHOR0
 617 000c 00EB4000 		addle	r0, r0, r0, lsl #1
 618              	.LVL30:
 619 0010 03EB4003 		addle	r3, r3, r0, lsl #1
 620 0014 D4BF     		ite	le
 621 0016 9878     		ldrble	r0, [r3, #2]	@ zero_extendqisi2
 622              		.loc 1 238 0
 623 0018 0020     		movgt	r0, #0
 624              		.loc 1 241 0
 625 001a 7047     		bx	lr
ARM GAS  /tmp/ccnLMRw2.s 			page 12


 626              		.cfi_endproc
 627              	.LFE67:
 628              		.size	vexDigitalCfgGet, .-vexDigitalCfgGet
 629 001c AFF30080 		.section	.text.vexMotorConfigure,"ax",%progbits
 630              		.align	2
 631              		.p2align 4,,15
 632              		.global	vexMotorConfigure
 633              		.thumb
 634              		.thumb_func
 635              		.type	vexMotorConfigure, %function
 636              	vexMotorConfigure:
 637              	.LFB68:
 638              		.loc 1 252 0
 639              		.cfi_startproc
 640              		@ args = 0, pretend = 0, frame = 0
 641              		@ frame_needed = 0, uses_anonymous_args = 0
 642              	.LVL31:
 643 0000 38B5     		push	{r3, r4, r5, lr}
 644              	.LCFI3:
 645              		.cfi_def_cfa_offset 16
 646              		.cfi_offset 14, -4
 647              		.cfi_offset 5, -8
 648              		.cfi_offset 4, -12
 649              		.cfi_offset 3, -16
 650              		.loc 1 256 0
 651 0002 0028     		cmp	r0, #0
 652 0004 6BD0     		beq	.L76
 653              	.LVL32:
 654              		.loc 1 263 0 discriminator 1
 655 0006 0029     		cmp	r1, #0
 656 0008 69DD     		ble	.L76
 657              		.loc 1 251 0
 658 000a 4C1E     		subs	r4, r1, #1
 659 000c A2B2     		uxth	r2, r4
 660 000e 00F10C03 		add	r3, r0, #12
 661 0012 02EB4201 		add	r1, r2, r2, lsl #1
 662              	.LVL33:
 663 0016 841D     		adds	r4, r0, #6
 664 0018 03EB4105 		add	r5, r3, r1, lsl #1
 665 001c 2EE0     		b	.L81
 666              	.LVL34:
 667              	.L83:
 668              		.loc 1 271 0
 669 001e 062B     		cmp	r3, #6
 670 0020 29D1     		bne	.L78
 671              		.loc 1 275 0
 672 0022 14F8020C 		ldrb	r0, [r4, #-2]	@ zero_extendqisi2
 673 0026 14F9061C 		ldrsb	r1, [r4, #-6]
 674 002a FFF7FEFF 		bl	vexImeSetMotor
 675              		.loc 1 277 0
 676 002e 14F8020C 		ldrb	r0, [r4, #-2]	@ zero_extendqisi2
 677 0032 14F8051C 		ldrb	r1, [r4, #-5]	@ zero_extendqisi2
 678 0036 FFF7FEFF 		bl	vexImeSetType
 679              		.loc 1 279 0
 680 003a 40F20001 		movw	r1, #:lower16:vexImeGetCount
 681 003e 14F9060C 		ldrsb	r0, [r4, #-6]
 682 0042 34F9022C 		ldrsh	r2, [r4, #-2]
ARM GAS  /tmp/ccnLMRw2.s 			page 13


 683 0046 C0F20001 		movt	r1, #:upper16:vexImeGetCount
 684 004a FFF7FEFF 		bl	vexMotorPositionGetCallback
 685              		.loc 1 281 0
 686 004e 40F20001 		movw	r1, #:lower16:vexImeSetCount
 687 0052 14F9060C 		ldrsb	r0, [r4, #-6]
 688 0056 34F9022C 		ldrsh	r2, [r4, #-2]
 689 005a C0F20001 		movt	r1, #:upper16:vexImeSetCount
 690 005e FFF7FEFF 		bl	vexMotorPositionSetCallback
 691              		.loc 1 283 0
 692 0062 40F20001 		movw	r1, #:lower16:vexImeGetId
 693 0066 14F9060C 		ldrsb	r0, [r4, #-6]
 694 006a C0F20001 		movt	r1, #:upper16:vexImeGetId
 695 006e 34F9022C 		ldrsh	r2, [r4, #-2]
 696 0072 FFF7FEFF 		bl	vexMotorEncoderIdCallback
 697              	.L78:
 698              		.loc 1 293 0
 699 0076 0634     		adds	r4, r4, #6
 700              		.loc 1 263 0
 701 0078 AC42     		cmp	r4, r5
 702 007a 30D0     		beq	.L76
 703              	.L81:
 704              		.loc 1 266 0
 705 007c 14F9060C 		ldrsb	r0, [r4, #-6]
 706 0080 14F8051C 		ldrb	r1, [r4, #-5]	@ zero_extendqisi2
 707 0084 FFF7FEFF 		bl	vexMotorTypeSet
 708              		.loc 1 269 0
 709 0088 14F9060C 		ldrsb	r0, [r4, #-6]
 710 008c 14F8041C 		ldrb	r1, [r4, #-4]	@ zero_extendqisi2
 711 0090 FFF7FEFF 		bl	vexMotorDirectionSet
 712              		.loc 1 271 0
 713 0094 14F8033C 		ldrb	r3, [r4, #-3]	@ zero_extendqisi2
 714 0098 032B     		cmp	r3, #3
 715 009a C0D1     		bne	.L83
 716              		.loc 1 288 0
 717 009c 40F20001 		movw	r1, #:lower16:vexEncoderGet
 718 00a0 14F9060C 		ldrsb	r0, [r4, #-6]
 719 00a4 34F9022C 		ldrsh	r2, [r4, #-2]
 720 00a8 C0F20001 		movt	r1, #:upper16:vexEncoderGet
 721 00ac FFF7FEFF 		bl	vexMotorPositionGetCallback
 722              		.loc 1 290 0
 723 00b0 40F20001 		movw	r1, #:lower16:vexEncoderSet
 724 00b4 14F9060C 		ldrsb	r0, [r4, #-6]
 725 00b8 34F9022C 		ldrsh	r2, [r4, #-2]
 726 00bc C0F20001 		movt	r1, #:upper16:vexEncoderSet
 727 00c0 FFF7FEFF 		bl	vexMotorPositionSetCallback
 728              		.loc 1 292 0
 729 00c4 40F20001 		movw	r1, #:lower16:vexEncoderGetId
 730 00c8 14F9060C 		ldrsb	r0, [r4, #-6]
 731 00cc 34F9022C 		ldrsh	r2, [r4, #-2]
 732 00d0 C0F20001 		movt	r1, #:upper16:vexEncoderGetId
 733              		.loc 1 293 0
 734 00d4 0634     		adds	r4, r4, #6
 735              		.loc 1 292 0
 736 00d6 FFF7FEFF 		bl	vexMotorEncoderIdCallback
 737              		.loc 1 263 0
 738 00da AC42     		cmp	r4, r5
 739 00dc CED1     		bne	.L81
ARM GAS  /tmp/ccnLMRw2.s 			page 14


 740              	.L76:
 741 00de 38BD     		pop	{r3, r4, r5, pc}
 742              		.cfi_endproc
 743              	.LFE68:
 744              		.size	vexMotorConfigure, .-vexMotorConfigure
 745              		.section	.data.vexDefConfig,"aw",%progbits
 746              		.align	2
 747              		.set	.LANCHOR0,. + 0
 748              		.type	vexDefConfig, %object
 749              		.size	vexDefConfig, 72
 750              	vexDefConfig:
 751 0000 00       		.byte	0
 752 0001 01       		.byte	1
 753 0002 00       		.byte	0
 754 0003 00       		.space	1
 755 0004 0000     		.short	0
 756 0006 01       		.byte	1
 757 0007 01       		.byte	1
 758 0008 00       		.byte	0
 759 0009 00       		.space	1
 760 000a 0000     		.short	0
 761 000c 02       		.byte	2
 762 000d 01       		.byte	1
 763 000e 00       		.byte	0
 764 000f 00       		.space	1
 765 0010 0000     		.short	0
 766 0012 03       		.byte	3
 767 0013 01       		.byte	1
 768 0014 00       		.byte	0
 769 0015 00       		.space	1
 770 0016 0000     		.short	0
 771 0018 04       		.byte	4
 772 0019 01       		.byte	1
 773 001a 00       		.byte	0
 774 001b 00       		.space	1
 775 001c 0000     		.short	0
 776 001e 05       		.byte	5
 777 001f 01       		.byte	1
 778 0020 00       		.byte	0
 779 0021 00       		.space	1
 780 0022 0000     		.short	0
 781 0024 06       		.byte	6
 782 0025 01       		.byte	1
 783 0026 00       		.byte	0
 784 0027 00       		.space	1
 785 0028 0000     		.short	0
 786 002a 07       		.byte	7
 787 002b 01       		.byte	1
 788 002c 00       		.byte	0
 789 002d 00       		.space	1
 790 002e 0000     		.short	0
 791 0030 08       		.byte	8
 792 0031 01       		.byte	1
 793 0032 00       		.byte	0
 794 0033 00       		.space	1
 795 0034 0000     		.short	0
 796 0036 09       		.byte	9
ARM GAS  /tmp/ccnLMRw2.s 			page 15


 797 0037 01       		.byte	1
 798 0038 00       		.byte	0
 799 0039 00       		.space	1
 800 003a 0000     		.short	0
 801 003c 0A       		.byte	10
 802 003d 01       		.byte	1
 803 003e 00       		.byte	0
 804 003f 00       		.space	1
 805 0040 0000     		.short	0
 806 0042 0B       		.byte	11
 807 0043 01       		.byte	1
 808 0044 00       		.byte	0
 809 0045 00       		.space	1
 810 0046 0000     		.short	0
 811              		.section	.rodata.str1.4,"aMS",%progbits,1
 812              		.align	2
 813              	.LC0:
 814 0000 4F757470 		.ascii	"Output\000"
 814      757400
 815 0007 00       		.space	1
 816              	.LC1:
 817 0008 496E7075 		.ascii	"Input\000"
 817      7400
 818 000e 0000     		.space	2
 819              	.LC2:
 820 0010 536F6E61 		.ascii	"SonarIn\000"
 820      72496E00 
 821              	.LC3:
 822 0018 536F6E61 		.ascii	"SonarCm\000"
 822      72436D00 
 823              	.LC4:
 824 0020 456E636F 		.ascii	"Encoder\000"
 824      64657200 
 825              	.LC5:
 826 0028 556E6465 		.ascii	"Undefined\000"
 826      66696E65 
 826      6400
 827 0032 0000     		.space	2
 828              	.LC6:
 829 0034 00       		.ascii	"\000"
 830 0035 000000   		.space	3
 831              	.LC7:
 832 0038 496E7472 		.ascii	"Intrpt\000"
 832      707400
 833 003f 00       		.text
 834              	.Letext0:
 835              		.file 2 "/opt/pros/toolchain/bin/../lib/gcc/arm-none-eabi/4.6.3/../../../../arm-none-eabi/include/
 836              		.file 3 "../ChibiOS_2.6.2/os/ports/GCC/ARMCMx/chtypes.h"
 837              		.file 4 "../convex/cortex/fw/vexdigital.h"
 838              		.file 5 "../convex/cortex/fw/vexmotor.h"
 839              		.file 6 "../convex/cortex/fw/vexime.h"
 840              		.file 7 "../convex/cortex/fw/vexconfig.h"
 841              		.file 8 "../ChibiOS_2.6.2/os/ports/common/ARMCMx/CMSIS/include/core_cm3.h"