ARM GAS  /tmp/ccVWLZ4f.s 			page 1


   1              		.syntax unified
   2              		.cpu cortex-m3
   3              		.fpu softvfp
   4              		.eabi_attribute 20, 1
   5              		.eabi_attribute 21, 1
   6              		.eabi_attribute 23, 3
   7              		.eabi_attribute 24, 1
   8              		.eabi_attribute 25, 1
   9              		.eabi_attribute 26, 1
  10              		.eabi_attribute 30, 2
  11              		.eabi_attribute 34, 1
  12              		.eabi_attribute 18, 4
  13              		.thumb
  14              		.file	"vexencoder.c"
  15              		.text
  16              	.Ltext0:
  17              		.cfi_sections	.debug_frame
  18              		.section	.text._vqe_5_cb_a,"ax",%progbits
  19              		.align	2
  20              		.p2align 4,,15
  21              		.thumb
  22              		.thumb_func
  23              		.type	_vqe_5_cb_a, %function
  24              	_vqe_5_cb_a:
  25              	.LFB73:
  26              		.file 1 "../convex/cortex/fw/vexencoder.c"
  27              		.loc 1 238 0
  28              		.cfi_startproc
  29              		@ args = 0, pretend = 0, frame = 0
  30              		@ frame_needed = 0, uses_anonymous_args = 0
  31              		@ link register save eliminated.
  32              	.LVL0:
  33 0000 10B4     		push	{r4}
  34              	.LCFI0:
  35              		.cfi_def_cfa_offset 4
  36              		.cfi_offset 4, -4
  37              	.LBB6:
  38              		.loc 1 242 0
  39 0002 2023     		movs	r3, #32
  40              	.LVL1:
  41              	@ 242 "../convex/cortex/fw/vexencoder.c" 1
  42 0004 83F31188 		msr     BASEPRI, r3
  43              	@ 0 "" 2
  44              	.LVL2:
  45              		.thumb
  46              	.LBE6:
  47              	.LBB7:
  48              	.LBB8:
  49              		.loc 1 79 0
  50 0008 40F20003 		movw	r3, #:lower16:.LANCHOR0
  51              	.LVL3:
  52 000c C0F20003 		movt	r3, #:upper16:.LANCHOR0
  53              		.loc 1 80 0
  54 0010 D3F88420 		ldr	r2, [r3, #132]
  55              		.loc 1 79 0
  56 0014 DC6F     		ldr	r4, [r3, #124]
  57 0016 B3F98010 		ldrsh	r1, [r3, #128]
ARM GAS  /tmp/ccVWLZ4f.s 			page 2


  58              	.LVL4:
  59 001a A468     		ldr	r4, [r4, #8]
  60              	.LVL5:
  61              		.loc 1 80 0
  62 001c 9068     		ldr	r0, [r2, #8]
  63              	.LVL6:
  64 001e B3F98820 		ldrsh	r2, [r3, #136]
  65              		.loc 1 79 0
  66 0022 24FA01FC 		lsr	ip, r4, r1
  67              		.loc 1 80 0
  68 0026 20FA02F0 		lsr	r0, r0, r2
  69              	.LVL7:
  70              		.loc 1 83 0
  71 002a 0CF00101 		and	r1, ip, #1
  72 002e 00F00102 		and	r2, r0, #1
  73 0032 9142     		cmp	r1, r2
  74 0034 1A6F     		ldr	r2, [r3, #112]
  75 0036 06D0     		beq	.L2
  76 0038 501E     		subs	r0, r2, #1
  77 003a 1867     		str	r0, [r3, #112]
  78              	.L3:
  79              	.LBE8:
  80              	.LBE7:
  81              	.LBB10:
  82              		.loc 1 247 0
  83 003c 0023     		movs	r3, #0
  84              	.LVL8:
  85              	@ 247 "../convex/cortex/fw/vexencoder.c" 1
  86 003e 83F31188 		msr     BASEPRI, r3
  87              	@ 0 "" 2
  88              	.LVL9:
  89              		.thumb
  90              	.LBE10:
  91              		.loc 1 248 0
  92 0042 10BC     		pop	{r4}
  93 0044 7047     		bx	lr
  94              	.LVL10:
  95              	.L2:
  96              	.LBB11:
  97              	.LBB9:
  98              		.loc 1 83 0
  99 0046 511C     		adds	r1, r2, #1
 100 0048 1967     		str	r1, [r3, #112]
 101 004a F7E7     		b	.L3
 102              	.LBE9:
 103              	.LBE11:
 104              		.cfi_endproc
 105              	.LFE73:
 106              		.size	_vqe_5_cb_a, .-_vqe_5_cb_a
 107 004c AFF30080 		.section	.text._vqe_5_cb_b,"ax",%progbits
 108              		.align	2
 109              		.p2align 4,,15
 110              		.thumb
 111              		.thumb_func
 112              		.type	_vqe_5_cb_b, %function
 113              	_vqe_5_cb_b:
 114              	.LFB74:
ARM GAS  /tmp/ccVWLZ4f.s 			page 3


 115              		.loc 1 255 0
 116              		.cfi_startproc
 117              		@ args = 0, pretend = 0, frame = 0
 118              		@ frame_needed = 0, uses_anonymous_args = 0
 119              		@ link register save eliminated.
 120              	.LVL11:
 121 0000 10B4     		push	{r4}
 122              	.LCFI1:
 123              		.cfi_def_cfa_offset 4
 124              		.cfi_offset 4, -4
 125              	.LBB16:
 126              		.loc 1 259 0
 127 0002 2023     		movs	r3, #32
 128              	.LVL12:
 129              	@ 259 "../convex/cortex/fw/vexencoder.c" 1
 130 0004 83F31188 		msr     BASEPRI, r3
 131              	@ 0 "" 2
 132              	.LVL13:
 133              		.thumb
 134              	.LBE16:
 135              	.LBB17:
 136              	.LBB18:
 137              		.loc 1 96 0
 138 0008 40F20003 		movw	r3, #:lower16:.LANCHOR0
 139              	.LVL14:
 140 000c C0F20003 		movt	r3, #:upper16:.LANCHOR0
 141              		.loc 1 97 0
 142 0010 D3F88420 		ldr	r2, [r3, #132]
 143              		.loc 1 96 0
 144 0014 DC6F     		ldr	r4, [r3, #124]
 145 0016 B3F98010 		ldrsh	r1, [r3, #128]
 146              	.LVL15:
 147 001a A468     		ldr	r4, [r4, #8]
 148              	.LVL16:
 149              		.loc 1 97 0
 150 001c 9068     		ldr	r0, [r2, #8]
 151              	.LVL17:
 152 001e B3F98820 		ldrsh	r2, [r3, #136]
 153              		.loc 1 96 0
 154 0022 24FA01FC 		lsr	ip, r4, r1
 155              		.loc 1 97 0
 156 0026 20FA02F0 		lsr	r0, r0, r2
 157              	.LVL18:
 158              		.loc 1 100 0
 159 002a 0CF00101 		and	r1, ip, #1
 160 002e 00F00102 		and	r2, r0, #1
 161 0032 9142     		cmp	r1, r2
 162 0034 1A6F     		ldr	r2, [r3, #112]
 163 0036 06D0     		beq	.L6
 164 0038 501C     		adds	r0, r2, #1
 165 003a 1867     		str	r0, [r3, #112]
 166              	.L7:
 167              	.LBE18:
 168              	.LBE17:
 169              	.LBB20:
 170              		.loc 1 264 0
 171 003c 0023     		movs	r3, #0
ARM GAS  /tmp/ccVWLZ4f.s 			page 4


 172              	.LVL19:
 173              	@ 264 "../convex/cortex/fw/vexencoder.c" 1
 174 003e 83F31188 		msr     BASEPRI, r3
 175              	@ 0 "" 2
 176              	.LVL20:
 177              		.thumb
 178              	.LBE20:
 179              		.loc 1 265 0
 180 0042 10BC     		pop	{r4}
 181 0044 7047     		bx	lr
 182              	.LVL21:
 183              	.L6:
 184              	.LBB21:
 185              	.LBB19:
 186              		.loc 1 100 0
 187 0046 511E     		subs	r1, r2, #1
 188 0048 1967     		str	r1, [r3, #112]
 189 004a F7E7     		b	.L7
 190              	.LBE19:
 191              	.LBE21:
 192              		.cfi_endproc
 193              	.LFE74:
 194              		.size	_vqe_5_cb_b, .-_vqe_5_cb_b
 195 004c AFF30080 		.section	.text._vqe_1_cb_a,"ax",%progbits
 196              		.align	2
 197              		.p2align 4,,15
 198              		.thumb
 199              		.thumb_func
 200              		.type	_vqe_1_cb_a, %function
 201              	_vqe_1_cb_a:
 202              	.LFB65:
 203              		.loc 1 108 0
 204              		.cfi_startproc
 205              		@ args = 0, pretend = 0, frame = 0
 206              		@ frame_needed = 0, uses_anonymous_args = 0
 207              		@ link register save eliminated.
 208              	.LVL22:
 209 0000 10B4     		push	{r4}
 210              	.LCFI2:
 211              		.cfi_def_cfa_offset 4
 212              		.cfi_offset 4, -4
 213              	.LBB26:
 214              		.loc 1 112 0
 215 0002 2023     		movs	r3, #32
 216              	.LVL23:
 217              	@ 112 "../convex/cortex/fw/vexencoder.c" 1
 218 0004 83F31188 		msr     BASEPRI, r3
 219              	@ 0 "" 2
 220              	.LVL24:
 221              		.thumb
 222              	.LBE26:
 223              	.LBB27:
 224              	.LBB28:
 225              		.loc 1 79 0
 226 0008 40F20003 		movw	r3, #:lower16:.LANCHOR0
 227              	.LVL25:
 228 000c C0F20003 		movt	r3, #:upper16:.LANCHOR0
ARM GAS  /tmp/ccVWLZ4f.s 			page 5


 229              		.loc 1 80 0
 230 0010 5A69     		ldr	r2, [r3, #20]
 231              		.loc 1 79 0
 232 0012 DC68     		ldr	r4, [r3, #12]
 233 0014 B3F91010 		ldrsh	r1, [r3, #16]
 234              	.LVL26:
 235 0018 A468     		ldr	r4, [r4, #8]
 236              	.LVL27:
 237              		.loc 1 80 0
 238 001a 9068     		ldr	r0, [r2, #8]
 239              	.LVL28:
 240 001c B3F91820 		ldrsh	r2, [r3, #24]
 241              		.loc 1 79 0
 242 0020 24FA01FC 		lsr	ip, r4, r1
 243              		.loc 1 80 0
 244 0024 20FA02F0 		lsr	r0, r0, r2
 245              	.LVL29:
 246              		.loc 1 83 0
 247 0028 0CF00101 		and	r1, ip, #1
 248 002c 00F00102 		and	r2, r0, #1
 249 0030 9142     		cmp	r1, r2
 250 0032 1A68     		ldr	r2, [r3, #0]
 251 0034 06D0     		beq	.L9
 252 0036 501E     		subs	r0, r2, #1
 253 0038 1860     		str	r0, [r3, #0]
 254              	.L10:
 255              	.LBE28:
 256              	.LBE27:
 257              	.LBB30:
 258              		.loc 1 117 0
 259 003a 0023     		movs	r3, #0
 260              	.LVL30:
 261              	@ 117 "../convex/cortex/fw/vexencoder.c" 1
 262 003c 83F31188 		msr     BASEPRI, r3
 263              	@ 0 "" 2
 264              	.LVL31:
 265              		.thumb
 266              	.LBE30:
 267              		.loc 1 118 0
 268 0040 10BC     		pop	{r4}
 269 0042 7047     		bx	lr
 270              	.LVL32:
 271              	.L9:
 272              	.LBB31:
 273              	.LBB29:
 274              		.loc 1 83 0
 275 0044 511C     		adds	r1, r2, #1
 276 0046 1960     		str	r1, [r3, #0]
 277 0048 F7E7     		b	.L10
 278              	.LBE29:
 279              	.LBE31:
 280              		.cfi_endproc
 281              	.LFE65:
 282              		.size	_vqe_1_cb_a, .-_vqe_1_cb_a
 283 004a 00BFAFF3 		.section	.text._vqe_2_cb_a,"ax",%progbits
 283      0080
 284              		.align	2
ARM GAS  /tmp/ccVWLZ4f.s 			page 6


 285              		.p2align 4,,15
 286              		.thumb
 287              		.thumb_func
 288              		.type	_vqe_2_cb_a, %function
 289              	_vqe_2_cb_a:
 290              	.LFB67:
 291              		.loc 1 142 0
 292              		.cfi_startproc
 293              		@ args = 0, pretend = 0, frame = 0
 294              		@ frame_needed = 0, uses_anonymous_args = 0
 295              		@ link register save eliminated.
 296              	.LVL33:
 297 0000 10B4     		push	{r4}
 298              	.LCFI3:
 299              		.cfi_def_cfa_offset 4
 300              		.cfi_offset 4, -4
 301              	.LBB36:
 302              		.loc 1 146 0
 303 0002 2023     		movs	r3, #32
 304              	.LVL34:
 305              	@ 146 "../convex/cortex/fw/vexencoder.c" 1
 306 0004 83F31188 		msr     BASEPRI, r3
 307              	@ 0 "" 2
 308              	.LVL35:
 309              		.thumb
 310              	.LBE36:
 311              	.LBB37:
 312              	.LBB38:
 313              		.loc 1 79 0
 314 0008 40F20003 		movw	r3, #:lower16:.LANCHOR0
 315              	.LVL36:
 316 000c C0F20003 		movt	r3, #:upper16:.LANCHOR0
 317              		.loc 1 80 0
 318 0010 1A6B     		ldr	r2, [r3, #48]
 319              		.loc 1 79 0
 320 0012 9C6A     		ldr	r4, [r3, #40]
 321 0014 B3F92C10 		ldrsh	r1, [r3, #44]
 322              	.LVL37:
 323 0018 A468     		ldr	r4, [r4, #8]
 324              	.LVL38:
 325              		.loc 1 80 0
 326 001a 9068     		ldr	r0, [r2, #8]
 327              	.LVL39:
 328 001c B3F93420 		ldrsh	r2, [r3, #52]
 329              		.loc 1 79 0
 330 0020 24FA01FC 		lsr	ip, r4, r1
 331              		.loc 1 80 0
 332 0024 20FA02F0 		lsr	r0, r0, r2
 333              	.LVL40:
 334              		.loc 1 83 0
 335 0028 0CF00101 		and	r1, ip, #1
 336 002c 00F00102 		and	r2, r0, #1
 337 0030 9142     		cmp	r1, r2
 338 0032 DA69     		ldr	r2, [r3, #28]
 339 0034 06D0     		beq	.L12
 340 0036 501E     		subs	r0, r2, #1
 341 0038 D861     		str	r0, [r3, #28]
ARM GAS  /tmp/ccVWLZ4f.s 			page 7


 342              	.L13:
 343              	.LBE38:
 344              	.LBE37:
 345              	.LBB40:
 346              		.loc 1 151 0
 347 003a 0023     		movs	r3, #0
 348              	.LVL41:
 349              	@ 151 "../convex/cortex/fw/vexencoder.c" 1
 350 003c 83F31188 		msr     BASEPRI, r3
 351              	@ 0 "" 2
 352              	.LVL42:
 353              		.thumb
 354              	.LBE40:
 355              		.loc 1 152 0
 356 0040 10BC     		pop	{r4}
 357 0042 7047     		bx	lr
 358              	.LVL43:
 359              	.L12:
 360              	.LBB41:
 361              	.LBB39:
 362              		.loc 1 83 0
 363 0044 511C     		adds	r1, r2, #1
 364 0046 D961     		str	r1, [r3, #28]
 365 0048 F7E7     		b	.L13
 366              	.LBE39:
 367              	.LBE41:
 368              		.cfi_endproc
 369              	.LFE67:
 370              		.size	_vqe_2_cb_a, .-_vqe_2_cb_a
 371 004a 00BFAFF3 		.section	.text._vqe_3_cb_a,"ax",%progbits
 371      0080
 372              		.align	2
 373              		.p2align 4,,15
 374              		.thumb
 375              		.thumb_func
 376              		.type	_vqe_3_cb_a, %function
 377              	_vqe_3_cb_a:
 378              	.LFB69:
 379              		.loc 1 176 0
 380              		.cfi_startproc
 381              		@ args = 0, pretend = 0, frame = 0
 382              		@ frame_needed = 0, uses_anonymous_args = 0
 383              		@ link register save eliminated.
 384              	.LVL44:
 385 0000 10B4     		push	{r4}
 386              	.LCFI4:
 387              		.cfi_def_cfa_offset 4
 388              		.cfi_offset 4, -4
 389              	.LBB46:
 390              		.loc 1 180 0
 391 0002 2023     		movs	r3, #32
 392              	.LVL45:
 393              	@ 180 "../convex/cortex/fw/vexencoder.c" 1
 394 0004 83F31188 		msr     BASEPRI, r3
 395              	@ 0 "" 2
 396              	.LVL46:
 397              		.thumb
ARM GAS  /tmp/ccVWLZ4f.s 			page 8


 398              	.LBE46:
 399              	.LBB47:
 400              	.LBB48:
 401              		.loc 1 79 0
 402 0008 40F20003 		movw	r3, #:lower16:.LANCHOR0
 403              	.LVL47:
 404 000c C0F20003 		movt	r3, #:upper16:.LANCHOR0
 405              		.loc 1 80 0
 406 0010 DA6C     		ldr	r2, [r3, #76]
 407              		.loc 1 79 0
 408 0012 5C6C     		ldr	r4, [r3, #68]
 409 0014 B3F94810 		ldrsh	r1, [r3, #72]
 410              	.LVL48:
 411 0018 A468     		ldr	r4, [r4, #8]
 412              	.LVL49:
 413              		.loc 1 80 0
 414 001a 9068     		ldr	r0, [r2, #8]
 415              	.LVL50:
 416 001c B3F95020 		ldrsh	r2, [r3, #80]
 417              		.loc 1 79 0
 418 0020 24FA01FC 		lsr	ip, r4, r1
 419              		.loc 1 80 0
 420 0024 20FA02F0 		lsr	r0, r0, r2
 421              	.LVL51:
 422              		.loc 1 83 0
 423 0028 0CF00101 		and	r1, ip, #1
 424 002c 00F00102 		and	r2, r0, #1
 425 0030 9142     		cmp	r1, r2
 426 0032 9A6B     		ldr	r2, [r3, #56]
 427 0034 06D0     		beq	.L15
 428 0036 501E     		subs	r0, r2, #1
 429 0038 9863     		str	r0, [r3, #56]
 430              	.L16:
 431              	.LBE48:
 432              	.LBE47:
 433              	.LBB50:
 434              		.loc 1 185 0
 435 003a 0023     		movs	r3, #0
 436              	.LVL52:
 437              	@ 185 "../convex/cortex/fw/vexencoder.c" 1
 438 003c 83F31188 		msr     BASEPRI, r3
 439              	@ 0 "" 2
 440              	.LVL53:
 441              		.thumb
 442              	.LBE50:
 443              		.loc 1 186 0
 444 0040 10BC     		pop	{r4}
 445 0042 7047     		bx	lr
 446              	.LVL54:
 447              	.L15:
 448              	.LBB51:
 449              	.LBB49:
 450              		.loc 1 83 0
 451 0044 511C     		adds	r1, r2, #1
 452 0046 9963     		str	r1, [r3, #56]
 453 0048 F7E7     		b	.L16
 454              	.LBE49:
ARM GAS  /tmp/ccVWLZ4f.s 			page 9


 455              	.LBE51:
 456              		.cfi_endproc
 457              	.LFE69:
 458              		.size	_vqe_3_cb_a, .-_vqe_3_cb_a
 459 004a 00BFAFF3 		.section	.text._vqe_4_cb_a,"ax",%progbits
 459      0080
 460              		.align	2
 461              		.p2align 4,,15
 462              		.thumb
 463              		.thumb_func
 464              		.type	_vqe_4_cb_a, %function
 465              	_vqe_4_cb_a:
 466              	.LFB71:
 467              		.loc 1 207 0
 468              		.cfi_startproc
 469              		@ args = 0, pretend = 0, frame = 0
 470              		@ frame_needed = 0, uses_anonymous_args = 0
 471              		@ link register save eliminated.
 472              	.LVL55:
 473 0000 10B4     		push	{r4}
 474              	.LCFI5:
 475              		.cfi_def_cfa_offset 4
 476              		.cfi_offset 4, -4
 477              	.LBB56:
 478              		.loc 1 211 0
 479 0002 2023     		movs	r3, #32
 480              	.LVL56:
 481              	@ 211 "../convex/cortex/fw/vexencoder.c" 1
 482 0004 83F31188 		msr     BASEPRI, r3
 483              	@ 0 "" 2
 484              	.LVL57:
 485              		.thumb
 486              	.LBE56:
 487              	.LBB57:
 488              	.LBB58:
 489              		.loc 1 79 0
 490 0008 40F20003 		movw	r3, #:lower16:.LANCHOR0
 491              	.LVL58:
 492 000c C0F20003 		movt	r3, #:upper16:.LANCHOR0
 493              		.loc 1 80 0
 494 0010 9A6E     		ldr	r2, [r3, #104]
 495              		.loc 1 79 0
 496 0012 1C6E     		ldr	r4, [r3, #96]
 497 0014 B3F96410 		ldrsh	r1, [r3, #100]
 498              	.LVL59:
 499 0018 A468     		ldr	r4, [r4, #8]
 500              	.LVL60:
 501              		.loc 1 80 0
 502 001a 9068     		ldr	r0, [r2, #8]
 503              	.LVL61:
 504 001c B3F96C20 		ldrsh	r2, [r3, #108]
 505              		.loc 1 79 0
 506 0020 24FA01FC 		lsr	ip, r4, r1
 507              		.loc 1 80 0
 508 0024 20FA02F0 		lsr	r0, r0, r2
 509              	.LVL62:
 510              		.loc 1 83 0
ARM GAS  /tmp/ccVWLZ4f.s 			page 10


 511 0028 0CF00101 		and	r1, ip, #1
 512 002c 00F00102 		and	r2, r0, #1
 513 0030 9142     		cmp	r1, r2
 514 0032 5A6D     		ldr	r2, [r3, #84]
 515 0034 06D0     		beq	.L18
 516 0036 501E     		subs	r0, r2, #1
 517 0038 5865     		str	r0, [r3, #84]
 518              	.L19:
 519              	.LBE58:
 520              	.LBE57:
 521              	.LBB60:
 522              		.loc 1 216 0
 523 003a 0023     		movs	r3, #0
 524              	.LVL63:
 525              	@ 216 "../convex/cortex/fw/vexencoder.c" 1
 526 003c 83F31188 		msr     BASEPRI, r3
 527              	@ 0 "" 2
 528              	.LVL64:
 529              		.thumb
 530              	.LBE60:
 531              		.loc 1 217 0
 532 0040 10BC     		pop	{r4}
 533 0042 7047     		bx	lr
 534              	.LVL65:
 535              	.L18:
 536              	.LBB61:
 537              	.LBB59:
 538              		.loc 1 83 0
 539 0044 511C     		adds	r1, r2, #1
 540 0046 5965     		str	r1, [r3, #84]
 541 0048 F7E7     		b	.L19
 542              	.LBE59:
 543              	.LBE61:
 544              		.cfi_endproc
 545              	.LFE71:
 546              		.size	_vqe_4_cb_a, .-_vqe_4_cb_a
 547 004a 00BFAFF3 		.section	.text._vqe_1_cb_b,"ax",%progbits
 547      0080
 548              		.align	2
 549              		.p2align 4,,15
 550              		.thumb
 551              		.thumb_func
 552              		.type	_vqe_1_cb_b, %function
 553              	_vqe_1_cb_b:
 554              	.LFB66:
 555              		.loc 1 125 0
 556              		.cfi_startproc
 557              		@ args = 0, pretend = 0, frame = 0
 558              		@ frame_needed = 0, uses_anonymous_args = 0
 559              		@ link register save eliminated.
 560              	.LVL66:
 561 0000 10B4     		push	{r4}
 562              	.LCFI6:
 563              		.cfi_def_cfa_offset 4
 564              		.cfi_offset 4, -4
 565              	.LBB66:
 566              		.loc 1 129 0
ARM GAS  /tmp/ccVWLZ4f.s 			page 11


 567 0002 2023     		movs	r3, #32
 568              	.LVL67:
 569              	@ 129 "../convex/cortex/fw/vexencoder.c" 1
 570 0004 83F31188 		msr     BASEPRI, r3
 571              	@ 0 "" 2
 572              	.LVL68:
 573              		.thumb
 574              	.LBE66:
 575              	.LBB67:
 576              	.LBB68:
 577              		.loc 1 96 0
 578 0008 40F20003 		movw	r3, #:lower16:.LANCHOR0
 579              	.LVL69:
 580 000c C0F20003 		movt	r3, #:upper16:.LANCHOR0
 581              		.loc 1 97 0
 582 0010 5A69     		ldr	r2, [r3, #20]
 583              		.loc 1 96 0
 584 0012 DC68     		ldr	r4, [r3, #12]
 585 0014 B3F91010 		ldrsh	r1, [r3, #16]
 586              	.LVL70:
 587 0018 A468     		ldr	r4, [r4, #8]
 588              	.LVL71:
 589              		.loc 1 97 0
 590 001a 9068     		ldr	r0, [r2, #8]
 591              	.LVL72:
 592 001c B3F91820 		ldrsh	r2, [r3, #24]
 593              		.loc 1 96 0
 594 0020 24FA01FC 		lsr	ip, r4, r1
 595              		.loc 1 97 0
 596 0024 20FA02F0 		lsr	r0, r0, r2
 597              	.LVL73:
 598              		.loc 1 100 0
 599 0028 0CF00101 		and	r1, ip, #1
 600 002c 00F00102 		and	r2, r0, #1
 601 0030 9142     		cmp	r1, r2
 602 0032 1A68     		ldr	r2, [r3, #0]
 603 0034 06D0     		beq	.L21
 604 0036 501C     		adds	r0, r2, #1
 605 0038 1860     		str	r0, [r3, #0]
 606              	.L22:
 607              	.LBE68:
 608              	.LBE67:
 609              	.LBB70:
 610              		.loc 1 134 0
 611 003a 0023     		movs	r3, #0
 612              	.LVL74:
 613              	@ 134 "../convex/cortex/fw/vexencoder.c" 1
 614 003c 83F31188 		msr     BASEPRI, r3
 615              	@ 0 "" 2
 616              	.LVL75:
 617              		.thumb
 618              	.LBE70:
 619              		.loc 1 135 0
 620 0040 10BC     		pop	{r4}
 621 0042 7047     		bx	lr
 622              	.LVL76:
 623              	.L21:
ARM GAS  /tmp/ccVWLZ4f.s 			page 12


 624              	.LBB71:
 625              	.LBB69:
 626              		.loc 1 100 0
 627 0044 511E     		subs	r1, r2, #1
 628 0046 1960     		str	r1, [r3, #0]
 629 0048 F7E7     		b	.L22
 630              	.LBE69:
 631              	.LBE71:
 632              		.cfi_endproc
 633              	.LFE66:
 634              		.size	_vqe_1_cb_b, .-_vqe_1_cb_b
 635 004a 00BFAFF3 		.section	.text._vqe_2_cb_b,"ax",%progbits
 635      0080
 636              		.align	2
 637              		.p2align 4,,15
 638              		.thumb
 639              		.thumb_func
 640              		.type	_vqe_2_cb_b, %function
 641              	_vqe_2_cb_b:
 642              	.LFB68:
 643              		.loc 1 159 0
 644              		.cfi_startproc
 645              		@ args = 0, pretend = 0, frame = 0
 646              		@ frame_needed = 0, uses_anonymous_args = 0
 647              		@ link register save eliminated.
 648              	.LVL77:
 649 0000 10B4     		push	{r4}
 650              	.LCFI7:
 651              		.cfi_def_cfa_offset 4
 652              		.cfi_offset 4, -4
 653              	.LBB76:
 654              		.loc 1 163 0
 655 0002 2023     		movs	r3, #32
 656              	.LVL78:
 657              	@ 163 "../convex/cortex/fw/vexencoder.c" 1
 658 0004 83F31188 		msr     BASEPRI, r3
 659              	@ 0 "" 2
 660              	.LVL79:
 661              		.thumb
 662              	.LBE76:
 663              	.LBB77:
 664              	.LBB78:
 665              		.loc 1 96 0
 666 0008 40F20003 		movw	r3, #:lower16:.LANCHOR0
 667              	.LVL80:
 668 000c C0F20003 		movt	r3, #:upper16:.LANCHOR0
 669              		.loc 1 97 0
 670 0010 1A6B     		ldr	r2, [r3, #48]
 671              		.loc 1 96 0
 672 0012 9C6A     		ldr	r4, [r3, #40]
 673 0014 B3F92C10 		ldrsh	r1, [r3, #44]
 674              	.LVL81:
 675 0018 A468     		ldr	r4, [r4, #8]
 676              	.LVL82:
 677              		.loc 1 97 0
 678 001a 9068     		ldr	r0, [r2, #8]
 679              	.LVL83:
ARM GAS  /tmp/ccVWLZ4f.s 			page 13


 680 001c B3F93420 		ldrsh	r2, [r3, #52]
 681              		.loc 1 96 0
 682 0020 24FA01FC 		lsr	ip, r4, r1
 683              		.loc 1 97 0
 684 0024 20FA02F0 		lsr	r0, r0, r2
 685              	.LVL84:
 686              		.loc 1 100 0
 687 0028 0CF00101 		and	r1, ip, #1
 688 002c 00F00102 		and	r2, r0, #1
 689 0030 9142     		cmp	r1, r2
 690 0032 DA69     		ldr	r2, [r3, #28]
 691 0034 06D0     		beq	.L24
 692 0036 501C     		adds	r0, r2, #1
 693 0038 D861     		str	r0, [r3, #28]
 694              	.L25:
 695              	.LBE78:
 696              	.LBE77:
 697              	.LBB80:
 698              		.loc 1 168 0
 699 003a 0023     		movs	r3, #0
 700              	.LVL85:
 701              	@ 168 "../convex/cortex/fw/vexencoder.c" 1
 702 003c 83F31188 		msr     BASEPRI, r3
 703              	@ 0 "" 2
 704              	.LVL86:
 705              		.thumb
 706              	.LBE80:
 707              		.loc 1 169 0
 708 0040 10BC     		pop	{r4}
 709 0042 7047     		bx	lr
 710              	.LVL87:
 711              	.L24:
 712              	.LBB81:
 713              	.LBB79:
 714              		.loc 1 100 0
 715 0044 511E     		subs	r1, r2, #1
 716 0046 D961     		str	r1, [r3, #28]
 717 0048 F7E7     		b	.L25
 718              	.LBE79:
 719              	.LBE81:
 720              		.cfi_endproc
 721              	.LFE68:
 722              		.size	_vqe_2_cb_b, .-_vqe_2_cb_b
 723 004a 00BFAFF3 		.section	.text._vqe_3_cb_b,"ax",%progbits
 723      0080
 724              		.align	2
 725              		.p2align 4,,15
 726              		.thumb
 727              		.thumb_func
 728              		.type	_vqe_3_cb_b, %function
 729              	_vqe_3_cb_b:
 730              	.LFB70:
 731              		.loc 1 193 0
 732              		.cfi_startproc
 733              		@ args = 0, pretend = 0, frame = 0
 734              		@ frame_needed = 0, uses_anonymous_args = 0
 735              		@ link register save eliminated.
ARM GAS  /tmp/ccVWLZ4f.s 			page 14


 736              	.LVL88:
 737 0000 10B4     		push	{r4}
 738              	.LCFI8:
 739              		.cfi_def_cfa_offset 4
 740              		.cfi_offset 4, -4
 741              	.LBB86:
 742              		.loc 1 197 0
 743 0002 2023     		movs	r3, #32
 744              	.LVL89:
 745              	@ 197 "../convex/cortex/fw/vexencoder.c" 1
 746 0004 83F31188 		msr     BASEPRI, r3
 747              	@ 0 "" 2
 748              	.LVL90:
 749              		.thumb
 750              	.LBE86:
 751              	.LBB87:
 752              	.LBB88:
 753              		.loc 1 96 0
 754 0008 40F20003 		movw	r3, #:lower16:.LANCHOR0
 755              	.LVL91:
 756 000c C0F20003 		movt	r3, #:upper16:.LANCHOR0
 757              		.loc 1 97 0
 758 0010 DA6C     		ldr	r2, [r3, #76]
 759              		.loc 1 96 0
 760 0012 5C6C     		ldr	r4, [r3, #68]
 761 0014 B3F94810 		ldrsh	r1, [r3, #72]
 762              	.LVL92:
 763 0018 A468     		ldr	r4, [r4, #8]
 764              	.LVL93:
 765              		.loc 1 97 0
 766 001a 9068     		ldr	r0, [r2, #8]
 767              	.LVL94:
 768 001c B3F95020 		ldrsh	r2, [r3, #80]
 769              		.loc 1 96 0
 770 0020 24FA01FC 		lsr	ip, r4, r1
 771              		.loc 1 97 0
 772 0024 20FA02F0 		lsr	r0, r0, r2
 773              	.LVL95:
 774              		.loc 1 100 0
 775 0028 0CF00101 		and	r1, ip, #1
 776 002c 00F00102 		and	r2, r0, #1
 777 0030 9142     		cmp	r1, r2
 778 0032 9A6B     		ldr	r2, [r3, #56]
 779 0034 06D0     		beq	.L27
 780 0036 501C     		adds	r0, r2, #1
 781 0038 9863     		str	r0, [r3, #56]
 782              	.L28:
 783              	.LBE88:
 784              	.LBE87:
 785              	.LBB90:
 786              		.loc 1 202 0
 787 003a 0023     		movs	r3, #0
 788              	.LVL96:
 789              	@ 202 "../convex/cortex/fw/vexencoder.c" 1
 790 003c 83F31188 		msr     BASEPRI, r3
 791              	@ 0 "" 2
 792              	.LVL97:
ARM GAS  /tmp/ccVWLZ4f.s 			page 15


 793              		.thumb
 794              	.LBE90:
 795              		.loc 1 203 0
 796 0040 10BC     		pop	{r4}
 797 0042 7047     		bx	lr
 798              	.LVL98:
 799              	.L27:
 800              	.LBB91:
 801              	.LBB89:
 802              		.loc 1 100 0
 803 0044 511E     		subs	r1, r2, #1
 804 0046 9963     		str	r1, [r3, #56]
 805 0048 F7E7     		b	.L28
 806              	.LBE89:
 807              	.LBE91:
 808              		.cfi_endproc
 809              	.LFE70:
 810              		.size	_vqe_3_cb_b, .-_vqe_3_cb_b
 811 004a 00BFAFF3 		.section	.text._vqe_4_cb_b,"ax",%progbits
 811      0080
 812              		.align	2
 813              		.p2align 4,,15
 814              		.thumb
 815              		.thumb_func
 816              		.type	_vqe_4_cb_b, %function
 817              	_vqe_4_cb_b:
 818              	.LFB72:
 819              		.loc 1 224 0
 820              		.cfi_startproc
 821              		@ args = 0, pretend = 0, frame = 0
 822              		@ frame_needed = 0, uses_anonymous_args = 0
 823              		@ link register save eliminated.
 824              	.LVL99:
 825 0000 10B4     		push	{r4}
 826              	.LCFI9:
 827              		.cfi_def_cfa_offset 4
 828              		.cfi_offset 4, -4
 829              	.LBB96:
 830              		.loc 1 228 0
 831 0002 2023     		movs	r3, #32
 832              	.LVL100:
 833              	@ 228 "../convex/cortex/fw/vexencoder.c" 1
 834 0004 83F31188 		msr     BASEPRI, r3
 835              	@ 0 "" 2
 836              	.LVL101:
 837              		.thumb
 838              	.LBE96:
 839              	.LBB97:
 840              	.LBB98:
 841              		.loc 1 96 0
 842 0008 40F20003 		movw	r3, #:lower16:.LANCHOR0
 843              	.LVL102:
 844 000c C0F20003 		movt	r3, #:upper16:.LANCHOR0
 845              		.loc 1 97 0
 846 0010 9A6E     		ldr	r2, [r3, #104]
 847              		.loc 1 96 0
 848 0012 1C6E     		ldr	r4, [r3, #96]
ARM GAS  /tmp/ccVWLZ4f.s 			page 16


 849 0014 B3F96410 		ldrsh	r1, [r3, #100]
 850              	.LVL103:
 851 0018 A468     		ldr	r4, [r4, #8]
 852              	.LVL104:
 853              		.loc 1 97 0
 854 001a 9068     		ldr	r0, [r2, #8]
 855              	.LVL105:
 856 001c B3F96C20 		ldrsh	r2, [r3, #108]
 857              		.loc 1 96 0
 858 0020 24FA01FC 		lsr	ip, r4, r1
 859              		.loc 1 97 0
 860 0024 20FA02F0 		lsr	r0, r0, r2
 861              	.LVL106:
 862              		.loc 1 100 0
 863 0028 0CF00101 		and	r1, ip, #1
 864 002c 00F00102 		and	r2, r0, #1
 865 0030 9142     		cmp	r1, r2
 866 0032 5A6D     		ldr	r2, [r3, #84]
 867 0034 06D0     		beq	.L30
 868 0036 501C     		adds	r0, r2, #1
 869 0038 5865     		str	r0, [r3, #84]
 870              	.L31:
 871              	.LBE98:
 872              	.LBE97:
 873              	.LBB100:
 874              		.loc 1 233 0
 875 003a 0023     		movs	r3, #0
 876              	.LVL107:
 877              	@ 233 "../convex/cortex/fw/vexencoder.c" 1
 878 003c 83F31188 		msr     BASEPRI, r3
 879              	@ 0 "" 2
 880              	.LVL108:
 881              		.thumb
 882              	.LBE100:
 883              		.loc 1 234 0
 884 0040 10BC     		pop	{r4}
 885 0042 7047     		bx	lr
 886              	.LVL109:
 887              	.L30:
 888              	.LBB101:
 889              	.LBB99:
 890              		.loc 1 100 0
 891 0044 511E     		subs	r1, r2, #1
 892 0046 5965     		str	r1, [r3, #84]
 893 0048 F7E7     		b	.L31
 894              	.LBE99:
 895              	.LBE101:
 896              		.cfi_endproc
 897              	.LFE72:
 898              		.size	_vqe_4_cb_b, .-_vqe_4_cb_b
 899 004a 00BFAFF3 		.section	.text.vexEncoderInit,"ax",%progbits
 899      0080
 900              		.align	2
 901              		.p2align 4,,15
 902              		.global	vexEncoderInit
 903              		.thumb
 904              		.thumb_func
ARM GAS  /tmp/ccVWLZ4f.s 			page 17


 905              		.type	vexEncoderInit, %function
 906              	vexEncoderInit:
 907              	.LFB75:
 908              		.loc 1 292 0
 909              		.cfi_startproc
 910              		@ args = 0, pretend = 0, frame = 0
 911              		@ frame_needed = 0, uses_anonymous_args = 0
 912              		@ link register save eliminated.
 913              	.LVL110:
 914              		.loc 1 297 0
 915 0000 40F20003 		movw	r3, #:lower16:.LANCHOR0
 916 0004 C0F20003 		movt	r3, #:upper16:.LANCHOR0
 917 0008 0022     		movs	r2, #0
 918              		.loc 1 298 0
 919 000a 1A60     		str	r2, [r3, #0]
 920              		.loc 1 297 0
 921 000c 1A81     		strh	r2, [r3, #8]	@ movhi
 922              		.loc 1 298 0
 923 000e DA61     		str	r2, [r3, #28]
 924              		.loc 1 299 0
 925 0010 5A60     		str	r2, [r3, #4]
 926              	.LVL111:
 927              		.loc 1 298 0
 928 0012 9A63     		str	r2, [r3, #56]
 929              		.loc 1 297 0
 930 0014 9A84     		strh	r2, [r3, #36]	@ movhi
 931              		.loc 1 298 0
 932 0016 5A65     		str	r2, [r3, #84]
 933              		.loc 1 299 0
 934 0018 1A62     		str	r2, [r3, #32]
 935              	.LVL112:
 936              		.loc 1 297 0
 937 001a A3F84020 		strh	r2, [r3, #64]	@ movhi
 938              		.loc 1 299 0
 939 001e DA63     		str	r2, [r3, #60]
 940              	.LVL113:
 941              		.loc 1 297 0
 942 0020 A3F85C20 		strh	r2, [r3, #92]	@ movhi
 943              		.loc 1 299 0
 944 0024 9A65     		str	r2, [r3, #88]
 945              	.LVL114:
 946              		.loc 1 297 0
 947 0026 A3F87820 		strh	r2, [r3, #120]	@ movhi
 948              		.loc 1 298 0
 949 002a 1A67     		str	r2, [r3, #112]
 950              		.loc 1 299 0
 951 002c 5A67     		str	r2, [r3, #116]
 952              	.LVL115:
 953              		.loc 1 301 0
 954 002e 7047     		bx	lr
 955              		.cfi_endproc
 956              	.LFE75:
 957              		.size	vexEncoderInit, .-vexEncoderInit
 958              		.section	.text.vexEncoderAdd,"ax",%progbits
 959              		.align	2
 960              		.p2align 4,,15
 961              		.global	vexEncoderAdd
ARM GAS  /tmp/ccVWLZ4f.s 			page 18


 962              		.thumb
 963              		.thumb_func
 964              		.type	vexEncoderAdd, %function
 965              	vexEncoderAdd:
 966              	.LFB76:
 967              		.loc 1 315 0
 968              		.cfi_startproc
 969              		@ args = 0, pretend = 0, frame = 0
 970              		@ frame_needed = 0, uses_anonymous_args = 0
 971              	.LVL116:
 972              		.loc 1 316 0
 973 0000 0428     		cmp	r0, #4
 974              		.loc 1 315 0
 975 0002 2DE9F047 		push	{r4, r5, r6, r7, r8, r9, sl, lr}
 976              	.LCFI10:
 977              		.cfi_def_cfa_offset 32
 978              		.cfi_offset 14, -4
 979              		.cfi_offset 10, -8
 980              		.cfi_offset 9, -12
 981              		.cfi_offset 8, -16
 982              		.cfi_offset 7, -20
 983              		.cfi_offset 6, -24
 984              		.cfi_offset 5, -28
 985              		.cfi_offset 4, -32
 986              		.loc 1 315 0
 987 0006 0446     		mov	r4, r0
 988 0008 0D46     		mov	r5, r1
 989 000a 1646     		mov	r6, r2
 990              		.loc 1 316 0
 991 000c 03D8     		bhi	.L33
 992              		.loc 1 319 0
 993 000e 0B29     		cmp	r1, #11
 994 0010 01DC     		bgt	.L33
 995              		.loc 1 321 0
 996 0012 0B2A     		cmp	r2, #11
 997 0014 01DD     		ble	.L35
 998              	.L33:
 999 0016 BDE8F087 		pop	{r4, r5, r6, r7, r8, r9, sl, pc}
 1000              	.L35:
 1001              		.loc 1 325 0
 1002 001a C0EBC003 		rsb	r3, r0, r0, lsl #3
 1003 001e 40F2000E 		movw	lr, #:lower16:.LANCHOR0
 1004 0022 9F00     		lsls	r7, r3, #2
 1005 0024 C0F2000E 		movt	lr, #:upper16:.LANCHOR0
 1006 0028 0EEB0708 		add	r8, lr, r7
 1007 002c 4FF00009 		mov	r9, #0
 1008              		.loc 1 329 0
 1009 0030 0846     		mov	r0, r1
 1010              	.LVL117:
 1011              		.loc 1 325 0
 1012 0032 4EF80790 		str	r9, [lr, r7]
 1013              		.loc 1 329 0
 1014 0036 4946     		mov	r1, r9
 1015              	.LVL118:
 1016              		.loc 1 326 0
 1017 0038 C8F80490 		str	r9, [r8, #4]
 1018              		.loc 1 329 0
ARM GAS  /tmp/ccVWLZ4f.s 			page 19


 1019 003c FFF7FEFF 		bl	vexDigitalModeSet
 1020              	.LVL119:
 1021              		.loc 1 331 0
 1022 0040 40F20007 		movw	r7, #:lower16:vexioDefinition
 1023 0044 05EB4501 		add	r1, r5, r5, lsl #1
 1024 0048 C0F20007 		movt	r7, #:upper16:vexioDefinition
 1025 004c 8800     		lsls	r0, r1, #2
 1026 004e 3A18     		adds	r2, r7, r0
 1027 0050 57F800C0 		ldr	ip, [r7, r0]
 1028              		.loc 1 332 0
 1029 0054 B2F804E0 		ldrh	lr, [r2, #4]
 1030              		.loc 1 333 0
 1031 0058 40F20003 		movw	r3, #:lower16:.LANCHOR1
 1032 005c C0F20003 		movt	r3, #:upper16:.LANCHOR1
 1033 0060 6046     		mov	r0, ip
 1034 0062 7146     		mov	r1, lr
 1035 0064 0322     		movs	r2, #3
 1036 0066 53F82430 		ldr	r3, [r3, r4, lsl #2]
 1037              		.loc 1 331 0
 1038 006a C8F80CC0 		str	ip, [r8, #12]
 1039              		.loc 1 332 0
 1040 006e A8F810E0 		strh	lr, [r8, #16]	@ movhi
 1041              		.loc 1 330 0
 1042 0072 88F80A50 		strb	r5, [r8, #10]
 1043              		.loc 1 333 0
 1044 0076 FFF7FEFF 		bl	vexExtSet
 1045              		.loc 1 336 0
 1046 007a 3046     		mov	r0, r6
 1047 007c 4946     		mov	r1, r9
 1048 007e FFF7FEFF 		bl	vexDigitalModeSet
 1049              		.loc 1 338 0
 1050 0082 06EB4601 		add	r1, r6, r6, lsl #1
 1051 0086 8800     		lsls	r0, r1, #2
 1052 0088 3A18     		adds	r2, r7, r0
 1053              		.loc 1 339 0
 1054 008a 9588     		ldrh	r5, [r2, #4]
 1055              		.loc 1 338 0
 1056 008c 3F58     		ldr	r7, [r7, r0]
 1057              		.loc 1 340 0
 1058 008e 40F2000C 		movw	ip, #:lower16:.LANCHOR2
 1059 0092 C0F2000C 		movt	ip, #:upper16:.LANCHOR2
 1060 0096 5CF82430 		ldr	r3, [ip, r4, lsl #2]
 1061 009a 3846     		mov	r0, r7
 1062 009c 2946     		mov	r1, r5
 1063 009e 0322     		movs	r2, #3
 1064              		.loc 1 337 0
 1065 00a0 88F80B60 		strb	r6, [r8, #11]
 1066              		.loc 1 338 0
 1067 00a4 C8F81470 		str	r7, [r8, #20]
 1068              		.loc 1 339 0
 1069 00a8 A8F81850 		strh	r5, [r8, #24]	@ movhi
 1070              		.loc 1 340 0
 1071 00ac FFF7FEFF 		bl	vexExtSet
 1072              		.loc 1 342 0
 1073 00b0 0123     		movs	r3, #1
 1074 00b2 A8F80830 		strh	r3, [r8, #8]	@ movhi
 1075 00b6 BDE8F087 		pop	{r4, r5, r6, r7, r8, r9, sl, pc}
ARM GAS  /tmp/ccVWLZ4f.s 			page 20


 1076              		.cfi_endproc
 1077              	.LFE76:
 1078              		.size	vexEncoderAdd, .-vexEncoderAdd
 1079 00ba 00BFAFF3 		.section	.text.vexEncoderStart,"ax",%progbits
 1079      0080
 1080              		.align	2
 1081              		.p2align 4,,15
 1082              		.global	vexEncoderStart
 1083              		.thumb
 1084              		.thumb_func
 1085              		.type	vexEncoderStart, %function
 1086              	vexEncoderStart:
 1087              	.LFB77:
 1088              		.loc 1 352 0
 1089              		.cfi_startproc
 1090              		@ args = 0, pretend = 0, frame = 0
 1091              		@ frame_needed = 0, uses_anonymous_args = 0
 1092              	.LVL120:
 1093              		.loc 1 353 0
 1094 0000 40F20001 		movw	r1, #:lower16:.LANCHOR0
 1095 0004 C0F20001 		movt	r1, #:upper16:.LANCHOR0
 1096 0008 C0EBC000 		rsb	r0, r0, r0, lsl #3
 1097              	.LVL121:
 1098              		.loc 1 352 0
 1099 000c 10B5     		push	{r4, lr}
 1100              	.LCFI11:
 1101              		.cfi_def_cfa_offset 8
 1102              		.cfi_offset 14, -4
 1103              		.cfi_offset 4, -8
 1104              		.loc 1 353 0
 1105 000e 01EB8004 		add	r4, r1, r0, lsl #2
 1106 0012 B4F90830 		ldrsh	r3, [r4, #8]
 1107 0016 012B     		cmp	r3, #1
 1108 0018 00D0     		beq	.L38
 1109 001a 10BD     		pop	{r4, pc}
 1110              	.L38:
 1111              		.loc 1 355 0
 1112 001c 40F20000 		movw	r0, #:lower16:EXTD1
 1113 0020 B4F91010 		ldrsh	r1, [r4, #16]
 1114 0024 C0F20000 		movt	r0, #:upper16:EXTD1
 1115 0028 FFF7FEFF 		bl	extChannelEnable
 1116              		.loc 1 356 0
 1117 002c 40F20000 		movw	r0, #:lower16:EXTD1
 1118 0030 B4F91810 		ldrsh	r1, [r4, #24]
 1119 0034 C0F20000 		movt	r0, #:upper16:EXTD1
 1120              		.loc 1 358 0
 1121 0038 BDE81040 		pop	{r4, lr}
 1122              		.loc 1 356 0
 1123 003c FFF7FEBF 		b	extChannelEnable
 1124              		.cfi_endproc
 1125              	.LFE77:
 1126              		.size	vexEncoderStart, .-vexEncoderStart
 1127              		.section	.text.vexEncoderStop,"ax",%progbits
 1128              		.align	2
 1129              		.p2align 4,,15
 1130              		.global	vexEncoderStop
 1131              		.thumb
ARM GAS  /tmp/ccVWLZ4f.s 			page 21


 1132              		.thumb_func
 1133              		.type	vexEncoderStop, %function
 1134              	vexEncoderStop:
 1135              	.LFB78:
 1136              		.loc 1 367 0
 1137              		.cfi_startproc
 1138              		@ args = 0, pretend = 0, frame = 0
 1139              		@ frame_needed = 0, uses_anonymous_args = 0
 1140              	.LVL122:
 1141              		.loc 1 368 0
 1142 0000 40F20001 		movw	r1, #:lower16:.LANCHOR0
 1143 0004 C0F20001 		movt	r1, #:upper16:.LANCHOR0
 1144 0008 C0EBC000 		rsb	r0, r0, r0, lsl #3
 1145              	.LVL123:
 1146              		.loc 1 367 0
 1147 000c 10B5     		push	{r4, lr}
 1148              	.LCFI12:
 1149              		.cfi_def_cfa_offset 8
 1150              		.cfi_offset 14, -4
 1151              		.cfi_offset 4, -8
 1152              		.loc 1 368 0
 1153 000e 01EB8004 		add	r4, r1, r0, lsl #2
 1154 0012 B4F90830 		ldrsh	r3, [r4, #8]
 1155 0016 012B     		cmp	r3, #1
 1156 0018 00D0     		beq	.L41
 1157 001a 10BD     		pop	{r4, pc}
 1158              	.L41:
 1159              		.loc 1 370 0
 1160 001c 40F20000 		movw	r0, #:lower16:EXTD1
 1161 0020 B4F91010 		ldrsh	r1, [r4, #16]
 1162 0024 C0F20000 		movt	r0, #:upper16:EXTD1
 1163 0028 FFF7FEFF 		bl	extChannelDisable
 1164              		.loc 1 371 0
 1165 002c 40F20000 		movw	r0, #:lower16:EXTD1
 1166 0030 B4F91810 		ldrsh	r1, [r4, #24]
 1167 0034 C0F20000 		movt	r0, #:upper16:EXTD1
 1168              		.loc 1 373 0
 1169 0038 BDE81040 		pop	{r4, lr}
 1170              		.loc 1 371 0
 1171 003c FFF7FEBF 		b	extChannelDisable
 1172              		.cfi_endproc
 1173              	.LFE78:
 1174              		.size	vexEncoderStop, .-vexEncoderStop
 1175              		.section	.text.vexEncoderStartAll,"ax",%progbits
 1176              		.align	2
 1177              		.p2align 4,,15
 1178              		.global	vexEncoderStartAll
 1179              		.thumb
 1180              		.thumb_func
 1181              		.type	vexEncoderStartAll, %function
 1182              	vexEncoderStartAll:
 1183              	.LFB79:
 1184              		.loc 1 381 0
 1185              		.cfi_startproc
 1186              		@ args = 0, pretend = 0, frame = 0
 1187              		@ frame_needed = 0, uses_anonymous_args = 0
 1188              	.LVL124:
ARM GAS  /tmp/ccVWLZ4f.s 			page 22


 1189 0000 08B5     		push	{r3, lr}
 1190              	.LCFI13:
 1191              		.cfi_def_cfa_offset 8
 1192              		.cfi_offset 14, -4
 1193              		.cfi_offset 3, -8
 1194              		.loc 1 385 0
 1195 0002 0020     		movs	r0, #0
 1196 0004 FFF7FEFF 		bl	vexEncoderStart
 1197              	.LVL125:
 1198 0008 0120     		movs	r0, #1
 1199 000a FFF7FEFF 		bl	vexEncoderStart
 1200              	.LVL126:
 1201 000e 0220     		movs	r0, #2
 1202 0010 FFF7FEFF 		bl	vexEncoderStart
 1203              	.LVL127:
 1204 0014 0320     		movs	r0, #3
 1205 0016 FFF7FEFF 		bl	vexEncoderStart
 1206              	.LVL128:
 1207 001a 0420     		movs	r0, #4
 1208              		.loc 1 386 0
 1209 001c BDE80840 		pop	{r3, lr}
 1210              		.loc 1 385 0
 1211 0020 FFF7FEBF 		b	vexEncoderStart
 1212              		.cfi_endproc
 1213              	.LFE79:
 1214              		.size	vexEncoderStartAll, .-vexEncoderStartAll
 1215 0024 AFF30080 		.section	.text.vexEncoderGet,"ax",%progbits
 1215      AFF30080 
 1215      AFF30080 
 1216              		.align	2
 1217              		.p2align 4,,15
 1218              		.global	vexEncoderGet
 1219              		.thumb
 1220              		.thumb_func
 1221              		.type	vexEncoderGet, %function
 1222              	vexEncoderGet:
 1223              	.LFB80:
 1224              		.loc 1 402 0
 1225              		.cfi_startproc
 1226              		@ args = 0, pretend = 0, frame = 0
 1227              		@ frame_needed = 0, uses_anonymous_args = 0
 1228              		@ link register save eliminated.
 1229              	.LVL129:
 1230              		.loc 1 403 0
 1231 0000 83B2     		uxth	r3, r0
 1232 0002 042B     		cmp	r3, #4
 1233 0004 0DD8     		bhi	.L45
 1234              		.loc 1 406 0
 1235 0006 40F2000C 		movw	ip, #:lower16:.LANCHOR0
 1236 000a C0EBC003 		rsb	r3, r0, r0, lsl #3
 1237 000e C0F2000C 		movt	ip, #:upper16:.LANCHOR0
 1238 0012 9800     		lsls	r0, r3, #2
 1239              	.LVL130:
 1240 0014 0CEB0002 		add	r2, ip, r0
 1241 0018 5168     		ldr	r1, [r2, #4]
 1242 001a 5CF80000 		ldr	r0, [ip, r0]
 1243 001e 401A     		subs	r0, r0, r1
ARM GAS  /tmp/ccVWLZ4f.s 			page 23


 1244 0020 7047     		bx	lr
 1245              	.LVL131:
 1246              	.L45:
 1247              		.loc 1 404 0
 1248 0022 0020     		movs	r0, #0
 1249              	.LVL132:
 1250              		.loc 1 407 0
 1251 0024 7047     		bx	lr
 1252              		.cfi_endproc
 1253              	.LFE80:
 1254              		.size	vexEncoderGet, .-vexEncoderGet
 1255 0026 00BFAFF3 		.section	.text.vexEncoderSet,"ax",%progbits
 1255      0080AFF3 
 1255      0080
 1256              		.align	2
 1257              		.p2align 4,,15
 1258              		.global	vexEncoderSet
 1259              		.thumb
 1260              		.thumb_func
 1261              		.type	vexEncoderSet, %function
 1262              	vexEncoderSet:
 1263              	.LFB81:
 1264              		.loc 1 421 0
 1265              		.cfi_startproc
 1266              		@ args = 0, pretend = 0, frame = 0
 1267              		@ frame_needed = 0, uses_anonymous_args = 0
 1268              		@ link register save eliminated.
 1269              	.LVL133:
 1270              		.loc 1 422 0
 1271 0000 83B2     		uxth	r3, r0
 1272 0002 042B     		cmp	r3, #4
 1273 0004 0CD8     		bhi	.L46
 1274              		.loc 1 425 0
 1275 0006 C0EBC000 		rsb	r0, r0, r0, lsl #3
 1276              	.LVL134:
 1277 000a 40F2000C 		movw	ip, #:lower16:.LANCHOR0
 1278 000e C0F2000C 		movt	ip, #:upper16:.LANCHOR0
 1279 0012 8300     		lsls	r3, r0, #2
 1280              	.LVL135:
 1281 0014 5CF80320 		ldr	r2, [ip, r3]
 1282 0018 0CEB0300 		add	r0, ip, r3
 1283 001c 511A     		subs	r1, r2, r1
 1284              	.LVL136:
 1285 001e 4160     		str	r1, [r0, #4]
 1286              	.L46:
 1287 0020 7047     		bx	lr
 1288              		.cfi_endproc
 1289              	.LFE81:
 1290              		.size	vexEncoderSet, .-vexEncoderSet
 1291 0022 00BFAFF3 		.section	.text.vexEncoderGetId,"ax",%progbits
 1291      0080AFF3 
 1291      0080AFF3 
 1291      0080
 1292              		.align	2
 1293              		.p2align 4,,15
 1294              		.global	vexEncoderGetId
 1295              		.thumb
ARM GAS  /tmp/ccVWLZ4f.s 			page 24


 1296              		.thumb_func
 1297              		.type	vexEncoderGetId, %function
 1298              	vexEncoderGetId:
 1299              	.LFB82:
 1300              		.loc 1 442 0
 1301              		.cfi_startproc
 1302              		@ args = 0, pretend = 0, frame = 0
 1303              		@ frame_needed = 0, uses_anonymous_args = 0
 1304              		@ link register save eliminated.
 1305              	.LVL137:
 1306              		.loc 1 443 0
 1307 0000 0428     		cmp	r0, #4
 1308              		.loc 1 447 0
 1309 0002 DFBF     		itttt	le
 1310 0004 40F20003 		movwle	r3, #:lower16:.LANCHOR0
 1311 0008 C0EBC000 		rsble	r0, r0, r0, lsl #3
 1312              	.LVL138:
 1313 000c C0F20003 		movtle	r3, #:upper16:.LANCHOR0
 1314 0010 03EB8003 		addle	r3, r3, r0, lsl #2
 1315 0014 D4BF     		ite	le
 1316 0016 93F90A00 		ldrsble	r0, [r3, #10]
 1317              		.loc 1 444 0
 1318 001a 4FF6FF70 		movwgt	r0, #65535
 1319              		.loc 1 448 0
 1320 001e 00B2     		sxth	r0, r0
 1321 0020 7047     		bx	lr
 1322              		.cfi_endproc
 1323              	.LFE82:
 1324              		.size	vexEncoderGetId, .-vexEncoderGetId
 1325 0022 00BFAFF3 		.section	.text.vexEncoderDebug,"ax",%progbits
 1325      0080AFF3 
 1325      0080AFF3 
 1325      0080
 1326              		.align	2
 1327              		.p2align 4,,15
 1328              		.global	vexEncoderDebug
 1329              		.thumb
 1330              		.thumb_func
 1331              		.type	vexEncoderDebug, %function
 1332              	vexEncoderDebug:
 1333              	.LFB83:
 1334              		.loc 1 459 0
 1335              		.cfi_startproc
 1336              		@ args = 0, pretend = 0, frame = 0
 1337              		@ frame_needed = 0, uses_anonymous_args = 0
 1338              	.LVL139:
 1339 0000 F0B5     		push	{r4, r5, r6, r7, lr}
 1340              	.LCFI14:
 1341              		.cfi_def_cfa_offset 20
 1342              		.cfi_offset 14, -4
 1343              		.cfi_offset 7, -8
 1344              		.cfi_offset 6, -12
 1345              		.cfi_offset 5, -16
 1346              		.cfi_offset 4, -20
 1347              		.loc 1 466 0
 1348 0002 40F20004 		movw	r4, #:lower16:.LANCHOR0
 1349 0006 C0F20004 		movt	r4, #:upper16:.LANCHOR0
ARM GAS  /tmp/ccVWLZ4f.s 			page 25


 1350 000a 40F20005 		movw	r5, #:lower16:.LC0
 1351 000e C0F20005 		movt	r5, #:upper16:.LC0
 1352 0012 6768     		ldr	r7, [r4, #4]
 1353              		.loc 1 459 0
 1354 0014 83B0     		sub	sp, sp, #12
 1355              	.LCFI15:
 1356              		.cfi_def_cfa_offset 32
 1357              		.loc 1 466 0
 1358 0016 2368     		ldr	r3, [r4, #0]
 1359 0018 2946     		mov	r1, r5
 1360              	.LVL140:
 1361 001a 0022     		movs	r2, #0
 1362              	.LVL141:
 1363              		.loc 1 459 0
 1364 001c 0646     		mov	r6, r0
 1365              		.loc 1 466 0
 1366 001e 0097     		str	r7, [sp, #0]
 1367 0020 FFF7FEFF 		bl	vex_chprintf
 1368              	.LVL142:
 1369 0024 276A     		ldr	r7, [r4, #32]
 1370 0026 E369     		ldr	r3, [r4, #28]
 1371 0028 2946     		mov	r1, r5
 1372 002a 0122     		movs	r2, #1
 1373 002c 3046     		mov	r0, r6
 1374 002e 0097     		str	r7, [sp, #0]
 1375 0030 FFF7FEFF 		bl	vex_chprintf
 1376              	.LVL143:
 1377 0034 E76B     		ldr	r7, [r4, #60]
 1378 0036 A36B     		ldr	r3, [r4, #56]
 1379 0038 2946     		mov	r1, r5
 1380 003a 0222     		movs	r2, #2
 1381 003c 3046     		mov	r0, r6
 1382 003e 0097     		str	r7, [sp, #0]
 1383 0040 FFF7FEFF 		bl	vex_chprintf
 1384              	.LVL144:
 1385 0044 A76D     		ldr	r7, [r4, #88]
 1386 0046 636D     		ldr	r3, [r4, #84]
 1387 0048 2946     		mov	r1, r5
 1388 004a 0322     		movs	r2, #3
 1389 004c 3046     		mov	r0, r6
 1390 004e 0097     		str	r7, [sp, #0]
 1391 0050 FFF7FEFF 		bl	vex_chprintf
 1392              	.LVL145:
 1393 0054 236F     		ldr	r3, [r4, #112]
 1394 0056 646F     		ldr	r4, [r4, #116]
 1395 0058 3046     		mov	r0, r6
 1396 005a 2946     		mov	r1, r5
 1397 005c 0422     		movs	r2, #4
 1398 005e 0094     		str	r4, [sp, #0]
 1399 0060 FFF7FEFF 		bl	vex_chprintf
 1400              	.LVL146:
 1401              		.loc 1 467 0
 1402 0064 03B0     		add	sp, sp, #12
 1403 0066 F0BD     		pop	{r4, r5, r6, r7, pc}
 1404              		.cfi_endproc
 1405              	.LFE83:
 1406              		.size	vexEncoderDebug, .-vexEncoderDebug
ARM GAS  /tmp/ccVWLZ4f.s 			page 26


 1407 0068 AFF30080 		.section	.rodata._vqe_cb_a,"a",%progbits
 1407      AFF30080 
 1408              		.align	2
 1409              		.set	.LANCHOR1,. + 0
 1410              		.type	_vqe_cb_a, %object
 1411              		.size	_vqe_cb_a, 20
 1412              	_vqe_cb_a:
 1413 0000 00000000 		.word	_vqe_1_cb_a
 1414 0004 00000000 		.word	_vqe_2_cb_a
 1415 0008 00000000 		.word	_vqe_3_cb_a
 1416 000c 00000000 		.word	_vqe_4_cb_a
 1417 0010 00000000 		.word	_vqe_5_cb_a
 1418              		.section	.rodata._vqe_cb_b,"a",%progbits
 1419              		.align	2
 1420              		.set	.LANCHOR2,. + 0
 1421              		.type	_vqe_cb_b, %object
 1422              		.size	_vqe_cb_b, 20
 1423              	_vqe_cb_b:
 1424 0000 00000000 		.word	_vqe_1_cb_b
 1425 0004 00000000 		.word	_vqe_2_cb_b
 1426 0008 00000000 		.word	_vqe_3_cb_b
 1427 000c 00000000 		.word	_vqe_4_cb_b
 1428 0010 00000000 		.word	_vqe_5_cb_b
 1429              		.section	.rodata.str1.4,"aMS",%progbits,1
 1430              		.align	2
 1431              	.LC0:
 1432 0000 45256420 		.ascii	"E%d %8ld  %8ld\015\012\000"
 1432      25386C64 
 1432      20202538 
 1432      6C640D0A 
 1432      00
 1433 0011 000000   		.section	.bss.vexQuadEncoders,"aw",%nobits
 1434              		.align	2
 1435              		.set	.LANCHOR0,. + 0
 1436              		.type	vexQuadEncoders, %object
 1437              		.size	vexQuadEncoders, 140
 1438              	vexQuadEncoders:
 1439 0000 00000000 		.space	140
 1439      00000000 
 1439      00000000 
 1439      00000000 
 1439      00000000 
 1440              		.text
 1441              	.Letext0:
 1442              		.file 2 "/opt/pros/toolchain/bin/../lib/gcc/arm-none-eabi/4.6.3/include/stddef.h"
 1443              		.file 3 "/opt/pros/toolchain/bin/../lib/gcc/arm-none-eabi/4.6.3/../../../../arm-none-eabi/include/
 1444              		.file 4 "../ChibiOS_2.6.2/os/ports/GCC/ARMCMx/chtypes.h"
 1445              		.file 5 "../ChibiOS_2.6.2/os/kernel/include/chstreams.h"
 1446              		.file 6 "../ChibiOS_2.6.2/os/hal/platforms/STM32F1xx/stm32f10x.h"
 1447              		.file 7 "../ChibiOS_2.6.2/os/hal/platforms/STM32/GPIOv1/pal_lld.h"
 1448              		.file 8 "../ChibiOS_2.6.2/os/hal/include/ext.h"
 1449              		.file 9 "../ChibiOS_2.6.2/os/hal/platforms/STM32/ext_lld.h"
 1450              		.file 10 "../convex/cortex/fw/vexcompat.h"
 1451              		.file 11 "../convex/cortex/fw/vexdigital.h"
 1452              		.file 12 "../convex/cortex/fw/vexencoder.h"
 1453              		.file 13 "../convex/cortex/fw/vexime.h"
 1454              		.file 14 "../ChibiOS_2.6.2/os/ports/common/ARMCMx/CMSIS/include/core_cm3.h"
ARM GAS  /tmp/ccVWLZ4f.s 			page 27

