ARM GAS  /tmp/ccVWLZ4f.s 			page 1


   1              		.syntax unified
   2              		.cpu cortex-m3
   3              		.fpu softvfp
   4              		.eabi_attribute 20, 1
   5              		.eabi_attribute 21, 1
   6              		.eabi_attribute 23, 3
   7              		.eabi_attribute 24, 1
   8              		.eabi_attribute 25, 1
   9              		.eabi_attribute 26, 1
  10              		.eabi_attribute 30, 2
  11              		.eabi_attribute 34, 1
  12              		.eabi_attribute 18, 4
  13              		.thumb
  14              		.file	"vexencoder.c"
  15              		.text
  16              	.Ltext0:
  17              		.cfi_sections	.debug_frame
  18              		.section	.text._vqe_5_cb_a,"ax",%progbits
  19              		.align	2
  20              		.p2align 4,,15
  21              		.thumb
  22              		.thumb_func
  23              		.type	_vqe_5_cb_a, %function
  24              	_vqe_5_cb_a:
  25              	.LFB73:
  26              		.file 1 "../convex/cortex/fw/vexencoder.c"
  27              		.loc 1 238 0
  28              		.cfi_startproc
  29              		@ args = 0, pretend = 0, frame = 0
  30              		@ frame_needed = 0, uses_anonymous_args = 0
  31              		@ link register save eliminated.
  32              	.LVL0:
  33 0000 10B4     		push	{r4}
  34              	.LCFI0:
  35              		.cfi_def_cfa_offset 4
  36              		.cfi_offset 4, -4
  37              	.LBB6:
  38              		.loc 1 242 0
  39 0002 2023     		movs	r3, #32
  40              	.LVL1:
  41              	@ 242 "../convex/cortex/fw/vexencoder.c" 1
  42 0004 83F31188 		msr     BASEPRI, r3
  43              	@ 0 "" 2
  44              	.LVL2:
  45              		.thumb
  46              	.LBE6:
  47              	.LBB7:
  48              	.LBB8:
  49              		.loc 1 79 0
  50 0008 40F20003 		movw	r3, #:lower16:.LANCHOR0
  51              	.LVL3:
  52 000c C0F20003 		movt	r3, #:upper16:.LANCHOR0
  53              		.loc 1 80 0
  54 0010 D3F88420 		ldr	r2, [r3, #132]
  55              		.loc 1 79 0
  56 0014 DC6F     		ldr	r4, [r3, #124]
  57 0016 B3F98010 		ldrsh	r1, [r3, #128]
ARM GAS  /tmp/ccVWLZ4f.s 			page 2


  58              	.LVL4:
  59 001a A468     		ldr	r4, [r4, #8]
  60              	.LVL5:
  61              		.loc 1 80 0
  62 001c 9068     		ldr	r0, [r2, #8]
  63              	.LVL6:
  64 001e B3F98820 		ldrsh	r2, [r3, #136]
  65              		.loc 1 79 0
  66 0022 24FA01FC 		lsr	ip, r4, r1
  67              		.loc 1 80 0
  68 0026 20FA02F0 		lsr	r0, r0, r2
  69              	.LVL7:
  70              		.loc 1 83 0
  71 002a 0CF00101 		and	r1, ip, #1
  72 002e 00F00102 		and	r2, r0, #1
  73 0032 9142     		cmp	r1, r2
  74 0034 1A6F     		ldr	r2, [r3, #112]
  75 0036 06D0     		beq	.L2
  76 0038 501E     		subs	r0, r2, #1
  77 003a 1867     		str	r0, [r3, #112]
  78              	.L3:
  79              	.LBE8:
  80              	.LBE7:
  81              	.LBB10:
  82              		.loc 1 247 0
  83 003c 0023     		movs	r3, #0
  84              	.LVL8:
  85              	@ 247 "../convex/cortex/fw/vexencoder.c" 1
  86 003e 83F31188 		msr     BASEPRI, r3
  87              	@ 0 "" 2
  88              	.LVL9:
  89              		.thumb
  90              	.LBE10:
  91              		.loc 1 248 0
  92 0042 10BC     		pop	{r4}
  93 0044 7047     		bx	lr
  94              	.LVL10:
  95              	.L2:
  96              	.LBB11:
  97              	.LBB9:
  98              		.loc 1 83 0
  99 0046 511C     		adds	r1, r2, #1
 100 0048 1967     		str	r1, [r3, #112]
 101 004a F7E7     		b	.L3
 102              	.LBE9:
 103              	.LBE11:
 104              		.cfi_endproc
 105              	.LFE73:
 106              		.size	_vqe_5_cb_a, .-_vqe_5_cb_a
 107 004c AFF30080 		.section	.text._vqe_5_cb_b,"ax",%progbits
 108              		.align	2
 109              		.p2align 4,,15
 110              		.thumb
 111              		.thumb_func
 112              		.type	_vqe_5_cb_b, %function
 113              	_vqe_5_cb_b:
 114              	.LFB74:
ARM GAS  /tmp/ccVWLZ4f.s 			page 3


 115              		.loc 1 255 0
 116              		.cfi_startproc
 117              		@ args = 0, pretend = 0, frame = 0
 118              		@ frame_needed = 0, uses_anonymous_args = 0
 119              		@ link register save eliminated.
 120              	.LVL11:
 121 0000 10B4     		push	{r4}
 122              	.LCFI1:
 123              		.cfi_def_cfa_offset 4
 124              		.cfi_offset 4, -4
 125              	.LBB16:
 126              		.loc 1 259 0
 127 0002 2023     		movs	r3, #32
 128              	.LVL12:
 129              	@ 259 "../convex/cortex/fw/vexencoder.c" 1
 130 0004 83F31188 		msr     BASEPRI, r3
 131              	@ 0 "" 2
 132              	.LVL13:
 133              		.thumb
 134              	.LBE16:
 135              	.LBB17:
 136              	.LBB18:
 137              		.loc 1 96 0
 138 0008 40F20003 		movw	r3, #:lower16:.LANCHOR0
 139              	.LVL14:
 140 000c C0F20003 		movt	r3, #:upper16:.LANCHOR0
 141              		.loc 1 97 0
 142 0010 D3F88420 		ldr	r2, [r3, #132]
 143              		.loc 1 96 0
 144 0014 DC6F     		ldr	r4, [r3, #124]
 145 0016 B3F98010 		ldrsh	r1, [r3, #128]
 146              	.LVL15:
 147 001a A468     		ldr	r4, [r4, #8]
 148              	.LVL16:
 149              		.loc 1 97 0
 150 001c 9068     		ldr	r0, [r2, #8]
 151              	.LVL17:
 152 001e B3F98820 		ldrsh	r2, [r3, #136]
 153              		.loc 1 96 0
 154 0022 24FA01FC 		lsr	ip, r4, r1
 155              		.loc 1 97 0
 156 0026 20FA02F0 		lsr	r0, r0, r2
 157              	.LVL18:
 158              		.loc 1 100 0
 159 002a 0CF00101 		and	r1, ip, #1
 160 002e 00F00102 		and	r2, r0, #1
 161 0032 9142     		cmp	r1, r2
 162 0034 1A6F     		ldr	r2, [r3, #112]
 163 0036 06D0     		beq	.L6
 164 0038 501C     		adds	r0, r2, #1
 165 003a 1867     		str	r0, [r3, #112]
 166              	.L7:
 167              	.LBE18:
 168              	.LBE17:
 169              	.LBB20:
 170              		.loc 1 264 0
 171 003c 0023     		movs	r3, #0
ARM GAS  /tmp/ccVWLZ4f.s 			page 4


 172              	.LVL19:
 173              	@ 264 "../convex/cortex/fw/vexencoder.c" 1
 174 003e 83F31188 		msr     BASEPRI, r3
 175              	@ 0 "" 2
 176              	.LVL20:
 177              		.thumb
 178              	.LBE20:
 179              		.loc 1 265 0
 180 0042 10BC     		pop	{r4}
 181 0044 7047     		bx	lr
 182              	.LVL21:
 183              	.L6:
 184              	.LBB21:
 185              	.LBB19:
 186              		.loc 1 100 0
 187 0046 511E     		subs	r1, r2, #1
 188 0048 1967     		str	r1, [r3, #112]
 189 004a F7E7     		b	.L7
 190              	.LBE19:
 191              	.LBE21:
 192              		.cfi_endproc
 193              	.LFE74:
 194              		.size	_vqe_5_cb_b, .-_vqe_5_cb_b
 195 004c AFF30080 		.section	.text._vqe_1_cb_a,"ax",%progbits
 196              		.align	2
 197              		.p2align 4,,15
 198              		.thumb
 199              		.thumb_func
 200              		.type	_vqe_1_cb_a, %function
 201              	_vqe_1_cb_a:
 202              	.LFB65:
 203              		.loc 1 108 0
 204              		.cfi_startproc
 205              		@ args = 0, pretend = 0, frame = 0
 206              		@ frame_needed = 0, uses_anonymous_args = 0
 207              		@ link register save eliminated.
 208              	.LVL22:
 209 0000 10B4     		push	{r4}
 210              	.LCFI2:
 211              		.cfi_def_cfa_offset 4
 212              		.cfi_offset 4, -4
 213              	.LBB26:
 214              		.loc 1 112 0
 215 0002 2023     		movs	r3, #32
 216              	.LVL23:
 217              	@ 112 "../convex/cortex/fw/vexencoder.c" 1
 218 0004 83F31188 		msr     BASEPRI, r3
 219              	@ 0 "" 2
 220              	.LVL24:
 221              		.thumb
 222              	.LBE26:
 223              	.LBB27:
 224              	.LBB28:
 225              		.loc 1 79 0
 226 0008 40F20003 		movw	r3, #:lower16:.LANCHOR0
 227              	.LVL25:
 228 000c C0F20003 		movt	r3, #:upper16:.LANCHOR0
ARM GAS  /tmp/ccVWLZ4f.s 			page 5


 229              		.loc 1 80 0
 230 0010 5A69     		ldr	r2, [r3, #20]
 231              		.loc 1 79 0
 232 0012 DC68     		ldr	r4, [r3, #12]
 233 0014 B3F91010 		ldrsh	r1, [r3, #16]
 234              	.LVL26:
 235 0018 A468     		ldr	r4, [r4, #8]
 236              	.LVL27:
 237              		.loc 1 80 0
 238 001a 9068     		ldr	r0, [r2, #8]
 239              	.LVL28:
 240 001c B3F91820 		ldrsh	r2, [r3, #24]
 241              		.loc 1 79 0
 242 0020 24FA01FC 		lsr	ip, r4, r1
 243              		.loc 1 80 0
 244 0024 20FA02F0 		lsr	r0, r0, r2
 245              	.LVL29:
 246              		.loc 1 83 0
 247 0028 0CF00101 		and	r1, ip, #1
 248 002c 00F00102 		and	r2, r0, #1
 249 0030 9142     		cmp	r1, r2
 250 0032 1A68     		ldr	r2, [r3, #0]
 251 0034 06D0     		beq	.L9
 252 0036 501E     		subs	r0, r2, #1
 253 0038 1860     		str	r0, [r3, #0]
 254              	.L10:
 255              	.LBE28:
 256              	.LBE27:
 257              	.LBB30:
 258              		.loc 1 117 0
 259 003a 0023     		movs	r3, #0
 260              	.LVL30:
 261              	@ 117 "../convex/cortex/fw/vexencoder.c" 1
 262 003c 83F31188 		msr     BASEPRI, r3
 263              	@ 0 "" 2
 264              	.LVL31:
 265              		.thumb
 266              	.LBE30:
 267              		.loc 1 118 0
 268 0040 10BC     		pop	{r4}
 269 0042 7047     		bx	lr
 270              	.LVL32:
 271              	.L9:
 272              	.LBB31:
 273              	.LBB29:
 274              		.loc 1 83 0
 275 0044 511C     		adds	r1, r2, #1
 276 0046 1960     		str	r1, [r3, #0]
 277 0048 F7E7     		b	.L10
 278              	.LBE29:
 279              	.LBE31:
 280              		.cfi_endproc
 281              	.LFE65:
 282              		.size	_vqe_1_cb_a, .-_vqe_1_cb_a
 283 004a 00BFAFF3 		.section	.text._vqe_2_cb_a,"ax",%progbits
 283      0080
 284              		.align	2
ARM GAS  /tmp/ccVWLZ4f.s 			page 6


 285              		.p2align 4,,15
 286              		.thumb
 287              		.thumb_func
 288              		.type	_vqe_2_cb_a, %function
 289              	_vqe_2_cb_a:
 290              	.LFB67:
 291              		.loc 1 142 0
 292              		.cfi_startproc
 293              		@ args = 0, pretend = 0, frame = 0
 294              		@ frame_needed = 0, uses_anonymous_args = 0
 295              		@ link register save eliminated.
 296              	.LVL33:
 297 0000 10B4     		push	{r4}
 298              	.LCFI3:
 299              		.cfi_def_cfa_offset 4
 300              		.cfi_offset 4, -4
 301              	.LBB36:
 302              		.loc 1 146 0
 303 0002 2023     		movs	r3, #32
 304              	.LVL34:
 305              	@ 146 "../convex/cortex/fw/vexencoder.c" 1
 306 0004 83F31188 		msr     BASEPRI, r3
 307              	@ 0 "" 2
 308              	.LVL35:
 309              		.thumb
 310              	.LBE36:
 311              	.LBB37:
 312              	.LBB38:
 313              		.loc 1 79 0
 314 0008 40F20003 		movw	r3, #:lower16:.LANCHOR0
 315              	.LVL36:
 316 000c C0F20003 		movt	r3, #:upper16:.LANCHOR0
 317              		.loc 1 80 0
 318 0010 1A6B     		ldr	r2, [r3, #48]
 319              		.loc 1 79 0
 320 0012 9C6A     		ldr	r4, [r3, #40]
 321 0014 B3F92C10 		ldrsh	r1, [r3, #44]
 322              	.LVL37:
 323 0018 A468     		ldr	r4, [r4, #8]
 324              	.LVL38:
 325              		.loc 1 80 0
 326 001a 9068     		ldr	r0, [r2, #8]
 327              	.LVL39:
 328 001c B3F93420 		ldrsh	r2, [r3, #52]
 329              		.loc 1 79 0
 330 0020 24FA01FC 		lsr	ip, r4, r1
 331              		.loc 1 80 0
 332 0024 20FA02F0 		lsr	r0, r0, r2
 333              	.LVL40:
 334              		.loc 1 83 0
 335 0028 0CF00101 		and	r1, ip, #1
 336 002c 00F00102 		and	r2, r0, #1
 337 0030 9142     		cmp	r1, r2
 338 0032 DA69     		ldr	r2, [r3, #28]
 339 0034 06D0     		beq	.L12
 340 0036 501E     		subs	r0, r2, #1
 341 0038 D861     		str	r0, [r3, #28]
ARM GAS  /tmp/ccVWLZ4f.s 			page 7


 342              	.L13:
 343              	.LBE38:
 344              	.LBE37:
 345              	.LBB40:
 346              		.loc 1 151 0
 347 003a 0023     		movs	r3, #0
 348              	.LVL41:
 349              	@ 151 "../convex/cortex/fw/vexencoder.c" 1
 350 003c 83F31188 		msr     BASEPRI, r3
 351              	@ 0 "" 2
 352              	.LVL42:
 353              		.thumb
 354              	.LBE40:
 355              		.loc 1 152 0
 356 0040 10BC     		pop	{r4}
 357 0042 7047     		bx	lr
 358              	.LVL43:
 359              	.L12:
 360              	.LBB41:
 361              	.LBB39:
 362              		.loc 1 83 0
 363 0044 511C     		adds	r1, r2, #1
 364 0046 D961     		str	r1, [r3, #28]
 365 0048 F7E7     		b	.L13
 366              	.LBE39:
 367              	.LBE41:
 368              		.cfi_endproc
 369              	.LFE67:
 370              		.size	_vqe_2_cb_a, .-_vqe_2_cb_a
 371 004a 00BFAFF3 		.section	.text._vqe_3_cb_a,"ax",%progbits
 371      0080
 372              		.align	2
 373              		.p2align 4,,15
 374              		.thumb
 375              		.thumb_func
 376              		.type	_vqe_3_cb_a, %function
 377              	_vqe_3_cb_a:
 378              	.LFB69:
 379              		.loc 1 176 0
 380              		.cfi_startproc
 381              		@ args = 0, pretend = 0, frame = 0
 382              		@ frame_needed = 0, uses_anonymous_args = 0
 383              		@ link register save eliminated.
 384              	.LVL44:
 385 0000 10B4     		push	{r4}
 386              	.LCFI4:
 387              		.cfi_def_cfa_offset 4
 388              		.cfi_offset 4, -4
 389              	.LBB46:
 390              		.loc 1 180 0
 391 0002 2023     		movs	r3, #32
 392              	.LVL45:
 393              	@ 180 "../convex/cortex/fw/vexencoder.c" 1
 394 0004 83F31188 		msr     BASEPRI, r3
 395              	@ 0 "" 2
 396              	.LVL46:
 397              		.thumb
ARM GAS  /tmp/ccVWLZ4f.s 			page 8


 398              	.LBE46:
 399              	.LBB47:
 400              	.LBB48:
 401              		.loc 1 79 0
 402 0008 40F20003 		movw	r3, #:lower16:.LANCHOR0
 403              	.LVL47:
 404 000c C0F20003 		movt	r3, #:upper16:.LANCHOR0
 405              		.loc 1 80 0
 406 0010 DA6C     		ldr	r2, [r3, #76]
 407              		.loc 1 79 0
 408 0012 5C6C     		ldr	r4, [r3, #68]
 409 0014 B3F94810 		ldrsh	r1, [r3, #72]
 410              	.LVL48:
 411 0018 A468     		ldr	r4, [r4, #8]
 412              	.LVL49:
 413              		.loc 1 80 0
 414 001a 9068     		ldr	r0, [r2, #8]
 415              	.LVL50:
 416 001c B3F95020 		ldrsh	r2, [r3, #80]
 417              		.loc 1 79 0
 418 0020 24FA01FC 		lsr	ip, r4, r1
 419              		.loc 1 80 0
 420 0024 20FA02F0 		lsr	r0, r0, r2
 421              	.LVL51:
 422              		.loc 1 83 0
 423 0028 0CF00101 		and	r1, ip, #1
 424 002c 00F00102 		and	r2, r0, #1
 425 0030 9142     		cmp	r1, r2
 426 0032 9A6B     		ldr	r2, [r3, #56]
 427 0034 06D0     		beq	.L15
 428 0036 501E     		subs	r0, r2, #1
 429 0038 9863     		str	r0, [r3, #56]
 430              	.L16:
 431              	.LBE48:
 432              	.LBE47:
 433              	.LBB50:
 434              		.loc 1 185 0
 435 003a 0023     		movs	r3, #0
 436              	.LVL52:
 437              	@ 185 "../convex/cortex/fw/vexencoder.c" 1
 438 003c 83F31188 		msr     BASEPRI, r3
 439              	@ 0 "" 2
 440              	.LVL53:
 441              		.thumb
 442              	.LBE50:
 443              		.loc 1 186 0
 444 0040 10BC     		pop	{r4}
 445 0042 7047     		bx	lr
 446              	.LVL54:
 447              	.L15:
 448              	.LBB51:
 449              	.LBB49:
 450              		.loc 1 83 0
 451 0044 511C     		adds	r1, r2, #1
 452 0046 9963     		str	r1, [r3, #56]
 453 0048 F7E7     		b	.L16
 454              	.LBE49:
ARM GAS  /tmp/ccVWLZ4f.s 			page 9


 455              	.LBE51:
 456              		.cfi_endproc
 457              	.LFE69:
 458              		.size	_vqe_3_cb_a, .-_vqe_3_cb_a
 459 004a 00BFAFF3 		.section	.text._vqe_4_cb_a,"ax",%progbits
 459      0080
 460              		.align	2
 461              		.p2align 4,,15
 462              		.thumb
 463              		.thumb_func
 464              		.type	_vqe_4_cb_a, %function
 465              	_vqe_4_cb_a:
 466              	.LFB71:
 467              		.loc 1 207 0
 468              		.cfi_startproc
 469              		@ args = 0, pretend = 0, frame = 0
 470              		@ frame_needed = 0, uses_anonymous_args = 0
 471              		@ link register save eliminated.
 472              	.LVL55:
 473 0000 10B4     		push	{r4}
 474              	.LCFI5:
 475              		.cfi_def_cfa_offset 4
 476              		.cfi_offset 4, -4
 477              	.LBB56:
 478              		.loc 1 211 0
 479 0002 2023     		movs	r3, #32
 480              	.LVL56:
 481              	@ 211 "../convex/cortex/fw/vexencoder.c" 1
 482 0004 83F31188 		msr     BASEPRI, r3
 483              	@ 0 "" 2
 484              	.LVL57:
 485              		.thumb
 486              	.LBE56:
 487              	.LBB57:
 488              	.LBB58:
 489              		.loc 1 79 0
 490 0008 40F20003 		movw	r3, #:lower16:.LANCHOR0
 491              	.LVL58:
 492 000c C0F20003 		movt	r3, #:upper16:.LANCHOR0
 493              		.loc 1 80 0
 494 0010 9A6E     		ldr	r2, [r3, #104]
 495              		.loc 1 79 0
 496 0012 1C6E     		ldr	r4, [r3, #96]
 497 0014 B3F96410 		ldrsh	r1, [r3, #100]
 498              	.LVL59:
 499 0018 A468     		ldr	r4, [r4, #8]
 500              	.LVL60:
 501              		.loc 1 80 0
 502 001a 9068     		ldr	r0, [r2, #8]
 503              	.LVL61:
 504 001c B3F96C20 		ldrsh	r2, [r3, #108]
 505              		.loc 1 79 0
 506 0020 24FA01FC 		lsr	ip, r4, r1
 507              		.loc 1 80 0
 508 0024 20FA02F0 		lsr	r0, r0, r2
 509              	.LVL62:
 510              		.loc 1 83 0
ARM GAS  /tmp/ccVWLZ4f.s 			page 10


 511 0028 0CF00101 		and	r1, ip, #1
 512 002c 00F00102 		and	r2, r0, #1
 513 0030 9142     		cmp	r1, r2
 514 0032 5A6D     		ldr	r2, [r3, #84]
 515 0034 06D0     		beq	.L18
 516 0036 501E     		subs	r0, r2, #1
 517 0038 5865     		str	r0, [r3, #84]
 518              	.L19:
 519              	.LBE58:
 520              	.LBE57:
 521              	.LBB60:
 522              		.loc 1 216 0
 523 003a 0023     		movs	r3, #0
 524              	.LVL63:
 525              	@ 216 "../convex/cortex/fw/vexencoder.c" 1
 526 003c 83F31188 		msr     BASEPRI, r3
 527              	@ 0 "" 2
 528              	.LVL64:
 529              		.thumb
 530              	.LBE60:
 531              		.loc 1 217 0
 532 0040 10BC     		pop	{r4}
 533 0042 7047     		bx	lr
 534              	.LVL65:
 535              	.L18:
 536              	.LBB61:
 537              	.LBB59:
 538              		.loc 1 83 0
 539 0044 511C     		adds	r1, r2, #1
 540 0046 5965     		str	r1, [r3, #84]
 541 0048 F7E7     		b	.L19
 542              	.LBE59:
 543              	.LBE61:
 544              		.cfi_endproc
 545              	.LFE71:
 546              		.size	_vqe_4_cb_a, .-_vqe_4_cb_a
 547 004a 00BFAFF3 		.section	.text._vqe_1_cb_b,"ax",%progbits
 547      0080
 548              		.align	2
 549              		.p2align 4,,15
 550              		.thumb
 551              		.thumb_func
 552              		.type	_vqe_1_cb_b, %function
 553              	_vqe_1_cb_b:
 554              	.LFB66:
 555              		.loc 1 125 0
 556              		.cfi_startproc
 557              		@ args = 0, pretend = 0, frame = 0
 558              		@ frame_needed = 0, uses_anonymous_args = 0
 559              		@ link register save eliminated.
 560              	.LVL66:
 561 0000 10B4     		push	{r4}
 562              	.LCFI6:
 563              		.cfi_def_cfa_offset 4
 564              		.cfi_offset 4, -4
 565              	.LBB66:
 566              		.loc 1 129 0
ARM GAS  /tmp/ccVWLZ4f.s 			page 11


 567 0002 2023     		movs	r3, #32
 568              	.LVL67:
 569              	@ 129 "../convex/cortex/fw/vexencoder.c" 1
 570 0004 83F31188 		msr     BASEPRI, r3
 571              	@ 0 "" 2
 572              	.LVL68:
 573              		.thumb
 574              	.LBE66:
 575              	.LBB67:
 576              	.LBB68:
 577              		.loc 1 96 0
 578 0008 40F20003 		movw	r3, #:lower16:.LANCHOR0
 579              	.LVL69:
 580 000c C0F20003 		movt	r3, #:upper16:.LANCHOR0
 581              		.loc 1 97 0
 582 0010 5A69     		ldr	r2, [r3, #20]
 583              		.loc 1 96 0
 584 0012 DC68     		ldr	r4, [r3, #12]
 585 0014 B3F91010 		ldrsh	r1, [r3, #16]
 586              	.LVL70:
 587 0018 A468     		ldr	r4, [r4, #8]
 588              	.LVL71:
 589              		.loc 1 97 0
 590 001a 9068     		ldr	r0, [r2, #8]
 591              	.LVL72:
 592 001c B3F91820 		ldrsh	r2, [r3, #24]
 593              		.loc 1 96 0
 594 0020 24FA01FC 		lsr	ip, r4, r1
 595              		.loc 1 97 0
 596 0024 20FA02F0 		lsr	r0, r0, r2
 597              	.LVL73:
 598              		.loc 1 100 0
 599 0028 0CF00101 		and	r1, ip, #1
 600 002c 00F00102 		and	r2, r0, #1
 601 0030 9142     		cmp	r1, r2
 602 0032 1A68     		ldr	r2, [r3, #0]
 603 0034 06D0     		beq	.L21
 604 0036 501C     		adds	r0, r2, #1
 605 0038 1860     		str	r0, [r3, #0]
 606              	.L22:
 607              	.LBE68:
 608              	.LBE67:
 609              	.LBB70:
 610              		.loc 1 134 0
 611 003a 0023     		movs	r3, #0
 612              	.LVL74:
 613              	@ 134 "../convex/cortex/fw/vexencoder.c" 1
 614 003c 83F31188 		msr     BASEPRI, r3
 615              	@ 0 "" 2
 616              	.LVL75:
 617              		.thumb
 618              	.LBE70:
 619              		.loc 1 135 0
 620 0040 10BC     		pop	{r4}
 621 0042 7047     		bx	lr
 622              	.LVL76:
 623              	.L21:
ARM GAS  /tmp/ccVWLZ4f.s 			page 12


 624              	.LBB71:
 625              	.LBB69:
 626              		.loc 1 100 0
 627 0044 511E     		subs	r1, r2, #1
 628 0046 1960     		str	r1, [r3, #0]
 629 0048 F7E7     		b	.L22
 630              	.LBE69:
 631              	.LBE71:
 632              		.cfi_endproc
 633              	.LFE66:
 634              		.size	_vqe_1_cb_b, .-_vqe_1_cb_b
 635 004a 00BFAFF3 		.section	.text._vqe_2_cb_b,"ax",%progbits
 635      0080
 636              		.align	2
 637              		.p2align 4,,15
 638              		.thumb
 639              		.thumb_func
 640              		.type	_vqe_2_cb_b, %function
 641              	_vqe_2_cb_b:
 642              	.LFB68:
 643              		.loc 1 159 0
 644              		.cfi_startproc
 645              		@ args = 0, pretend = 0, frame = 0
 646              		@ frame_needed = 0, uses_anonymous_args = 0
 647              		@ link register save eliminated.
 648              	.LVL77:
 649 0000 10B4     		push	{r4}
 650              	.LCFI7:
 651              		.cfi_def_cfa_offset 4
 652              		.cfi_offset 4, -4
 653              	.LBB76:
 654              		.loc 1 163 0
 655 0002 2023     		movs	r3, #32
 656              	.LVL78:
 657              	@ 163 "../convex/cortex/fw/vexencoder.c" 1
 658 0004 83F31188 		msr     BASEPRI, r3
 659              	@ 0 "" 2
 660              	.LVL79:
 661              		.thumb
 662              	.LBE76:
 663              	.LBB77:
 664              	.LBB78:
 665              		.loc 1 96 0
 666 0008 40F20003 		movw	r3, #:lower16:.LANCHOR0
 667              	.LVL80:
 668 000c C0F20003 		movt	r3, #:upper16:.LANCHOR0
 669              		.loc 1 97 0
 670 0010 1A6B     		ldr	r2, [r3, #48]
 671              		.loc 1 96 0
 672 0012 9C6A     		ldr	r4, [r3, #40]
 673 0014 B3F92C10 		ldrsh	r1, [r3, #44]
 674              	.LVL81:
 675 0018 A468     		ldr	r4, [r4, #8]
 676              	.LVL82:
 677              		.loc 1 97 0
 678 001a 9068     		ldr	r0, [r2, #8]
 679              	.LVL83:
ARM GAS  /tmp/ccVWLZ4f.s 			page 13


 680 001c B3F93420 		ldrsh	r2, [r3, #52]
 681              		.loc 1 96 0
 682 0020 24FA01FC 		lsr	ip, r4, r1
 683              		.loc 1 97 0
 684 0024 20FA02F0 		lsr	r0, r0, r2
 685              	.LVL84:
 686              		.loc 1 100 0
 687 0028 0CF00101 		and	r1, ip, #1
 688 002c 00F00102 		and	r2, r0, #1
 689 0030 9142     		cmp	r1, r2
 690 0032 DA69     		ldr	r2, [r3, #28]
 691 0034 06D0     		beq	.L24
 692 0036 501C     		adds	r0, r2, #1
 693 0038 D861     		str	r0, [r3, #28]
 694              	.L25:
 695              	.LBE78:
 696              	.LBE77:
 697              	.LBB80:
 698              		.loc 1 168 0
 699 003a 0023     		movs	r3, #0
 700              	.LVL85:
 701              	@ 168 "../convex/cortex/fw/vexencoder.c" 1
 702 003c 83F31188 		msr     BASEPRI, r3
 703              	@ 0 "" 2
 704              	.LVL86:
 705              		.thumb
 706              	.LBE80:
 707              		.loc 1 169 0
 708 0040 10BC     		pop	{r4}
 709 0042 7047     		bx	lr
 710              	.LVL87:
 711              	.L24:
 712              	.LBB81:
 713              	.LBB79:
 714              		.loc 1 100 0
 715 0044 511E     		subs	r1, r2, #1
 716 0046 D961     		str	r1, [r3, #28]
 717 0048 F7E7     		b	.L25
 718              	.LBE79:
 719              	.LBE81:
 720              		.cfi_endproc
 721              	.LFE68:
 722              		.size	_vqe_2_cb_b, .-_vqe_2_cb_b
 723 004a 00BFAFF3 		.section	.text._vqe_3_cb_b,"ax",%progbits
 723      0080
 724              		.align	2
 725              		.p2align 4,,15
 726              		.thumb
 727              		.thumb_func
 728              		.type	_vqe_3_cb_b, %function
 729              	_vqe_3_cb_b:
 730              	.LFB70:
 731              		.loc 1 193 0
 732              		.cfi_startproc
 733              		@ args = 0, pretend = 0, frame = 0
 734              		@ frame_needed = 0, uses_anonymous_args = 0
 735              		@ link register save eliminated.
ARM GAS  /tmp/ccVWLZ4f.s 			page 14


 736              	.LVL88:
 737 0000 10B4     		push	{r4}
 738              	.LCFI8:
 739              		.cfi_def_cfa_offset 4
 740              		.cfi_offset 4, -4
 741              	.LBB86:
 742              		.loc 1 197 0
 743 0002 2023     		movs	r3, #32
 744              	.LVL89:
 745              	@ 197 "../convex/cortex/fw/vexencoder.c" 1
 746 0004 83F31188 		msr     BASEPRI, r3
 747              	@ 0 "" 2
 748              	.LVL90:
 749              		.thumb
 750              	.LBE86:
 751              	.LBB87:
 752              	.LBB88:
 753              		.loc 1 96 0
 754 0008 40F20003 		movw	r3, #:lower16:.LANCHOR0
 755              	.LVL91:
 756 000c C0F20003 		movt	r3, #:upper16:.LANCHOR0
 757              		.loc 1 97 0
 758 0010 DA6C     		ldr	r2, [r3, #76]
 759              		.loc 1 96 0
 760 0012 5C6C     		ldr	r4, [r3, #68]
 761 0014 B3F94810 		ldrsh	r1, [r3, #72]
 762              	.LVL92:
 763 0018 A468     		ldr	r4, [r4, #8]
 764              	.LVL93:
 765              		.loc 1 97 0
 766 001a 9068     		ldr	r0, [r2, #8]
 767              	.LVL94:
 768 001c B3F95020 		ldrsh	r2, [r3, #80]
 769              		.loc 1 96 0
 770 0020 24FA01FC 		lsr	ip, r4, r1
 771              		.loc 1 97 0
 772 0024 20FA02F0 		lsr	r0, r0, r2
 773              	.LVL95:
 774              		.loc 1 100 0
 775 0028 0CF00101 		and	r1, ip, #1
 776 002c 00F00102 		and	r2, r0, #1
 777 0030 9142     		cmp	r1, r2
 778 0032 9A6B     		ldr	r2, [r3, #56]
 779 0034 06D0     		beq	.L27
 780 0036 501C     		adds	r0, r2, #1
 781 0038 9863     		str	r0, [r3, #56]
 782              	.L28:
 783              	.LBE88:
 784              	.LBE87:
 785              	.LBB90:
 786              		.loc 1 202 0
 787 003a 0023     		movs	r3, #0
 788              	.LVL96:
 789              	@ 202 "../convex/cortex/fw/vexencoder.c" 1
 790 003c 83F31188 		msr     BASEPRI, r3
 791              	@ 0 "" 2
 792              	.LVL97:
ARM GAS  /tmp/ccVWLZ4f.s 			page 15


 793              		.thumb
 794              	.LBE90:
 795              		.loc 1 203 0
 796 0040 10BC     		pop	{r4}
 797 0042 7047     		bx	lr
 798              	.LVL98:
 799              	.L27:
 800              	.LBB91:
 801              	.LBB89:
 802              		.loc 1 100 0
 803 0044 511E     		subs	r1, r2, #1
 804 0046 9963     		str	r1, [r3, #56]
 805 0048 F7E7     		b	.L28
 806              	.LBE89:
 807              	.LBE91:
 808              		.cfi_endproc
 809              	.LFE70:
 810              		.size	_vqe_3_cb_b, .-_vqe_3_cb_b
 811 004a 00BFAFF3 		.section	.text._vqe_4_cb_b,"ax",%progbits
 811      0080
 812              		.align	2
 813              		.p2align 4,,15
 814              		.thumb
 815              		.thumb_func
 816              		.type	_vqe_4_cb_b, %function
 817              	_vqe_4_cb_b:
 818              	.LFB72:
 819              		.loc 1 224 0
 820              		.cfi_startproc
 821              		@ args = 0, pretend = 0, frame = 0
 822              		@ frame_needed = 0, uses_anonymous_args = 0
 823              		@ link register save eliminated.
 824              	.LVL99:
 825 0000 10B4     		push	{r4}
 826              	.LCFI9:
 827              		.cfi_def_cfa_offset 4
 828              		.cfi_offset 4, -4
 829              	.LBB96:
 830              		.loc 1 228 0
 831 0002 2023     		movs	r3, #32
 832              	.LVL100:
 833              	@ 228 "../convex/cortex/fw/vexencoder.c" 1
 834 0004 83F31188 		msr     BASEPRI, r3
 835              	@ 0 "" 2
 836              	.LVL101:
 837              		.thumb
 838              	.LBE96:
 839              	.LBB97:
 840              	.LBB98:
 841              		.loc 1 96 0
 842 0008 40F20003 		movw	r3, #:lower16:.LANCHOR0
 843              	.LVL102:
 844 000c C0F20003 		movt	r3, #:upper16:.LANCHOR0
 845              		.loc 1 97 0
 846 0010 9A6E     		ldr	r2, [r3, #104]
 847              		.loc 1 96 0
 848 0012 1C6E     		ldr	r4, [r3, #96]
ARM GAS  /tmp/ccVWLZ4f.s 			page 16


 849 0014 B3F96410 		ldrsh	r1, [r3, #100]
 850              	.LVL103:
 851 0018 A468     		ldr	r4, [r4, #8]
 852              	.LVL104:
 853              		.loc 1 97 0
 854 001a 9068     		ldr	r0, [r2, #8]
 855              	.LVL105:
 856 001c B3F96C20 		ldrsh	r2, [r3, #108]
 857              		.loc 1 96 0
 858 0020 24FA01FC 		lsr	ip, r4, r1
 859              		.loc 1 97 0
 860 0024 20FA02F0 		lsr	r0, r0, r2
 861              	.LVL106:
 862              		.loc 1 100 0
 863 0028 0CF00101 		and	r1, ip, #1
 864 002c 00F00102 		and	r2, r0, #1
 865 0030 9142     		cmp	r1, r2
 866 0032 5A6D     		ldr	r2, [r3, #84]
 867 0034 06D0     		beq	.L30
 868 0036 501C     		adds	r0, r2, #1
 869 0038 5865     		str	r0, [r3, #84]
 870              	.L31:
 871              	.LBE98:
 872              	.LBE97:
 873              	.LBB100:
 874              		.loc 1 233 0
 875 003a 0023     		movs	r3, #0
 876              	.LVL107:
 877              	@ 233 "../convex/cortex/fw/vexencoder.c" 1
 878 003c 83F31188 		msr     BASEPRI, r3
 879              	@ 0 "" 2
 880              	.LVL108:
 881              		.thumb
 882              	.LBE100:
 883              		.loc 1 234 0
 884 0040 10BC     		pop	{r4}
 885 0042 7047     		bx	lr
 886              	.LVL109:
 887              	.L30:
 888              	.LBB101:
 889              	.LBB99:
 890              		.loc 1 100 0
 891 0044 511E     		subs	r1, r2, #1
 892 0046 5965     		str	r1, [r3, #84]
 893 0048 F7E7     		b	.L31
 894              	.LBE99:
 895              	.LBE101:
 896              		.cfi_endproc
 897              	.LFE72:
 898              		.size	_vqe_4_cb_b, .-_vqe_4_cb_b
 899 004a 00BFAFF3 		.section	.text.vexEncoderInit,"ax",%progbits
 899      0080
 900              		.align	2
 901              		.p2align 4,,15
 902              		.global	vexEncoderInit
 903              		.thumb
 904              		.thumb_func
ARM GAS  /tmp/ccVWLZ4f.s 			page 17


 905              		.type	vexEncoderInit, %function
 906              	vexEncoderInit:
 907              	.LFB75:
 908              		.loc 1 292 0
 909              		.cfi_startproc
 910              		@ args = 0, pretend = 0, frame = 0
 911              		@ frame_needed = 0, uses_anonymous_args = 0
 912              		@ link register save eliminated.
 913              	.LVL110:
 914              		.loc 1 297 0
 915 0000 40F20003 		movw	r3, #:lower16:.LANCHOR0
 916 0004 C0F20003 		movt	r3, #:upper16:.LANCHOR0
 917 0008 0022     		movs	r2, #0
 918              		.loc 1 298 0
 919 000a 1A60     		str	r2, [r3, #0]
 920              		.loc 1 297 0
 921 000c 1A81     		strh	r2, [r3, #8]	@ movhi
 922              		.loc 1 298 0
 923 000e DA61     		str	r2, [r3, #28]
 924              		.loc 1 299 0
 925 0010 5A60     		str	r2, [r3, #4]
 926              	.LVL111:
 927              		.loc 1 298 0
 928 0012 9A63     		str	r2, [r3, #56]
 929              		.loc 1 297 0
 930 0014 9A84     		strh	r2, [r3, #36]	@ movhi
 931              		.loc 1 298 0
 932 0016 5A65     		str	r2, [r3, #84]
 933              		.loc 1 299 0
 934 0018 1A62     		str	r2, [r3, #32]
 935              	.LVL112:
 936              		.loc 1 297 0
 937 001a A3F84020 		strh	r2, [r3, #64]	@ movhi
 938              		.loc 1 299 0
 939 001e DA63     		str	r2, [r3, #60]
 940              	.LVL113:
 941              		.loc 1 297 0
 942 0020 A3F85C20 		strh	r2, [r3, #92]	@ movhi
 943              		.loc 1 299 0
 944 0024 9A65     		str	r2, [r3, #88]
 945              	.LVL114:
 946              		.loc 1 297 0
 947 0026 A3F87820 		strh	r2, [r3, #120]	@ movhi
 948              		.loc 1 298 0
 949 002a 1A67     		str	r2, [r3, #112]
 950              		.loc 1 299 0
 951 002c 5A67     		str	r2, [r3, #116]
 952              	.LVL115:
 953              		.loc 1 301 0
 954 002e 7047     		bx	lr
 955              		.cfi_endproc
 956              	.LFE75:
 957              		.size	vexEncoderInit, .-vexEncoderInit
 958              		.section	.text.vexEncoderAdd,"ax",%progbits
 959              		.align	2
 960              		.p2align 4,,15
 961              		.global	vexEncoderAdd
ARM GAS  /tmp/ccVWLZ4f.s 			page 18


 962              		.thumb
 963              		.thumb_func
 964              		.type	vexEncoderAdd, %function
 965              	vexEncoderAdd:
 966              	.LFB76:
 967              		.loc 1 315 0
 968              		.cfi_startproc
 969              		@ args = 0, pretend = 0, frame = 0
 970              		@ frame_needed = 0, uses_anonymous_args = 0
 971              	.LVL116:
 972              		.loc 1 316 0
 973 0000 0428     		cmp	r0, #4
 974              		.loc 1 315 0
 975 0002 2DE9F047 		push	{r4, r5, r6, r7, r8, r9, sl, lr}
 976              	.LCFI10:
 977              		.cfi_def_cfa_offset 32
 978              		.cfi_offset 14, -4
 979              		.cfi_offset 10, -8
 980              		.cfi_offset 9, -12
 981              		.cfi_offset 8, -16
 982              		.cfi_offset 7, -20
 983              		.cfi_offset 6, -24
 984              		.cfi_offset 5, -28
 985              		.cfi_offset 4, -32
 986              		.loc 1 315 0
 987 0006 0446     		mov	r4, r0
 988 0008 0D46     		mov	r5, r1
 989 000a 1646     		mov	r6, r2
 990              		.loc 1 316 0
 991 000c 03D8     		bhi	.L33
 992              		.loc 1 319 0
 993 000e 0B29     		cmp	r1, #11
 994 0010 01DC     		bgt	.L33
 995              		.loc 1 321 0
 996 0012 0B2A     		cmp	r2, #11
 997 0014 01DD     		ble	.L35
 998              	.L33:
 999 0016 BDE8F087 		pop	{r4, r5, r6, r7, r8, r9, sl, pc}
 1000              	.L35:
 1001              		.loc 1 325 0
 1002 001a C0EBC003 		rsb	r3, r0, r0, lsl #3
 1003 001e 40F2000E 		movw	lr, #:lower16:.LANCHOR0
 1004 0022 9F00     		lsls	r7, r3, #2
 1005 0024 C0F2000E 		movt	lr, #:upper16:.LANCHOR0
 1006 0028 0EEB0708 		add	r8, lr, r7
 1007 002c 4FF00009 		mov	r9, #0
 1008              		.loc 1 329 0
 1009 0030 0846     		mov	r0, r1
 1010              	.LVL117:
 1011              		.loc 1 325 0
 1012 0032 4EF80790 		str	r9, [lr, r7]
 1013              		.loc 1 329 0
 1014 0036 4946     		mov	r1, r9
 1015              	.LVL118:
 1016              		.loc 1 326 0
 1017 0038 C8F80490 		str	r9, [r8, #4]
 1018              		.loc 1 329 0
ARM GAS  /tmp/ccVWLZ4f.s 			page 19


 1019 003c FFF7FEFF 		bl	vexDigitalModeSet
 1020              	.LVL119:
 1021              		.loc 1 331 0
 1022 0040 40F20007 		movw	r7, #:lower16:vexioDefinition
 1023 0044 05EB4501 		add	r1, r5, r5, lsl #1
 1024 0048 C0F20007 		movt	r7, #:upper16:vexioDefinition
 1025 004c 8800     		lsls	r0, r1, #2
 1026 004e 3A18     		adds	r2, r7, r0
 1027 0050 57F800C0 		ldr	ip, [r7, r0]
 1028              		.loc 1 332 0
 1029 0054 B2F804E0 		ldrh	lr, [r2, #4]
 1030              		.loc 1 333 0
 1031 0058 40F20003 		movw	r3, #:lower16:.LANCHOR1
 1032 005c C0F20003 		movt	r3, #:upper16:.LANCHOR1
 1033 0060 6046     		mov	r0, ip
 1034 0062 7146     		mov	r1, lr
 1035 0064 0322     		movs	r2, #3
 1036 0066 53F82430 		ldr	r3, [r3, r4, lsl #2]
 1037              		.loc 1 331 0
 1038 006a C8F80CC0 		str	ip, [r8, #12]
 1039              		.loc 1 332 0
 1040 006e A8F810E0 		strh	lr, [r8, #16]	@ movhi
 1041              		.loc 1 330 0
 1042 0072 88F80A50 		strb	r5, [r8, #10]
 1043              		.loc 1 333 0
 1044 0076 FFF7FEFF 		bl	vexExtSet
 1045              		.loc 1 336 0
 1046 007a 3046     		mov	r0, r6
 1047 007c 4946     		mov	r1, r9
 1048 007e FFF7FEFF 		bl	vexDigitalModeSet
 1049              		.loc 1 338 0
 1050 0082 06EB4601 		add	r1, r6, r6, lsl #1
 1051 0086 8800     		lsls	r0, r1, #2
 1052 0088 3A18     		adds	r2, r7, r0
 1053              		.loc 1 339 0
 1054 008a 9588     		ldrh	r5, [r2, #4]
 1055              		.loc 1 338 0
 1056 008c 3F58     		ldr	r7, [r7, r0]
 1057              		.loc 1 340 0
 1058 008e 40F2000C 		movw	ip, #:lower16:.LANCHOR2
 1059 0092 C0F2000C 		movt	ip, #:upper16:.LANCHOR2
 1060 0096 5CF82430 		ldr	r3, [ip, r4, lsl #2]
 1061 009a 3846     		mov	r0, r7
 1062 009c 2946     		mov	r1, r5
 1063 009e 0322     		movs	r2, #3
 1064              		.loc 1 337 0
 1065 00a0 88F80B60 		strb	r6, [r8, #11]
 1066              		.loc 1 338 0
 1067 00a4 C8F81470 		str	r7, [r8, #20]
 1068              		.loc 1 339 0
 1069 00a8 A8F81850 		strh	r5, [r8, #24]	@ movhi
 1070              		.loc 1 340 0
 1071 00ac FFF7FEFF 		bl	vexExtSet
 1072              		.loc 1 342 0
 1073 00b0 0123     		movs	r3, #1
 1074 00b2 A8F80830 		strh	r3, [r8, #8]	@ movhi
 1075 00b6 BDE8F087 		pop	{r4, r5, r6, r7, r8, r9, sl, pc}
ARM GAS  /tmp/ccVWLZ4f.s 			page 20


 1076              		.cfi_endproc
 1077              	.LFE76:
 1078              		.size	vexEncoderAdd, .-vexEncoderAdd
 1079 00ba 00BFAFF3 		.section	.text.vexEncoderStart,"ax",%progbits
 1079      0080
 1080              		.align	2
 1081              		.p2align 4,,15
 1082              		.global	vexEncoderStart
 1083              		.thumb
 1084              		.thumb_func
 1085              		.type	vexEncoderStart, %function
 1086              	vexEncoderStart:
 1087              	.LFB77:
 1088              		.loc 1 352 0
 1089              		.cfi_startproc
 1090              		@ args = 0, pretend = 0, frame = 0
 1091              		@ frame_needed = 0, uses_anonymous_args = 0
 1092              	.LVL120:
 1093              		.loc 1 353 0
 1094 0000 40F20001 		movw	r1, #:lower16:.LANCHOR0
 1095 0004 C0F20001 		movt	r1, #:upper16:.LANCHOR0
 1096 0008 C0EBC000 		rsb	r0, r0, r0, lsl #3
 1097              	.LVL121:
 1098              		.loc 1 352 0
 1099 000c 10B5     		push	{r4, lr}
 1100              	.LCFI11:
 1101              		.cfi_def_cfa_offset 8
 1102              		.cfi_offset 14, -4
 1103              		.cfi_offset 4, -8
 1104              		.loc 1 353 0
 1105 000e 01EB8004 		add	r4, r1, r0, lsl #2
 1106 0012 B4F90830 		ldrsh	r3, [r4, #8]
 1107 0016 012B     		cmp	r3, #1
 1108 0018 00D0     		beq	.L38
 1109 001a 10BD     		pop	{r4, pc}
 1110              	.L38:
 1111              		.loc 1 355 0
 1112 001c 40F20000 		movw	r0, #:lower16:EXTD1
 1113 0020 B4F91010 		ldrsh	r1, [r4, #16]
 1114 0024 C0F20000 		movt	r0, #:upper16:EXTD1
 1115 0028 FFF7FEFF 		bl	extChannelEnable
 1116              		.loc 1 356 0
 1117 002c 40F20000 		movw	r0, #:lower16:EXTD1
 1118 0030 B4F91810 		ldrsh	r1, [r4, #24]
 1119 0034 C0F20000 		movt	r0, #:upper16:EXTD1
 1120              		.loc 1 358 0
 1121 0038 BDE81040 		pop	{r4, lr}
 1122              		.loc 1 356 0
 1123 003c FFF7FEBF 		b	extChannelEnable
 1124              		.cfi_endproc
 1125              	.LFE77:
 1126              		.size	vexEncoderStart, .-vexEncoderStart
 1127              		.section	.text.vexEncoderStop,"ax",%progbits
 1128              		.align	2
 1129              		.p2align 4,,15
 1130              		.global	vexEncoderStop
 1131              		.thumb
ARM GAS  /tmp/ccVWLZ4f.s 			page 21


 1132              		.thumb_func
 1133              		.type	vexEncoderStop, %function
 1134              	vexEncoderStop:
 1135              	.LFB78:
 1136              		.loc 1 367 0
 1137              		.cfi_startproc
 1138              		@ args = 0, pretend = 0, frame = 0
 1139              		@ frame_needed = 0, uses_anonymous_args = 0
 1140              	.LVL122:
 1141              		.loc 1 368 0
 1142 0000 40F20001 		movw	r1, #:lower16:.LANCHOR0
 1143 0004 C0F20001 		movt	r1, #:upper16:.LANCHOR0
 1144 0008 C0EBC000 		rsb	r0, r0, r0, lsl #3
 1145              	.LVL123:
 1146              		.loc 1 367 0
 1147 000c 10B5     		push	{r4, lr}
 1148              	.LCFI12:
 1149              		.cfi_def_cfa_offset 8
 1150              		.cfi_offset 14, -4
 1151              		.cfi_offset 4, -8
 1152              		.loc 1 368 0
 1153 000e 01EB8004 		add	r4, r1, r0, lsl #2
 1154 0012 B4F90830 		ldrsh	r3, [r4, #8]
 1155 0016 012B     		cmp	r3, #1
 1156 0018 00D0     		beq	.L41
 1157 001a 10BD     		pop	{r4, pc}
 1158              	.L41:
 1159              		.loc 1 370 0
 1160 001c 40F20000 		movw	r0, #:lower16:EXTD1
 1161 0020 B4F91010 		ldrsh	r1, [r4, #16]
 1162 0024 C0F20000 		movt	r0, #:upper16:EXTD1
 1163 0028 FFF7FEFF 		bl	extChannelDisable
 1164              		.loc 1 371 0
 1165 002c 40F20000 		movw	r0, #:lower16:EXTD1
 1166 0030 B4F91810 		ldrsh	r1, [r4, #24]
 1167 0034 C0F20000 		movt	r0, #:upper16:EXTD1
 1168              		.loc 1 373 0
 1169 0038 BDE81040 		pop	{r4, lr}
 1170              		.loc 1 371 0
 1171 003c FFF7FEBF 		b	extChannelDisable
 1172              		.cfi_endproc
 1173              	.LFE78:
 1174              		.size	vexEncoderStop, .-vexEncoderStop
 1175              		.section	.text.vexEncoderStartAll,"ax",%progbits
 1176              		.align	2
 1177              		.p2align 4,,15
 1178              		.global	vexEncoderStartAll
 1179              		.thumb
 1180              		.thumb_func
 1181              		.type	vexEncoderStartAll, %function
 1182              	vexEncoderStartAll:
 1183              	.LFB79:
 1184              		.loc 1 381 0
 1185              		.cfi_startproc
 1186              		@ args = 0, pretend = 0, frame = 0
 1187              		@ frame_needed = 0, uses_anonymous_args = 0
 1188              	.LVL124:
ARM GAS  /tmp/ccVWLZ4f.s 			page 22


 1189 0000 08B5     		push	{r3, lr}
 1190              	.LCFI13:
 1191              		.cfi_def_cfa_offset 8
 1192              		.cfi_offset 14, -4
 1193              		.cfi_offset 3, -8
 1194              		.loc 1 385 0
 1195 0002 0020     		movs	r0, #0
 1196 0004 FFF7FEFF 		bl	vexEncoderStart
 1197              	.LVL125:
 1198 0008 0120     		movs	r0, #1
 1199 000a FFF7FEFF 		bl	vexEncoderStart
 1200              	.LVL126:
 1201 000e 0220     		movs	r0, #2
 1202 0010 FFF7FEFF 		bl	vexEncoderStart
 1203              	.LVL127:
 1204 0014 0320     		movs	r0, #3
 1205 0016 FFF7FEFF 		bl	vexEncoderStart
 1206              	.LVL128:
 1207 001a 0420     		movs	r0, #4
 1208              		.loc 1 386 0
 1209 001c BDE80840 		pop	{r3, lr}
 1210              		.loc 1 385 0
 1211 0020 FFF7FEBF 		b	vexEncoderStart
 1212              		.cfi_endproc
 1213              	.LFE79:
 1214              		.size	vexEncoderStartAll, .-vexEncoderStartAll
 1215 0024 AFF30080 		.section	.text.vexEncoderGet,"ax",%progbits
 1215      AFF30080 
 1215      AFF30080 
 1216              		.align	2
 1217              		.p2align 4,,15
 1218              		.global	vexEncoderGet
 1219              		.thumb
 1220              		.thumb_func
 1221              		.type	vexEncoderGet, %function
 1222              	vexEncoderGet:
 1223              	.LFB80:
 1224              		.loc 1 402 0
 1225              		.cfi_startproc
 1226              		@ args = 0, pretend = 0, frame = 0
 1227              		@ frame_needed = 0, uses_anonymous_args = 0
 1228              		@ link register save eliminated.
 1229              	.LVL129:
 1230              		.loc 1 403 0
 1231 0000 83B2     		uxth	r3, r0
 1232 0002 042B     		cmp	r3, #4
 1233 0004 0DD8     		bhi	.L45
 1234              		.loc 1 406 0
 1235 0006 40F2000C 		movw	ip, #:lower16:.LANCHOR0
 1236 000a C0EBC003 		rsb	r3, r0, r0, lsl #3
 1237 000e C0F2000C 		movt	ip, #:upper16:.LANCHOR0
 1238 0012 9800     		lsls	r0, r3, #2
 1239              	.LVL130:
 1240 0014 0CEB0002 		add	r2, ip, r0
 1241 0018 5168     		ldr	r1, [r2, #4]
 1242 001a 5CF80000 		ldr	r0, [ip, r0]
 1243 001e 401A     		subs	r0, r0, r1
ARM GAS  /tmp/ccVWLZ4f.s 			page 23


 1244 0020 7047     		bx	lr
 1245              	.LVL131:
 1246              	.L45:
 1247              		.loc 1 404 0
 1248 0022 0020     		movs	r0, #0
 1249              	.LVL132:
 1250              		.loc 1 407 0
 1251 0024 7047     		bx	lr
 1252              		.cfi_endproc
 1253              	.LFE80:
 1254              		.size	vexEncoderGet, .-vexEncoderGet
 1255 0026 00BFAFF3 		.section	.text.vexEncoderSet,"ax",%progbits
 1255      0080AFF3 
 1255      0080
 1256              		.align	2
 1257              		.p2align 4,,15
 1258              		.global	vexEncoderSet
 1259              		.thumb
 1260              		.thumb_func
 1261              		.type	vexEncoderSet, %function
 1262              	vexEncoderSet:
 1263              	.LFB81:
 1264              		.loc 1 421 0
 1265              		.cfi_startproc
 1266              		@ args = 0, pretend = 0, frame = 0
 1267              		@ frame_needed = 0, uses_anonymous_args = 0
 1268              		@ link register save eliminated.
 1269              	.LVL133:
 1270              		.loc 1 422 0
 1271 0000 83B2     		uxth	r3, r0
 1272 0002 042B     		cmp	r3, #4
 1273 0004 0CD8     		bhi	.L46
 1274              		.loc 1 425 0
 1275 0006 C0EBC000 		rsb	r0, r0, r0, lsl #3
 1276              	.LVL134:
 1277 000a 40F2000C 		movw	ip, #:lower16:.LANCHOR0
 1278 000e C0F2000C 		movt	ip, #:upper16:.LANCHOR0
 1279 0012 8300     		lsls	r3, r0, #2
 1280              	.LVL135:
 1281 0014 5CF80320 		ldr	r2, [ip, r3]
 1282 0018 0CEB0300 		add	r0, ip, r3
 1283 001c 511A     		subs	r1, r2, r1
 1284              	.LVL136:
 1285 001e 4160     		str	r1, [r0, #4]
 1286              	.L46:
 1287 0020 7047     		bx	lr
 1288              		.cfi_endproc
 1289              	.LFE81:
 1290              		.size	vexEncoderSet, .-vexEncoderSet
 1291 0022 00BFAFF3 		.section	.text.vexEncoderGetId,"ax",%progbits
 1291      0080AFF3 
 1291      0080AFF3 
 1291      0080
 1292              		.align	2
 1293              		.p2align 4,,15
 1294              		.global	vexEncoderGetId
 1295              		.thumb
ARM GAS  /tmp/ccVWLZ4f.s 			page 24


 1296              		.thumb_func
 1297              		.type	vexEncoderGetId, %function
 1298              	vexEncoderGetId:
 1299              	.LFB82:
 1300              		.loc 1 442 0
 1301              		.cfi_startproc
 1302              		@ args = 0, pretend = 0, frame = 0
 1303              		@ frame_needed = 0, uses_anonymous_args = 0
 1304              		@ link register save eliminated.
 1305              	.LVL137:
 1306              		.loc 1 443 0
 1307 0000 0428     		cmp	r0, #4
 1308              		.loc 1 447 0
 1309 0002 DFBF     		itttt	le
 1310 0004 40F20003 		movwle	r3, #:lower16:.LANCHOR0
 1311 0008 C0EBC000 		rsble	r0, r0, r0, lsl #3
 1312              	.LVL138:
 1313 000c C0F20003 		movtle	r3, #:upper16:.LANCHOR0
 1314 0010 03EB8003 		addle	r3, r3, r0, lsl #2
 1315 0014 D4BF     		ite	le
 1316 0016 93F90A00 		ldrsble	r0, [r3, #10]
 1317              		.loc 1 444 0
 1318 001a 4FF6FF70 		movwgt	r0, #65535
 1319              		.loc 1 448 0
 1320 001e 00B2     		sxth	r0, r0
 1321 0020 7047     		bx	lr
 1322              		.cfi_endproc
 1323              	.LFE82:
 1324              		.size	vexEncoderGetId, .-vexEncoderGetId
 1325 0022 00BFAFF3 		.section	.text.vexEncoderDebug,"ax",%progbits
 1325      0080AFF3 
 1325      0080AFF3 
 1325      0080
 1326              		.align	2
 1327              		.p2align 4,,15
 1328              		.global	vexEncoderDebug
 1329              		.thumb
 1330              		.thumb_func
 1331              		.type	vexEncoderDebug, %function
 1332              	vexEncoderDebug:
 1333              	.LFB83:
 1334              		.loc 1 459 0
 1335              		.cfi_startproc
 1336              		@ args = 0, pretend = 0, frame = 0
 1337              		@ frame_needed = 0, uses_anonymous_args = 0
 1338              	.LVL139:
 1339 0000 F0B5     		push	{r4, r5, r6, r7, lr}
 1340              	.LCFI14:
 1341              		.cfi_def_cfa_offset 20
 1342              		.cfi_offset 14, -4
 1343              		.cfi_offset 7, -8
 1344              		.cfi_offset 6, -12
 1345              		.cfi_offset 5, -16
 1346              		.cfi_offset 4, -20
 1347              		.loc 1 466 0
 1348 0002 40F20004 		movw	r4, #:lower16:.LANCHOR0
 1349 0006 C0F20004 		movt	r4, #:upper16:.LANCHOR0
ARM GAS  /tmp/ccVWLZ4f.s 			page 25


 1350 000a 40F20005 		movw	r5, #:lower16:.LC0
 1351 000e C0F20005 		movt	r5, #:upper16:.LC0
 1352 0012 6768     		ldr	r7, [r4, #4]
 1353              		.loc 1 459 0
 1354 0014 83B0     		sub	sp, sp, #12
 1355              	.LCFI15:
 1356              		.cfi_def_cfa_offset 32
 1357              		.loc 1 466 0
 1358 0016 2368     		ldr	r3, [r4, #0]
 1359 0018 2946     		mov	r1, r5
 1360              	.LVL140:
 1361 001a 0022     		movs	r2, #0
 1362              	.LVL141:
 1363              		.loc 1 459 0
 1364 001c 0646     		mov	r6, r0
 1365              		.loc 1 466 0
 1366 001e 0097     		str	r7, [sp, #0]
 1367 0020 FFF7FEFF 		bl	vex_chprintf
 1368              	.LVL142:
 1369 0024 276A     		ldr	r7, [r4, #32]
 1370 0026 E369     		ldr	r3, [r4, #28]
 1371 0028 2946     		mov	r1, r5
 1372 002a 0122     		movs	r2, #1
 1373 002c 3046     		mov	r0, r6
 1374 002e 0097     		str	r7, [sp, #0]
 1375 0030 FFF7FEFF 		bl	vex_chprintf
 1376              	.LVL143:
 1377 0034 E76B     		ldr	r7, [r4, #60]
 1378 0036 A36B     		ldr	r3, [r4, #56]
 1379 0038 2946     		mov	r1, r5
 1380 003a 0222     		movs	r2, #2
 1381 003c 3046     		mov	r0, r6
 1382 003e 0097     		str	r7, [sp, #0]
 1383 0040 FFF7FEFF 		bl	vex_chprintf
 1384              	.LVL144:
 1385 0044 A76D     		ldr	r7, [r4, #88]
 1386 0046 636D     		ldr	r3, [r4, #84]
 1387 0048 2946     		mov	r1, r5
 1388 004a 0322     		movs	r2, #3
 1389 004c 3046     		mov	r0, r6
 1390 004e 0097     		str	r7, [sp, #0]
 1391 0050 FFF7FEFF 		bl	vex_chprintf
 1392              	.LVL145:
 1393 0054 236F     		ldr	r3, [r4, #112]
 1394 0056 646F     		ldr	r4, [r4, #116]
 1395 0058 3046     		mov	r0, r6
 1396 005a 2946     		mov	r1, r5
 1397 005c 0422     		movs	r2, #4
 1398 005e 0094     		str	r4, [sp, #0]
 1399 0060 FFF7FEFF 		bl	vex_chprintf
 1400              	.LVL146:
 1401              		.loc 1 467 0
 1402 0064 03B0     		add	sp, sp, #12
 1403 0066 F0BD     		pop	{r4, r5, r6, r7, pc}
 1404              		.cfi_endproc
 1405              	.LFE83:
 1406              		.size	vexEncoderDebug, .-vexEncoderDebug
ARM GAS  /tmp/ccVWLZ4f.s 			page 26


 1407 0068 AFF30080 		.section	.rodata._vqe_cb_a,"a",%progbits
 1407      AFF30080 
 1408              		.align	2
 1409              		.set	.LANCHOR1,. + 0
 1410              		.type	_vqe_cb_a, %object
 1411              		.size	_vqe_cb_a, 20
 1412              	_vqe_cb_a:
 1413 0000 00000000 		.word	_vqe_1_cb_a
 1414 0004 00000000 		.word	_vqe_2_cb_a
 1415 0008 00000000 		.word	_vqe_3_cb_a
 1416 000c 00000000 		.word	_vqe_4_cb_a
 1417 0010 00000000 		.word	_vqe_5_cb_a
 1418              		.section	.rodata._vqe_cb_b,"a",%progbits
 1419              		.align	2
 1420              		.set	.LANCHOR2,. + 0
 1421              		.type	_vqe_cb_b, %object
 1422              		.size	_vqe_cb_b, 20
 1423              	_vqe_cb_b:
 1424 0000 00000000 		.word	_vqe_1_cb_b
 1425 0004 00000000 		.word	_vqe_2_cb_b
 1426 0008 00000000 		.word	_vqe_3_cb_b
 1427 000c 00000000 		.word	_vqe_4_cb_b
 1428 0010 00000000 		.word	_vqe_5_cb_b
 1429              		.section	.rodata.str1.4,"aMS",%progbits,1
 1430              		.align	2
 1431              	.LC0:
 1432 0000 45256420 		.ascii	"E%d %8ld  %8ld\015\012\000"
 1432      25386C64 
 1432      20202538 
 1432      6C640D0A 
 1432      00
 1433 0011 000000   		.section	.bss.vexQuadEncoders,"aw",%nobits
 1434              		.align	2
 1435              		.set	.LANCHOR0,. + 0
 1436              		.type	vexQuadEncoders, %object
 1437              		.size	vexQuadEncoders, 140
 1438              	vexQuadEncoders:
 1439 0000 00000000 		.space	140
 1439      00000000 
 1439      00000000 
 1439      00000000 
 1439      00000000 
 1440              		.text
 1441              	.Letext0:
 1442              		.file 2 "/opt/pros/toolchain/bin/../lib/gcc/arm-none-eabi/4.6.3/include/stddef.h"
 1443              		.file 3 "/opt/pros/toolchain/bin/../lib/gcc/arm-none-eabi/4.6.3/../../../../arm-none-eabi/include/
 1444              		.file 4 "../ChibiOS_2.6.2/os/ports/GCC/ARMCMx/chtypes.h"
 1445              		.file 5 "../ChibiOS_2.6.2/os/kernel/include/chstreams.h"
 1446              		.file 6 "../ChibiOS_2.6.2/os/hal/platforms/STM32F1xx/stm32f10x.h"
 1447              		.file 7 "../ChibiOS_2.6.2/os/hal/platforms/STM32/GPIOv1/pal_lld.h"
 1448              		.file 8 "../ChibiOS_2.6.2/os/hal/include/ext.h"
 1449              		.file 9 "../ChibiOS_2.6.2/os/hal/platforms/STM32/ext_lld.h"
 1450              		.file 10 "../convex/cortex/fw/vexcompat.h"
 1451              		.file 11 "../convex/cortex/fw/vexdigital.h"
 1452              		.file 12 "../convex/cortex/fw/vexencoder.h"
 1453              		.file 13 "../convex/cortex/fw/vexime.h"
 1454              		.file 14 "../ChibiOS_2.6.2/os/ports/common/ARMCMx/CMSIS/include/core_cm3.h"
ARM GAS  /tmp/ccVWLZ4f.s 			page 27


 1455              		.section	.debug_info,"",%progbits
 1456              	.Ldebug_info0:
 1457 0000 230F0000 		.4byte	0xf23
 1458 0004 0200     		.2byte	0x2
 1459 0006 00000000 		.4byte	.Ldebug_abbrev0
 1460 000a 04       		.byte	0x4
 1461 000b 01       		.uleb128 0x1
 1462 000c 5F040000 		.4byte	.LASF118
 1463 0010 01       		.byte	0x1
 1464 0011 76030000 		.4byte	.LASF119
 1465 0015 67050000 		.4byte	.LASF120
 1466 0019 00000000 		.4byte	0
 1467 001d 00000000 		.4byte	0
 1468 0021 E0010000 		.4byte	.Ldebug_ranges0+0x1e0
 1469 0025 00000000 		.4byte	.Ldebug_line0
 1470 0029 02       		.uleb128 0x2
 1471 002a 31000000 		.4byte	.LASF10
 1472 002e 02       		.byte	0x2
 1473 002f D4       		.byte	0xd4
 1474 0030 34000000 		.4byte	0x34
 1475 0034 03       		.uleb128 0x3
 1476 0035 04       		.byte	0x4
 1477 0036 07       		.byte	0x7
 1478 0037 8C010000 		.4byte	.LASF0
 1479 003b 03       		.uleb128 0x3
 1480 003c 01       		.byte	0x1
 1481 003d 06       		.byte	0x6
 1482 003e C6050000 		.4byte	.LASF1
 1483 0042 03       		.uleb128 0x3
 1484 0043 01       		.byte	0x1
 1485 0044 08       		.byte	0x8
 1486 0045 C9030000 		.4byte	.LASF2
 1487 0049 03       		.uleb128 0x3
 1488 004a 02       		.byte	0x2
 1489 004b 05       		.byte	0x5
 1490 004c 01040000 		.4byte	.LASF3
 1491 0050 03       		.uleb128 0x3
 1492 0051 02       		.byte	0x2
 1493 0052 07       		.byte	0x7
 1494 0053 BD010000 		.4byte	.LASF4
 1495 0057 04       		.uleb128 0x4
 1496 0058 04       		.byte	0x4
 1497 0059 05       		.byte	0x5
 1498 005a 696E7400 		.ascii	"int\000"
 1499 005e 03       		.uleb128 0x3
 1500 005f 08       		.byte	0x8
 1501 0060 05       		.byte	0x5
 1502 0061 C5000000 		.4byte	.LASF5
 1503 0065 03       		.uleb128 0x3
 1504 0066 08       		.byte	0x8
 1505 0067 07       		.byte	0x7
 1506 0068 79000000 		.4byte	.LASF6
 1507 006c 03       		.uleb128 0x3
 1508 006d 04       		.byte	0x4
 1509 006e 05       		.byte	0x5
 1510 006f F3000000 		.4byte	.LASF7
 1511 0073 05       		.uleb128 0x5
ARM GAS  /tmp/ccVWLZ4f.s 			page 28


 1512 0074 04       		.byte	0x4
 1513 0075 03       		.uleb128 0x3
 1514 0076 04       		.byte	0x4
 1515 0077 07       		.byte	0x7
 1516 0078 99010000 		.4byte	.LASF8
 1517 007c 06       		.uleb128 0x6
 1518 007d 04       		.byte	0x4
 1519 007e 82000000 		.4byte	0x82
 1520 0082 03       		.uleb128 0x3
 1521 0083 01       		.byte	0x1
 1522 0084 08       		.byte	0x8
 1523 0085 74040000 		.4byte	.LASF9
 1524 0089 02       		.uleb128 0x2
 1525 008a 8D050000 		.4byte	.LASF11
 1526 008e 03       		.byte	0x3
 1527 008f 2A       		.byte	0x2a
 1528 0090 42000000 		.4byte	0x42
 1529 0094 02       		.uleb128 0x2
 1530 0095 BD000000 		.4byte	.LASF12
 1531 0099 03       		.byte	0x3
 1532 009a 35       		.byte	0x35
 1533 009b 49000000 		.4byte	0x49
 1534 009f 02       		.uleb128 0x2
 1535 00a0 B8020000 		.4byte	.LASF13
 1536 00a4 03       		.byte	0x3
 1537 00a5 4F       		.byte	0x4f
 1538 00a6 6C000000 		.4byte	0x6c
 1539 00aa 02       		.uleb128 0x2
 1540 00ab 44040000 		.4byte	.LASF14
 1541 00af 03       		.byte	0x3
 1542 00b0 50       		.byte	0x50
 1543 00b1 75000000 		.4byte	0x75
 1544 00b5 03       		.uleb128 0x3
 1545 00b6 01       		.byte	0x1
 1546 00b7 02       		.byte	0x2
 1547 00b8 B3030000 		.4byte	.LASF15
 1548 00bc 02       		.uleb128 0x2
 1549 00bd E8010000 		.4byte	.LASF16
 1550 00c1 04       		.byte	0x4
 1551 00c2 31       		.byte	0x31
 1552 00c3 9F000000 		.4byte	0x9f
 1553 00c7 07       		.uleb128 0x7
 1554 00c8 AA000000 		.4byte	0xaa
 1555 00cc 06       		.uleb128 0x6
 1556 00cd 04       		.byte	0x4
 1557 00ce D2000000 		.4byte	0xd2
 1558 00d2 08       		.uleb128 0x8
 1559 00d3 01       		.byte	0x1
 1560 00d4 BC000000 		.4byte	0xbc
 1561 00d8 E2000000 		.4byte	0xe2
 1562 00dc 09       		.uleb128 0x9
 1563 00dd 73000000 		.4byte	0x73
 1564 00e1 00       		.byte	0
 1565 00e2 06       		.uleb128 0x6
 1566 00e3 04       		.byte	0x4
 1567 00e4 89000000 		.4byte	0x89
 1568 00e8 0A       		.uleb128 0xa
ARM GAS  /tmp/ccVWLZ4f.s 			page 29


 1569 00e9 0B040000 		.4byte	.LASF29
 1570 00ed 10       		.byte	0x10
 1571 00ee 05       		.byte	0x5
 1572 00ef 48       		.byte	0x48
 1573 00f0 2D010000 		.4byte	0x12d
 1574 00f4 0B       		.uleb128 0xb
 1575 00f5 A4020000 		.4byte	.LASF17
 1576 00f9 05       		.byte	0x5
 1577 00fa 49       		.byte	0x49
 1578 00fb 52010000 		.4byte	0x152
 1579 00ff 02       		.byte	0x2
 1580 0100 23       		.byte	0x23
 1581 0101 00       		.uleb128 0
 1582 0102 0B       		.uleb128 0xb
 1583 0103 A1050000 		.4byte	.LASF18
 1584 0107 05       		.byte	0x5
 1585 0108 49       		.byte	0x49
 1586 0109 72010000 		.4byte	0x172
 1587 010d 02       		.byte	0x2
 1588 010e 23       		.byte	0x23
 1589 010f 04       		.uleb128 0x4
 1590 0110 0C       		.uleb128 0xc
 1591 0111 70757400 		.ascii	"put\000"
 1592 0115 05       		.byte	0x5
 1593 0116 49       		.byte	0x49
 1594 0117 8D010000 		.4byte	0x18d
 1595 011b 02       		.byte	0x2
 1596 011c 23       		.byte	0x23
 1597 011d 08       		.uleb128 0x8
 1598 011e 0C       		.uleb128 0xc
 1599 011f 67657400 		.ascii	"get\000"
 1600 0123 05       		.byte	0x5
 1601 0124 49       		.byte	0x49
 1602 0125 CC000000 		.4byte	0xcc
 1603 0129 02       		.byte	0x2
 1604 012a 23       		.byte	0x23
 1605 012b 0C       		.uleb128 0xc
 1606 012c 00       		.byte	0
 1607 012d 08       		.uleb128 0x8
 1608 012e 01       		.byte	0x1
 1609 012f 29000000 		.4byte	0x29
 1610 0133 47010000 		.4byte	0x147
 1611 0137 09       		.uleb128 0x9
 1612 0138 73000000 		.4byte	0x73
 1613 013c 09       		.uleb128 0x9
 1614 013d 47010000 		.4byte	0x147
 1615 0141 09       		.uleb128 0x9
 1616 0142 29000000 		.4byte	0x29
 1617 0146 00       		.byte	0
 1618 0147 06       		.uleb128 0x6
 1619 0148 04       		.byte	0x4
 1620 0149 4D010000 		.4byte	0x14d
 1621 014d 0D       		.uleb128 0xd
 1622 014e 89000000 		.4byte	0x89
 1623 0152 06       		.uleb128 0x6
 1624 0153 04       		.byte	0x4
 1625 0154 2D010000 		.4byte	0x12d
ARM GAS  /tmp/ccVWLZ4f.s 			page 30


 1626 0158 08       		.uleb128 0x8
 1627 0159 01       		.byte	0x1
 1628 015a 29000000 		.4byte	0x29
 1629 015e 72010000 		.4byte	0x172
 1630 0162 09       		.uleb128 0x9
 1631 0163 73000000 		.4byte	0x73
 1632 0167 09       		.uleb128 0x9
 1633 0168 E2000000 		.4byte	0xe2
 1634 016c 09       		.uleb128 0x9
 1635 016d 29000000 		.4byte	0x29
 1636 0171 00       		.byte	0
 1637 0172 06       		.uleb128 0x6
 1638 0173 04       		.byte	0x4
 1639 0174 58010000 		.4byte	0x158
 1640 0178 08       		.uleb128 0x8
 1641 0179 01       		.byte	0x1
 1642 017a BC000000 		.4byte	0xbc
 1643 017e 8D010000 		.4byte	0x18d
 1644 0182 09       		.uleb128 0x9
 1645 0183 73000000 		.4byte	0x73
 1646 0187 09       		.uleb128 0x9
 1647 0188 89000000 		.4byte	0x89
 1648 018c 00       		.byte	0
 1649 018d 06       		.uleb128 0x6
 1650 018e 04       		.byte	0x4
 1651 018f 78010000 		.4byte	0x178
 1652 0193 0E       		.uleb128 0xe
 1653 0194 04       		.byte	0x4
 1654 0195 05       		.byte	0x5
 1655 0196 51       		.byte	0x51
 1656 0197 AA010000 		.4byte	0x1aa
 1657 019b 0C       		.uleb128 0xc
 1658 019c 766D7400 		.ascii	"vmt\000"
 1659 01a0 05       		.byte	0x5
 1660 01a1 53       		.byte	0x53
 1661 01a2 AA010000 		.4byte	0x1aa
 1662 01a6 02       		.byte	0x2
 1663 01a7 23       		.byte	0x23
 1664 01a8 00       		.uleb128 0
 1665 01a9 00       		.byte	0
 1666 01aa 06       		.uleb128 0x6
 1667 01ab 04       		.byte	0x4
 1668 01ac B0010000 		.4byte	0x1b0
 1669 01b0 0D       		.uleb128 0xd
 1670 01b1 E8000000 		.4byte	0xe8
 1671 01b5 02       		.uleb128 0x2
 1672 01b6 72010000 		.4byte	.LASF19
 1673 01ba 05       		.byte	0x5
 1674 01bb 55       		.byte	0x55
 1675 01bc 93010000 		.4byte	0x193
 1676 01c0 07       		.uleb128 0x7
 1677 01c1 9F000000 		.4byte	0x9f
 1678 01c5 0F       		.uleb128 0xf
 1679 01c6 1C       		.byte	0x1c
 1680 01c7 06       		.byte	0x6
 1681 01c8 F803     		.2byte	0x3f8
 1682 01ca 38020000 		.4byte	0x238
ARM GAS  /tmp/ccVWLZ4f.s 			page 31


 1683 01ce 10       		.uleb128 0x10
 1684 01cf 43524C00 		.ascii	"CRL\000"
 1685 01d3 06       		.byte	0x6
 1686 01d4 FA03     		.2byte	0x3fa
 1687 01d6 C7000000 		.4byte	0xc7
 1688 01da 02       		.byte	0x2
 1689 01db 23       		.byte	0x23
 1690 01dc 00       		.uleb128 0
 1691 01dd 10       		.uleb128 0x10
 1692 01de 43524800 		.ascii	"CRH\000"
 1693 01e2 06       		.byte	0x6
 1694 01e3 FB03     		.2byte	0x3fb
 1695 01e5 C7000000 		.4byte	0xc7
 1696 01e9 02       		.byte	0x2
 1697 01ea 23       		.byte	0x23
 1698 01eb 04       		.uleb128 0x4
 1699 01ec 10       		.uleb128 0x10
 1700 01ed 49445200 		.ascii	"IDR\000"
 1701 01f1 06       		.byte	0x6
 1702 01f2 FC03     		.2byte	0x3fc
 1703 01f4 C7000000 		.4byte	0xc7
 1704 01f8 02       		.byte	0x2
 1705 01f9 23       		.byte	0x23
 1706 01fa 08       		.uleb128 0x8
 1707 01fb 10       		.uleb128 0x10
 1708 01fc 4F445200 		.ascii	"ODR\000"
 1709 0200 06       		.byte	0x6
 1710 0201 FD03     		.2byte	0x3fd
 1711 0203 C7000000 		.4byte	0xc7
 1712 0207 02       		.byte	0x2
 1713 0208 23       		.byte	0x23
 1714 0209 0C       		.uleb128 0xc
 1715 020a 11       		.uleb128 0x11
 1716 020b D8000000 		.4byte	.LASF20
 1717 020f 06       		.byte	0x6
 1718 0210 FE03     		.2byte	0x3fe
 1719 0212 C7000000 		.4byte	0xc7
 1720 0216 02       		.byte	0x2
 1721 0217 23       		.byte	0x23
 1722 0218 10       		.uleb128 0x10
 1723 0219 10       		.uleb128 0x10
 1724 021a 42525200 		.ascii	"BRR\000"
 1725 021e 06       		.byte	0x6
 1726 021f FF03     		.2byte	0x3ff
 1727 0221 C7000000 		.4byte	0xc7
 1728 0225 02       		.byte	0x2
 1729 0226 23       		.byte	0x23
 1730 0227 14       		.uleb128 0x14
 1731 0228 11       		.uleb128 0x11
 1732 0229 B8010000 		.4byte	.LASF21
 1733 022d 06       		.byte	0x6
 1734 022e 0004     		.2byte	0x400
 1735 0230 C7000000 		.4byte	0xc7
 1736 0234 02       		.byte	0x2
 1737 0235 23       		.byte	0x23
 1738 0236 18       		.uleb128 0x18
 1739 0237 00       		.byte	0
ARM GAS  /tmp/ccVWLZ4f.s 			page 32


 1740 0238 12       		.uleb128 0x12
 1741 0239 AB010000 		.4byte	.LASF22
 1742 023d 06       		.byte	0x6
 1743 023e 0104     		.2byte	0x401
 1744 0240 C5010000 		.4byte	0x1c5
 1745 0244 02       		.uleb128 0x2
 1746 0245 16050000 		.4byte	.LASF23
 1747 0249 07       		.byte	0x7
 1748 024a 7A       		.byte	0x7a
 1749 024b 4F020000 		.4byte	0x24f
 1750 024f 06       		.uleb128 0x6
 1751 0250 04       		.byte	0x4
 1752 0251 38020000 		.4byte	0x238
 1753 0255 13       		.uleb128 0x13
 1754 0256 01       		.byte	0x1
 1755 0257 08       		.byte	0x8
 1756 0258 4A       		.byte	0x4a
 1757 0259 70020000 		.4byte	0x270
 1758 025d 14       		.uleb128 0x14
 1759 025e 5A030000 		.4byte	.LASF24
 1760 0262 00       		.sleb128 0
 1761 0263 14       		.uleb128 0x14
 1762 0264 6B040000 		.4byte	.LASF25
 1763 0268 01       		.sleb128 1
 1764 0269 14       		.uleb128 0x14
 1765 026a 88020000 		.4byte	.LASF26
 1766 026e 02       		.sleb128 2
 1767 026f 00       		.byte	0
 1768 0270 02       		.uleb128 0x2
 1769 0271 E4020000 		.4byte	.LASF27
 1770 0275 08       		.byte	0x8
 1771 0276 4E       		.byte	0x4e
 1772 0277 55020000 		.4byte	0x255
 1773 027b 02       		.uleb128 0x2
 1774 027c 83050000 		.4byte	.LASF28
 1775 0280 08       		.byte	0x8
 1776 0281 53       		.byte	0x53
 1777 0282 86020000 		.4byte	0x286
 1778 0286 0A       		.uleb128 0xa
 1779 0287 83050000 		.4byte	.LASF28
 1780 028b 08       		.byte	0x8
 1781 028c 09       		.byte	0x9
 1782 028d 71       		.byte	0x71
 1783 028e AF020000 		.4byte	0x2af
 1784 0292 0B       		.uleb128 0xb
 1785 0293 E4000000 		.4byte	.LASF30
 1786 0297 09       		.byte	0x9
 1787 0298 75       		.byte	0x75
 1788 0299 70020000 		.4byte	0x270
 1789 029d 02       		.byte	0x2
 1790 029e 23       		.byte	0x23
 1791 029f 00       		.uleb128 0
 1792 02a0 0B       		.uleb128 0xb
 1793 02a1 B1040000 		.4byte	.LASF31
 1794 02a5 09       		.byte	0x9
 1795 02a6 79       		.byte	0x79
 1796 02a7 43030000 		.4byte	0x343
ARM GAS  /tmp/ccVWLZ4f.s 			page 33


 1797 02ab 02       		.byte	0x2
 1798 02ac 23       		.byte	0x23
 1799 02ad 04       		.uleb128 0x4
 1800 02ae 00       		.byte	0
 1801 02af 02       		.uleb128 0x2
 1802 02b0 38000000 		.4byte	.LASF32
 1803 02b4 09       		.byte	0x9
 1804 02b5 47       		.byte	0x47
 1805 02b6 AA000000 		.4byte	0xaa
 1806 02ba 02       		.uleb128 0x2
 1807 02bb D4040000 		.4byte	.LASF33
 1808 02bf 09       		.byte	0x9
 1809 02c0 4F       		.byte	0x4f
 1810 02c1 C5020000 		.4byte	0x2c5
 1811 02c5 06       		.uleb128 0x6
 1812 02c6 04       		.byte	0x4
 1813 02c7 CB020000 		.4byte	0x2cb
 1814 02cb 15       		.uleb128 0x15
 1815 02cc 01       		.byte	0x1
 1816 02cd DC020000 		.4byte	0x2dc
 1817 02d1 09       		.uleb128 0x9
 1818 02d2 DC020000 		.4byte	0x2dc
 1819 02d6 09       		.uleb128 0x9
 1820 02d7 AF020000 		.4byte	0x2af
 1821 02db 00       		.byte	0
 1822 02dc 06       		.uleb128 0x6
 1823 02dd 04       		.byte	0x4
 1824 02de 7B020000 		.4byte	0x27b
 1825 02e2 0E       		.uleb128 0xe
 1826 02e3 08       		.byte	0x8
 1827 02e4 09       		.byte	0x9
 1828 02e5 54       		.byte	0x54
 1829 02e6 06030000 		.4byte	0x306
 1830 02ea 0B       		.uleb128 0xb
 1831 02eb 87010000 		.4byte	.LASF34
 1832 02ef 09       		.byte	0x9
 1833 02f0 58       		.byte	0x58
 1834 02f1 AA000000 		.4byte	0xaa
 1835 02f5 02       		.byte	0x2
 1836 02f6 23       		.byte	0x23
 1837 02f7 00       		.uleb128 0
 1838 02f8 0C       		.uleb128 0xc
 1839 02f9 636200   		.ascii	"cb\000"
 1840 02fc 09       		.byte	0x9
 1841 02fd 5F       		.byte	0x5f
 1842 02fe BA020000 		.4byte	0x2ba
 1843 0302 02       		.byte	0x2
 1844 0303 23       		.byte	0x23
 1845 0304 04       		.uleb128 0x4
 1846 0305 00       		.byte	0
 1847 0306 02       		.uleb128 0x2
 1848 0307 2A010000 		.4byte	.LASF35
 1849 030b 09       		.byte	0x9
 1850 030c 60       		.byte	0x60
 1851 030d E2020000 		.4byte	0x2e2
 1852 0311 0E       		.uleb128 0xe
 1853 0312 98       		.byte	0x98
ARM GAS  /tmp/ccVWLZ4f.s 			page 34


 1854 0313 09       		.byte	0x9
 1855 0314 66       		.byte	0x66
 1856 0315 28030000 		.4byte	0x328
 1857 0319 0B       		.uleb128 0xb
 1858 031a EA000000 		.4byte	.LASF36
 1859 031e 09       		.byte	0x9
 1860 031f 6A       		.byte	0x6a
 1861 0320 28030000 		.4byte	0x328
 1862 0324 02       		.byte	0x2
 1863 0325 23       		.byte	0x23
 1864 0326 00       		.uleb128 0
 1865 0327 00       		.byte	0
 1866 0328 16       		.uleb128 0x16
 1867 0329 06030000 		.4byte	0x306
 1868 032d 38030000 		.4byte	0x338
 1869 0331 17       		.uleb128 0x17
 1870 0332 34000000 		.4byte	0x34
 1871 0336 12       		.byte	0x12
 1872 0337 00       		.byte	0
 1873 0338 02       		.uleb128 0x2
 1874 0339 DE010000 		.4byte	.LASF37
 1875 033d 09       		.byte	0x9
 1876 033e 6C       		.byte	0x6c
 1877 033f 11030000 		.4byte	0x311
 1878 0343 06       		.uleb128 0x6
 1879 0344 04       		.byte	0x4
 1880 0345 49030000 		.4byte	0x349
 1881 0349 0D       		.uleb128 0xd
 1882 034a 38030000 		.4byte	0x338
 1883 034e 02       		.uleb128 0x2
 1884 034f 33050000 		.4byte	.LASF38
 1885 0353 0A       		.byte	0xa
 1886 0354 39       		.byte	0x39
 1887 0355 B5010000 		.4byte	0x1b5
 1888 0359 13       		.uleb128 0x13
 1889 035a 01       		.byte	0x1
 1890 035b 0B       		.byte	0xb
 1891 035c 8D       		.byte	0x8d
 1892 035d B6030000 		.4byte	0x3b6
 1893 0361 14       		.uleb128 0x14
 1894 0362 65030000 		.4byte	.LASF39
 1895 0366 7F       		.sleb128 -1
 1896 0367 14       		.uleb128 0x14
 1897 0368 00020000 		.4byte	.LASF40
 1898 036c 00       		.sleb128 0
 1899 036d 14       		.uleb128 0x14
 1900 036e 0E020000 		.4byte	.LASF41
 1901 0372 01       		.sleb128 1
 1902 0373 14       		.uleb128 0x14
 1903 0374 1C020000 		.4byte	.LASF42
 1904 0378 02       		.sleb128 2
 1905 0379 14       		.uleb128 0x14
 1906 037a 2A020000 		.4byte	.LASF43
 1907 037e 03       		.sleb128 3
 1908 037f 14       		.uleb128 0x14
 1909 0380 38020000 		.4byte	.LASF44
 1910 0384 04       		.sleb128 4
ARM GAS  /tmp/ccVWLZ4f.s 			page 35


 1911 0385 14       		.uleb128 0x14
 1912 0386 46020000 		.4byte	.LASF45
 1913 038a 05       		.sleb128 5
 1914 038b 14       		.uleb128 0x14
 1915 038c 54020000 		.4byte	.LASF46
 1916 0390 06       		.sleb128 6
 1917 0391 14       		.uleb128 0x14
 1918 0392 62020000 		.4byte	.LASF47
 1919 0396 07       		.sleb128 7
 1920 0397 14       		.uleb128 0x14
 1921 0398 1C010000 		.4byte	.LASF48
 1922 039c 08       		.sleb128 8
 1923 039d 14       		.uleb128 0x14
 1924 039e E2040000 		.4byte	.LASF49
 1925 03a2 09       		.sleb128 9
 1926 03a3 14       		.uleb128 0x14
 1927 03a4 F1040000 		.4byte	.LASF50
 1928 03a8 0A       		.sleb128 10
 1929 03a9 14       		.uleb128 0x14
 1930 03aa 00050000 		.4byte	.LASF51
 1931 03ae 0B       		.sleb128 11
 1932 03af 14       		.uleb128 0x14
 1933 03b0 90000000 		.4byte	.LASF52
 1934 03b4 0C       		.sleb128 12
 1935 03b5 00       		.byte	0
 1936 03b6 02       		.uleb128 0x2
 1937 03b7 FA050000 		.4byte	.LASF53
 1938 03bb 0B       		.byte	0xb
 1939 03bc 9D       		.byte	0x9d
 1940 03bd 59030000 		.4byte	0x359
 1941 03c1 13       		.uleb128 0x13
 1942 03c2 01       		.byte	0x1
 1943 03c3 0B       		.byte	0xb
 1944 03c4 A2       		.byte	0xa2
 1945 03c5 D6030000 		.4byte	0x3d6
 1946 03c9 14       		.uleb128 0x14
 1947 03ca E9050000 		.4byte	.LASF54
 1948 03ce 00       		.sleb128 0
 1949 03cf 14       		.uleb128 0x14
 1950 03d0 67000000 		.4byte	.LASF55
 1951 03d4 01       		.sleb128 1
 1952 03d5 00       		.byte	0
 1953 03d6 02       		.uleb128 0x2
 1954 03d7 0C010000 		.4byte	.LASF56
 1955 03db 0B       		.byte	0xb
 1956 03dc A5       		.byte	0xa5
 1957 03dd C1030000 		.4byte	0x3c1
 1958 03e1 0A       		.uleb128 0xa
 1959 03e2 2B040000 		.4byte	.LASF57
 1960 03e6 0C       		.byte	0xc
 1961 03e7 0B       		.byte	0xb
 1962 03e8 B2       		.byte	0xb2
 1963 03e9 26040000 		.4byte	0x426
 1964 03ed 0B       		.uleb128 0xb
 1965 03ee 67010000 		.4byte	.LASF58
 1966 03f2 0B       		.byte	0xb
 1967 03f3 B3       		.byte	0xb3
ARM GAS  /tmp/ccVWLZ4f.s 			page 36


 1968 03f4 44020000 		.4byte	0x244
 1969 03f8 02       		.byte	0x2
 1970 03f9 23       		.byte	0x23
 1971 03fa 00       		.uleb128 0
 1972 03fb 0C       		.uleb128 0xc
 1973 03fc 70616400 		.ascii	"pad\000"
 1974 0400 0B       		.byte	0xb
 1975 0401 B4       		.byte	0xb4
 1976 0402 94000000 		.4byte	0x94
 1977 0406 02       		.byte	0x2
 1978 0407 23       		.byte	0x23
 1979 0408 04       		.uleb128 0x4
 1980 0409 0B       		.uleb128 0xb
 1981 040a 87010000 		.4byte	.LASF34
 1982 040e 0B       		.byte	0xb
 1983 040f B5       		.byte	0xb5
 1984 0410 D6030000 		.4byte	0x3d6
 1985 0414 02       		.byte	0x2
 1986 0415 23       		.byte	0x23
 1987 0416 06       		.uleb128 0x6
 1988 0417 0B       		.uleb128 0xb
 1989 0418 3B010000 		.4byte	.LASF59
 1990 041c 0B       		.byte	0xb
 1991 041d B6       		.byte	0xb6
 1992 041e 9F000000 		.4byte	0x9f
 1993 0422 02       		.byte	0x2
 1994 0423 23       		.byte	0x23
 1995 0424 08       		.uleb128 0x8
 1996 0425 00       		.byte	0
 1997 0426 02       		.uleb128 0x2
 1998 0427 FA010000 		.4byte	.LASF60
 1999 042b 0B       		.byte	0xb
 2000 042c B7       		.byte	0xb7
 2001 042d E1030000 		.4byte	0x3e1
 2002 0431 13       		.uleb128 0x13
 2003 0432 01       		.byte	0x1
 2004 0433 0C       		.byte	0xc
 2005 0434 39       		.byte	0x39
 2006 0435 5E040000 		.4byte	0x45e
 2007 0439 14       		.uleb128 0x14
 2008 043a 32040000 		.4byte	.LASF61
 2009 043e 00       		.sleb128 0
 2010 043f 14       		.uleb128 0x14
 2011 0440 C0020000 		.4byte	.LASF62
 2012 0444 01       		.sleb128 1
 2013 0445 14       		.uleb128 0x14
 2014 0446 D2020000 		.4byte	.LASF63
 2015 044a 02       		.sleb128 2
 2016 044b 14       		.uleb128 0x14
 2017 044c 4D040000 		.4byte	.LASF64
 2018 0450 03       		.sleb128 3
 2019 0451 14       		.uleb128 0x14
 2020 0452 EF020000 		.4byte	.LASF65
 2021 0456 04       		.sleb128 4
 2022 0457 14       		.uleb128 0x14
 2023 0458 06000000 		.4byte	.LASF66
 2024 045c 05       		.sleb128 5
ARM GAS  /tmp/ccVWLZ4f.s 			page 37


 2025 045d 00       		.byte	0
 2026 045e 02       		.uleb128 0x2
 2027 045f 50050000 		.4byte	.LASF67
 2028 0463 0C       		.byte	0xc
 2029 0464 41       		.byte	0x41
 2030 0465 31040000 		.4byte	0x431
 2031 0469 0A       		.uleb128 0xa
 2032 046a 21050000 		.4byte	.LASF68
 2033 046e 1C       		.byte	0x1c
 2034 046f 0C       		.byte	0xc
 2035 0470 4C       		.byte	0x4c
 2036 0471 F2040000 		.4byte	0x4f2
 2037 0475 0B       		.uleb128 0xb
 2038 0476 00000000 		.4byte	.LASF69
 2039 047a 0C       		.byte	0xc
 2040 047b 4D       		.byte	0x4d
 2041 047c C0010000 		.4byte	0x1c0
 2042 0480 02       		.byte	0x2
 2043 0481 23       		.byte	0x23
 2044 0482 00       		.uleb128 0
 2045 0483 0B       		.uleb128 0xb
 2046 0484 0F050000 		.4byte	.LASF70
 2047 0488 0C       		.byte	0xc
 2048 0489 4E       		.byte	0x4e
 2049 048a 9F000000 		.4byte	0x9f
 2050 048e 02       		.byte	0x2
 2051 048f 23       		.byte	0x23
 2052 0490 04       		.uleb128 0x4
 2053 0491 0B       		.uleb128 0xb
 2054 0492 E4000000 		.4byte	.LASF30
 2055 0496 0C       		.byte	0xc
 2056 0497 4F       		.byte	0x4f
 2057 0498 94000000 		.4byte	0x94
 2058 049c 02       		.byte	0x2
 2059 049d 23       		.byte	0x23
 2060 049e 08       		.uleb128 0x8
 2061 049f 0C       		.uleb128 0xc
 2062 04a0 706100   		.ascii	"pa\000"
 2063 04a3 0C       		.byte	0xc
 2064 04a4 50       		.byte	0x50
 2065 04a5 B6030000 		.4byte	0x3b6
 2066 04a9 02       		.byte	0x2
 2067 04aa 23       		.byte	0x23
 2068 04ab 0A       		.uleb128 0xa
 2069 04ac 0C       		.uleb128 0xc
 2070 04ad 706200   		.ascii	"pb\000"
 2071 04b0 0C       		.byte	0xc
 2072 04b1 51       		.byte	0x51
 2073 04b2 B6030000 		.4byte	0x3b6
 2074 04b6 02       		.byte	0x2
 2075 04b7 23       		.byte	0x23
 2076 04b8 0B       		.uleb128 0xb
 2077 04b9 0B       		.uleb128 0xb
 2078 04ba 1A000000 		.4byte	.LASF71
 2079 04be 0C       		.byte	0xc
 2080 04bf 52       		.byte	0x52
 2081 04c0 44020000 		.4byte	0x244
ARM GAS  /tmp/ccVWLZ4f.s 			page 38


 2082 04c4 02       		.byte	0x2
 2083 04c5 23       		.byte	0x23
 2084 04c6 0C       		.uleb128 0xc
 2085 04c7 0B       		.uleb128 0xb
 2086 04c8 19030000 		.4byte	.LASF72
 2087 04cc 0C       		.byte	0xc
 2088 04cd 53       		.byte	0x53
 2089 04ce 94000000 		.4byte	0x94
 2090 04d2 02       		.byte	0x2
 2091 04d3 23       		.byte	0x23
 2092 04d4 10       		.uleb128 0x10
 2093 04d5 0B       		.uleb128 0xb
 2094 04d6 70020000 		.4byte	.LASF73
 2095 04da 0C       		.byte	0xc
 2096 04db 54       		.byte	0x54
 2097 04dc 44020000 		.4byte	0x244
 2098 04e0 02       		.byte	0x2
 2099 04e1 23       		.byte	0x23
 2100 04e2 14       		.uleb128 0x14
 2101 04e3 0B       		.uleb128 0xb
 2102 04e4 DD000000 		.4byte	.LASF74
 2103 04e8 0C       		.byte	0xc
 2104 04e9 55       		.byte	0x55
 2105 04ea 94000000 		.4byte	0x94
 2106 04ee 02       		.byte	0x2
 2107 04ef 23       		.byte	0x23
 2108 04f0 18       		.uleb128 0x18
 2109 04f1 00       		.byte	0
 2110 04f2 02       		.uleb128 0x2
 2111 04f3 93020000 		.4byte	.LASF75
 2112 04f7 0C       		.byte	0xc
 2113 04f8 56       		.byte	0x56
 2114 04f9 69040000 		.4byte	0x469
 2115 04fd 13       		.uleb128 0x13
 2116 04fe 01       		.byte	0x1
 2117 04ff 0D       		.byte	0xd
 2118 0500 46       		.byte	0x46
 2119 0501 43050000 		.4byte	0x543
 2120 0505 14       		.uleb128 0x14
 2121 0506 97030000 		.4byte	.LASF76
 2122 050a 00       		.sleb128 0
 2123 050b 14       		.uleb128 0x14
 2124 050c 79040000 		.4byte	.LASF77
 2125 0510 01       		.sleb128 1
 2126 0511 14       		.uleb128 0x14
 2127 0512 87040000 		.4byte	.LASF78
 2128 0516 02       		.sleb128 2
 2129 0517 14       		.uleb128 0x14
 2130 0518 95040000 		.4byte	.LASF79
 2131 051c 03       		.sleb128 3
 2132 051d 14       		.uleb128 0x14
 2133 051e A3040000 		.4byte	.LASF80
 2134 0522 04       		.sleb128 4
 2135 0523 14       		.uleb128 0x14
 2136 0524 A5030000 		.4byte	.LASF81
 2137 0528 05       		.sleb128 5
 2138 0529 14       		.uleb128 0x14
ARM GAS  /tmp/ccVWLZ4f.s 			page 39


 2139 052a B8040000 		.4byte	.LASF82
 2140 052e 06       		.sleb128 6
 2141 052f 14       		.uleb128 0x14
 2142 0530 C6040000 		.4byte	.LASF83
 2143 0534 07       		.sleb128 7
 2144 0535 14       		.uleb128 0x14
 2145 0536 5D010000 		.4byte	.LASF84
 2146 053a 08       		.sleb128 8
 2147 053b 14       		.uleb128 0x14
 2148 053c F1030000 		.4byte	.LASF85
 2149 0540 E300     		.sleb128 99
 2150 0542 00       		.byte	0
 2151 0543 06       		.uleb128 0x6
 2152 0544 04       		.byte	0x4
 2153 0545 4E030000 		.4byte	0x34e
 2154 0549 06       		.uleb128 0x6
 2155 054a 04       		.byte	0x4
 2156 054b 7C000000 		.4byte	0x7c
 2157 054f 18       		.uleb128 0x18
 2158 0550 20030000 		.4byte	.LASF88
 2159 0554 01       		.byte	0x1
 2160 0555 49       		.byte	0x49
 2161 0556 01       		.byte	0x1
 2162 0557 03       		.byte	0x3
 2163 0558 7C050000 		.4byte	0x57c
 2164 055c 19       		.uleb128 0x19
 2165 055d 656E6300 		.ascii	"enc\000"
 2166 0561 01       		.byte	0x1
 2167 0562 49       		.byte	0x49
 2168 0563 7C050000 		.4byte	0x57c
 2169 0567 1A       		.uleb128 0x1a
 2170 0568 706100   		.ascii	"pa\000"
 2171 056b 01       		.byte	0x1
 2172 056c 4B       		.byte	0x4b
 2173 056d 94000000 		.4byte	0x94
 2174 0571 1A       		.uleb128 0x1a
 2175 0572 706200   		.ascii	"pb\000"
 2176 0575 01       		.byte	0x1
 2177 0576 4C       		.byte	0x4c
 2178 0577 94000000 		.4byte	0x94
 2179 057b 00       		.byte	0
 2180 057c 06       		.uleb128 0x6
 2181 057d 04       		.byte	0x4
 2182 057e F2040000 		.4byte	0x4f2
 2183 0582 1B       		.uleb128 0x1b
 2184 0583 4F000000 		.4byte	.LASF90
 2185 0587 01       		.byte	0x1
 2186 0588 ED       		.byte	0xed
 2187 0589 01       		.byte	0x1
 2188 058a 00000000 		.4byte	.LFB73
 2189 058e 4C000000 		.4byte	.LFE73
 2190 0592 00000000 		.4byte	.LLST0
 2191 0596 35060000 		.4byte	0x635
 2192 059a 1C       		.uleb128 0x1c
 2193 059b D3000000 		.4byte	.LASF86
 2194 059f 01       		.byte	0x1
 2195 05a0 ED       		.byte	0xed
ARM GAS  /tmp/ccVWLZ4f.s 			page 40


 2196 05a1 DC020000 		.4byte	0x2dc
 2197 05a5 20000000 		.4byte	.LLST1
 2198 05a9 1C       		.uleb128 0x1c
 2199 05aa 23040000 		.4byte	.LASF87
 2200 05ae 01       		.byte	0x1
 2201 05af ED       		.byte	0xed
 2202 05b0 AF020000 		.4byte	0x2af
 2203 05b4 33000000 		.4byte	.LLST2
 2204 05b8 1D       		.uleb128 0x1d
 2205 05b9 02000000 		.4byte	.LBB6
 2206 05bd 08000000 		.4byte	.LBE6
 2207 05c1 D5050000 		.4byte	0x5d5
 2208 05c5 1E       		.uleb128 0x1e
 2209 05c6 746D7000 		.ascii	"tmp\000"
 2210 05ca 01       		.byte	0x1
 2211 05cb F2       		.byte	0xf2
 2212 05cc AA000000 		.4byte	0xaa
 2213 05d0 46000000 		.4byte	.LLST3
 2214 05d4 00       		.byte	0
 2215 05d5 1F       		.uleb128 0x1f
 2216 05d6 4F050000 		.4byte	0x54f
 2217 05da 08000000 		.4byte	.LBB7
 2218 05de 00000000 		.4byte	.Ldebug_ranges0+0
 2219 05e2 01       		.byte	0x1
 2220 05e3 F5       		.byte	0xf5
 2221 05e4 1B060000 		.4byte	0x61b
 2222 05e8 20       		.uleb128 0x20
 2223 05e9 5C050000 		.4byte	0x55c
 2224 05ed 06       		.byte	0x6
 2225 05ee 03       		.byte	0x3
 2226 05ef 70000000 		.4byte	vexQuadEncoders+112
 2227 05f3 9F       		.byte	0x9f
 2228 05f4 21       		.uleb128 0x21
 2229 05f5 18000000 		.4byte	.Ldebug_ranges0+0x18
 2230 05f9 22       		.uleb128 0x22
 2231 05fa 67050000 		.4byte	0x567
 2232 05fe 11       		.byte	0x11
 2233 05ff 74       		.byte	0x74
 2234 0600 00       		.sleb128 0
 2235 0601 03       		.byte	0x3
 2236 0602 80000000 		.4byte	vexQuadEncoders+128
 2237 0606 94       		.byte	0x94
 2238 0607 02       		.byte	0x2
 2239 0608 40       		.byte	0x40
 2240 0609 24       		.byte	0x24
 2241 060a 40       		.byte	0x40
 2242 060b 26       		.byte	0x26
 2243 060c 25       		.byte	0x25
 2244 060d 31       		.byte	0x31
 2245 060e 1A       		.byte	0x1a
 2246 060f 9F       		.byte	0x9f
 2247 0610 23       		.uleb128 0x23
 2248 0611 71050000 		.4byte	0x571
 2249 0615 59000000 		.4byte	.LLST4
 2250 0619 00       		.byte	0
 2251 061a 00       		.byte	0
 2252 061b 24       		.uleb128 0x24
ARM GAS  /tmp/ccVWLZ4f.s 			page 41


 2253 061c 3C000000 		.4byte	.LBB10
 2254 0620 42000000 		.4byte	.LBE10
 2255 0624 1E       		.uleb128 0x1e
 2256 0625 746D7000 		.ascii	"tmp\000"
 2257 0629 01       		.byte	0x1
 2258 062a F7       		.byte	0xf7
 2259 062b AA000000 		.4byte	0xaa
 2260 062f 7C000000 		.4byte	.LLST5
 2261 0633 00       		.byte	0
 2262 0634 00       		.byte	0
 2263 0635 18       		.uleb128 0x18
 2264 0636 36030000 		.4byte	.LASF89
 2265 063a 01       		.byte	0x1
 2266 063b 5A       		.byte	0x5a
 2267 063c 01       		.byte	0x1
 2268 063d 03       		.byte	0x3
 2269 063e 62060000 		.4byte	0x662
 2270 0642 19       		.uleb128 0x19
 2271 0643 656E6300 		.ascii	"enc\000"
 2272 0647 01       		.byte	0x1
 2273 0648 5A       		.byte	0x5a
 2274 0649 7C050000 		.4byte	0x57c
 2275 064d 1A       		.uleb128 0x1a
 2276 064e 706100   		.ascii	"pa\000"
 2277 0651 01       		.byte	0x1
 2278 0652 5C       		.byte	0x5c
 2279 0653 94000000 		.4byte	0x94
 2280 0657 1A       		.uleb128 0x1a
 2281 0658 706200   		.ascii	"pb\000"
 2282 065b 01       		.byte	0x1
 2283 065c 5D       		.byte	0x5d
 2284 065d 94000000 		.4byte	0x94
 2285 0661 00       		.byte	0
 2286 0662 1B       		.uleb128 0x1b
 2287 0663 5B000000 		.4byte	.LASF91
 2288 0667 01       		.byte	0x1
 2289 0668 FE       		.byte	0xfe
 2290 0669 01       		.byte	0x1
 2291 066a 00000000 		.4byte	.LFB74
 2292 066e 4C000000 		.4byte	.LFE74
 2293 0672 8F000000 		.4byte	.LLST6
 2294 0676 18070000 		.4byte	0x718
 2295 067a 1C       		.uleb128 0x1c
 2296 067b D3000000 		.4byte	.LASF86
 2297 067f 01       		.byte	0x1
 2298 0680 FE       		.byte	0xfe
 2299 0681 DC020000 		.4byte	0x2dc
 2300 0685 AF000000 		.4byte	.LLST7
 2301 0689 1C       		.uleb128 0x1c
 2302 068a 23040000 		.4byte	.LASF87
 2303 068e 01       		.byte	0x1
 2304 068f FE       		.byte	0xfe
 2305 0690 AF020000 		.4byte	0x2af
 2306 0694 C2000000 		.4byte	.LLST8
 2307 0698 1D       		.uleb128 0x1d
 2308 0699 02000000 		.4byte	.LBB16
 2309 069d 08000000 		.4byte	.LBE16
ARM GAS  /tmp/ccVWLZ4f.s 			page 42


 2310 06a1 B6060000 		.4byte	0x6b6
 2311 06a5 25       		.uleb128 0x25
 2312 06a6 746D7000 		.ascii	"tmp\000"
 2313 06aa 01       		.byte	0x1
 2314 06ab 0301     		.2byte	0x103
 2315 06ad AA000000 		.4byte	0xaa
 2316 06b1 D5000000 		.4byte	.LLST9
 2317 06b5 00       		.byte	0
 2318 06b6 26       		.uleb128 0x26
 2319 06b7 35060000 		.4byte	0x635
 2320 06bb 08000000 		.4byte	.LBB17
 2321 06bf 30000000 		.4byte	.Ldebug_ranges0+0x30
 2322 06c3 01       		.byte	0x1
 2323 06c4 0601     		.2byte	0x106
 2324 06c6 FD060000 		.4byte	0x6fd
 2325 06ca 20       		.uleb128 0x20
 2326 06cb 42060000 		.4byte	0x642
 2327 06cf 06       		.byte	0x6
 2328 06d0 03       		.byte	0x3
 2329 06d1 70000000 		.4byte	vexQuadEncoders+112
 2330 06d5 9F       		.byte	0x9f
 2331 06d6 21       		.uleb128 0x21
 2332 06d7 48000000 		.4byte	.Ldebug_ranges0+0x48
 2333 06db 22       		.uleb128 0x22
 2334 06dc 4D060000 		.4byte	0x64d
 2335 06e0 11       		.byte	0x11
 2336 06e1 74       		.byte	0x74
 2337 06e2 00       		.sleb128 0
 2338 06e3 03       		.byte	0x3
 2339 06e4 80000000 		.4byte	vexQuadEncoders+128
 2340 06e8 94       		.byte	0x94
 2341 06e9 02       		.byte	0x2
 2342 06ea 40       		.byte	0x40
 2343 06eb 24       		.byte	0x24
 2344 06ec 40       		.byte	0x40
 2345 06ed 26       		.byte	0x26
 2346 06ee 25       		.byte	0x25
 2347 06ef 31       		.byte	0x31
 2348 06f0 1A       		.byte	0x1a
 2349 06f1 9F       		.byte	0x9f
 2350 06f2 23       		.uleb128 0x23
 2351 06f3 57060000 		.4byte	0x657
 2352 06f7 E8000000 		.4byte	.LLST10
 2353 06fb 00       		.byte	0
 2354 06fc 00       		.byte	0
 2355 06fd 24       		.uleb128 0x24
 2356 06fe 3C000000 		.4byte	.LBB20
 2357 0702 42000000 		.4byte	.LBE20
 2358 0706 25       		.uleb128 0x25
 2359 0707 746D7000 		.ascii	"tmp\000"
 2360 070b 01       		.byte	0x1
 2361 070c 0801     		.2byte	0x108
 2362 070e AA000000 		.4byte	0xaa
 2363 0712 0B010000 		.4byte	.LLST11
 2364 0716 00       		.byte	0
 2365 0717 00       		.byte	0
 2366 0718 1B       		.uleb128 0x1b
ARM GAS  /tmp/ccVWLZ4f.s 			page 43


 2367 0719 45010000 		.4byte	.LASF92
 2368 071d 01       		.byte	0x1
 2369 071e 6B       		.byte	0x6b
 2370 071f 01       		.byte	0x1
 2371 0720 00000000 		.4byte	.LFB65
 2372 0724 4A000000 		.4byte	.LFE65
 2373 0728 1E010000 		.4byte	.LLST12
 2374 072c CB070000 		.4byte	0x7cb
 2375 0730 1C       		.uleb128 0x1c
 2376 0731 D3000000 		.4byte	.LASF86
 2377 0735 01       		.byte	0x1
 2378 0736 6B       		.byte	0x6b
 2379 0737 DC020000 		.4byte	0x2dc
 2380 073b 3E010000 		.4byte	.LLST13
 2381 073f 1C       		.uleb128 0x1c
 2382 0740 23040000 		.4byte	.LASF87
 2383 0744 01       		.byte	0x1
 2384 0745 6B       		.byte	0x6b
 2385 0746 AF020000 		.4byte	0x2af
 2386 074a 51010000 		.4byte	.LLST14
 2387 074e 1D       		.uleb128 0x1d
 2388 074f 02000000 		.4byte	.LBB26
 2389 0753 08000000 		.4byte	.LBE26
 2390 0757 6B070000 		.4byte	0x76b
 2391 075b 1E       		.uleb128 0x1e
 2392 075c 746D7000 		.ascii	"tmp\000"
 2393 0760 01       		.byte	0x1
 2394 0761 70       		.byte	0x70
 2395 0762 AA000000 		.4byte	0xaa
 2396 0766 64010000 		.4byte	.LLST15
 2397 076a 00       		.byte	0
 2398 076b 1F       		.uleb128 0x1f
 2399 076c 4F050000 		.4byte	0x54f
 2400 0770 08000000 		.4byte	.LBB27
 2401 0774 60000000 		.4byte	.Ldebug_ranges0+0x60
 2402 0778 01       		.byte	0x1
 2403 0779 73       		.byte	0x73
 2404 077a B1070000 		.4byte	0x7b1
 2405 077e 20       		.uleb128 0x20
 2406 077f 5C050000 		.4byte	0x55c
 2407 0783 06       		.byte	0x6
 2408 0784 03       		.byte	0x3
 2409 0785 00000000 		.4byte	vexQuadEncoders
 2410 0789 9F       		.byte	0x9f
 2411 078a 21       		.uleb128 0x21
 2412 078b 78000000 		.4byte	.Ldebug_ranges0+0x78
 2413 078f 22       		.uleb128 0x22
 2414 0790 67050000 		.4byte	0x567
 2415 0794 11       		.byte	0x11
 2416 0795 74       		.byte	0x74
 2417 0796 00       		.sleb128 0
 2418 0797 03       		.byte	0x3
 2419 0798 10000000 		.4byte	vexQuadEncoders+16
 2420 079c 94       		.byte	0x94
 2421 079d 02       		.byte	0x2
 2422 079e 40       		.byte	0x40
 2423 079f 24       		.byte	0x24
ARM GAS  /tmp/ccVWLZ4f.s 			page 44


 2424 07a0 40       		.byte	0x40
 2425 07a1 26       		.byte	0x26
 2426 07a2 25       		.byte	0x25
 2427 07a3 31       		.byte	0x31
 2428 07a4 1A       		.byte	0x1a
 2429 07a5 9F       		.byte	0x9f
 2430 07a6 23       		.uleb128 0x23
 2431 07a7 71050000 		.4byte	0x571
 2432 07ab 77010000 		.4byte	.LLST16
 2433 07af 00       		.byte	0
 2434 07b0 00       		.byte	0
 2435 07b1 24       		.uleb128 0x24
 2436 07b2 3A000000 		.4byte	.LBB30
 2437 07b6 40000000 		.4byte	.LBE30
 2438 07ba 1E       		.uleb128 0x1e
 2439 07bb 746D7000 		.ascii	"tmp\000"
 2440 07bf 01       		.byte	0x1
 2441 07c0 75       		.byte	0x75
 2442 07c1 AA000000 		.4byte	0xaa
 2443 07c5 9A010000 		.4byte	.LLST17
 2444 07c9 00       		.byte	0
 2445 07ca 00       		.byte	0
 2446 07cb 1B       		.uleb128 0x1b
 2447 07cc EE010000 		.4byte	.LASF93
 2448 07d0 01       		.byte	0x1
 2449 07d1 8D       		.byte	0x8d
 2450 07d2 01       		.byte	0x1
 2451 07d3 00000000 		.4byte	.LFB67
 2452 07d7 4A000000 		.4byte	.LFE67
 2453 07db AD010000 		.4byte	.LLST18
 2454 07df 7E080000 		.4byte	0x87e
 2455 07e3 1C       		.uleb128 0x1c
 2456 07e4 D3000000 		.4byte	.LASF86
 2457 07e8 01       		.byte	0x1
 2458 07e9 8D       		.byte	0x8d
 2459 07ea DC020000 		.4byte	0x2dc
 2460 07ee CD010000 		.4byte	.LLST19
 2461 07f2 1C       		.uleb128 0x1c
 2462 07f3 23040000 		.4byte	.LASF87
 2463 07f7 01       		.byte	0x1
 2464 07f8 8D       		.byte	0x8d
 2465 07f9 AF020000 		.4byte	0x2af
 2466 07fd E0010000 		.4byte	.LLST20
 2467 0801 1D       		.uleb128 0x1d
 2468 0802 02000000 		.4byte	.LBB36
 2469 0806 08000000 		.4byte	.LBE36
 2470 080a 1E080000 		.4byte	0x81e
 2471 080e 1E       		.uleb128 0x1e
 2472 080f 746D7000 		.ascii	"tmp\000"
 2473 0813 01       		.byte	0x1
 2474 0814 92       		.byte	0x92
 2475 0815 AA000000 		.4byte	0xaa
 2476 0819 F3010000 		.4byte	.LLST21
 2477 081d 00       		.byte	0
 2478 081e 1F       		.uleb128 0x1f
 2479 081f 4F050000 		.4byte	0x54f
 2480 0823 08000000 		.4byte	.LBB37
ARM GAS  /tmp/ccVWLZ4f.s 			page 45


 2481 0827 90000000 		.4byte	.Ldebug_ranges0+0x90
 2482 082b 01       		.byte	0x1
 2483 082c 95       		.byte	0x95
 2484 082d 64080000 		.4byte	0x864
 2485 0831 20       		.uleb128 0x20
 2486 0832 5C050000 		.4byte	0x55c
 2487 0836 06       		.byte	0x6
 2488 0837 03       		.byte	0x3
 2489 0838 1C000000 		.4byte	vexQuadEncoders+28
 2490 083c 9F       		.byte	0x9f
 2491 083d 21       		.uleb128 0x21
 2492 083e A8000000 		.4byte	.Ldebug_ranges0+0xa8
 2493 0842 22       		.uleb128 0x22
 2494 0843 67050000 		.4byte	0x567
 2495 0847 11       		.byte	0x11
 2496 0848 74       		.byte	0x74
 2497 0849 00       		.sleb128 0
 2498 084a 03       		.byte	0x3
 2499 084b 2C000000 		.4byte	vexQuadEncoders+44
 2500 084f 94       		.byte	0x94
 2501 0850 02       		.byte	0x2
 2502 0851 40       		.byte	0x40
 2503 0852 24       		.byte	0x24
 2504 0853 40       		.byte	0x40
 2505 0854 26       		.byte	0x26
 2506 0855 25       		.byte	0x25
 2507 0856 31       		.byte	0x31
 2508 0857 1A       		.byte	0x1a
 2509 0858 9F       		.byte	0x9f
 2510 0859 23       		.uleb128 0x23
 2511 085a 71050000 		.4byte	0x571
 2512 085e 06020000 		.4byte	.LLST22
 2513 0862 00       		.byte	0
 2514 0863 00       		.byte	0
 2515 0864 24       		.uleb128 0x24
 2516 0865 3A000000 		.4byte	.LBB40
 2517 0869 40000000 		.4byte	.LBE40
 2518 086d 1E       		.uleb128 0x1e
 2519 086e 746D7000 		.ascii	"tmp\000"
 2520 0872 01       		.byte	0x1
 2521 0873 97       		.byte	0x97
 2522 0874 AA000000 		.4byte	0xaa
 2523 0878 29020000 		.4byte	.LLST23
 2524 087c 00       		.byte	0
 2525 087d 00       		.byte	0
 2526 087e 1B       		.uleb128 0x1b
 2527 087f 01030000 		.4byte	.LASF94
 2528 0883 01       		.byte	0x1
 2529 0884 AF       		.byte	0xaf
 2530 0885 01       		.byte	0x1
 2531 0886 00000000 		.4byte	.LFB69
 2532 088a 4A000000 		.4byte	.LFE69
 2533 088e 3C020000 		.4byte	.LLST24
 2534 0892 31090000 		.4byte	0x931
 2535 0896 1C       		.uleb128 0x1c
 2536 0897 D3000000 		.4byte	.LASF86
 2537 089b 01       		.byte	0x1
ARM GAS  /tmp/ccVWLZ4f.s 			page 46


 2538 089c AF       		.byte	0xaf
 2539 089d DC020000 		.4byte	0x2dc
 2540 08a1 5C020000 		.4byte	.LLST25
 2541 08a5 1C       		.uleb128 0x1c
 2542 08a6 23040000 		.4byte	.LASF87
 2543 08aa 01       		.byte	0x1
 2544 08ab AF       		.byte	0xaf
 2545 08ac AF020000 		.4byte	0x2af
 2546 08b0 6F020000 		.4byte	.LLST26
 2547 08b4 1D       		.uleb128 0x1d
 2548 08b5 02000000 		.4byte	.LBB46
 2549 08b9 08000000 		.4byte	.LBE46
 2550 08bd D1080000 		.4byte	0x8d1
 2551 08c1 1E       		.uleb128 0x1e
 2552 08c2 746D7000 		.ascii	"tmp\000"
 2553 08c6 01       		.byte	0x1
 2554 08c7 B4       		.byte	0xb4
 2555 08c8 AA000000 		.4byte	0xaa
 2556 08cc 82020000 		.4byte	.LLST27
 2557 08d0 00       		.byte	0
 2558 08d1 1F       		.uleb128 0x1f
 2559 08d2 4F050000 		.4byte	0x54f
 2560 08d6 08000000 		.4byte	.LBB47
 2561 08da C0000000 		.4byte	.Ldebug_ranges0+0xc0
 2562 08de 01       		.byte	0x1
 2563 08df B7       		.byte	0xb7
 2564 08e0 17090000 		.4byte	0x917
 2565 08e4 20       		.uleb128 0x20
 2566 08e5 5C050000 		.4byte	0x55c
 2567 08e9 06       		.byte	0x6
 2568 08ea 03       		.byte	0x3
 2569 08eb 38000000 		.4byte	vexQuadEncoders+56
 2570 08ef 9F       		.byte	0x9f
 2571 08f0 21       		.uleb128 0x21
 2572 08f1 D8000000 		.4byte	.Ldebug_ranges0+0xd8
 2573 08f5 22       		.uleb128 0x22
 2574 08f6 67050000 		.4byte	0x567
 2575 08fa 11       		.byte	0x11
 2576 08fb 74       		.byte	0x74
 2577 08fc 00       		.sleb128 0
 2578 08fd 03       		.byte	0x3
 2579 08fe 48000000 		.4byte	vexQuadEncoders+72
 2580 0902 94       		.byte	0x94
 2581 0903 02       		.byte	0x2
 2582 0904 40       		.byte	0x40
 2583 0905 24       		.byte	0x24
 2584 0906 40       		.byte	0x40
 2585 0907 26       		.byte	0x26
 2586 0908 25       		.byte	0x25
 2587 0909 31       		.byte	0x31
 2588 090a 1A       		.byte	0x1a
 2589 090b 9F       		.byte	0x9f
 2590 090c 23       		.uleb128 0x23
 2591 090d 71050000 		.4byte	0x571
 2592 0911 95020000 		.4byte	.LLST28
 2593 0915 00       		.byte	0
 2594 0916 00       		.byte	0
ARM GAS  /tmp/ccVWLZ4f.s 			page 47


 2595 0917 24       		.uleb128 0x24
 2596 0918 3A000000 		.4byte	.LBB50
 2597 091c 40000000 		.4byte	.LBE50
 2598 0920 1E       		.uleb128 0x1e
 2599 0921 746D7000 		.ascii	"tmp\000"
 2600 0925 01       		.byte	0x1
 2601 0926 B9       		.byte	0xb9
 2602 0927 AA000000 		.4byte	0xaa
 2603 092b B8020000 		.4byte	.LLST29
 2604 092f 00       		.byte	0
 2605 0930 00       		.byte	0
 2606 0931 1B       		.uleb128 0x1b
 2607 0932 BA050000 		.4byte	.LASF95
 2608 0936 01       		.byte	0x1
 2609 0937 CE       		.byte	0xce
 2610 0938 01       		.byte	0x1
 2611 0939 00000000 		.4byte	.LFB71
 2612 093d 4A000000 		.4byte	.LFE71
 2613 0941 CB020000 		.4byte	.LLST30
 2614 0945 E4090000 		.4byte	0x9e4
 2615 0949 1C       		.uleb128 0x1c
 2616 094a D3000000 		.4byte	.LASF86
 2617 094e 01       		.byte	0x1
 2618 094f CE       		.byte	0xce
 2619 0950 DC020000 		.4byte	0x2dc
 2620 0954 EB020000 		.4byte	.LLST31
 2621 0958 1C       		.uleb128 0x1c
 2622 0959 23040000 		.4byte	.LASF87
 2623 095d 01       		.byte	0x1
 2624 095e CE       		.byte	0xce
 2625 095f AF020000 		.4byte	0x2af
 2626 0963 FE020000 		.4byte	.LLST32
 2627 0967 1D       		.uleb128 0x1d
 2628 0968 02000000 		.4byte	.LBB56
 2629 096c 08000000 		.4byte	.LBE56
 2630 0970 84090000 		.4byte	0x984
 2631 0974 1E       		.uleb128 0x1e
 2632 0975 746D7000 		.ascii	"tmp\000"
 2633 0979 01       		.byte	0x1
 2634 097a D3       		.byte	0xd3
 2635 097b AA000000 		.4byte	0xaa
 2636 097f 11030000 		.4byte	.LLST33
 2637 0983 00       		.byte	0
 2638 0984 1F       		.uleb128 0x1f
 2639 0985 4F050000 		.4byte	0x54f
 2640 0989 08000000 		.4byte	.LBB57
 2641 098d F0000000 		.4byte	.Ldebug_ranges0+0xf0
 2642 0991 01       		.byte	0x1
 2643 0992 D6       		.byte	0xd6
 2644 0993 CA090000 		.4byte	0x9ca
 2645 0997 20       		.uleb128 0x20
 2646 0998 5C050000 		.4byte	0x55c
 2647 099c 06       		.byte	0x6
 2648 099d 03       		.byte	0x3
 2649 099e 54000000 		.4byte	vexQuadEncoders+84
 2650 09a2 9F       		.byte	0x9f
 2651 09a3 21       		.uleb128 0x21
ARM GAS  /tmp/ccVWLZ4f.s 			page 48


 2652 09a4 08010000 		.4byte	.Ldebug_ranges0+0x108
 2653 09a8 22       		.uleb128 0x22
 2654 09a9 67050000 		.4byte	0x567
 2655 09ad 11       		.byte	0x11
 2656 09ae 74       		.byte	0x74
 2657 09af 00       		.sleb128 0
 2658 09b0 03       		.byte	0x3
 2659 09b1 64000000 		.4byte	vexQuadEncoders+100
 2660 09b5 94       		.byte	0x94
 2661 09b6 02       		.byte	0x2
 2662 09b7 40       		.byte	0x40
 2663 09b8 24       		.byte	0x24
 2664 09b9 40       		.byte	0x40
 2665 09ba 26       		.byte	0x26
 2666 09bb 25       		.byte	0x25
 2667 09bc 31       		.byte	0x31
 2668 09bd 1A       		.byte	0x1a
 2669 09be 9F       		.byte	0x9f
 2670 09bf 23       		.uleb128 0x23
 2671 09c0 71050000 		.4byte	0x571
 2672 09c4 24030000 		.4byte	.LLST34
 2673 09c8 00       		.byte	0
 2674 09c9 00       		.byte	0
 2675 09ca 24       		.uleb128 0x24
 2676 09cb 3A000000 		.4byte	.LBB60
 2677 09cf 40000000 		.4byte	.LBE60
 2678 09d3 1E       		.uleb128 0x1e
 2679 09d4 746D7000 		.ascii	"tmp\000"
 2680 09d8 01       		.byte	0x1
 2681 09d9 D8       		.byte	0xd8
 2682 09da AA000000 		.4byte	0xaa
 2683 09de 47030000 		.4byte	.LLST35
 2684 09e2 00       		.byte	0
 2685 09e3 00       		.byte	0
 2686 09e4 1B       		.uleb128 0x1b
 2687 09e5 51010000 		.4byte	.LASF96
 2688 09e9 01       		.byte	0x1
 2689 09ea 7C       		.byte	0x7c
 2690 09eb 01       		.byte	0x1
 2691 09ec 00000000 		.4byte	.LFB66
 2692 09f0 4A000000 		.4byte	.LFE66
 2693 09f4 5A030000 		.4byte	.LLST36
 2694 09f8 970A0000 		.4byte	0xa97
 2695 09fc 1C       		.uleb128 0x1c
 2696 09fd D3000000 		.4byte	.LASF86
 2697 0a01 01       		.byte	0x1
 2698 0a02 7C       		.byte	0x7c
 2699 0a03 DC020000 		.4byte	0x2dc
 2700 0a07 7A030000 		.4byte	.LLST37
 2701 0a0b 1C       		.uleb128 0x1c
 2702 0a0c 23040000 		.4byte	.LASF87
 2703 0a10 01       		.byte	0x1
 2704 0a11 7C       		.byte	0x7c
 2705 0a12 AF020000 		.4byte	0x2af
 2706 0a16 8D030000 		.4byte	.LLST38
 2707 0a1a 1D       		.uleb128 0x1d
 2708 0a1b 02000000 		.4byte	.LBB66
ARM GAS  /tmp/ccVWLZ4f.s 			page 49


 2709 0a1f 08000000 		.4byte	.LBE66
 2710 0a23 370A0000 		.4byte	0xa37
 2711 0a27 1E       		.uleb128 0x1e
 2712 0a28 746D7000 		.ascii	"tmp\000"
 2713 0a2c 01       		.byte	0x1
 2714 0a2d 81       		.byte	0x81
 2715 0a2e AA000000 		.4byte	0xaa
 2716 0a32 A0030000 		.4byte	.LLST39
 2717 0a36 00       		.byte	0
 2718 0a37 1F       		.uleb128 0x1f
 2719 0a38 35060000 		.4byte	0x635
 2720 0a3c 08000000 		.4byte	.LBB67
 2721 0a40 20010000 		.4byte	.Ldebug_ranges0+0x120
 2722 0a44 01       		.byte	0x1
 2723 0a45 84       		.byte	0x84
 2724 0a46 7D0A0000 		.4byte	0xa7d
 2725 0a4a 20       		.uleb128 0x20
 2726 0a4b 42060000 		.4byte	0x642
 2727 0a4f 06       		.byte	0x6
 2728 0a50 03       		.byte	0x3
 2729 0a51 00000000 		.4byte	vexQuadEncoders
 2730 0a55 9F       		.byte	0x9f
 2731 0a56 21       		.uleb128 0x21
 2732 0a57 38010000 		.4byte	.Ldebug_ranges0+0x138
 2733 0a5b 22       		.uleb128 0x22
 2734 0a5c 4D060000 		.4byte	0x64d
 2735 0a60 11       		.byte	0x11
 2736 0a61 74       		.byte	0x74
 2737 0a62 00       		.sleb128 0
 2738 0a63 03       		.byte	0x3
 2739 0a64 10000000 		.4byte	vexQuadEncoders+16
 2740 0a68 94       		.byte	0x94
 2741 0a69 02       		.byte	0x2
 2742 0a6a 40       		.byte	0x40
 2743 0a6b 24       		.byte	0x24
 2744 0a6c 40       		.byte	0x40
 2745 0a6d 26       		.byte	0x26
 2746 0a6e 25       		.byte	0x25
 2747 0a6f 31       		.byte	0x31
 2748 0a70 1A       		.byte	0x1a
 2749 0a71 9F       		.byte	0x9f
 2750 0a72 23       		.uleb128 0x23
 2751 0a73 57060000 		.4byte	0x657
 2752 0a77 B3030000 		.4byte	.LLST40
 2753 0a7b 00       		.byte	0
 2754 0a7c 00       		.byte	0
 2755 0a7d 24       		.uleb128 0x24
 2756 0a7e 3A000000 		.4byte	.LBB70
 2757 0a82 40000000 		.4byte	.LBE70
 2758 0a86 1E       		.uleb128 0x1e
 2759 0a87 746D7000 		.ascii	"tmp\000"
 2760 0a8b 01       		.byte	0x1
 2761 0a8c 86       		.byte	0x86
 2762 0a8d AA000000 		.4byte	0xaa
 2763 0a91 D6030000 		.4byte	.LLST41
 2764 0a95 00       		.byte	0
 2765 0a96 00       		.byte	0
ARM GAS  /tmp/ccVWLZ4f.s 			page 50


 2766 0a97 1B       		.uleb128 0x1b
 2767 0a98 D2050000 		.4byte	.LASF97
 2768 0a9c 01       		.byte	0x1
 2769 0a9d 9E       		.byte	0x9e
 2770 0a9e 01       		.byte	0x1
 2771 0a9f 00000000 		.4byte	.LFB68
 2772 0aa3 4A000000 		.4byte	.LFE68
 2773 0aa7 E9030000 		.4byte	.LLST42
 2774 0aab 4A0B0000 		.4byte	0xb4a
 2775 0aaf 1C       		.uleb128 0x1c
 2776 0ab0 D3000000 		.4byte	.LASF86
 2777 0ab4 01       		.byte	0x1
 2778 0ab5 9E       		.byte	0x9e
 2779 0ab6 DC020000 		.4byte	0x2dc
 2780 0aba 09040000 		.4byte	.LLST43
 2781 0abe 1C       		.uleb128 0x1c
 2782 0abf 23040000 		.4byte	.LASF87
 2783 0ac3 01       		.byte	0x1
 2784 0ac4 9E       		.byte	0x9e
 2785 0ac5 AF020000 		.4byte	0x2af
 2786 0ac9 1C040000 		.4byte	.LLST44
 2787 0acd 1D       		.uleb128 0x1d
 2788 0ace 02000000 		.4byte	.LBB76
 2789 0ad2 08000000 		.4byte	.LBE76
 2790 0ad6 EA0A0000 		.4byte	0xaea
 2791 0ada 1E       		.uleb128 0x1e
 2792 0adb 746D7000 		.ascii	"tmp\000"
 2793 0adf 01       		.byte	0x1
 2794 0ae0 A3       		.byte	0xa3
 2795 0ae1 AA000000 		.4byte	0xaa
 2796 0ae5 2F040000 		.4byte	.LLST45
 2797 0ae9 00       		.byte	0
 2798 0aea 1F       		.uleb128 0x1f
 2799 0aeb 35060000 		.4byte	0x635
 2800 0aef 08000000 		.4byte	.LBB77
 2801 0af3 50010000 		.4byte	.Ldebug_ranges0+0x150
 2802 0af7 01       		.byte	0x1
 2803 0af8 A6       		.byte	0xa6
 2804 0af9 300B0000 		.4byte	0xb30
 2805 0afd 20       		.uleb128 0x20
 2806 0afe 42060000 		.4byte	0x642
 2807 0b02 06       		.byte	0x6
 2808 0b03 03       		.byte	0x3
 2809 0b04 1C000000 		.4byte	vexQuadEncoders+28
 2810 0b08 9F       		.byte	0x9f
 2811 0b09 21       		.uleb128 0x21
 2812 0b0a 68010000 		.4byte	.Ldebug_ranges0+0x168
 2813 0b0e 22       		.uleb128 0x22
 2814 0b0f 4D060000 		.4byte	0x64d
 2815 0b13 11       		.byte	0x11
 2816 0b14 74       		.byte	0x74
 2817 0b15 00       		.sleb128 0
 2818 0b16 03       		.byte	0x3
 2819 0b17 2C000000 		.4byte	vexQuadEncoders+44
 2820 0b1b 94       		.byte	0x94
 2821 0b1c 02       		.byte	0x2
 2822 0b1d 40       		.byte	0x40
ARM GAS  /tmp/ccVWLZ4f.s 			page 51


 2823 0b1e 24       		.byte	0x24
 2824 0b1f 40       		.byte	0x40
 2825 0b20 26       		.byte	0x26
 2826 0b21 25       		.byte	0x25
 2827 0b22 31       		.byte	0x31
 2828 0b23 1A       		.byte	0x1a
 2829 0b24 9F       		.byte	0x9f
 2830 0b25 23       		.uleb128 0x23
 2831 0b26 57060000 		.4byte	0x657
 2832 0b2a 42040000 		.4byte	.LLST46
 2833 0b2e 00       		.byte	0
 2834 0b2f 00       		.byte	0
 2835 0b30 24       		.uleb128 0x24
 2836 0b31 3A000000 		.4byte	.LBB80
 2837 0b35 40000000 		.4byte	.LBE80
 2838 0b39 1E       		.uleb128 0x1e
 2839 0b3a 746D7000 		.ascii	"tmp\000"
 2840 0b3e 01       		.byte	0x1
 2841 0b3f A8       		.byte	0xa8
 2842 0b40 AA000000 		.4byte	0xaa
 2843 0b44 65040000 		.4byte	.LLST47
 2844 0b48 00       		.byte	0
 2845 0b49 00       		.byte	0
 2846 0b4a 1B       		.uleb128 0x1b
 2847 0b4b 0D030000 		.4byte	.LASF98
 2848 0b4f 01       		.byte	0x1
 2849 0b50 C0       		.byte	0xc0
 2850 0b51 01       		.byte	0x1
 2851 0b52 00000000 		.4byte	.LFB70
 2852 0b56 4A000000 		.4byte	.LFE70
 2853 0b5a 78040000 		.4byte	.LLST48
 2854 0b5e FD0B0000 		.4byte	0xbfd
 2855 0b62 1C       		.uleb128 0x1c
 2856 0b63 D3000000 		.4byte	.LASF86
 2857 0b67 01       		.byte	0x1
 2858 0b68 C0       		.byte	0xc0
 2859 0b69 DC020000 		.4byte	0x2dc
 2860 0b6d 98040000 		.4byte	.LLST49
 2861 0b71 1C       		.uleb128 0x1c
 2862 0b72 23040000 		.4byte	.LASF87
 2863 0b76 01       		.byte	0x1
 2864 0b77 C0       		.byte	0xc0
 2865 0b78 AF020000 		.4byte	0x2af
 2866 0b7c AB040000 		.4byte	.LLST50
 2867 0b80 1D       		.uleb128 0x1d
 2868 0b81 02000000 		.4byte	.LBB86
 2869 0b85 08000000 		.4byte	.LBE86
 2870 0b89 9D0B0000 		.4byte	0xb9d
 2871 0b8d 1E       		.uleb128 0x1e
 2872 0b8e 746D7000 		.ascii	"tmp\000"
 2873 0b92 01       		.byte	0x1
 2874 0b93 C5       		.byte	0xc5
 2875 0b94 AA000000 		.4byte	0xaa
 2876 0b98 BE040000 		.4byte	.LLST51
 2877 0b9c 00       		.byte	0
 2878 0b9d 1F       		.uleb128 0x1f
 2879 0b9e 35060000 		.4byte	0x635
ARM GAS  /tmp/ccVWLZ4f.s 			page 52


 2880 0ba2 08000000 		.4byte	.LBB87
 2881 0ba6 80010000 		.4byte	.Ldebug_ranges0+0x180
 2882 0baa 01       		.byte	0x1
 2883 0bab C8       		.byte	0xc8
 2884 0bac E30B0000 		.4byte	0xbe3
 2885 0bb0 20       		.uleb128 0x20
 2886 0bb1 42060000 		.4byte	0x642
 2887 0bb5 06       		.byte	0x6
 2888 0bb6 03       		.byte	0x3
 2889 0bb7 38000000 		.4byte	vexQuadEncoders+56
 2890 0bbb 9F       		.byte	0x9f
 2891 0bbc 21       		.uleb128 0x21
 2892 0bbd 98010000 		.4byte	.Ldebug_ranges0+0x198
 2893 0bc1 22       		.uleb128 0x22
 2894 0bc2 4D060000 		.4byte	0x64d
 2895 0bc6 11       		.byte	0x11
 2896 0bc7 74       		.byte	0x74
 2897 0bc8 00       		.sleb128 0
 2898 0bc9 03       		.byte	0x3
 2899 0bca 48000000 		.4byte	vexQuadEncoders+72
 2900 0bce 94       		.byte	0x94
 2901 0bcf 02       		.byte	0x2
 2902 0bd0 40       		.byte	0x40
 2903 0bd1 24       		.byte	0x24
 2904 0bd2 40       		.byte	0x40
 2905 0bd3 26       		.byte	0x26
 2906 0bd4 25       		.byte	0x25
 2907 0bd5 31       		.byte	0x31
 2908 0bd6 1A       		.byte	0x1a
 2909 0bd7 9F       		.byte	0x9f
 2910 0bd8 23       		.uleb128 0x23
 2911 0bd9 57060000 		.4byte	0x657
 2912 0bdd D1040000 		.4byte	.LLST52
 2913 0be1 00       		.byte	0
 2914 0be2 00       		.byte	0
 2915 0be3 24       		.uleb128 0x24
 2916 0be4 3A000000 		.4byte	.LBB90
 2917 0be8 40000000 		.4byte	.LBE90
 2918 0bec 1E       		.uleb128 0x1e
 2919 0bed 746D7000 		.ascii	"tmp\000"
 2920 0bf1 01       		.byte	0x1
 2921 0bf2 CA       		.byte	0xca
 2922 0bf3 AA000000 		.4byte	0xaa
 2923 0bf7 F4040000 		.4byte	.LLST53
 2924 0bfb 00       		.byte	0
 2925 0bfc 00       		.byte	0
 2926 0bfd 1B       		.uleb128 0x1b
 2927 0bfe 95050000 		.4byte	.LASF99
 2928 0c02 01       		.byte	0x1
 2929 0c03 DF       		.byte	0xdf
 2930 0c04 01       		.byte	0x1
 2931 0c05 00000000 		.4byte	.LFB72
 2932 0c09 4A000000 		.4byte	.LFE72
 2933 0c0d 07050000 		.4byte	.LLST54
 2934 0c11 B00C0000 		.4byte	0xcb0
 2935 0c15 1C       		.uleb128 0x1c
 2936 0c16 D3000000 		.4byte	.LASF86
ARM GAS  /tmp/ccVWLZ4f.s 			page 53


 2937 0c1a 01       		.byte	0x1
 2938 0c1b DF       		.byte	0xdf
 2939 0c1c DC020000 		.4byte	0x2dc
 2940 0c20 27050000 		.4byte	.LLST55
 2941 0c24 1C       		.uleb128 0x1c
 2942 0c25 23040000 		.4byte	.LASF87
 2943 0c29 01       		.byte	0x1
 2944 0c2a DF       		.byte	0xdf
 2945 0c2b AF020000 		.4byte	0x2af
 2946 0c2f 3A050000 		.4byte	.LLST56
 2947 0c33 1D       		.uleb128 0x1d
 2948 0c34 02000000 		.4byte	.LBB96
 2949 0c38 08000000 		.4byte	.LBE96
 2950 0c3c 500C0000 		.4byte	0xc50
 2951 0c40 1E       		.uleb128 0x1e
 2952 0c41 746D7000 		.ascii	"tmp\000"
 2953 0c45 01       		.byte	0x1
 2954 0c46 E4       		.byte	0xe4
 2955 0c47 AA000000 		.4byte	0xaa
 2956 0c4b 4D050000 		.4byte	.LLST57
 2957 0c4f 00       		.byte	0
 2958 0c50 1F       		.uleb128 0x1f
 2959 0c51 35060000 		.4byte	0x635
 2960 0c55 08000000 		.4byte	.LBB97
 2961 0c59 B0010000 		.4byte	.Ldebug_ranges0+0x1b0
 2962 0c5d 01       		.byte	0x1
 2963 0c5e E7       		.byte	0xe7
 2964 0c5f 960C0000 		.4byte	0xc96
 2965 0c63 20       		.uleb128 0x20
 2966 0c64 42060000 		.4byte	0x642
 2967 0c68 06       		.byte	0x6
 2968 0c69 03       		.byte	0x3
 2969 0c6a 54000000 		.4byte	vexQuadEncoders+84
 2970 0c6e 9F       		.byte	0x9f
 2971 0c6f 21       		.uleb128 0x21
 2972 0c70 C8010000 		.4byte	.Ldebug_ranges0+0x1c8
 2973 0c74 22       		.uleb128 0x22
 2974 0c75 4D060000 		.4byte	0x64d
 2975 0c79 11       		.byte	0x11
 2976 0c7a 74       		.byte	0x74
 2977 0c7b 00       		.sleb128 0
 2978 0c7c 03       		.byte	0x3
 2979 0c7d 64000000 		.4byte	vexQuadEncoders+100
 2980 0c81 94       		.byte	0x94
 2981 0c82 02       		.byte	0x2
 2982 0c83 40       		.byte	0x40
 2983 0c84 24       		.byte	0x24
 2984 0c85 40       		.byte	0x40
 2985 0c86 26       		.byte	0x26
 2986 0c87 25       		.byte	0x25
 2987 0c88 31       		.byte	0x31
 2988 0c89 1A       		.byte	0x1a
 2989 0c8a 9F       		.byte	0x9f
 2990 0c8b 23       		.uleb128 0x23
 2991 0c8c 57060000 		.4byte	0x657
 2992 0c90 60050000 		.4byte	.LLST58
 2993 0c94 00       		.byte	0
ARM GAS  /tmp/ccVWLZ4f.s 			page 54


 2994 0c95 00       		.byte	0
 2995 0c96 24       		.uleb128 0x24
 2996 0c97 3A000000 		.4byte	.LBB100
 2997 0c9b 40000000 		.4byte	.LBE100
 2998 0c9f 1E       		.uleb128 0x1e
 2999 0ca0 746D7000 		.ascii	"tmp\000"
 3000 0ca4 01       		.byte	0x1
 3001 0ca5 E9       		.byte	0xe9
 3002 0ca6 AA000000 		.4byte	0xaa
 3003 0caa 83050000 		.4byte	.LLST59
 3004 0cae 00       		.byte	0
 3005 0caf 00       		.byte	0
 3006 0cb0 27       		.uleb128 0x27
 3007 0cb1 01       		.byte	0x1
 3008 0cb2 AB050000 		.4byte	.LASF100
 3009 0cb6 01       		.byte	0x1
 3010 0cb7 2301     		.2byte	0x123
 3011 0cb9 01       		.byte	0x1
 3012 0cba 00000000 		.4byte	.LFB75
 3013 0cbe 30000000 		.4byte	.LFE75
 3014 0cc2 02       		.byte	0x2
 3015 0cc3 7D       		.byte	0x7d
 3016 0cc4 00       		.sleb128 0
 3017 0cc5 D80C0000 		.4byte	0xcd8
 3018 0cc9 25       		.uleb128 0x25
 3019 0cca 6300     		.ascii	"c\000"
 3020 0ccc 01       		.byte	0x1
 3021 0ccd 2501     		.2byte	0x125
 3022 0ccf 5E040000 		.4byte	0x45e
 3023 0cd3 96050000 		.4byte	.LLST60
 3024 0cd7 00       		.byte	0
 3025 0cd8 28       		.uleb128 0x28
 3026 0cd9 01       		.byte	0x1
 3027 0cda AA020000 		.4byte	.LASF101
 3028 0cde 01       		.byte	0x1
 3029 0cdf 3A01     		.2byte	0x13a
 3030 0ce1 01       		.byte	0x1
 3031 0ce2 00000000 		.4byte	.LFB76
 3032 0ce6 BA000000 		.4byte	.LFE76
 3033 0cea E6050000 		.4byte	.LLST61
 3034 0cee 210D0000 		.4byte	0xd21
 3035 0cf2 29       		.uleb128 0x29
 3036 0cf3 23040000 		.4byte	.LASF87
 3037 0cf7 01       		.byte	0x1
 3038 0cf8 3A01     		.2byte	0x13a
 3039 0cfa 5E040000 		.4byte	0x45e
 3040 0cfe 06060000 		.4byte	.LLST62
 3041 0d02 2A       		.uleb128 0x2a
 3042 0d03 706100   		.ascii	"pa\000"
 3043 0d06 01       		.byte	0x1
 3044 0d07 3A01     		.2byte	0x13a
 3045 0d09 B6030000 		.4byte	0x3b6
 3046 0d0d 19060000 		.4byte	.LLST63
 3047 0d11 2A       		.uleb128 0x2a
 3048 0d12 706200   		.ascii	"pb\000"
 3049 0d15 01       		.byte	0x1
 3050 0d16 3A01     		.2byte	0x13a
ARM GAS  /tmp/ccVWLZ4f.s 			page 55


 3051 0d18 B6030000 		.4byte	0x3b6
 3052 0d1c 2C060000 		.4byte	.LLST64
 3053 0d20 00       		.byte	0
 3054 0d21 28       		.uleb128 0x28
 3055 0d22 01       		.byte	0x1
 3056 0d23 FC000000 		.4byte	.LASF102
 3057 0d27 01       		.byte	0x1
 3058 0d28 5F01     		.2byte	0x15f
 3059 0d2a 01       		.byte	0x1
 3060 0d2b 00000000 		.4byte	.LFB77
 3061 0d2f 40000000 		.4byte	.LFE77
 3062 0d33 3F060000 		.4byte	.LLST65
 3063 0d37 4C0D0000 		.4byte	0xd4c
 3064 0d3b 29       		.uleb128 0x29
 3065 0d3c 23040000 		.4byte	.LASF87
 3066 0d40 01       		.byte	0x1
 3067 0d41 5F01     		.2byte	0x15f
 3068 0d43 5E040000 		.4byte	0x45e
 3069 0d47 5F060000 		.4byte	.LLST66
 3070 0d4b 00       		.byte	0
 3071 0d4c 28       		.uleb128 0x28
 3072 0d4d 01       		.byte	0x1
 3073 0d4e 22000000 		.4byte	.LASF103
 3074 0d52 01       		.byte	0x1
 3075 0d53 6E01     		.2byte	0x16e
 3076 0d55 01       		.byte	0x1
 3077 0d56 00000000 		.4byte	.LFB78
 3078 0d5a 40000000 		.4byte	.LFE78
 3079 0d5e 72060000 		.4byte	.LLST67
 3080 0d62 770D0000 		.4byte	0xd77
 3081 0d66 29       		.uleb128 0x29
 3082 0d67 23040000 		.4byte	.LASF87
 3083 0d6b 01       		.byte	0x1
 3084 0d6c 6E01     		.2byte	0x16e
 3085 0d6e 5E040000 		.4byte	0x45e
 3086 0d72 92060000 		.4byte	.LLST68
 3087 0d76 00       		.byte	0
 3088 0d77 28       		.uleb128 0x28
 3089 0d78 01       		.byte	0x1
 3090 0d79 3D050000 		.4byte	.LASF104
 3091 0d7d 01       		.byte	0x1
 3092 0d7e 7C01     		.2byte	0x17c
 3093 0d80 01       		.byte	0x1
 3094 0d81 00000000 		.4byte	.LFB79
 3095 0d85 24000000 		.4byte	.LFE79
 3096 0d89 A5060000 		.4byte	.LLST69
 3097 0d8d A00D0000 		.4byte	0xda0
 3098 0d91 25       		.uleb128 0x25
 3099 0d92 6300     		.ascii	"c\000"
 3100 0d94 01       		.byte	0x1
 3101 0d95 7E01     		.2byte	0x17e
 3102 0d97 5E040000 		.4byte	0x45e
 3103 0d9b C5060000 		.4byte	.LLST70
 3104 0d9f 00       		.byte	0
 3105 0da0 2B       		.uleb128 0x2b
 3106 0da1 01       		.byte	0x1
 3107 0da2 4C030000 		.4byte	.LASF107
ARM GAS  /tmp/ccVWLZ4f.s 			page 56


 3108 0da6 01       		.byte	0x1
 3109 0da7 9101     		.2byte	0x191
 3110 0da9 01       		.byte	0x1
 3111 0daa 9F000000 		.4byte	0x9f
 3112 0dae 00000000 		.4byte	.LFB80
 3113 0db2 26000000 		.4byte	.LFE80
 3114 0db6 02       		.byte	0x2
 3115 0db7 7D       		.byte	0x7d
 3116 0db8 00       		.sleb128 0
 3117 0db9 CE0D0000 		.4byte	0xdce
 3118 0dbd 29       		.uleb128 0x29
 3119 0dbe 23040000 		.4byte	.LASF87
 3120 0dc2 01       		.byte	0x1
 3121 0dc3 9101     		.2byte	0x191
 3122 0dc5 94000000 		.4byte	0x94
 3123 0dc9 09070000 		.4byte	.LLST71
 3124 0dcd 00       		.byte	0
 3125 0dce 27       		.uleb128 0x27
 3126 0dcf 01       		.byte	0x1
 3127 0dd0 D0010000 		.4byte	.LASF105
 3128 0dd4 01       		.byte	0x1
 3129 0dd5 A401     		.2byte	0x1a4
 3130 0dd7 01       		.byte	0x1
 3131 0dd8 00000000 		.4byte	.LFB81
 3132 0ddc 22000000 		.4byte	.LFE81
 3133 0de0 02       		.byte	0x2
 3134 0de1 7D       		.byte	0x7d
 3135 0de2 00       		.sleb128 0
 3136 0de3 080E0000 		.4byte	0xe08
 3137 0de7 29       		.uleb128 0x29
 3138 0de8 23040000 		.4byte	.LASF87
 3139 0dec 01       		.byte	0x1
 3140 0ded A401     		.2byte	0x1a4
 3141 0def 94000000 		.4byte	0x94
 3142 0df3 32070000 		.4byte	.LLST72
 3143 0df7 29       		.uleb128 0x29
 3144 0df8 6C010000 		.4byte	.LASF106
 3145 0dfc 01       		.byte	0x1
 3146 0dfd A401     		.2byte	0x1a4
 3147 0dff 9F000000 		.4byte	0x9f
 3148 0e03 50070000 		.4byte	.LLST73
 3149 0e07 00       		.byte	0
 3150 0e08 2B       		.uleb128 0x2b
 3151 0e09 01       		.byte	0x1
 3152 0e0a 78020000 		.4byte	.LASF108
 3153 0e0e 01       		.byte	0x1
 3154 0e0f B901     		.2byte	0x1b9
 3155 0e11 01       		.byte	0x1
 3156 0e12 94000000 		.4byte	0x94
 3157 0e16 00000000 		.4byte	.LFB82
 3158 0e1a 22000000 		.4byte	.LFE82
 3159 0e1e 02       		.byte	0x2
 3160 0e1f 7D       		.byte	0x7d
 3161 0e20 00       		.sleb128 0
 3162 0e21 360E0000 		.4byte	0xe36
 3163 0e25 29       		.uleb128 0x29
 3164 0e26 23040000 		.4byte	.LASF87
ARM GAS  /tmp/ccVWLZ4f.s 			page 57


 3165 0e2a 01       		.byte	0x1
 3166 0e2b B901     		.2byte	0x1b9
 3167 0e2d 94000000 		.4byte	0x94
 3168 0e31 63070000 		.4byte	.LLST74
 3169 0e35 00       		.byte	0
 3170 0e36 28       		.uleb128 0x28
 3171 0e37 01       		.byte	0x1
 3172 0e38 B9030000 		.4byte	.LASF109
 3173 0e3c 01       		.byte	0x1
 3174 0e3d CA01     		.2byte	0x1ca
 3175 0e3f 01       		.byte	0x1
 3176 0e40 00000000 		.4byte	.LFB83
 3177 0e44 68000000 		.4byte	.LFE83
 3178 0e48 76070000 		.4byte	.LLST75
 3179 0e4c 8F0E0000 		.4byte	0xe8f
 3180 0e50 2A       		.uleb128 0x2a
 3181 0e51 63687000 		.ascii	"chp\000"
 3182 0e55 01       		.byte	0x1
 3183 0e56 CA01     		.2byte	0x1ca
 3184 0e58 43050000 		.4byte	0x543
 3185 0e5c A2070000 		.4byte	.LLST76
 3186 0e60 29       		.uleb128 0x29
 3187 0e61 A6050000 		.4byte	.LASF110
 3188 0e65 01       		.byte	0x1
 3189 0e66 CA01     		.2byte	0x1ca
 3190 0e68 57000000 		.4byte	0x57
 3191 0e6c C0070000 		.4byte	.LLST77
 3192 0e70 29       		.uleb128 0x29
 3193 0e71 DE050000 		.4byte	.LASF111
 3194 0e75 01       		.byte	0x1
 3195 0e76 CA01     		.2byte	0x1ca
 3196 0e78 49050000 		.4byte	0x549
 3197 0e7c D3070000 		.4byte	.LLST78
 3198 0e80 25       		.uleb128 0x25
 3199 0e81 6300     		.ascii	"c\000"
 3200 0e83 01       		.byte	0x1
 3201 0e84 CF01     		.2byte	0x1cf
 3202 0e86 5E040000 		.4byte	0x45e
 3203 0e8a E6070000 		.4byte	.LLST79
 3204 0e8e 00       		.byte	0
 3205 0e8f 16       		.uleb128 0x16
 3206 0e90 F2040000 		.4byte	0x4f2
 3207 0e94 9F0E0000 		.4byte	0xe9f
 3208 0e98 17       		.uleb128 0x17
 3209 0e99 34000000 		.4byte	0x34
 3210 0e9d 04       		.byte	0x4
 3211 0e9e 00       		.byte	0
 3212 0e9f 2C       		.uleb128 0x2c
 3213 0ea0 AD000000 		.4byte	.LASF112
 3214 0ea4 01       		.byte	0x1
 3215 0ea5 3D       		.byte	0x3d
 3216 0ea6 8F0E0000 		.4byte	0xe8f
 3217 0eaa 05       		.byte	0x5
 3218 0eab 03       		.byte	0x3
 3219 0eac 00000000 		.4byte	vexQuadEncoders
 3220 0eb0 16       		.uleb128 0x16
 3221 0eb1 BA020000 		.4byte	0x2ba
ARM GAS  /tmp/ccVWLZ4f.s 			page 58


 3222 0eb5 C00E0000 		.4byte	0xec0
 3223 0eb9 17       		.uleb128 0x17
 3224 0eba 34000000 		.4byte	0x34
 3225 0ebe 04       		.byte	0x4
 3226 0ebf 00       		.byte	0
 3227 0ec0 2D       		.uleb128 0x2d
 3228 0ec1 E7030000 		.4byte	.LASF113
 3229 0ec5 01       		.byte	0x1
 3230 0ec6 0F01     		.2byte	0x10f
 3231 0ec8 D20E0000 		.4byte	0xed2
 3232 0ecc 05       		.byte	0x5
 3233 0ecd 03       		.byte	0x3
 3234 0ece 00000000 		.4byte	_vqe_cb_a
 3235 0ed2 0D       		.uleb128 0xd
 3236 0ed3 B00E0000 		.4byte	0xeb0
 3237 0ed7 2D       		.uleb128 0x2d
 3238 0ed8 45000000 		.4byte	.LASF114
 3239 0edc 01       		.byte	0x1
 3240 0edd 1601     		.2byte	0x116
 3241 0edf E90E0000 		.4byte	0xee9
 3242 0ee3 05       		.byte	0x5
 3243 0ee4 03       		.byte	0x3
 3244 0ee5 00000000 		.4byte	_vqe_cb_b
 3245 0ee9 0D       		.uleb128 0xd
 3246 0eea B00E0000 		.4byte	0xeb0
 3247 0eee 2E       		.uleb128 0x2e
 3248 0eef A0000000 		.4byte	.LASF115
 3249 0ef3 0E       		.byte	0xe
 3250 0ef4 0706     		.2byte	0x607
 3251 0ef6 C0010000 		.4byte	0x1c0
 3252 0efa 01       		.byte	0x1
 3253 0efb 01       		.byte	0x1
 3254 0efc 2F       		.uleb128 0x2f
 3255 0efd E3050000 		.4byte	.LASF116
 3256 0f01 09       		.byte	0x9
 3257 0f02 86       		.byte	0x86
 3258 0f03 7B020000 		.4byte	0x27b
 3259 0f07 01       		.byte	0x1
 3260 0f08 01       		.byte	0x1
 3261 0f09 16       		.uleb128 0x16
 3262 0f0a 26040000 		.4byte	0x426
 3263 0f0e 190F0000 		.4byte	0xf19
 3264 0f12 17       		.uleb128 0x17
 3265 0f13 34000000 		.4byte	0x34
 3266 0f17 0B       		.byte	0xb
 3267 0f18 00       		.byte	0
 3268 0f19 2F       		.uleb128 0x2f
 3269 0f1a D7030000 		.4byte	.LASF117
 3270 0f1e 0B       		.byte	0xb
 3271 0f1f BE       		.byte	0xbe
 3272 0f20 090F0000 		.4byte	0xf09
 3273 0f24 01       		.byte	0x1
 3274 0f25 01       		.byte	0x1
 3275 0f26 00       		.byte	0
 3276              		.section	.debug_abbrev,"",%progbits
 3277              	.Ldebug_abbrev0:
 3278 0000 01       		.uleb128 0x1
ARM GAS  /tmp/ccVWLZ4f.s 			page 59


 3279 0001 11       		.uleb128 0x11
 3280 0002 01       		.byte	0x1
 3281 0003 25       		.uleb128 0x25
 3282 0004 0E       		.uleb128 0xe
 3283 0005 13       		.uleb128 0x13
 3284 0006 0B       		.uleb128 0xb
 3285 0007 03       		.uleb128 0x3
 3286 0008 0E       		.uleb128 0xe
 3287 0009 1B       		.uleb128 0x1b
 3288 000a 0E       		.uleb128 0xe
 3289 000b 11       		.uleb128 0x11
 3290 000c 01       		.uleb128 0x1
 3291 000d 52       		.uleb128 0x52
 3292 000e 01       		.uleb128 0x1
 3293 000f 55       		.uleb128 0x55
 3294 0010 06       		.uleb128 0x6
 3295 0011 10       		.uleb128 0x10
 3296 0012 06       		.uleb128 0x6
 3297 0013 00       		.byte	0
 3298 0014 00       		.byte	0
 3299 0015 02       		.uleb128 0x2
 3300 0016 16       		.uleb128 0x16
 3301 0017 00       		.byte	0
 3302 0018 03       		.uleb128 0x3
 3303 0019 0E       		.uleb128 0xe
 3304 001a 3A       		.uleb128 0x3a
 3305 001b 0B       		.uleb128 0xb
 3306 001c 3B       		.uleb128 0x3b
 3307 001d 0B       		.uleb128 0xb
 3308 001e 49       		.uleb128 0x49
 3309 001f 13       		.uleb128 0x13
 3310 0020 00       		.byte	0
 3311 0021 00       		.byte	0
 3312 0022 03       		.uleb128 0x3
 3313 0023 24       		.uleb128 0x24
 3314 0024 00       		.byte	0
 3315 0025 0B       		.uleb128 0xb
 3316 0026 0B       		.uleb128 0xb
 3317 0027 3E       		.uleb128 0x3e
 3318 0028 0B       		.uleb128 0xb
 3319 0029 03       		.uleb128 0x3
 3320 002a 0E       		.uleb128 0xe
 3321 002b 00       		.byte	0
 3322 002c 00       		.byte	0
 3323 002d 04       		.uleb128 0x4
 3324 002e 24       		.uleb128 0x24
 3325 002f 00       		.byte	0
 3326 0030 0B       		.uleb128 0xb
 3327 0031 0B       		.uleb128 0xb
 3328 0032 3E       		.uleb128 0x3e
 3329 0033 0B       		.uleb128 0xb
 3330 0034 03       		.uleb128 0x3
 3331 0035 08       		.uleb128 0x8
 3332 0036 00       		.byte	0
 3333 0037 00       		.byte	0
 3334 0038 05       		.uleb128 0x5
 3335 0039 0F       		.uleb128 0xf
ARM GAS  /tmp/ccVWLZ4f.s 			page 60


 3336 003a 00       		.byte	0
 3337 003b 0B       		.uleb128 0xb
 3338 003c 0B       		.uleb128 0xb
 3339 003d 00       		.byte	0
 3340 003e 00       		.byte	0
 3341 003f 06       		.uleb128 0x6
 3342 0040 0F       		.uleb128 0xf
 3343 0041 00       		.byte	0
 3344 0042 0B       		.uleb128 0xb
 3345 0043 0B       		.uleb128 0xb
 3346 0044 49       		.uleb128 0x49
 3347 0045 13       		.uleb128 0x13
 3348 0046 00       		.byte	0
 3349 0047 00       		.byte	0
 3350 0048 07       		.uleb128 0x7
 3351 0049 35       		.uleb128 0x35
 3352 004a 00       		.byte	0
 3353 004b 49       		.uleb128 0x49
 3354 004c 13       		.uleb128 0x13
 3355 004d 00       		.byte	0
 3356 004e 00       		.byte	0
 3357 004f 08       		.uleb128 0x8
 3358 0050 15       		.uleb128 0x15
 3359 0051 01       		.byte	0x1
 3360 0052 27       		.uleb128 0x27
 3361 0053 0C       		.uleb128 0xc
 3362 0054 49       		.uleb128 0x49
 3363 0055 13       		.uleb128 0x13
 3364 0056 01       		.uleb128 0x1
 3365 0057 13       		.uleb128 0x13
 3366 0058 00       		.byte	0
 3367 0059 00       		.byte	0
 3368 005a 09       		.uleb128 0x9
 3369 005b 05       		.uleb128 0x5
 3370 005c 00       		.byte	0
 3371 005d 49       		.uleb128 0x49
 3372 005e 13       		.uleb128 0x13
 3373 005f 00       		.byte	0
 3374 0060 00       		.byte	0
 3375 0061 0A       		.uleb128 0xa
 3376 0062 13       		.uleb128 0x13
 3377 0063 01       		.byte	0x1
 3378 0064 03       		.uleb128 0x3
 3379 0065 0E       		.uleb128 0xe
 3380 0066 0B       		.uleb128 0xb
 3381 0067 0B       		.uleb128 0xb
 3382 0068 3A       		.uleb128 0x3a
 3383 0069 0B       		.uleb128 0xb
 3384 006a 3B       		.uleb128 0x3b
 3385 006b 0B       		.uleb128 0xb
 3386 006c 01       		.uleb128 0x1
 3387 006d 13       		.uleb128 0x13
 3388 006e 00       		.byte	0
 3389 006f 00       		.byte	0
 3390 0070 0B       		.uleb128 0xb
 3391 0071 0D       		.uleb128 0xd
 3392 0072 00       		.byte	0
ARM GAS  /tmp/ccVWLZ4f.s 			page 61


 3393 0073 03       		.uleb128 0x3
 3394 0074 0E       		.uleb128 0xe
 3395 0075 3A       		.uleb128 0x3a
 3396 0076 0B       		.uleb128 0xb
 3397 0077 3B       		.uleb128 0x3b
 3398 0078 0B       		.uleb128 0xb
 3399 0079 49       		.uleb128 0x49
 3400 007a 13       		.uleb128 0x13
 3401 007b 38       		.uleb128 0x38
 3402 007c 0A       		.uleb128 0xa
 3403 007d 00       		.byte	0
 3404 007e 00       		.byte	0
 3405 007f 0C       		.uleb128 0xc
 3406 0080 0D       		.uleb128 0xd
 3407 0081 00       		.byte	0
 3408 0082 03       		.uleb128 0x3
 3409 0083 08       		.uleb128 0x8
 3410 0084 3A       		.uleb128 0x3a
 3411 0085 0B       		.uleb128 0xb
 3412 0086 3B       		.uleb128 0x3b
 3413 0087 0B       		.uleb128 0xb
 3414 0088 49       		.uleb128 0x49
 3415 0089 13       		.uleb128 0x13
 3416 008a 38       		.uleb128 0x38
 3417 008b 0A       		.uleb128 0xa
 3418 008c 00       		.byte	0
 3419 008d 00       		.byte	0
 3420 008e 0D       		.uleb128 0xd
 3421 008f 26       		.uleb128 0x26
 3422 0090 00       		.byte	0
 3423 0091 49       		.uleb128 0x49
 3424 0092 13       		.uleb128 0x13
 3425 0093 00       		.byte	0
 3426 0094 00       		.byte	0
 3427 0095 0E       		.uleb128 0xe
 3428 0096 13       		.uleb128 0x13
 3429 0097 01       		.byte	0x1
 3430 0098 0B       		.uleb128 0xb
 3431 0099 0B       		.uleb128 0xb
 3432 009a 3A       		.uleb128 0x3a
 3433 009b 0B       		.uleb128 0xb
 3434 009c 3B       		.uleb128 0x3b
 3435 009d 0B       		.uleb128 0xb
 3436 009e 01       		.uleb128 0x1
 3437 009f 13       		.uleb128 0x13
 3438 00a0 00       		.byte	0
 3439 00a1 00       		.byte	0
 3440 00a2 0F       		.uleb128 0xf
 3441 00a3 13       		.uleb128 0x13
 3442 00a4 01       		.byte	0x1
 3443 00a5 0B       		.uleb128 0xb
 3444 00a6 0B       		.uleb128 0xb
 3445 00a7 3A       		.uleb128 0x3a
 3446 00a8 0B       		.uleb128 0xb
 3447 00a9 3B       		.uleb128 0x3b
 3448 00aa 05       		.uleb128 0x5
 3449 00ab 01       		.uleb128 0x1
ARM GAS  /tmp/ccVWLZ4f.s 			page 62


 3450 00ac 13       		.uleb128 0x13
 3451 00ad 00       		.byte	0
 3452 00ae 00       		.byte	0
 3453 00af 10       		.uleb128 0x10
 3454 00b0 0D       		.uleb128 0xd
 3455 00b1 00       		.byte	0
 3456 00b2 03       		.uleb128 0x3
 3457 00b3 08       		.uleb128 0x8
 3458 00b4 3A       		.uleb128 0x3a
 3459 00b5 0B       		.uleb128 0xb
 3460 00b6 3B       		.uleb128 0x3b
 3461 00b7 05       		.uleb128 0x5
 3462 00b8 49       		.uleb128 0x49
 3463 00b9 13       		.uleb128 0x13
 3464 00ba 38       		.uleb128 0x38
 3465 00bb 0A       		.uleb128 0xa
 3466 00bc 00       		.byte	0
 3467 00bd 00       		.byte	0
 3468 00be 11       		.uleb128 0x11
 3469 00bf 0D       		.uleb128 0xd
 3470 00c0 00       		.byte	0
 3471 00c1 03       		.uleb128 0x3
 3472 00c2 0E       		.uleb128 0xe
 3473 00c3 3A       		.uleb128 0x3a
 3474 00c4 0B       		.uleb128 0xb
 3475 00c5 3B       		.uleb128 0x3b
 3476 00c6 05       		.uleb128 0x5
 3477 00c7 49       		.uleb128 0x49
 3478 00c8 13       		.uleb128 0x13
 3479 00c9 38       		.uleb128 0x38
 3480 00ca 0A       		.uleb128 0xa
 3481 00cb 00       		.byte	0
 3482 00cc 00       		.byte	0
 3483 00cd 12       		.uleb128 0x12
 3484 00ce 16       		.uleb128 0x16
 3485 00cf 00       		.byte	0
 3486 00d0 03       		.uleb128 0x3
 3487 00d1 0E       		.uleb128 0xe
 3488 00d2 3A       		.uleb128 0x3a
 3489 00d3 0B       		.uleb128 0xb
 3490 00d4 3B       		.uleb128 0x3b
 3491 00d5 05       		.uleb128 0x5
 3492 00d6 49       		.uleb128 0x49
 3493 00d7 13       		.uleb128 0x13
 3494 00d8 00       		.byte	0
 3495 00d9 00       		.byte	0
 3496 00da 13       		.uleb128 0x13
 3497 00db 04       		.uleb128 0x4
 3498 00dc 01       		.byte	0x1
 3499 00dd 0B       		.uleb128 0xb
 3500 00de 0B       		.uleb128 0xb
 3501 00df 3A       		.uleb128 0x3a
 3502 00e0 0B       		.uleb128 0xb
 3503 00e1 3B       		.uleb128 0x3b
 3504 00e2 0B       		.uleb128 0xb
 3505 00e3 01       		.uleb128 0x1
 3506 00e4 13       		.uleb128 0x13
ARM GAS  /tmp/ccVWLZ4f.s 			page 63


 3507 00e5 00       		.byte	0
 3508 00e6 00       		.byte	0
 3509 00e7 14       		.uleb128 0x14
 3510 00e8 28       		.uleb128 0x28
 3511 00e9 00       		.byte	0
 3512 00ea 03       		.uleb128 0x3
 3513 00eb 0E       		.uleb128 0xe
 3514 00ec 1C       		.uleb128 0x1c
 3515 00ed 0D       		.uleb128 0xd
 3516 00ee 00       		.byte	0
 3517 00ef 00       		.byte	0
 3518 00f0 15       		.uleb128 0x15
 3519 00f1 15       		.uleb128 0x15
 3520 00f2 01       		.byte	0x1
 3521 00f3 27       		.uleb128 0x27
 3522 00f4 0C       		.uleb128 0xc
 3523 00f5 01       		.uleb128 0x1
 3524 00f6 13       		.uleb128 0x13
 3525 00f7 00       		.byte	0
 3526 00f8 00       		.byte	0
 3527 00f9 16       		.uleb128 0x16
 3528 00fa 01       		.uleb128 0x1
 3529 00fb 01       		.byte	0x1
 3530 00fc 49       		.uleb128 0x49
 3531 00fd 13       		.uleb128 0x13
 3532 00fe 01       		.uleb128 0x1
 3533 00ff 13       		.uleb128 0x13
 3534 0100 00       		.byte	0
 3535 0101 00       		.byte	0
 3536 0102 17       		.uleb128 0x17
 3537 0103 21       		.uleb128 0x21
 3538 0104 00       		.byte	0
 3539 0105 49       		.uleb128 0x49
 3540 0106 13       		.uleb128 0x13
 3541 0107 2F       		.uleb128 0x2f
 3542 0108 0B       		.uleb128 0xb
 3543 0109 00       		.byte	0
 3544 010a 00       		.byte	0
 3545 010b 18       		.uleb128 0x18
 3546 010c 2E       		.uleb128 0x2e
 3547 010d 01       		.byte	0x1
 3548 010e 03       		.uleb128 0x3
 3549 010f 0E       		.uleb128 0xe
 3550 0110 3A       		.uleb128 0x3a
 3551 0111 0B       		.uleb128 0xb
 3552 0112 3B       		.uleb128 0x3b
 3553 0113 0B       		.uleb128 0xb
 3554 0114 27       		.uleb128 0x27
 3555 0115 0C       		.uleb128 0xc
 3556 0116 20       		.uleb128 0x20
 3557 0117 0B       		.uleb128 0xb
 3558 0118 01       		.uleb128 0x1
 3559 0119 13       		.uleb128 0x13
 3560 011a 00       		.byte	0
 3561 011b 00       		.byte	0
 3562 011c 19       		.uleb128 0x19
 3563 011d 05       		.uleb128 0x5
ARM GAS  /tmp/ccVWLZ4f.s 			page 64


 3564 011e 00       		.byte	0
 3565 011f 03       		.uleb128 0x3
 3566 0120 08       		.uleb128 0x8
 3567 0121 3A       		.uleb128 0x3a
 3568 0122 0B       		.uleb128 0xb
 3569 0123 3B       		.uleb128 0x3b
 3570 0124 0B       		.uleb128 0xb
 3571 0125 49       		.uleb128 0x49
 3572 0126 13       		.uleb128 0x13
 3573 0127 00       		.byte	0
 3574 0128 00       		.byte	0
 3575 0129 1A       		.uleb128 0x1a
 3576 012a 34       		.uleb128 0x34
 3577 012b 00       		.byte	0
 3578 012c 03       		.uleb128 0x3
 3579 012d 08       		.uleb128 0x8
 3580 012e 3A       		.uleb128 0x3a
 3581 012f 0B       		.uleb128 0xb
 3582 0130 3B       		.uleb128 0x3b
 3583 0131 0B       		.uleb128 0xb
 3584 0132 49       		.uleb128 0x49
 3585 0133 13       		.uleb128 0x13
 3586 0134 00       		.byte	0
 3587 0135 00       		.byte	0
 3588 0136 1B       		.uleb128 0x1b
 3589 0137 2E       		.uleb128 0x2e
 3590 0138 01       		.byte	0x1
 3591 0139 03       		.uleb128 0x3
 3592 013a 0E       		.uleb128 0xe
 3593 013b 3A       		.uleb128 0x3a
 3594 013c 0B       		.uleb128 0xb
 3595 013d 3B       		.uleb128 0x3b
 3596 013e 0B       		.uleb128 0xb
 3597 013f 27       		.uleb128 0x27
 3598 0140 0C       		.uleb128 0xc
 3599 0141 11       		.uleb128 0x11
 3600 0142 01       		.uleb128 0x1
 3601 0143 12       		.uleb128 0x12
 3602 0144 01       		.uleb128 0x1
 3603 0145 40       		.uleb128 0x40
 3604 0146 06       		.uleb128 0x6
 3605 0147 01       		.uleb128 0x1
 3606 0148 13       		.uleb128 0x13
 3607 0149 00       		.byte	0
 3608 014a 00       		.byte	0
 3609 014b 1C       		.uleb128 0x1c
 3610 014c 05       		.uleb128 0x5
 3611 014d 00       		.byte	0
 3612 014e 03       		.uleb128 0x3
 3613 014f 0E       		.uleb128 0xe
 3614 0150 3A       		.uleb128 0x3a
 3615 0151 0B       		.uleb128 0xb
 3616 0152 3B       		.uleb128 0x3b
 3617 0153 0B       		.uleb128 0xb
 3618 0154 49       		.uleb128 0x49
 3619 0155 13       		.uleb128 0x13
 3620 0156 02       		.uleb128 0x2
ARM GAS  /tmp/ccVWLZ4f.s 			page 65


 3621 0157 06       		.uleb128 0x6
 3622 0158 00       		.byte	0
 3623 0159 00       		.byte	0
 3624 015a 1D       		.uleb128 0x1d
 3625 015b 0B       		.uleb128 0xb
 3626 015c 01       		.byte	0x1
 3627 015d 11       		.uleb128 0x11
 3628 015e 01       		.uleb128 0x1
 3629 015f 12       		.uleb128 0x12
 3630 0160 01       		.uleb128 0x1
 3631 0161 01       		.uleb128 0x1
 3632 0162 13       		.uleb128 0x13
 3633 0163 00       		.byte	0
 3634 0164 00       		.byte	0
 3635 0165 1E       		.uleb128 0x1e
 3636 0166 34       		.uleb128 0x34
 3637 0167 00       		.byte	0
 3638 0168 03       		.uleb128 0x3
 3639 0169 08       		.uleb128 0x8
 3640 016a 3A       		.uleb128 0x3a
 3641 016b 0B       		.uleb128 0xb
 3642 016c 3B       		.uleb128 0x3b
 3643 016d 0B       		.uleb128 0xb
 3644 016e 49       		.uleb128 0x49
 3645 016f 13       		.uleb128 0x13
 3646 0170 02       		.uleb128 0x2
 3647 0171 06       		.uleb128 0x6
 3648 0172 00       		.byte	0
 3649 0173 00       		.byte	0
 3650 0174 1F       		.uleb128 0x1f
 3651 0175 1D       		.uleb128 0x1d
 3652 0176 01       		.byte	0x1
 3653 0177 31       		.uleb128 0x31
 3654 0178 13       		.uleb128 0x13
 3655 0179 52       		.uleb128 0x52
 3656 017a 01       		.uleb128 0x1
 3657 017b 55       		.uleb128 0x55
 3658 017c 06       		.uleb128 0x6
 3659 017d 58       		.uleb128 0x58
 3660 017e 0B       		.uleb128 0xb
 3661 017f 59       		.uleb128 0x59
 3662 0180 0B       		.uleb128 0xb
 3663 0181 01       		.uleb128 0x1
 3664 0182 13       		.uleb128 0x13
 3665 0183 00       		.byte	0
 3666 0184 00       		.byte	0
 3667 0185 20       		.uleb128 0x20
 3668 0186 05       		.uleb128 0x5
 3669 0187 00       		.byte	0
 3670 0188 31       		.uleb128 0x31
 3671 0189 13       		.uleb128 0x13
 3672 018a 02       		.uleb128 0x2
 3673 018b 0A       		.uleb128 0xa
 3674 018c 00       		.byte	0
 3675 018d 00       		.byte	0
 3676 018e 21       		.uleb128 0x21
 3677 018f 0B       		.uleb128 0xb
ARM GAS  /tmp/ccVWLZ4f.s 			page 66


 3678 0190 01       		.byte	0x1
 3679 0191 55       		.uleb128 0x55
 3680 0192 06       		.uleb128 0x6
 3681 0193 00       		.byte	0
 3682 0194 00       		.byte	0
 3683 0195 22       		.uleb128 0x22
 3684 0196 34       		.uleb128 0x34
 3685 0197 00       		.byte	0
 3686 0198 31       		.uleb128 0x31
 3687 0199 13       		.uleb128 0x13
 3688 019a 02       		.uleb128 0x2
 3689 019b 0A       		.uleb128 0xa
 3690 019c 00       		.byte	0
 3691 019d 00       		.byte	0
 3692 019e 23       		.uleb128 0x23
 3693 019f 34       		.uleb128 0x34
 3694 01a0 00       		.byte	0
 3695 01a1 31       		.uleb128 0x31
 3696 01a2 13       		.uleb128 0x13
 3697 01a3 02       		.uleb128 0x2
 3698 01a4 06       		.uleb128 0x6
 3699 01a5 00       		.byte	0
 3700 01a6 00       		.byte	0
 3701 01a7 24       		.uleb128 0x24
 3702 01a8 0B       		.uleb128 0xb
 3703 01a9 01       		.byte	0x1
 3704 01aa 11       		.uleb128 0x11
 3705 01ab 01       		.uleb128 0x1
 3706 01ac 12       		.uleb128 0x12
 3707 01ad 01       		.uleb128 0x1
 3708 01ae 00       		.byte	0
 3709 01af 00       		.byte	0
 3710 01b0 25       		.uleb128 0x25
 3711 01b1 34       		.uleb128 0x34
 3712 01b2 00       		.byte	0
 3713 01b3 03       		.uleb128 0x3
 3714 01b4 08       		.uleb128 0x8
 3715 01b5 3A       		.uleb128 0x3a
 3716 01b6 0B       		.uleb128 0xb
 3717 01b7 3B       		.uleb128 0x3b
 3718 01b8 05       		.uleb128 0x5
 3719 01b9 49       		.uleb128 0x49
 3720 01ba 13       		.uleb128 0x13
 3721 01bb 02       		.uleb128 0x2
 3722 01bc 06       		.uleb128 0x6
 3723 01bd 00       		.byte	0
 3724 01be 00       		.byte	0
 3725 01bf 26       		.uleb128 0x26
 3726 01c0 1D       		.uleb128 0x1d
 3727 01c1 01       		.byte	0x1
 3728 01c2 31       		.uleb128 0x31
 3729 01c3 13       		.uleb128 0x13
 3730 01c4 52       		.uleb128 0x52
 3731 01c5 01       		.uleb128 0x1
 3732 01c6 55       		.uleb128 0x55
 3733 01c7 06       		.uleb128 0x6
 3734 01c8 58       		.uleb128 0x58
ARM GAS  /tmp/ccVWLZ4f.s 			page 67


 3735 01c9 0B       		.uleb128 0xb
 3736 01ca 59       		.uleb128 0x59
 3737 01cb 05       		.uleb128 0x5
 3738 01cc 01       		.uleb128 0x1
 3739 01cd 13       		.uleb128 0x13
 3740 01ce 00       		.byte	0
 3741 01cf 00       		.byte	0
 3742 01d0 27       		.uleb128 0x27
 3743 01d1 2E       		.uleb128 0x2e
 3744 01d2 01       		.byte	0x1
 3745 01d3 3F       		.uleb128 0x3f
 3746 01d4 0C       		.uleb128 0xc
 3747 01d5 03       		.uleb128 0x3
 3748 01d6 0E       		.uleb128 0xe
 3749 01d7 3A       		.uleb128 0x3a
 3750 01d8 0B       		.uleb128 0xb
 3751 01d9 3B       		.uleb128 0x3b
 3752 01da 05       		.uleb128 0x5
 3753 01db 27       		.uleb128 0x27
 3754 01dc 0C       		.uleb128 0xc
 3755 01dd 11       		.uleb128 0x11
 3756 01de 01       		.uleb128 0x1
 3757 01df 12       		.uleb128 0x12
 3758 01e0 01       		.uleb128 0x1
 3759 01e1 40       		.uleb128 0x40
 3760 01e2 0A       		.uleb128 0xa
 3761 01e3 01       		.uleb128 0x1
 3762 01e4 13       		.uleb128 0x13
 3763 01e5 00       		.byte	0
 3764 01e6 00       		.byte	0
 3765 01e7 28       		.uleb128 0x28
 3766 01e8 2E       		.uleb128 0x2e
 3767 01e9 01       		.byte	0x1
 3768 01ea 3F       		.uleb128 0x3f
 3769 01eb 0C       		.uleb128 0xc
 3770 01ec 03       		.uleb128 0x3
 3771 01ed 0E       		.uleb128 0xe
 3772 01ee 3A       		.uleb128 0x3a
 3773 01ef 0B       		.uleb128 0xb
 3774 01f0 3B       		.uleb128 0x3b
 3775 01f1 05       		.uleb128 0x5
 3776 01f2 27       		.uleb128 0x27
 3777 01f3 0C       		.uleb128 0xc
 3778 01f4 11       		.uleb128 0x11
 3779 01f5 01       		.uleb128 0x1
 3780 01f6 12       		.uleb128 0x12
 3781 01f7 01       		.uleb128 0x1
 3782 01f8 40       		.uleb128 0x40
 3783 01f9 06       		.uleb128 0x6
 3784 01fa 01       		.uleb128 0x1
 3785 01fb 13       		.uleb128 0x13
 3786 01fc 00       		.byte	0
 3787 01fd 00       		.byte	0
 3788 01fe 29       		.uleb128 0x29
 3789 01ff 05       		.uleb128 0x5
 3790 0200 00       		.byte	0
 3791 0201 03       		.uleb128 0x3
ARM GAS  /tmp/ccVWLZ4f.s 			page 68


 3792 0202 0E       		.uleb128 0xe
 3793 0203 3A       		.uleb128 0x3a
 3794 0204 0B       		.uleb128 0xb
 3795 0205 3B       		.uleb128 0x3b
 3796 0206 05       		.uleb128 0x5
 3797 0207 49       		.uleb128 0x49
 3798 0208 13       		.uleb128 0x13
 3799 0209 02       		.uleb128 0x2
 3800 020a 06       		.uleb128 0x6
 3801 020b 00       		.byte	0
 3802 020c 00       		.byte	0
 3803 020d 2A       		.uleb128 0x2a
 3804 020e 05       		.uleb128 0x5
 3805 020f 00       		.byte	0
 3806 0210 03       		.uleb128 0x3
 3807 0211 08       		.uleb128 0x8
 3808 0212 3A       		.uleb128 0x3a
 3809 0213 0B       		.uleb128 0xb
 3810 0214 3B       		.uleb128 0x3b
 3811 0215 05       		.uleb128 0x5
 3812 0216 49       		.uleb128 0x49
 3813 0217 13       		.uleb128 0x13
 3814 0218 02       		.uleb128 0x2
 3815 0219 06       		.uleb128 0x6
 3816 021a 00       		.byte	0
 3817 021b 00       		.byte	0
 3818 021c 2B       		.uleb128 0x2b
 3819 021d 2E       		.uleb128 0x2e
 3820 021e 01       		.byte	0x1
 3821 021f 3F       		.uleb128 0x3f
 3822 0220 0C       		.uleb128 0xc
 3823 0221 03       		.uleb128 0x3
 3824 0222 0E       		.uleb128 0xe
 3825 0223 3A       		.uleb128 0x3a
 3826 0224 0B       		.uleb128 0xb
 3827 0225 3B       		.uleb128 0x3b
 3828 0226 05       		.uleb128 0x5
 3829 0227 27       		.uleb128 0x27
 3830 0228 0C       		.uleb128 0xc
 3831 0229 49       		.uleb128 0x49
 3832 022a 13       		.uleb128 0x13
 3833 022b 11       		.uleb128 0x11
 3834 022c 01       		.uleb128 0x1
 3835 022d 12       		.uleb128 0x12
 3836 022e 01       		.uleb128 0x1
 3837 022f 40       		.uleb128 0x40
 3838 0230 0A       		.uleb128 0xa
 3839 0231 01       		.uleb128 0x1
 3840 0232 13       		.uleb128 0x13
 3841 0233 00       		.byte	0
 3842 0234 00       		.byte	0
 3843 0235 2C       		.uleb128 0x2c
 3844 0236 34       		.uleb128 0x34
 3845 0237 00       		.byte	0
 3846 0238 03       		.uleb128 0x3
 3847 0239 0E       		.uleb128 0xe
 3848 023a 3A       		.uleb128 0x3a
ARM GAS  /tmp/ccVWLZ4f.s 			page 69


 3849 023b 0B       		.uleb128 0xb
 3850 023c 3B       		.uleb128 0x3b
 3851 023d 0B       		.uleb128 0xb
 3852 023e 49       		.uleb128 0x49
 3853 023f 13       		.uleb128 0x13
 3854 0240 02       		.uleb128 0x2
 3855 0241 0A       		.uleb128 0xa
 3856 0242 00       		.byte	0
 3857 0243 00       		.byte	0
 3858 0244 2D       		.uleb128 0x2d
 3859 0245 34       		.uleb128 0x34
 3860 0246 00       		.byte	0
 3861 0247 03       		.uleb128 0x3
 3862 0248 0E       		.uleb128 0xe
 3863 0249 3A       		.uleb128 0x3a
 3864 024a 0B       		.uleb128 0xb
 3865 024b 3B       		.uleb128 0x3b
 3866 024c 05       		.uleb128 0x5
 3867 024d 49       		.uleb128 0x49
 3868 024e 13       		.uleb128 0x13
 3869 024f 02       		.uleb128 0x2
 3870 0250 0A       		.uleb128 0xa
 3871 0251 00       		.byte	0
 3872 0252 00       		.byte	0
 3873 0253 2E       		.uleb128 0x2e
 3874 0254 34       		.uleb128 0x34
 3875 0255 00       		.byte	0
 3876 0256 03       		.uleb128 0x3
 3877 0257 0E       		.uleb128 0xe
 3878 0258 3A       		.uleb128 0x3a
 3879 0259 0B       		.uleb128 0xb
 3880 025a 3B       		.uleb128 0x3b
 3881 025b 05       		.uleb128 0x5
 3882 025c 49       		.uleb128 0x49
 3883 025d 13       		.uleb128 0x13
 3884 025e 3F       		.uleb128 0x3f
 3885 025f 0C       		.uleb128 0xc
 3886 0260 3C       		.uleb128 0x3c
 3887 0261 0C       		.uleb128 0xc
 3888 0262 00       		.byte	0
 3889 0263 00       		.byte	0
 3890 0264 2F       		.uleb128 0x2f
 3891 0265 34       		.uleb128 0x34
 3892 0266 00       		.byte	0
 3893 0267 03       		.uleb128 0x3
 3894 0268 0E       		.uleb128 0xe
 3895 0269 3A       		.uleb128 0x3a
 3896 026a 0B       		.uleb128 0xb
 3897 026b 3B       		.uleb128 0x3b
 3898 026c 0B       		.uleb128 0xb
 3899 026d 49       		.uleb128 0x49
 3900 026e 13       		.uleb128 0x13
 3901 026f 3F       		.uleb128 0x3f
 3902 0270 0C       		.uleb128 0xc
 3903 0271 3C       		.uleb128 0x3c
 3904 0272 0C       		.uleb128 0xc
 3905 0273 00       		.byte	0
ARM GAS  /tmp/ccVWLZ4f.s 			page 70


 3906 0274 00       		.byte	0
 3907 0275 00       		.byte	0
 3908              		.section	.debug_loc,"",%progbits
 3909              	.Ldebug_loc0:
 3910              	.LLST0:
 3911 0000 00000000 		.4byte	.LFB73
 3912 0004 02000000 		.4byte	.LCFI0
 3913 0008 0200     		.2byte	0x2
 3914 000a 7D       		.byte	0x7d
 3915 000b 00       		.sleb128 0
 3916 000c 02000000 		.4byte	.LCFI0
 3917 0010 4C000000 		.4byte	.LFE73
 3918 0014 0200     		.2byte	0x2
 3919 0016 7D       		.byte	0x7d
 3920 0017 04       		.sleb128 4
 3921 0018 00000000 		.4byte	0
 3922 001c 00000000 		.4byte	0
 3923              	.LLST1:
 3924 0020 00000000 		.4byte	.LVL0
 3925 0024 1E000000 		.4byte	.LVL6
 3926 0028 0100     		.2byte	0x1
 3927 002a 50       		.byte	0x50
 3928 002b 00000000 		.4byte	0
 3929 002f 00000000 		.4byte	0
 3930              	.LLST2:
 3931 0033 00000000 		.4byte	.LVL0
 3932 0037 1A000000 		.4byte	.LVL4
 3933 003b 0100     		.2byte	0x1
 3934 003d 51       		.byte	0x51
 3935 003e 00000000 		.4byte	0
 3936 0042 00000000 		.4byte	0
 3937              	.LLST3:
 3938 0046 08000000 		.4byte	.LVL2
 3939 004a 0C000000 		.4byte	.LVL3
 3940 004e 0100     		.2byte	0x1
 3941 0050 53       		.byte	0x53
 3942 0051 00000000 		.4byte	0
 3943 0055 00000000 		.4byte	0
 3944              	.LLST4:
 3945 0059 1E000000 		.4byte	.LVL6
 3946 005d 2A000000 		.4byte	.LVL7
 3947 0061 1100     		.2byte	0x11
 3948 0063 70       		.byte	0x70
 3949 0064 00       		.sleb128 0
 3950 0065 03       		.byte	0x3
 3951 0066 88000000 		.4byte	vexQuadEncoders+136
 3952 006a 94       		.byte	0x94
 3953 006b 02       		.byte	0x2
 3954 006c 40       		.byte	0x40
 3955 006d 24       		.byte	0x24
 3956 006e 40       		.byte	0x40
 3957 006f 26       		.byte	0x26
 3958 0070 25       		.byte	0x25
 3959 0071 31       		.byte	0x31
 3960 0072 1A       		.byte	0x1a
 3961 0073 9F       		.byte	0x9f
 3962 0074 00000000 		.4byte	0
ARM GAS  /tmp/ccVWLZ4f.s 			page 71


 3963 0078 00000000 		.4byte	0
 3964              	.LLST5:
 3965 007c 42000000 		.4byte	.LVL9
 3966 0080 46000000 		.4byte	.LVL10
 3967 0084 0100     		.2byte	0x1
 3968 0086 53       		.byte	0x53
 3969 0087 00000000 		.4byte	0
 3970 008b 00000000 		.4byte	0
 3971              	.LLST6:
 3972 008f 00000000 		.4byte	.LFB74
 3973 0093 02000000 		.4byte	.LCFI1
 3974 0097 0200     		.2byte	0x2
 3975 0099 7D       		.byte	0x7d
 3976 009a 00       		.sleb128 0
 3977 009b 02000000 		.4byte	.LCFI1
 3978 009f 4C000000 		.4byte	.LFE74
 3979 00a3 0200     		.2byte	0x2
 3980 00a5 7D       		.byte	0x7d
 3981 00a6 04       		.sleb128 4
 3982 00a7 00000000 		.4byte	0
 3983 00ab 00000000 		.4byte	0
 3984              	.LLST7:
 3985 00af 00000000 		.4byte	.LVL11
 3986 00b3 1E000000 		.4byte	.LVL17
 3987 00b7 0100     		.2byte	0x1
 3988 00b9 50       		.byte	0x50
 3989 00ba 00000000 		.4byte	0
 3990 00be 00000000 		.4byte	0
 3991              	.LLST8:
 3992 00c2 00000000 		.4byte	.LVL11
 3993 00c6 1A000000 		.4byte	.LVL15
 3994 00ca 0100     		.2byte	0x1
 3995 00cc 51       		.byte	0x51
 3996 00cd 00000000 		.4byte	0
 3997 00d1 00000000 		.4byte	0
 3998              	.LLST9:
 3999 00d5 08000000 		.4byte	.LVL13
 4000 00d9 0C000000 		.4byte	.LVL14
 4001 00dd 0100     		.2byte	0x1
 4002 00df 53       		.byte	0x53
 4003 00e0 00000000 		.4byte	0
 4004 00e4 00000000 		.4byte	0
 4005              	.LLST10:
 4006 00e8 1E000000 		.4byte	.LVL17
 4007 00ec 2A000000 		.4byte	.LVL18
 4008 00f0 1100     		.2byte	0x11
 4009 00f2 70       		.byte	0x70
 4010 00f3 00       		.sleb128 0
 4011 00f4 03       		.byte	0x3
 4012 00f5 88000000 		.4byte	vexQuadEncoders+136
 4013 00f9 94       		.byte	0x94
 4014 00fa 02       		.byte	0x2
 4015 00fb 40       		.byte	0x40
 4016 00fc 24       		.byte	0x24
 4017 00fd 40       		.byte	0x40
 4018 00fe 26       		.byte	0x26
 4019 00ff 25       		.byte	0x25
ARM GAS  /tmp/ccVWLZ4f.s 			page 72


 4020 0100 31       		.byte	0x31
 4021 0101 1A       		.byte	0x1a
 4022 0102 9F       		.byte	0x9f
 4023 0103 00000000 		.4byte	0
 4024 0107 00000000 		.4byte	0
 4025              	.LLST11:
 4026 010b 42000000 		.4byte	.LVL20
 4027 010f 46000000 		.4byte	.LVL21
 4028 0113 0100     		.2byte	0x1
 4029 0115 53       		.byte	0x53
 4030 0116 00000000 		.4byte	0
 4031 011a 00000000 		.4byte	0
 4032              	.LLST12:
 4033 011e 00000000 		.4byte	.LFB65
 4034 0122 02000000 		.4byte	.LCFI2
 4035 0126 0200     		.2byte	0x2
 4036 0128 7D       		.byte	0x7d
 4037 0129 00       		.sleb128 0
 4038 012a 02000000 		.4byte	.LCFI2
 4039 012e 4A000000 		.4byte	.LFE65
 4040 0132 0200     		.2byte	0x2
 4041 0134 7D       		.byte	0x7d
 4042 0135 04       		.sleb128 4
 4043 0136 00000000 		.4byte	0
 4044 013a 00000000 		.4byte	0
 4045              	.LLST13:
 4046 013e 00000000 		.4byte	.LVL22
 4047 0142 1C000000 		.4byte	.LVL28
 4048 0146 0100     		.2byte	0x1
 4049 0148 50       		.byte	0x50
 4050 0149 00000000 		.4byte	0
 4051 014d 00000000 		.4byte	0
 4052              	.LLST14:
 4053 0151 00000000 		.4byte	.LVL22
 4054 0155 18000000 		.4byte	.LVL26
 4055 0159 0100     		.2byte	0x1
 4056 015b 51       		.byte	0x51
 4057 015c 00000000 		.4byte	0
 4058 0160 00000000 		.4byte	0
 4059              	.LLST15:
 4060 0164 08000000 		.4byte	.LVL24
 4061 0168 0C000000 		.4byte	.LVL25
 4062 016c 0100     		.2byte	0x1
 4063 016e 53       		.byte	0x53
 4064 016f 00000000 		.4byte	0
 4065 0173 00000000 		.4byte	0
 4066              	.LLST16:
 4067 0177 1C000000 		.4byte	.LVL28
 4068 017b 28000000 		.4byte	.LVL29
 4069 017f 1100     		.2byte	0x11
 4070 0181 70       		.byte	0x70
 4071 0182 00       		.sleb128 0
 4072 0183 03       		.byte	0x3
 4073 0184 18000000 		.4byte	vexQuadEncoders+24
 4074 0188 94       		.byte	0x94
 4075 0189 02       		.byte	0x2
 4076 018a 40       		.byte	0x40
ARM GAS  /tmp/ccVWLZ4f.s 			page 73


 4077 018b 24       		.byte	0x24
 4078 018c 40       		.byte	0x40
 4079 018d 26       		.byte	0x26
 4080 018e 25       		.byte	0x25
 4081 018f 31       		.byte	0x31
 4082 0190 1A       		.byte	0x1a
 4083 0191 9F       		.byte	0x9f
 4084 0192 00000000 		.4byte	0
 4085 0196 00000000 		.4byte	0
 4086              	.LLST17:
 4087 019a 40000000 		.4byte	.LVL31
 4088 019e 44000000 		.4byte	.LVL32
 4089 01a2 0100     		.2byte	0x1
 4090 01a4 53       		.byte	0x53
 4091 01a5 00000000 		.4byte	0
 4092 01a9 00000000 		.4byte	0
 4093              	.LLST18:
 4094 01ad 00000000 		.4byte	.LFB67
 4095 01b1 02000000 		.4byte	.LCFI3
 4096 01b5 0200     		.2byte	0x2
 4097 01b7 7D       		.byte	0x7d
 4098 01b8 00       		.sleb128 0
 4099 01b9 02000000 		.4byte	.LCFI3
 4100 01bd 4A000000 		.4byte	.LFE67
 4101 01c1 0200     		.2byte	0x2
 4102 01c3 7D       		.byte	0x7d
 4103 01c4 04       		.sleb128 4
 4104 01c5 00000000 		.4byte	0
 4105 01c9 00000000 		.4byte	0
 4106              	.LLST19:
 4107 01cd 00000000 		.4byte	.LVL33
 4108 01d1 1C000000 		.4byte	.LVL39
 4109 01d5 0100     		.2byte	0x1
 4110 01d7 50       		.byte	0x50
 4111 01d8 00000000 		.4byte	0
 4112 01dc 00000000 		.4byte	0
 4113              	.LLST20:
 4114 01e0 00000000 		.4byte	.LVL33
 4115 01e4 18000000 		.4byte	.LVL37
 4116 01e8 0100     		.2byte	0x1
 4117 01ea 51       		.byte	0x51
 4118 01eb 00000000 		.4byte	0
 4119 01ef 00000000 		.4byte	0
 4120              	.LLST21:
 4121 01f3 08000000 		.4byte	.LVL35
 4122 01f7 0C000000 		.4byte	.LVL36
 4123 01fb 0100     		.2byte	0x1
 4124 01fd 53       		.byte	0x53
 4125 01fe 00000000 		.4byte	0
 4126 0202 00000000 		.4byte	0
 4127              	.LLST22:
 4128 0206 1C000000 		.4byte	.LVL39
 4129 020a 28000000 		.4byte	.LVL40
 4130 020e 1100     		.2byte	0x11
 4131 0210 70       		.byte	0x70
 4132 0211 00       		.sleb128 0
 4133 0212 03       		.byte	0x3
ARM GAS  /tmp/ccVWLZ4f.s 			page 74


 4134 0213 34000000 		.4byte	vexQuadEncoders+52
 4135 0217 94       		.byte	0x94
 4136 0218 02       		.byte	0x2
 4137 0219 40       		.byte	0x40
 4138 021a 24       		.byte	0x24
 4139 021b 40       		.byte	0x40
 4140 021c 26       		.byte	0x26
 4141 021d 25       		.byte	0x25
 4142 021e 31       		.byte	0x31
 4143 021f 1A       		.byte	0x1a
 4144 0220 9F       		.byte	0x9f
 4145 0221 00000000 		.4byte	0
 4146 0225 00000000 		.4byte	0
 4147              	.LLST23:
 4148 0229 40000000 		.4byte	.LVL42
 4149 022d 44000000 		.4byte	.LVL43
 4150 0231 0100     		.2byte	0x1
 4151 0233 53       		.byte	0x53
 4152 0234 00000000 		.4byte	0
 4153 0238 00000000 		.4byte	0
 4154              	.LLST24:
 4155 023c 00000000 		.4byte	.LFB69
 4156 0240 02000000 		.4byte	.LCFI4
 4157 0244 0200     		.2byte	0x2
 4158 0246 7D       		.byte	0x7d
 4159 0247 00       		.sleb128 0
 4160 0248 02000000 		.4byte	.LCFI4
 4161 024c 4A000000 		.4byte	.LFE69
 4162 0250 0200     		.2byte	0x2
 4163 0252 7D       		.byte	0x7d
 4164 0253 04       		.sleb128 4
 4165 0254 00000000 		.4byte	0
 4166 0258 00000000 		.4byte	0
 4167              	.LLST25:
 4168 025c 00000000 		.4byte	.LVL44
 4169 0260 1C000000 		.4byte	.LVL50
 4170 0264 0100     		.2byte	0x1
 4171 0266 50       		.byte	0x50
 4172 0267 00000000 		.4byte	0
 4173 026b 00000000 		.4byte	0
 4174              	.LLST26:
 4175 026f 00000000 		.4byte	.LVL44
 4176 0273 18000000 		.4byte	.LVL48
 4177 0277 0100     		.2byte	0x1
 4178 0279 51       		.byte	0x51
 4179 027a 00000000 		.4byte	0
 4180 027e 00000000 		.4byte	0
 4181              	.LLST27:
 4182 0282 08000000 		.4byte	.LVL46
 4183 0286 0C000000 		.4byte	.LVL47
 4184 028a 0100     		.2byte	0x1
 4185 028c 53       		.byte	0x53
 4186 028d 00000000 		.4byte	0
 4187 0291 00000000 		.4byte	0
 4188              	.LLST28:
 4189 0295 1C000000 		.4byte	.LVL50
 4190 0299 28000000 		.4byte	.LVL51
ARM GAS  /tmp/ccVWLZ4f.s 			page 75


 4191 029d 1100     		.2byte	0x11
 4192 029f 70       		.byte	0x70
 4193 02a0 00       		.sleb128 0
 4194 02a1 03       		.byte	0x3
 4195 02a2 50000000 		.4byte	vexQuadEncoders+80
 4196 02a6 94       		.byte	0x94
 4197 02a7 02       		.byte	0x2
 4198 02a8 40       		.byte	0x40
 4199 02a9 24       		.byte	0x24
 4200 02aa 40       		.byte	0x40
 4201 02ab 26       		.byte	0x26
 4202 02ac 25       		.byte	0x25
 4203 02ad 31       		.byte	0x31
 4204 02ae 1A       		.byte	0x1a
 4205 02af 9F       		.byte	0x9f
 4206 02b0 00000000 		.4byte	0
 4207 02b4 00000000 		.4byte	0
 4208              	.LLST29:
 4209 02b8 40000000 		.4byte	.LVL53
 4210 02bc 44000000 		.4byte	.LVL54
 4211 02c0 0100     		.2byte	0x1
 4212 02c2 53       		.byte	0x53
 4213 02c3 00000000 		.4byte	0
 4214 02c7 00000000 		.4byte	0
 4215              	.LLST30:
 4216 02cb 00000000 		.4byte	.LFB71
 4217 02cf 02000000 		.4byte	.LCFI5
 4218 02d3 0200     		.2byte	0x2
 4219 02d5 7D       		.byte	0x7d
 4220 02d6 00       		.sleb128 0
 4221 02d7 02000000 		.4byte	.LCFI5
 4222 02db 4A000000 		.4byte	.LFE71
 4223 02df 0200     		.2byte	0x2
 4224 02e1 7D       		.byte	0x7d
 4225 02e2 04       		.sleb128 4
 4226 02e3 00000000 		.4byte	0
 4227 02e7 00000000 		.4byte	0
 4228              	.LLST31:
 4229 02eb 00000000 		.4byte	.LVL55
 4230 02ef 1C000000 		.4byte	.LVL61
 4231 02f3 0100     		.2byte	0x1
 4232 02f5 50       		.byte	0x50
 4233 02f6 00000000 		.4byte	0
 4234 02fa 00000000 		.4byte	0
 4235              	.LLST32:
 4236 02fe 00000000 		.4byte	.LVL55
 4237 0302 18000000 		.4byte	.LVL59
 4238 0306 0100     		.2byte	0x1
 4239 0308 51       		.byte	0x51
 4240 0309 00000000 		.4byte	0
 4241 030d 00000000 		.4byte	0
 4242              	.LLST33:
 4243 0311 08000000 		.4byte	.LVL57
 4244 0315 0C000000 		.4byte	.LVL58
 4245 0319 0100     		.2byte	0x1
 4246 031b 53       		.byte	0x53
 4247 031c 00000000 		.4byte	0
ARM GAS  /tmp/ccVWLZ4f.s 			page 76


 4248 0320 00000000 		.4byte	0
 4249              	.LLST34:
 4250 0324 1C000000 		.4byte	.LVL61
 4251 0328 28000000 		.4byte	.LVL62
 4252 032c 1100     		.2byte	0x11
 4253 032e 70       		.byte	0x70
 4254 032f 00       		.sleb128 0
 4255 0330 03       		.byte	0x3
 4256 0331 6C000000 		.4byte	vexQuadEncoders+108
 4257 0335 94       		.byte	0x94
 4258 0336 02       		.byte	0x2
 4259 0337 40       		.byte	0x40
 4260 0338 24       		.byte	0x24
 4261 0339 40       		.byte	0x40
 4262 033a 26       		.byte	0x26
 4263 033b 25       		.byte	0x25
 4264 033c 31       		.byte	0x31
 4265 033d 1A       		.byte	0x1a
 4266 033e 9F       		.byte	0x9f
 4267 033f 00000000 		.4byte	0
 4268 0343 00000000 		.4byte	0
 4269              	.LLST35:
 4270 0347 40000000 		.4byte	.LVL64
 4271 034b 44000000 		.4byte	.LVL65
 4272 034f 0100     		.2byte	0x1
 4273 0351 53       		.byte	0x53
 4274 0352 00000000 		.4byte	0
 4275 0356 00000000 		.4byte	0
 4276              	.LLST36:
 4277 035a 00000000 		.4byte	.LFB66
 4278 035e 02000000 		.4byte	.LCFI6
 4279 0362 0200     		.2byte	0x2
 4280 0364 7D       		.byte	0x7d
 4281 0365 00       		.sleb128 0
 4282 0366 02000000 		.4byte	.LCFI6
 4283 036a 4A000000 		.4byte	.LFE66
 4284 036e 0200     		.2byte	0x2
 4285 0370 7D       		.byte	0x7d
 4286 0371 04       		.sleb128 4
 4287 0372 00000000 		.4byte	0
 4288 0376 00000000 		.4byte	0
 4289              	.LLST37:
 4290 037a 00000000 		.4byte	.LVL66
 4291 037e 1C000000 		.4byte	.LVL72
 4292 0382 0100     		.2byte	0x1
 4293 0384 50       		.byte	0x50
 4294 0385 00000000 		.4byte	0
 4295 0389 00000000 		.4byte	0
 4296              	.LLST38:
 4297 038d 00000000 		.4byte	.LVL66
 4298 0391 18000000 		.4byte	.LVL70
 4299 0395 0100     		.2byte	0x1
 4300 0397 51       		.byte	0x51
 4301 0398 00000000 		.4byte	0
 4302 039c 00000000 		.4byte	0
 4303              	.LLST39:
 4304 03a0 08000000 		.4byte	.LVL68
ARM GAS  /tmp/ccVWLZ4f.s 			page 77


 4305 03a4 0C000000 		.4byte	.LVL69
 4306 03a8 0100     		.2byte	0x1
 4307 03aa 53       		.byte	0x53
 4308 03ab 00000000 		.4byte	0
 4309 03af 00000000 		.4byte	0
 4310              	.LLST40:
 4311 03b3 1C000000 		.4byte	.LVL72
 4312 03b7 28000000 		.4byte	.LVL73
 4313 03bb 1100     		.2byte	0x11
 4314 03bd 70       		.byte	0x70
 4315 03be 00       		.sleb128 0
 4316 03bf 03       		.byte	0x3
 4317 03c0 18000000 		.4byte	vexQuadEncoders+24
 4318 03c4 94       		.byte	0x94
 4319 03c5 02       		.byte	0x2
 4320 03c6 40       		.byte	0x40
 4321 03c7 24       		.byte	0x24
 4322 03c8 40       		.byte	0x40
 4323 03c9 26       		.byte	0x26
 4324 03ca 25       		.byte	0x25
 4325 03cb 31       		.byte	0x31
 4326 03cc 1A       		.byte	0x1a
 4327 03cd 9F       		.byte	0x9f
 4328 03ce 00000000 		.4byte	0
 4329 03d2 00000000 		.4byte	0
 4330              	.LLST41:
 4331 03d6 40000000 		.4byte	.LVL75
 4332 03da 44000000 		.4byte	.LVL76
 4333 03de 0100     		.2byte	0x1
 4334 03e0 53       		.byte	0x53
 4335 03e1 00000000 		.4byte	0
 4336 03e5 00000000 		.4byte	0
 4337              	.LLST42:
 4338 03e9 00000000 		.4byte	.LFB68
 4339 03ed 02000000 		.4byte	.LCFI7
 4340 03f1 0200     		.2byte	0x2
 4341 03f3 7D       		.byte	0x7d
 4342 03f4 00       		.sleb128 0
 4343 03f5 02000000 		.4byte	.LCFI7
 4344 03f9 4A000000 		.4byte	.LFE68
 4345 03fd 0200     		.2byte	0x2
 4346 03ff 7D       		.byte	0x7d
 4347 0400 04       		.sleb128 4
 4348 0401 00000000 		.4byte	0
 4349 0405 00000000 		.4byte	0
 4350              	.LLST43:
 4351 0409 00000000 		.4byte	.LVL77
 4352 040d 1C000000 		.4byte	.LVL83
 4353 0411 0100     		.2byte	0x1
 4354 0413 50       		.byte	0x50
 4355 0414 00000000 		.4byte	0
 4356 0418 00000000 		.4byte	0
 4357              	.LLST44:
 4358 041c 00000000 		.4byte	.LVL77
 4359 0420 18000000 		.4byte	.LVL81
 4360 0424 0100     		.2byte	0x1
 4361 0426 51       		.byte	0x51
ARM GAS  /tmp/ccVWLZ4f.s 			page 78


 4362 0427 00000000 		.4byte	0
 4363 042b 00000000 		.4byte	0
 4364              	.LLST45:
 4365 042f 08000000 		.4byte	.LVL79
 4366 0433 0C000000 		.4byte	.LVL80
 4367 0437 0100     		.2byte	0x1
 4368 0439 53       		.byte	0x53
 4369 043a 00000000 		.4byte	0
 4370 043e 00000000 		.4byte	0
 4371              	.LLST46:
 4372 0442 1C000000 		.4byte	.LVL83
 4373 0446 28000000 		.4byte	.LVL84
 4374 044a 1100     		.2byte	0x11
 4375 044c 70       		.byte	0x70
 4376 044d 00       		.sleb128 0
 4377 044e 03       		.byte	0x3
 4378 044f 34000000 		.4byte	vexQuadEncoders+52
 4379 0453 94       		.byte	0x94
 4380 0454 02       		.byte	0x2
 4381 0455 40       		.byte	0x40
 4382 0456 24       		.byte	0x24
 4383 0457 40       		.byte	0x40
 4384 0458 26       		.byte	0x26
 4385 0459 25       		.byte	0x25
 4386 045a 31       		.byte	0x31
 4387 045b 1A       		.byte	0x1a
 4388 045c 9F       		.byte	0x9f
 4389 045d 00000000 		.4byte	0
 4390 0461 00000000 		.4byte	0
 4391              	.LLST47:
 4392 0465 40000000 		.4byte	.LVL86
 4393 0469 44000000 		.4byte	.LVL87
 4394 046d 0100     		.2byte	0x1
 4395 046f 53       		.byte	0x53
 4396 0470 00000000 		.4byte	0
 4397 0474 00000000 		.4byte	0
 4398              	.LLST48:
 4399 0478 00000000 		.4byte	.LFB70
 4400 047c 02000000 		.4byte	.LCFI8
 4401 0480 0200     		.2byte	0x2
 4402 0482 7D       		.byte	0x7d
 4403 0483 00       		.sleb128 0
 4404 0484 02000000 		.4byte	.LCFI8
 4405 0488 4A000000 		.4byte	.LFE70
 4406 048c 0200     		.2byte	0x2
 4407 048e 7D       		.byte	0x7d
 4408 048f 04       		.sleb128 4
 4409 0490 00000000 		.4byte	0
 4410 0494 00000000 		.4byte	0
 4411              	.LLST49:
 4412 0498 00000000 		.4byte	.LVL88
 4413 049c 1C000000 		.4byte	.LVL94
 4414 04a0 0100     		.2byte	0x1
 4415 04a2 50       		.byte	0x50
 4416 04a3 00000000 		.4byte	0
 4417 04a7 00000000 		.4byte	0
 4418              	.LLST50:
ARM GAS  /tmp/ccVWLZ4f.s 			page 79


 4419 04ab 00000000 		.4byte	.LVL88
 4420 04af 18000000 		.4byte	.LVL92
 4421 04b3 0100     		.2byte	0x1
 4422 04b5 51       		.byte	0x51
 4423 04b6 00000000 		.4byte	0
 4424 04ba 00000000 		.4byte	0
 4425              	.LLST51:
 4426 04be 08000000 		.4byte	.LVL90
 4427 04c2 0C000000 		.4byte	.LVL91
 4428 04c6 0100     		.2byte	0x1
 4429 04c8 53       		.byte	0x53
 4430 04c9 00000000 		.4byte	0
 4431 04cd 00000000 		.4byte	0
 4432              	.LLST52:
 4433 04d1 1C000000 		.4byte	.LVL94
 4434 04d5 28000000 		.4byte	.LVL95
 4435 04d9 1100     		.2byte	0x11
 4436 04db 70       		.byte	0x70
 4437 04dc 00       		.sleb128 0
 4438 04dd 03       		.byte	0x3
 4439 04de 50000000 		.4byte	vexQuadEncoders+80
 4440 04e2 94       		.byte	0x94
 4441 04e3 02       		.byte	0x2
 4442 04e4 40       		.byte	0x40
 4443 04e5 24       		.byte	0x24
 4444 04e6 40       		.byte	0x40
 4445 04e7 26       		.byte	0x26
 4446 04e8 25       		.byte	0x25
 4447 04e9 31       		.byte	0x31
 4448 04ea 1A       		.byte	0x1a
 4449 04eb 9F       		.byte	0x9f
 4450 04ec 00000000 		.4byte	0
 4451 04f0 00000000 		.4byte	0
 4452              	.LLST53:
 4453 04f4 40000000 		.4byte	.LVL97
 4454 04f8 44000000 		.4byte	.LVL98
 4455 04fc 0100     		.2byte	0x1
 4456 04fe 53       		.byte	0x53
 4457 04ff 00000000 		.4byte	0
 4458 0503 00000000 		.4byte	0
 4459              	.LLST54:
 4460 0507 00000000 		.4byte	.LFB72
 4461 050b 02000000 		.4byte	.LCFI9
 4462 050f 0200     		.2byte	0x2
 4463 0511 7D       		.byte	0x7d
 4464 0512 00       		.sleb128 0
 4465 0513 02000000 		.4byte	.LCFI9
 4466 0517 4A000000 		.4byte	.LFE72
 4467 051b 0200     		.2byte	0x2
 4468 051d 7D       		.byte	0x7d
 4469 051e 04       		.sleb128 4
 4470 051f 00000000 		.4byte	0
 4471 0523 00000000 		.4byte	0
 4472              	.LLST55:
 4473 0527 00000000 		.4byte	.LVL99
 4474 052b 1C000000 		.4byte	.LVL105
 4475 052f 0100     		.2byte	0x1
ARM GAS  /tmp/ccVWLZ4f.s 			page 80


 4476 0531 50       		.byte	0x50
 4477 0532 00000000 		.4byte	0
 4478 0536 00000000 		.4byte	0
 4479              	.LLST56:
 4480 053a 00000000 		.4byte	.LVL99
 4481 053e 18000000 		.4byte	.LVL103
 4482 0542 0100     		.2byte	0x1
 4483 0544 51       		.byte	0x51
 4484 0545 00000000 		.4byte	0
 4485 0549 00000000 		.4byte	0
 4486              	.LLST57:
 4487 054d 08000000 		.4byte	.LVL101
 4488 0551 0C000000 		.4byte	.LVL102
 4489 0555 0100     		.2byte	0x1
 4490 0557 53       		.byte	0x53
 4491 0558 00000000 		.4byte	0
 4492 055c 00000000 		.4byte	0
 4493              	.LLST58:
 4494 0560 1C000000 		.4byte	.LVL105
 4495 0564 28000000 		.4byte	.LVL106
 4496 0568 1100     		.2byte	0x11
 4497 056a 70       		.byte	0x70
 4498 056b 00       		.sleb128 0
 4499 056c 03       		.byte	0x3
 4500 056d 6C000000 		.4byte	vexQuadEncoders+108
 4501 0571 94       		.byte	0x94
 4502 0572 02       		.byte	0x2
 4503 0573 40       		.byte	0x40
 4504 0574 24       		.byte	0x24
 4505 0575 40       		.byte	0x40
 4506 0576 26       		.byte	0x26
 4507 0577 25       		.byte	0x25
 4508 0578 31       		.byte	0x31
 4509 0579 1A       		.byte	0x1a
 4510 057a 9F       		.byte	0x9f
 4511 057b 00000000 		.4byte	0
 4512 057f 00000000 		.4byte	0
 4513              	.LLST59:
 4514 0583 40000000 		.4byte	.LVL108
 4515 0587 44000000 		.4byte	.LVL109
 4516 058b 0100     		.2byte	0x1
 4517 058d 53       		.byte	0x53
 4518 058e 00000000 		.4byte	0
 4519 0592 00000000 		.4byte	0
 4520              	.LLST60:
 4521 0596 00000000 		.4byte	.LVL110
 4522 059a 12000000 		.4byte	.LVL111
 4523 059e 0200     		.2byte	0x2
 4524 05a0 30       		.byte	0x30
 4525 05a1 9F       		.byte	0x9f
 4526 05a2 12000000 		.4byte	.LVL111
 4527 05a6 1A000000 		.4byte	.LVL112
 4528 05aa 0200     		.2byte	0x2
 4529 05ac 31       		.byte	0x31
 4530 05ad 9F       		.byte	0x9f
 4531 05ae 1A000000 		.4byte	.LVL112
 4532 05b2 20000000 		.4byte	.LVL113
ARM GAS  /tmp/ccVWLZ4f.s 			page 81


 4533 05b6 0200     		.2byte	0x2
 4534 05b8 32       		.byte	0x32
 4535 05b9 9F       		.byte	0x9f
 4536 05ba 20000000 		.4byte	.LVL113
 4537 05be 26000000 		.4byte	.LVL114
 4538 05c2 0200     		.2byte	0x2
 4539 05c4 33       		.byte	0x33
 4540 05c5 9F       		.byte	0x9f
 4541 05c6 26000000 		.4byte	.LVL114
 4542 05ca 2E000000 		.4byte	.LVL115
 4543 05ce 0200     		.2byte	0x2
 4544 05d0 34       		.byte	0x34
 4545 05d1 9F       		.byte	0x9f
 4546 05d2 2E000000 		.4byte	.LVL115
 4547 05d6 30000000 		.4byte	.LFE75
 4548 05da 0200     		.2byte	0x2
 4549 05dc 35       		.byte	0x35
 4550 05dd 9F       		.byte	0x9f
 4551 05de 00000000 		.4byte	0
 4552 05e2 00000000 		.4byte	0
 4553              	.LLST61:
 4554 05e6 00000000 		.4byte	.LFB76
 4555 05ea 06000000 		.4byte	.LCFI10
 4556 05ee 0200     		.2byte	0x2
 4557 05f0 7D       		.byte	0x7d
 4558 05f1 00       		.sleb128 0
 4559 05f2 06000000 		.4byte	.LCFI10
 4560 05f6 BA000000 		.4byte	.LFE76
 4561 05fa 0200     		.2byte	0x2
 4562 05fc 7D       		.byte	0x7d
 4563 05fd 20       		.sleb128 32
 4564 05fe 00000000 		.4byte	0
 4565 0602 00000000 		.4byte	0
 4566              	.LLST62:
 4567 0606 00000000 		.4byte	.LVL116
 4568 060a 32000000 		.4byte	.LVL117
 4569 060e 0100     		.2byte	0x1
 4570 0610 50       		.byte	0x50
 4571 0611 00000000 		.4byte	0
 4572 0615 00000000 		.4byte	0
 4573              	.LLST63:
 4574 0619 00000000 		.4byte	.LVL116
 4575 061d 38000000 		.4byte	.LVL118
 4576 0621 0100     		.2byte	0x1
 4577 0623 51       		.byte	0x51
 4578 0624 00000000 		.4byte	0
 4579 0628 00000000 		.4byte	0
 4580              	.LLST64:
 4581 062c 00000000 		.4byte	.LVL116
 4582 0630 3F000000 		.4byte	.LVL119-1
 4583 0634 0100     		.2byte	0x1
 4584 0636 52       		.byte	0x52
 4585 0637 00000000 		.4byte	0
 4586 063b 00000000 		.4byte	0
 4587              	.LLST65:
 4588 063f 00000000 		.4byte	.LFB77
 4589 0643 0E000000 		.4byte	.LCFI11
ARM GAS  /tmp/ccVWLZ4f.s 			page 82


 4590 0647 0200     		.2byte	0x2
 4591 0649 7D       		.byte	0x7d
 4592 064a 00       		.sleb128 0
 4593 064b 0E000000 		.4byte	.LCFI11
 4594 064f 40000000 		.4byte	.LFE77
 4595 0653 0200     		.2byte	0x2
 4596 0655 7D       		.byte	0x7d
 4597 0656 08       		.sleb128 8
 4598 0657 00000000 		.4byte	0
 4599 065b 00000000 		.4byte	0
 4600              	.LLST66:
 4601 065f 00000000 		.4byte	.LVL120
 4602 0663 0C000000 		.4byte	.LVL121
 4603 0667 0100     		.2byte	0x1
 4604 0669 50       		.byte	0x50
 4605 066a 00000000 		.4byte	0
 4606 066e 00000000 		.4byte	0
 4607              	.LLST67:
 4608 0672 00000000 		.4byte	.LFB78
 4609 0676 0E000000 		.4byte	.LCFI12
 4610 067a 0200     		.2byte	0x2
 4611 067c 7D       		.byte	0x7d
 4612 067d 00       		.sleb128 0
 4613 067e 0E000000 		.4byte	.LCFI12
 4614 0682 40000000 		.4byte	.LFE78
 4615 0686 0200     		.2byte	0x2
 4616 0688 7D       		.byte	0x7d
 4617 0689 08       		.sleb128 8
 4618 068a 00000000 		.4byte	0
 4619 068e 00000000 		.4byte	0
 4620              	.LLST68:
 4621 0692 00000000 		.4byte	.LVL122
 4622 0696 0C000000 		.4byte	.LVL123
 4623 069a 0100     		.2byte	0x1
 4624 069c 50       		.byte	0x50
 4625 069d 00000000 		.4byte	0
 4626 06a1 00000000 		.4byte	0
 4627              	.LLST69:
 4628 06a5 00000000 		.4byte	.LFB79
 4629 06a9 02000000 		.4byte	.LCFI13
 4630 06ad 0200     		.2byte	0x2
 4631 06af 7D       		.byte	0x7d
 4632 06b0 00       		.sleb128 0
 4633 06b1 02000000 		.4byte	.LCFI13
 4634 06b5 24000000 		.4byte	.LFE79
 4635 06b9 0200     		.2byte	0x2
 4636 06bb 7D       		.byte	0x7d
 4637 06bc 08       		.sleb128 8
 4638 06bd 00000000 		.4byte	0
 4639 06c1 00000000 		.4byte	0
 4640              	.LLST70:
 4641 06c5 00000000 		.4byte	.LVL124
 4642 06c9 08000000 		.4byte	.LVL125
 4643 06cd 0200     		.2byte	0x2
 4644 06cf 30       		.byte	0x30
 4645 06d0 9F       		.byte	0x9f
 4646 06d1 08000000 		.4byte	.LVL125
ARM GAS  /tmp/ccVWLZ4f.s 			page 83


 4647 06d5 0E000000 		.4byte	.LVL126
 4648 06d9 0200     		.2byte	0x2
 4649 06db 31       		.byte	0x31
 4650 06dc 9F       		.byte	0x9f
 4651 06dd 0E000000 		.4byte	.LVL126
 4652 06e1 14000000 		.4byte	.LVL127
 4653 06e5 0200     		.2byte	0x2
 4654 06e7 32       		.byte	0x32
 4655 06e8 9F       		.byte	0x9f
 4656 06e9 14000000 		.4byte	.LVL127
 4657 06ed 1A000000 		.4byte	.LVL128
 4658 06f1 0200     		.2byte	0x2
 4659 06f3 33       		.byte	0x33
 4660 06f4 9F       		.byte	0x9f
 4661 06f5 1A000000 		.4byte	.LVL128
 4662 06f9 24000000 		.4byte	.LFE79
 4663 06fd 0200     		.2byte	0x2
 4664 06ff 34       		.byte	0x34
 4665 0700 9F       		.byte	0x9f
 4666 0701 00000000 		.4byte	0
 4667 0705 00000000 		.4byte	0
 4668              	.LLST71:
 4669 0709 00000000 		.4byte	.LVL129
 4670 070d 14000000 		.4byte	.LVL130
 4671 0711 0100     		.2byte	0x1
 4672 0713 50       		.byte	0x50
 4673 0714 22000000 		.4byte	.LVL131
 4674 0718 24000000 		.4byte	.LVL132
 4675 071c 0100     		.2byte	0x1
 4676 071e 50       		.byte	0x50
 4677 071f 24000000 		.4byte	.LVL132
 4678 0723 26000000 		.4byte	.LFE80
 4679 0727 0100     		.2byte	0x1
 4680 0729 53       		.byte	0x53
 4681 072a 00000000 		.4byte	0
 4682 072e 00000000 		.4byte	0
 4683              	.LLST72:
 4684 0732 00000000 		.4byte	.LVL133
 4685 0736 0A000000 		.4byte	.LVL134
 4686 073a 0100     		.2byte	0x1
 4687 073c 50       		.byte	0x50
 4688 073d 0A000000 		.4byte	.LVL134
 4689 0741 14000000 		.4byte	.LVL135
 4690 0745 0100     		.2byte	0x1
 4691 0747 53       		.byte	0x53
 4692 0748 00000000 		.4byte	0
 4693 074c 00000000 		.4byte	0
 4694              	.LLST73:
 4695 0750 00000000 		.4byte	.LVL133
 4696 0754 1E000000 		.4byte	.LVL136
 4697 0758 0100     		.2byte	0x1
 4698 075a 51       		.byte	0x51
 4699 075b 00000000 		.4byte	0
 4700 075f 00000000 		.4byte	0
 4701              	.LLST74:
 4702 0763 00000000 		.4byte	.LVL137
 4703 0767 0C000000 		.4byte	.LVL138
ARM GAS  /tmp/ccVWLZ4f.s 			page 84


 4704 076b 0100     		.2byte	0x1
 4705 076d 50       		.byte	0x50
 4706 076e 00000000 		.4byte	0
 4707 0772 00000000 		.4byte	0
 4708              	.LLST75:
 4709 0776 00000000 		.4byte	.LFB83
 4710 077a 02000000 		.4byte	.LCFI14
 4711 077e 0200     		.2byte	0x2
 4712 0780 7D       		.byte	0x7d
 4713 0781 00       		.sleb128 0
 4714 0782 02000000 		.4byte	.LCFI14
 4715 0786 16000000 		.4byte	.LCFI15
 4716 078a 0200     		.2byte	0x2
 4717 078c 7D       		.byte	0x7d
 4718 078d 14       		.sleb128 20
 4719 078e 16000000 		.4byte	.LCFI15
 4720 0792 68000000 		.4byte	.LFE83
 4721 0796 0200     		.2byte	0x2
 4722 0798 7D       		.byte	0x7d
 4723 0799 20       		.sleb128 32
 4724 079a 00000000 		.4byte	0
 4725 079e 00000000 		.4byte	0
 4726              	.LLST76:
 4727 07a2 00000000 		.4byte	.LVL139
 4728 07a6 23000000 		.4byte	.LVL142-1
 4729 07aa 0100     		.2byte	0x1
 4730 07ac 50       		.byte	0x50
 4731 07ad 23000000 		.4byte	.LVL142-1
 4732 07b1 68000000 		.4byte	.LFE83
 4733 07b5 0100     		.2byte	0x1
 4734 07b7 56       		.byte	0x56
 4735 07b8 00000000 		.4byte	0
 4736 07bc 00000000 		.4byte	0
 4737              	.LLST77:
 4738 07c0 00000000 		.4byte	.LVL139
 4739 07c4 1A000000 		.4byte	.LVL140
 4740 07c8 0100     		.2byte	0x1
 4741 07ca 51       		.byte	0x51
 4742 07cb 00000000 		.4byte	0
 4743 07cf 00000000 		.4byte	0
 4744              	.LLST78:
 4745 07d3 00000000 		.4byte	.LVL139
 4746 07d7 1C000000 		.4byte	.LVL141
 4747 07db 0100     		.2byte	0x1
 4748 07dd 52       		.byte	0x52
 4749 07de 00000000 		.4byte	0
 4750 07e2 00000000 		.4byte	0
 4751              	.LLST79:
 4752 07e6 00000000 		.4byte	.LVL139
 4753 07ea 24000000 		.4byte	.LVL142
 4754 07ee 0200     		.2byte	0x2
 4755 07f0 30       		.byte	0x30
 4756 07f1 9F       		.byte	0x9f
 4757 07f2 24000000 		.4byte	.LVL142
 4758 07f6 34000000 		.4byte	.LVL143
 4759 07fa 0200     		.2byte	0x2
 4760 07fc 31       		.byte	0x31
ARM GAS  /tmp/ccVWLZ4f.s 			page 85


 4761 07fd 9F       		.byte	0x9f
 4762 07fe 34000000 		.4byte	.LVL143
 4763 0802 44000000 		.4byte	.LVL144
 4764 0806 0200     		.2byte	0x2
 4765 0808 32       		.byte	0x32
 4766 0809 9F       		.byte	0x9f
 4767 080a 44000000 		.4byte	.LVL144
 4768 080e 54000000 		.4byte	.LVL145
 4769 0812 0200     		.2byte	0x2
 4770 0814 33       		.byte	0x33
 4771 0815 9F       		.byte	0x9f
 4772 0816 54000000 		.4byte	.LVL145
 4773 081a 64000000 		.4byte	.LVL146
 4774 081e 0200     		.2byte	0x2
 4775 0820 34       		.byte	0x34
 4776 0821 9F       		.byte	0x9f
 4777 0822 64000000 		.4byte	.LVL146
 4778 0826 68000000 		.4byte	.LFE83
 4779 082a 0200     		.2byte	0x2
 4780 082c 35       		.byte	0x35
 4781 082d 9F       		.byte	0x9f
 4782 082e 00000000 		.4byte	0
 4783 0832 00000000 		.4byte	0
 4784              		.section	.debug_aranges,"",%progbits
 4785 0000 AC000000 		.4byte	0xac
 4786 0004 0200     		.2byte	0x2
 4787 0006 00000000 		.4byte	.Ldebug_info0
 4788 000a 04       		.byte	0x4
 4789 000b 00       		.byte	0
 4790 000c 0000     		.2byte	0
 4791 000e 0000     		.2byte	0
 4792 0010 00000000 		.4byte	.LFB73
 4793 0014 4C000000 		.4byte	.LFE73-.LFB73
 4794 0018 00000000 		.4byte	.LFB74
 4795 001c 4C000000 		.4byte	.LFE74-.LFB74
 4796 0020 00000000 		.4byte	.LFB65
 4797 0024 4A000000 		.4byte	.LFE65-.LFB65
 4798 0028 00000000 		.4byte	.LFB67
 4799 002c 4A000000 		.4byte	.LFE67-.LFB67
 4800 0030 00000000 		.4byte	.LFB69
 4801 0034 4A000000 		.4byte	.LFE69-.LFB69
 4802 0038 00000000 		.4byte	.LFB71
 4803 003c 4A000000 		.4byte	.LFE71-.LFB71
 4804 0040 00000000 		.4byte	.LFB66
 4805 0044 4A000000 		.4byte	.LFE66-.LFB66
 4806 0048 00000000 		.4byte	.LFB68
 4807 004c 4A000000 		.4byte	.LFE68-.LFB68
 4808 0050 00000000 		.4byte	.LFB70
 4809 0054 4A000000 		.4byte	.LFE70-.LFB70
 4810 0058 00000000 		.4byte	.LFB72
 4811 005c 4A000000 		.4byte	.LFE72-.LFB72
 4812 0060 00000000 		.4byte	.LFB75
 4813 0064 30000000 		.4byte	.LFE75-.LFB75
 4814 0068 00000000 		.4byte	.LFB76
 4815 006c BA000000 		.4byte	.LFE76-.LFB76
 4816 0070 00000000 		.4byte	.LFB77
 4817 0074 40000000 		.4byte	.LFE77-.LFB77
ARM GAS  /tmp/ccVWLZ4f.s 			page 86


 4818 0078 00000000 		.4byte	.LFB78
 4819 007c 40000000 		.4byte	.LFE78-.LFB78
 4820 0080 00000000 		.4byte	.LFB79
 4821 0084 24000000 		.4byte	.LFE79-.LFB79
 4822 0088 00000000 		.4byte	.LFB80
 4823 008c 26000000 		.4byte	.LFE80-.LFB80
 4824 0090 00000000 		.4byte	.LFB81
 4825 0094 22000000 		.4byte	.LFE81-.LFB81
 4826 0098 00000000 		.4byte	.LFB82
 4827 009c 22000000 		.4byte	.LFE82-.LFB82
 4828 00a0 00000000 		.4byte	.LFB83
 4829 00a4 68000000 		.4byte	.LFE83-.LFB83
 4830 00a8 00000000 		.4byte	0
 4831 00ac 00000000 		.4byte	0
 4832              		.section	.debug_ranges,"",%progbits
 4833              	.Ldebug_ranges0:
 4834 0000 08000000 		.4byte	.LBB7
 4835 0004 3C000000 		.4byte	.LBE7
 4836 0008 46000000 		.4byte	.LBB11
 4837 000c 4C000000 		.4byte	.LBE11
 4838 0010 00000000 		.4byte	0
 4839 0014 00000000 		.4byte	0
 4840 0018 08000000 		.4byte	.LBB8
 4841 001c 3C000000 		.4byte	.LBE8
 4842 0020 46000000 		.4byte	.LBB9
 4843 0024 4C000000 		.4byte	.LBE9
 4844 0028 00000000 		.4byte	0
 4845 002c 00000000 		.4byte	0
 4846 0030 08000000 		.4byte	.LBB17
 4847 0034 3C000000 		.4byte	.LBE17
 4848 0038 46000000 		.4byte	.LBB21
 4849 003c 4C000000 		.4byte	.LBE21
 4850 0040 00000000 		.4byte	0
 4851 0044 00000000 		.4byte	0
 4852 0048 08000000 		.4byte	.LBB18
 4853 004c 3C000000 		.4byte	.LBE18
 4854 0050 46000000 		.4byte	.LBB19
 4855 0054 4C000000 		.4byte	.LBE19
 4856 0058 00000000 		.4byte	0
 4857 005c 00000000 		.4byte	0
 4858 0060 08000000 		.4byte	.LBB27
 4859 0064 3A000000 		.4byte	.LBE27
 4860 0068 44000000 		.4byte	.LBB31
 4861 006c 4A000000 		.4byte	.LBE31
 4862 0070 00000000 		.4byte	0
 4863 0074 00000000 		.4byte	0
 4864 0078 08000000 		.4byte	.LBB28
 4865 007c 3A000000 		.4byte	.LBE28
 4866 0080 44000000 		.4byte	.LBB29
 4867 0084 4A000000 		.4byte	.LBE29
 4868 0088 00000000 		.4byte	0
 4869 008c 00000000 		.4byte	0
 4870 0090 08000000 		.4byte	.LBB37
 4871 0094 3A000000 		.4byte	.LBE37
 4872 0098 44000000 		.4byte	.LBB41
 4873 009c 4A000000 		.4byte	.LBE41
 4874 00a0 00000000 		.4byte	0
ARM GAS  /tmp/ccVWLZ4f.s 			page 87


 4875 00a4 00000000 		.4byte	0
 4876 00a8 08000000 		.4byte	.LBB38
 4877 00ac 3A000000 		.4byte	.LBE38
 4878 00b0 44000000 		.4byte	.LBB39
 4879 00b4 4A000000 		.4byte	.LBE39
 4880 00b8 00000000 		.4byte	0
 4881 00bc 00000000 		.4byte	0
 4882 00c0 08000000 		.4byte	.LBB47
 4883 00c4 3A000000 		.4byte	.LBE47
 4884 00c8 44000000 		.4byte	.LBB51
 4885 00cc 4A000000 		.4byte	.LBE51
 4886 00d0 00000000 		.4byte	0
 4887 00d4 00000000 		.4byte	0
 4888 00d8 08000000 		.4byte	.LBB48
 4889 00dc 3A000000 		.4byte	.LBE48
 4890 00e0 44000000 		.4byte	.LBB49
 4891 00e4 4A000000 		.4byte	.LBE49
 4892 00e8 00000000 		.4byte	0
 4893 00ec 00000000 		.4byte	0
 4894 00f0 08000000 		.4byte	.LBB57
 4895 00f4 3A000000 		.4byte	.LBE57
 4896 00f8 44000000 		.4byte	.LBB61
 4897 00fc 4A000000 		.4byte	.LBE61
 4898 0100 00000000 		.4byte	0
 4899 0104 00000000 		.4byte	0
 4900 0108 08000000 		.4byte	.LBB58
 4901 010c 3A000000 		.4byte	.LBE58
 4902 0110 44000000 		.4byte	.LBB59
 4903 0114 4A000000 		.4byte	.LBE59
 4904 0118 00000000 		.4byte	0
 4905 011c 00000000 		.4byte	0
 4906 0120 08000000 		.4byte	.LBB67
 4907 0124 3A000000 		.4byte	.LBE67
 4908 0128 44000000 		.4byte	.LBB71
 4909 012c 4A000000 		.4byte	.LBE71
 4910 0130 00000000 		.4byte	0
 4911 0134 00000000 		.4byte	0
 4912 0138 08000000 		.4byte	.LBB68
 4913 013c 3A000000 		.4byte	.LBE68
 4914 0140 44000000 		.4byte	.LBB69
 4915 0144 4A000000 		.4byte	.LBE69
 4916 0148 00000000 		.4byte	0
 4917 014c 00000000 		.4byte	0
 4918 0150 08000000 		.4byte	.LBB77
 4919 0154 3A000000 		.4byte	.LBE77
 4920 0158 44000000 		.4byte	.LBB81
 4921 015c 4A000000 		.4byte	.LBE81
 4922 0160 00000000 		.4byte	0
 4923 0164 00000000 		.4byte	0
 4924 0168 08000000 		.4byte	.LBB78
 4925 016c 3A000000 		.4byte	.LBE78
 4926 0170 44000000 		.4byte	.LBB79
 4927 0174 4A000000 		.4byte	.LBE79
 4928 0178 00000000 		.4byte	0
 4929 017c 00000000 		.4byte	0
 4930 0180 08000000 		.4byte	.LBB87
 4931 0184 3A000000 		.4byte	.LBE87
ARM GAS  /tmp/ccVWLZ4f.s 			page 88


 4932 0188 44000000 		.4byte	.LBB91
 4933 018c 4A000000 		.4byte	.LBE91
 4934 0190 00000000 		.4byte	0
 4935 0194 00000000 		.4byte	0
 4936 0198 08000000 		.4byte	.LBB88
 4937 019c 3A000000 		.4byte	.LBE88
 4938 01a0 44000000 		.4byte	.LBB89
 4939 01a4 4A000000 		.4byte	.LBE89
 4940 01a8 00000000 		.4byte	0
 4941 01ac 00000000 		.4byte	0
 4942 01b0 08000000 		.4byte	.LBB97
 4943 01b4 3A000000 		.4byte	.LBE97
 4944 01b8 44000000 		.4byte	.LBB101
 4945 01bc 4A000000 		.4byte	.LBE101
 4946 01c0 00000000 		.4byte	0
 4947 01c4 00000000 		.4byte	0
 4948 01c8 08000000 		.4byte	.LBB98
 4949 01cc 3A000000 		.4byte	.LBE98
 4950 01d0 44000000 		.4byte	.LBB99
 4951 01d4 4A000000 		.4byte	.LBE99
 4952 01d8 00000000 		.4byte	0
 4953 01dc 00000000 		.4byte	0
 4954 01e0 00000000 		.4byte	.LFB73
 4955 01e4 4C000000 		.4byte	.LFE73
 4956 01e8 00000000 		.4byte	.LFB74
 4957 01ec 4C000000 		.4byte	.LFE74
 4958 01f0 00000000 		.4byte	.LFB65
 4959 01f4 4A000000 		.4byte	.LFE65
 4960 01f8 00000000 		.4byte	.LFB67
 4961 01fc 4A000000 		.4byte	.LFE67
 4962 0200 00000000 		.4byte	.LFB69
 4963 0204 4A000000 		.4byte	.LFE69
 4964 0208 00000000 		.4byte	.LFB71
 4965 020c 4A000000 		.4byte	.LFE71
 4966 0210 00000000 		.4byte	.LFB66
 4967 0214 4A000000 		.4byte	.LFE66
 4968 0218 00000000 		.4byte	.LFB68
 4969 021c 4A000000 		.4byte	.LFE68
 4970 0220 00000000 		.4byte	.LFB70
 4971 0224 4A000000 		.4byte	.LFE70
 4972 0228 00000000 		.4byte	.LFB72
 4973 022c 4A000000 		.4byte	.LFE72
 4974 0230 00000000 		.4byte	.LFB75
 4975 0234 30000000 		.4byte	.LFE75
 4976 0238 00000000 		.4byte	.LFB76
 4977 023c BA000000 		.4byte	.LFE76
 4978 0240 00000000 		.4byte	.LFB77
 4979 0244 40000000 		.4byte	.LFE77
 4980 0248 00000000 		.4byte	.LFB78
 4981 024c 40000000 		.4byte	.LFE78
 4982 0250 00000000 		.4byte	.LFB79
 4983 0254 24000000 		.4byte	.LFE79
 4984 0258 00000000 		.4byte	.LFB80
 4985 025c 26000000 		.4byte	.LFE80
 4986 0260 00000000 		.4byte	.LFB81
 4987 0264 22000000 		.4byte	.LFE81
 4988 0268 00000000 		.4byte	.LFB82
ARM GAS  /tmp/ccVWLZ4f.s 			page 89


 4989 026c 22000000 		.4byte	.LFE82
 4990 0270 00000000 		.4byte	.LFB83
 4991 0274 68000000 		.4byte	.LFE83
 4992 0278 00000000 		.4byte	0
 4993 027c 00000000 		.4byte	0
 4994              		.section	.debug_line,"",%progbits
 4995              	.Ldebug_line0:
 4996 0000 EC040000 		.section	.debug_str,"MS",%progbits,1
 4996      02009F02 
 4996      00000201 
 4996      FB0E0D00 
 4996      01010101 
 4997              	.LASF69:
 4998 0000 636F756E 		.ascii	"count\000"
 4998      7400
 4999              	.LASF66:
 5000 0006 6B566578 		.ascii	"kVexQuadEncoder_Num\000"
 5000      51756164 
 5000      456E636F 
 5000      6465725F 
 5000      4E756D00 
 5001              	.LASF71:
 5002 001a 70615F70 		.ascii	"pa_port\000"
 5002      6F727400 
 5003              	.LASF103:
 5004 0022 76657845 		.ascii	"vexEncoderStop\000"
 5004      6E636F64 
 5004      65725374 
 5004      6F7000
 5005              	.LASF10:
 5006 0031 73697A65 		.ascii	"size_t\000"
 5006      5F7400
 5007              	.LASF32:
 5008 0038 65787063 		.ascii	"expchannel_t\000"
 5008      68616E6E 
 5008      656C5F74 
 5008      00
 5009              	.LASF114:
 5010 0045 5F767165 		.ascii	"_vqe_cb_b\000"
 5010      5F63625F 
 5010      6200
 5011              	.LASF90:
 5012 004f 5F767165 		.ascii	"_vqe_5_cb_a\000"
 5012      5F355F63 
 5012      625F6100 
 5013              	.LASF91:
 5014 005b 5F767165 		.ascii	"_vqe_5_cb_b\000"
 5014      5F355F63 
 5014      625F6200 
 5015              	.LASF55:
 5016 0067 6B566578 		.ascii	"kVexDigitalOutput\000"
 5016      44696769 
 5016      74616C4F 
 5016      75747075 
 5016      7400
 5017              	.LASF6:
 5018 0079 6C6F6E67 		.ascii	"long long unsigned int\000"
ARM GAS  /tmp/ccVWLZ4f.s 			page 90


 5018      206C6F6E 
 5018      6720756E 
 5018      7369676E 
 5018      65642069 
 5019              	.LASF52:
 5020 0090 6B566578 		.ascii	"kVexDigital_Num\000"
 5020      44696769 
 5020      74616C5F 
 5020      4E756D00 
 5021              	.LASF115:
 5022 00a0 49544D5F 		.ascii	"ITM_RxBuffer\000"
 5022      52784275 
 5022      66666572 
 5022      00
 5023              	.LASF112:
 5024 00ad 76657851 		.ascii	"vexQuadEncoders\000"
 5024      75616445 
 5024      6E636F64 
 5024      65727300 
 5025              	.LASF12:
 5026 00bd 696E7431 		.ascii	"int16_t\000"
 5026      365F7400 
 5027              	.LASF5:
 5028 00c5 6C6F6E67 		.ascii	"long long int\000"
 5028      206C6F6E 
 5028      6720696E 
 5028      7400
 5029              	.LASF86:
 5030 00d3 65787470 		.ascii	"extp\000"
 5030      00
 5031              	.LASF20:
 5032 00d8 42535252 		.ascii	"BSRR\000"
 5032      00
 5033              	.LASF74:
 5034 00dd 70625F70 		.ascii	"pb_pad\000"
 5034      616400
 5035              	.LASF30:
 5036 00e4 73746174 		.ascii	"state\000"
 5036      6500
 5037              	.LASF36:
 5038 00ea 6368616E 		.ascii	"channels\000"
 5038      6E656C73 
 5038      00
 5039              	.LASF7:
 5040 00f3 6C6F6E67 		.ascii	"long int\000"
 5040      20696E74 
 5040      00
 5041              	.LASF102:
 5042 00fc 76657845 		.ascii	"vexEncoderStart\000"
 5042      6E636F64 
 5042      65725374 
 5042      61727400 
 5043              	.LASF56:
 5044 010c 74566578 		.ascii	"tVexDigitalMode\000"
 5044      44696769 
 5044      74616C4D 
 5044      6F646500 
ARM GAS  /tmp/ccVWLZ4f.s 			page 91


 5045              	.LASF48:
 5046 011c 6B566578 		.ascii	"kVexDigital_9\000"
 5046      44696769 
 5046      74616C5F 
 5046      3900
 5047              	.LASF35:
 5048 012a 45585443 		.ascii	"EXTChannelConfig\000"
 5048      68616E6E 
 5048      656C436F 
 5048      6E666967 
 5048      00
 5049              	.LASF59:
 5050 013b 696E7472 		.ascii	"intrCount\000"
 5050      436F756E 
 5050      7400
 5051              	.LASF92:
 5052 0145 5F767165 		.ascii	"_vqe_1_cb_a\000"
 5052      5F315F63 
 5052      625F6100 
 5053              	.LASF96:
 5054 0151 5F767165 		.ascii	"_vqe_1_cb_b\000"
 5054      5F315F63 
 5054      625F6200 
 5055              	.LASF84:
 5056 015d 6B496D65 		.ascii	"kImeTotal\000"
 5056      546F7461 
 5056      6C00
 5057              	.LASF58:
 5058 0167 706F7274 		.ascii	"port\000"
 5058      00
 5059              	.LASF106:
 5060 016c 76616C75 		.ascii	"value\000"
 5060      6500
 5061              	.LASF19:
 5062 0172 42617365 		.ascii	"BaseSequentialStream\000"
 5062      53657175 
 5062      656E7469 
 5062      616C5374 
 5062      7265616D 
 5063              	.LASF34:
 5064 0187 6D6F6465 		.ascii	"mode\000"
 5064      00
 5065              	.LASF0:
 5066 018c 756E7369 		.ascii	"unsigned int\000"
 5066      676E6564 
 5066      20696E74 
 5066      00
 5067              	.LASF8:
 5068 0199 6C6F6E67 		.ascii	"long unsigned int\000"
 5068      20756E73 
 5068      69676E65 
 5068      6420696E 
 5068      7400
 5069              	.LASF22:
 5070 01ab 4750494F 		.ascii	"GPIO_TypeDef\000"
 5070      5F547970 
 5070      65446566 
ARM GAS  /tmp/ccVWLZ4f.s 			page 92


 5070      00
 5071              	.LASF21:
 5072 01b8 4C434B52 		.ascii	"LCKR\000"
 5072      00
 5073              	.LASF4:
 5074 01bd 73686F72 		.ascii	"short unsigned int\000"
 5074      7420756E 
 5074      7369676E 
 5074      65642069 
 5074      6E7400
 5075              	.LASF105:
 5076 01d0 76657845 		.ascii	"vexEncoderSet\000"
 5076      6E636F64 
 5076      65725365 
 5076      7400
 5077              	.LASF37:
 5078 01de 45585443 		.ascii	"EXTConfig\000"
 5078      6F6E6669 
 5078      6700
 5079              	.LASF16:
 5080 01e8 6D73675F 		.ascii	"msg_t\000"
 5080      7400
 5081              	.LASF93:
 5082 01ee 5F767165 		.ascii	"_vqe_2_cb_a\000"
 5082      5F325F63 
 5082      625F6100 
 5083              	.LASF60:
 5084 01fa 696F4465 		.ascii	"ioDef\000"
 5084      6600
 5085              	.LASF40:
 5086 0200 6B566578 		.ascii	"kVexDigital_1\000"
 5086      44696769 
 5086      74616C5F 
 5086      3100
 5087              	.LASF41:
 5088 020e 6B566578 		.ascii	"kVexDigital_2\000"
 5088      44696769 
 5088      74616C5F 
 5088      3200
 5089              	.LASF42:
 5090 021c 6B566578 		.ascii	"kVexDigital_3\000"
 5090      44696769 
 5090      74616C5F 
 5090      3300
 5091              	.LASF43:
 5092 022a 6B566578 		.ascii	"kVexDigital_4\000"
 5092      44696769 
 5092      74616C5F 
 5092      3400
 5093              	.LASF44:
 5094 0238 6B566578 		.ascii	"kVexDigital_5\000"
 5094      44696769 
 5094      74616C5F 
 5094      3500
 5095              	.LASF45:
 5096 0246 6B566578 		.ascii	"kVexDigital_6\000"
 5096      44696769 
ARM GAS  /tmp/ccVWLZ4f.s 			page 93


 5096      74616C5F 
 5096      3600
 5097              	.LASF46:
 5098 0254 6B566578 		.ascii	"kVexDigital_7\000"
 5098      44696769 
 5098      74616C5F 
 5098      3700
 5099              	.LASF47:
 5100 0262 6B566578 		.ascii	"kVexDigital_8\000"
 5100      44696769 
 5100      74616C5F 
 5100      3800
 5101              	.LASF73:
 5102 0270 70625F70 		.ascii	"pb_port\000"
 5102      6F727400 
 5103              	.LASF108:
 5104 0278 76657845 		.ascii	"vexEncoderGetId\000"
 5104      6E636F64 
 5104      65724765 
 5104      74496400 
 5105              	.LASF26:
 5106 0288 4558545F 		.ascii	"EXT_ACTIVE\000"
 5106      41435449 
 5106      564500
 5107              	.LASF75:
 5108 0293 76657851 		.ascii	"vexQuadEncoder_t\000"
 5108      75616445 
 5108      6E636F64 
 5108      65725F74 
 5108      00
 5109              	.LASF17:
 5110 02a4 77726974 		.ascii	"write\000"
 5110      6500
 5111              	.LASF101:
 5112 02aa 76657845 		.ascii	"vexEncoderAdd\000"
 5112      6E636F64 
 5112      65724164 
 5112      6400
 5113              	.LASF13:
 5114 02b8 696E7433 		.ascii	"int32_t\000"
 5114      325F7400 
 5115              	.LASF62:
 5116 02c0 6B566578 		.ascii	"kVexQuadEncoder_2\000"
 5116      51756164 
 5116      456E636F 
 5116      6465725F 
 5116      3200
 5117              	.LASF63:
 5118 02d2 6B566578 		.ascii	"kVexQuadEncoder_3\000"
 5118      51756164 
 5118      456E636F 
 5118      6465725F 
 5118      3300
 5119              	.LASF27:
 5120 02e4 65787473 		.ascii	"extstate_t\000"
 5120      74617465 
 5120      5F7400
ARM GAS  /tmp/ccVWLZ4f.s 			page 94


 5121              	.LASF65:
 5122 02ef 6B566578 		.ascii	"kVexQuadEncoder_5\000"
 5122      51756164 
 5122      456E636F 
 5122      6465725F 
 5122      3500
 5123              	.LASF94:
 5124 0301 5F767165 		.ascii	"_vqe_3_cb_a\000"
 5124      5F335F63 
 5124      625F6100 
 5125              	.LASF98:
 5126 030d 5F767165 		.ascii	"_vqe_3_cb_b\000"
 5126      5F335F63 
 5126      625F6200 
 5127              	.LASF72:
 5128 0319 70615F70 		.ascii	"pa_pad\000"
 5128      616400
 5129              	.LASF88:
 5130 0320 76657845 		.ascii	"vexEncoderIrqServiceA\000"
 5130      6E636F64 
 5130      65724972 
 5130      71536572 
 5130      76696365 
 5131              	.LASF89:
 5132 0336 76657845 		.ascii	"vexEncoderIrqServiceB\000"
 5132      6E636F64 
 5132      65724972 
 5132      71536572 
 5132      76696365 
 5133              	.LASF107:
 5134 034c 76657845 		.ascii	"vexEncoderGet\000"
 5134      6E636F64 
 5134      65724765 
 5134      7400
 5135              	.LASF24:
 5136 035a 4558545F 		.ascii	"EXT_UNINIT\000"
 5136      554E494E 
 5136      495400
 5137              	.LASF39:
 5138 0365 6B566578 		.ascii	"kVexDigital_None\000"
 5138      44696769 
 5138      74616C5F 
 5138      4E6F6E65 
 5138      00
 5139              	.LASF119:
 5140 0376 2E2E2F63 		.ascii	"../convex/cortex/fw/vexencoder.c\000"
 5140      6F6E7665 
 5140      782F636F 
 5140      72746578 
 5140      2F66772F 
 5141              	.LASF76:
 5142 0397 6B496D65 		.ascii	"kImeChannel_1\000"
 5142      4368616E 
 5142      6E656C5F 
 5142      3100
 5143              	.LASF81:
 5144 03a5 6B496D65 		.ascii	"kImeChannel_6\000"
ARM GAS  /tmp/ccVWLZ4f.s 			page 95


 5144      4368616E 
 5144      6E656C5F 
 5144      3600
 5145              	.LASF15:
 5146 03b3 5F426F6F 		.ascii	"_Bool\000"
 5146      6C00
 5147              	.LASF109:
 5148 03b9 76657845 		.ascii	"vexEncoderDebug\000"
 5148      6E636F64 
 5148      65724465 
 5148      62756700 
 5149              	.LASF2:
 5150 03c9 756E7369 		.ascii	"unsigned char\000"
 5150      676E6564 
 5150      20636861 
 5150      7200
 5151              	.LASF117:
 5152 03d7 76657869 		.ascii	"vexioDefinition\000"
 5152      6F446566 
 5152      696E6974 
 5152      696F6E00 
 5153              	.LASF113:
 5154 03e7 5F767165 		.ascii	"_vqe_cb_a\000"
 5154      5F63625F 
 5154      6100
 5155              	.LASF85:
 5156 03f1 6B496D65 		.ascii	"kImeChannelNone\000"
 5156      4368616E 
 5156      6E656C4E 
 5156      6F6E6500 
 5157              	.LASF3:
 5158 0401 73686F72 		.ascii	"short int\000"
 5158      7420696E 
 5158      7400
 5159              	.LASF29:
 5160 040b 42617365 		.ascii	"BaseSequentialStreamVMT\000"
 5160      53657175 
 5160      656E7469 
 5160      616C5374 
 5160      7265616D 
 5161              	.LASF87:
 5162 0423 6368616E 		.ascii	"channel\000"
 5162      6E656C00 
 5163              	.LASF57:
 5164 042b 5F696F44 		.ascii	"_ioDef\000"
 5164      656600
 5165              	.LASF61:
 5166 0432 6B566578 		.ascii	"kVexQuadEncoder_1\000"
 5166      51756164 
 5166      456E636F 
 5166      6465725F 
 5166      3100
 5167              	.LASF14:
 5168 0444 75696E74 		.ascii	"uint32_t\000"
 5168      33325F74 
 5168      00
 5169              	.LASF64:
ARM GAS  /tmp/ccVWLZ4f.s 			page 96


 5170 044d 6B566578 		.ascii	"kVexQuadEncoder_4\000"
 5170      51756164 
 5170      456E636F 
 5170      6465725F 
 5170      3400
 5171              	.LASF118:
 5172 045f 474E5520 		.ascii	"GNU C 4.6.3\000"
 5172      4320342E 
 5172      362E3300 
 5173              	.LASF25:
 5174 046b 4558545F 		.ascii	"EXT_STOP\000"
 5174      53544F50 
 5174      00
 5175              	.LASF9:
 5176 0474 63686172 		.ascii	"char\000"
 5176      00
 5177              	.LASF77:
 5178 0479 6B496D65 		.ascii	"kImeChannel_2\000"
 5178      4368616E 
 5178      6E656C5F 
 5178      3200
 5179              	.LASF78:
 5180 0487 6B496D65 		.ascii	"kImeChannel_3\000"
 5180      4368616E 
 5180      6E656C5F 
 5180      3300
 5181              	.LASF79:
 5182 0495 6B496D65 		.ascii	"kImeChannel_4\000"
 5182      4368616E 
 5182      6E656C5F 
 5182      3400
 5183              	.LASF80:
 5184 04a3 6B496D65 		.ascii	"kImeChannel_5\000"
 5184      4368616E 
 5184      6E656C5F 
 5184      3500
 5185              	.LASF31:
 5186 04b1 636F6E66 		.ascii	"config\000"
 5186      696700
 5187              	.LASF82:
 5188 04b8 6B496D65 		.ascii	"kImeChannel_7\000"
 5188      4368616E 
 5188      6E656C5F 
 5188      3700
 5189              	.LASF83:
 5190 04c6 6B496D65 		.ascii	"kImeChannel_8\000"
 5190      4368616E 
 5190      6E656C5F 
 5190      3800
 5191              	.LASF33:
 5192 04d4 65787463 		.ascii	"extcallback_t\000"
 5192      616C6C62 
 5192      61636B5F 
 5192      7400
 5193              	.LASF49:
 5194 04e2 6B566578 		.ascii	"kVexDigital_10\000"
 5194      44696769 
ARM GAS  /tmp/ccVWLZ4f.s 			page 97


 5194      74616C5F 
 5194      313000
 5195              	.LASF50:
 5196 04f1 6B566578 		.ascii	"kVexDigital_11\000"
 5196      44696769 
 5196      74616C5F 
 5196      313100
 5197              	.LASF51:
 5198 0500 6B566578 		.ascii	"kVexDigital_12\000"
 5198      44696769 
 5198      74616C5F 
 5198      313200
 5199              	.LASF70:
 5200 050f 6F666673 		.ascii	"offset\000"
 5200      657400
 5201              	.LASF23:
 5202 0516 696F706F 		.ascii	"ioportid_t\000"
 5202      72746964 
 5202      5F7400
 5203              	.LASF68:
 5204 0521 5F766578 		.ascii	"_vexQuadEncoder_t\000"
 5204      51756164 
 5204      456E636F 
 5204      6465725F 
 5204      7400
 5205              	.LASF38:
 5206 0533 76657853 		.ascii	"vexStream\000"
 5206      74726561 
 5206      6D00
 5207              	.LASF104:
 5208 053d 76657845 		.ascii	"vexEncoderStartAll\000"
 5208      6E636F64 
 5208      65725374 
 5208      61727441 
 5208      6C6C00
 5209              	.LASF67:
 5210 0550 74566578 		.ascii	"tVexQuadEncoderChannel\000"
 5210      51756164 
 5210      456E636F 
 5210      64657243 
 5210      68616E6E 
 5211              	.LASF120:
 5212 0567 2F686F6D 		.ascii	"/home/aolsen/pros/9999-0.13\000"
 5212      652F616F 
 5212      6C73656E 
 5212      2F70726F 
 5212      732F3939 
 5213              	.LASF28:
 5214 0583 45585444 		.ascii	"EXTDriver\000"
 5214      72697665 
 5214      7200
 5215              	.LASF11:
 5216 058d 75696E74 		.ascii	"uint8_t\000"
 5216      385F7400 
 5217              	.LASF99:
 5218 0595 5F767165 		.ascii	"_vqe_4_cb_b\000"
 5218      5F345F63 
ARM GAS  /tmp/ccVWLZ4f.s 			page 98


 5218      625F6200 
 5219              	.LASF18:
 5220 05a1 72656164 		.ascii	"read\000"
 5220      00
 5221              	.LASF110:
 5222 05a6 61726763 		.ascii	"argc\000"
 5222      00
 5223              	.LASF100:
 5224 05ab 76657845 		.ascii	"vexEncoderInit\000"
 5224      6E636F64 
 5224      6572496E 
 5224      697400
 5225              	.LASF95:
 5226 05ba 5F767165 		.ascii	"_vqe_4_cb_a\000"
 5226      5F345F63 
 5226      625F6100 
 5227              	.LASF1:
 5228 05c6 7369676E 		.ascii	"signed char\000"
 5228      65642063 
 5228      68617200 
 5229              	.LASF97:
 5230 05d2 5F767165 		.ascii	"_vqe_2_cb_b\000"
 5230      5F325F63 
 5230      625F6200 
 5231              	.LASF111:
 5232 05de 61726776 		.ascii	"argv\000"
 5232      00
 5233              	.LASF116:
 5234 05e3 45585444 		.ascii	"EXTD1\000"
 5234      3100
 5235              	.LASF54:
 5236 05e9 6B566578 		.ascii	"kVexDigitalInput\000"
 5236      44696769 
 5236      74616C49 
 5236      6E707574 
 5236      00
 5237              	.LASF53:
 5238 05fa 74566578 		.ascii	"tVexDigitalPin\000"
 5238      44696769 
 5238      74616C50 
 5238      696E00
 5239              		.ident	"GCC: (Sourcery CodeBench Lite 2012.03-56) 4.6.3"
ARM GAS  /tmp/ccVWLZ4f.s 			page 99


DEFINED SYMBOLS
                            *ABS*:00000000 vexencoder.c
     /tmp/ccVWLZ4f.s:19     .text._vqe_5_cb_a:00000000 $t
     /tmp/ccVWLZ4f.s:24     .text._vqe_5_cb_a:00000000 _vqe_5_cb_a
     /tmp/ccVWLZ4f.s:1435   .bss.vexQuadEncoders:00000000 .LANCHOR0
     /tmp/ccVWLZ4f.s:108    .text._vqe_5_cb_b:00000000 $t
     /tmp/ccVWLZ4f.s:113    .text._vqe_5_cb_b:00000000 _vqe_5_cb_b
     /tmp/ccVWLZ4f.s:196    .text._vqe_1_cb_a:00000000 $t
     /tmp/ccVWLZ4f.s:201    .text._vqe_1_cb_a:00000000 _vqe_1_cb_a
     /tmp/ccVWLZ4f.s:284    .text._vqe_2_cb_a:00000000 $t
     /tmp/ccVWLZ4f.s:289    .text._vqe_2_cb_a:00000000 _vqe_2_cb_a
     /tmp/ccVWLZ4f.s:372    .text._vqe_3_cb_a:00000000 $t
     /tmp/ccVWLZ4f.s:377    .text._vqe_3_cb_a:00000000 _vqe_3_cb_a
     /tmp/ccVWLZ4f.s:460    .text._vqe_4_cb_a:00000000 $t
     /tmp/ccVWLZ4f.s:465    .text._vqe_4_cb_a:00000000 _vqe_4_cb_a
     /tmp/ccVWLZ4f.s:548    .text._vqe_1_cb_b:00000000 $t
     /tmp/ccVWLZ4f.s:553    .text._vqe_1_cb_b:00000000 _vqe_1_cb_b
     /tmp/ccVWLZ4f.s:636    .text._vqe_2_cb_b:00000000 $t
     /tmp/ccVWLZ4f.s:641    .text._vqe_2_cb_b:00000000 _vqe_2_cb_b
     /tmp/ccVWLZ4f.s:724    .text._vqe_3_cb_b:00000000 $t
     /tmp/ccVWLZ4f.s:729    .text._vqe_3_cb_b:00000000 _vqe_3_cb_b
     /tmp/ccVWLZ4f.s:812    .text._vqe_4_cb_b:00000000 $t
     /tmp/ccVWLZ4f.s:817    .text._vqe_4_cb_b:00000000 _vqe_4_cb_b
     /tmp/ccVWLZ4f.s:900    .text.vexEncoderInit:00000000 $t
     /tmp/ccVWLZ4f.s:906    .text.vexEncoderInit:00000000 vexEncoderInit
     /tmp/ccVWLZ4f.s:959    .text.vexEncoderAdd:00000000 $t
     /tmp/ccVWLZ4f.s:965    .text.vexEncoderAdd:00000000 vexEncoderAdd
     /tmp/ccVWLZ4f.s:1409   .rodata._vqe_cb_a:00000000 .LANCHOR1
     /tmp/ccVWLZ4f.s:1420   .rodata._vqe_cb_b:00000000 .LANCHOR2
     /tmp/ccVWLZ4f.s:1080   .text.vexEncoderStart:00000000 $t
     /tmp/ccVWLZ4f.s:1086   .text.vexEncoderStart:00000000 vexEncoderStart
     /tmp/ccVWLZ4f.s:1128   .text.vexEncoderStop:00000000 $t
     /tmp/ccVWLZ4f.s:1134   .text.vexEncoderStop:00000000 vexEncoderStop
     /tmp/ccVWLZ4f.s:1176   .text.vexEncoderStartAll:00000000 $t
     /tmp/ccVWLZ4f.s:1182   .text.vexEncoderStartAll:00000000 vexEncoderStartAll
     /tmp/ccVWLZ4f.s:1216   .text.vexEncoderGet:00000000 $t
     /tmp/ccVWLZ4f.s:1222   .text.vexEncoderGet:00000000 vexEncoderGet
     /tmp/ccVWLZ4f.s:1256   .text.vexEncoderSet:00000000 $t
     /tmp/ccVWLZ4f.s:1262   .text.vexEncoderSet:00000000 vexEncoderSet
     /tmp/ccVWLZ4f.s:1292   .text.vexEncoderGetId:00000000 $t
     /tmp/ccVWLZ4f.s:1298   .text.vexEncoderGetId:00000000 vexEncoderGetId
     /tmp/ccVWLZ4f.s:1326   .text.vexEncoderDebug:00000000 $t
     /tmp/ccVWLZ4f.s:1332   .text.vexEncoderDebug:00000000 vexEncoderDebug
     /tmp/ccVWLZ4f.s:1431   .rodata.str1.4:00000000 .LC0
     /tmp/ccVWLZ4f.s:1408   .rodata._vqe_cb_a:00000000 $d
     /tmp/ccVWLZ4f.s:1412   .rodata._vqe_cb_a:00000000 _vqe_cb_a
     /tmp/ccVWLZ4f.s:1419   .rodata._vqe_cb_b:00000000 $d
     /tmp/ccVWLZ4f.s:1423   .rodata._vqe_cb_b:00000000 _vqe_cb_b
     /tmp/ccVWLZ4f.s:1430   .rodata.str1.4:00000000 $d
     /tmp/ccVWLZ4f.s:1434   .bss.vexQuadEncoders:00000000 $d
     /tmp/ccVWLZ4f.s:1438   .bss.vexQuadEncoders:00000000 vexQuadEncoders
                     .debug_frame:00000010 $d

UNDEFINED SYMBOLS
vexDigitalModeSet
vexioDefinition
vexExtSet
ARM GAS  /tmp/ccVWLZ4f.s 			page 100


EXTD1
extChannelEnable
extChannelDisable
vex_chprintf
