ARM GAS  /tmp/cci4m5Na.s 			page 1


   1              		.syntax unified
   2              		.cpu cortex-m3
   3              		.fpu softvfp
   4              		.eabi_attribute 20, 1
   5              		.eabi_attribute 21, 1
   6              		.eabi_attribute 23, 3
   7              		.eabi_attribute 24, 1
   8              		.eabi_attribute 25, 1
   9              		.eabi_attribute 26, 1
  10              		.eabi_attribute 30, 2
  11              		.eabi_attribute 34, 1
  12              		.eabi_attribute 18, 4
  13              		.thumb
  14              		.file	"vexflash.c"
  15              		.text
  16              	.Ltext0:
  17              		.cfi_sections	.debug_frame
  18              		.section	.text.vexFlashUserParamRead,"ax",%progbits
  19              		.align	2
  20              		.p2align 4,,15
  21              		.global	vexFlashUserParamRead
  22              		.thumb
  23              		.thumb_func
  24              		.type	vexFlashUserParamRead, %function
  25              	vexFlashUserParamRead:
  26              	.LFB64:
  27              		.file 1 "../convex/cortex/opt/vexflash.c"
  28              		.loc 1 106 0
  29              		.cfi_startproc
  30              		@ args = 0, pretend = 0, frame = 0
  31              		@ frame_needed = 0, uses_anonymous_args = 0
  32              		@ link register save eliminated.
  33              	.LVL0:
  34 0000 2DE9F001 		push	{r4, r5, r6, r7, r8}
  35              	.LCFI0:
  36              		.cfi_def_cfa_offset 20
  37              		.cfi_offset 8, -4
  38              		.cfi_offset 7, -8
  39              		.cfi_offset 6, -12
  40              		.cfi_offset 5, -16
  41              		.cfi_offset 4, -20
  42              		.loc 1 84 0
  43 0004 4FF47042 		mov	r2, #61440
  44              	.LBB6:
  45              	.LBB7:
  46              		.loc 1 87 0
  47 0008 4FF47145 		mov	r5, #61696
  48              	.LBE7:
  49              	.LBE6:
  50              		.loc 1 79 0
  51 000c 4FF6FF73 		movw	r3, #65535
  52              		.loc 1 84 0
  53 0010 C0F60502 		movt	r2, 2053
  54              	.LVL1:
  55              	.LBB9:
  56              	.LBB8:
  57              		.loc 1 87 0
ARM GAS  /tmp/cci4m5Na.s 			page 2


  58 0014 C0F60505 		movt	r5, 2053
  59 0018 08E0     		b	.L3
  60              	.LVL2:
  61              	.L10:
  62              		.loc 1 89 0
  63 001a 5068     		ldr	r0, [r2, #4]
  64              		.loc 1 90 0
  65 001c A3B2     		uxth	r3, r4
  66              	.LVL3:
  67 001e 5C1C     		adds	r4, r3, #1
  68              		.loc 1 89 0
  69 0020 0A1D     		adds	r2, r1, #4
  70              	.LVL4:
  71 0022 0130     		adds	r0, r0, #1
  72 0024 08D0     		beq	.L2
  73              		.loc 1 87 0
  74 0026 AA42     		cmp	r2, r5
  75              		.loc 1 90 0
  76 0028 A3B2     		uxth	r3, r4
  77              	.LVL5:
  78              		.loc 1 87 0
  79 002a 05D0     		beq	.L2
  80              	.LVL6:
  81              	.L3:
  82              		.loc 1 89 0
  83 002c 1146     		mov	r1, r2
  84 002e 51F8040B 		ldr	r0, [r1], #4
  85              	.LVL7:
  86              		.loc 1 90 0
  87 0032 5C1C     		adds	r4, r3, #1
  88              		.loc 1 89 0
  89 0034 0130     		adds	r0, r0, #1
  90 0036 F0D1     		bne	.L10
  91              	.LVL8:
  92              	.L2:
  93              	.LBE8:
  94              	.LBE9:
  95              		.loc 1 111 0
  96 0038 1BB2     		sxth	r3, r3
  97 003a 40F20002 		movw	r2, #:lower16:.LANCHOR0
  98 003e C0F20002 		movt	r2, #:upper16:.LANCHOR0
  99              		.loc 1 113 0
 100 0042 591C     		adds	r1, r3, #1
 101              		.loc 1 111 0
 102 0044 1362     		str	r3, [r2, #32]
 103              		.loc 1 113 0
 104 0046 1DD0     		beq	.L11
 105              		.loc 1 125 0
 106 0048 42F68875 		movw	r5, #12168
 107 004c C0F24005 		movt	r5, 64
 108 0050 5C19     		adds	r4, r3, r5
 109 0052 6301     		lsls	r3, r4, #5
 110              	.LVL9:
 111              		.loc 1 132 0
 112 0054 93E80011 		ldmia	r3, {r8, ip}
 113 0058 9F68     		ldr	r7, [r3, #8]
 114 005a DE68     		ldr	r6, [r3, #12]
ARM GAS  /tmp/cci4m5Na.s 			page 3


 115 005c 1D69     		ldr	r5, [r3, #16]
 116 005e 5C69     		ldr	r4, [r3, #20]
 117 0060 9869     		ldr	r0, [r3, #24]
 118 0062 D969     		ldr	r1, [r3, #28]
 119 0064 82E80011 		stmia	r2, {r8, ip}
 120              		.loc 1 128 0
 121 0068 5362     		str	r3, [r2, #36]
 122              	.LVL10:
 123              		.loc 1 132 0
 124 006a 9760     		str	r7, [r2, #8]
 125              	.LVL11:
 126 006c D660     		str	r6, [r2, #12]
 127              	.LVL12:
 128 006e 1561     		str	r5, [r2, #16]
 129              	.LVL13:
 130 0070 5461     		str	r4, [r2, #20]
 131              	.LVL14:
 132 0072 9061     		str	r0, [r2, #24]
 133              	.LVL15:
 134 0074 D161     		str	r1, [r2, #28]
 135              	.LVL16:
 136              	.L5:
 137              		.loc 1 136 0
 138 0076 40F20000 		movw	r0, #:lower16:.LANCHOR0
 139 007a C0F20000 		movt	r0, #:upper16:.LANCHOR0
 140 007e BDE8F001 		pop	{r4, r5, r6, r7, r8}
 141 0082 7047     		bx	lr
 142              	.LVL17:
 143              	.L11:
 144              		.loc 1 117 0
 145 0084 1360     		str	r3, [r2, #0]
 146              	.LVL18:
 147 0086 5360     		str	r3, [r2, #4]
 148              	.LVL19:
 149 0088 9360     		str	r3, [r2, #8]
 150              	.LVL20:
 151 008a D360     		str	r3, [r2, #12]
 152              	.LVL21:
 153 008c 1361     		str	r3, [r2, #16]
 154              	.LVL22:
 155 008e 5361     		str	r3, [r2, #20]
 156              	.LVL23:
 157 0090 9361     		str	r3, [r2, #24]
 158              	.LVL24:
 159 0092 D361     		str	r3, [r2, #28]
 160              	.LVL25:
 161              		.loc 1 120 0
 162 0094 0023     		movs	r3, #0
 163 0096 5362     		str	r3, [r2, #36]
 164 0098 EDE7     		b	.L5
 165              		.cfi_endproc
 166              	.LFE64:
 167              		.size	vexFlashUserParamRead, .-vexFlashUserParamRead
 168 009a 00BFAFF3 		.section	.text.vexFlashUserParamWrite,"ax",%progbits
 168      0080
 169              		.align	2
 170              		.p2align 4,,15
ARM GAS  /tmp/cci4m5Na.s 			page 4


 171              		.global	vexFlashUserParamWrite
 172              		.thumb
 173              		.thumb_func
 174              		.type	vexFlashUserParamWrite, %function
 175              	vexFlashUserParamWrite:
 176              	.LFB65:
 177              		.loc 1 146 0
 178              		.cfi_startproc
 179              		@ args = 0, pretend = 0, frame = 8
 180              		@ frame_needed = 0, uses_anonymous_args = 0
 181              	.LVL26:
 182 0000 70B5     		push	{r4, r5, r6, lr}
 183              	.LCFI1:
 184              		.cfi_def_cfa_offset 16
 185              		.cfi_offset 14, -4
 186              		.cfi_offset 6, -8
 187              		.cfi_offset 5, -12
 188              		.cfi_offset 4, -16
 189              		.loc 1 155 0
 190 0002 0423     		movs	r3, #4
 191              		.loc 1 146 0
 192 0004 82B0     		sub	sp, sp, #8
 193              	.LCFI2:
 194              		.cfi_def_cfa_offset 24
 195              		.loc 1 159 0
 196 0006 0446     		mov	r4, r0
 197              		.loc 1 155 0
 198 0008 8DF80730 		strb	r3, [sp, #7]
 199              	.LVL27:
 200              		.loc 1 159 0
 201 000c 0028     		cmp	r0, #0
 202 000e 00F0C680 		beq	.L19
 203              		.loc 1 163 0
 204 0012 40F20003 		movw	r3, #:lower16:.LANCHOR1
 205 0016 C0F20003 		movt	r3, #:upper16:.LANCHOR1
 206 001a 1A88     		ldrh	r2, [r3, #0]
 207 001c 11B2     		sxth	r1, r2
 208 001e 1F29     		cmp	r1, #31
 209              		.loc 1 164 0
 210 0020 C8BF     		it	gt
 211 0022 4FF6FE70 		movwgt	r0, #65534
 212              	.LVL28:
 213              		.loc 1 163 0
 214 0026 00F39C80 		bgt	.L13
 215              		.loc 1 167 0
 216 002a 0132     		adds	r2, r2, #1
 217 002c 1A80     		strh	r2, [r3, #0]	@ movhi
 218              		.loc 1 170 0
 219 002e FFF7FEFF 		bl	FLASH_UnlockBank1
 220              		.loc 1 173 0
 221 0032 3420     		movs	r0, #52
 222 0034 FFF7FEFF 		bl	FLASH_ClearFlag
 223              	.LVL29:
 224              	.LBB10:
 225              	.LBB11:
 226              		.loc 1 87 0
 227 0038 4FF47146 		mov	r6, #61696
ARM GAS  /tmp/cci4m5Na.s 			page 5


 228              	.LBE11:
 229              	.LBE10:
 230              		.loc 1 84 0
 231 003c 4FF47042 		mov	r2, #61440
 232              		.loc 1 79 0
 233 0040 4FF6FF73 		movw	r3, #65535
 234              		.loc 1 84 0
 235 0044 C0F60502 		movt	r2, 2053
 236              	.LVL30:
 237              	.LBB13:
 238              	.LBB12:
 239              		.loc 1 87 0
 240 0048 C0F60506 		movt	r6, 2053
 241 004c 08E0     		b	.L15
 242              	.LVL31:
 243              	.L34:
 244              		.loc 1 89 0
 245 004e 5068     		ldr	r0, [r2, #4]
 246              		.loc 1 90 0
 247 0050 ABB2     		uxth	r3, r5
 248              	.LVL32:
 249 0052 5D1C     		adds	r5, r3, #1
 250              		.loc 1 89 0
 251 0054 0A1D     		adds	r2, r1, #4
 252              	.LVL33:
 253 0056 0130     		adds	r0, r0, #1
 254 0058 08D0     		beq	.L14
 255              		.loc 1 87 0
 256 005a B242     		cmp	r2, r6
 257              		.loc 1 90 0
 258 005c ABB2     		uxth	r3, r5
 259              	.LVL34:
 260              		.loc 1 87 0
 261 005e 05D0     		beq	.L14
 262              	.LVL35:
 263              	.L15:
 264              		.loc 1 89 0
 265 0060 1146     		mov	r1, r2
 266 0062 51F8040B 		ldr	r0, [r1], #4
 267              	.LVL36:
 268              		.loc 1 90 0
 269 0066 5D1C     		adds	r5, r3, #1
 270              		.loc 1 89 0
 271 0068 0130     		adds	r0, r0, #1
 272 006a F0D1     		bne	.L34
 273              	.LVL37:
 274              	.L14:
 275              	.LBE12:
 276              	.LBE13:
 277              		.loc 1 176 0
 278 006c 1BB2     		sxth	r3, r3
 279              		.loc 1 179 0
 280 006e 591C     		adds	r1, r3, #1
 281              		.loc 1 182 0
 282 0070 3729     		cmp	r1, #55
 283              		.loc 1 179 0
 284 0072 2162     		str	r1, [r4, #32]
ARM GAS  /tmp/cci4m5Na.s 			page 6


 285              		.loc 1 182 0
 286 0074 78DC     		bgt	.L16
 287 0076 42F68972 		movw	r2, #12169
 288 007a C0F24002 		movt	r2, 64
 289 007e 9D18     		adds	r5, r3, r2
 290 0080 6D01     		lsls	r5, r5, #5
 291 0082 2B46     		mov	r3, r5
 292              	.L17:
 293              	.LVL38:
 294              		.loc 1 199 0
 295 0084 6362     		str	r3, [r4, #36]
 296              	.LVL39:
 297              		.loc 1 205 0
 298 0086 2846     		mov	r0, r5
 299 0088 2168     		ldr	r1, [r4, #0]
 300 008a FFF7FEFF 		bl	FLASH_ProgramWord
 301 008e 8DF80700 		strb	r0, [sp, #7]
 302              		.loc 1 211 0
 303 0092 9DF80730 		ldrb	r3, [sp, #7]	@ zero_extendqisi2
 304              	.LVL40:
 305              		.loc 1 208 0
 306 0096 281D     		adds	r0, r5, #4
 307              	.LVL41:
 308              		.loc 1 211 0
 309 0098 042B     		cmp	r3, #4
 310 009a 7DD1     		bne	.L28
 311              	.LVL42:
 312              		.loc 1 205 0
 313 009c 6168     		ldr	r1, [r4, #4]
 314 009e FFF7FEFF 		bl	FLASH_ProgramWord
 315              	.LVL43:
 316 00a2 8DF80700 		strb	r0, [sp, #7]
 317              	.LVL44:
 318              		.loc 1 211 0
 319 00a6 9DF80710 		ldrb	r1, [sp, #7]	@ zero_extendqisi2
 320              	.LVL45:
 321              		.loc 1 208 0
 322 00aa 05F10800 		add	r0, r5, #8
 323              	.LVL46:
 324              		.loc 1 211 0
 325 00ae 0429     		cmp	r1, #4
 326 00b0 72D1     		bne	.L28
 327              	.LVL47:
 328              		.loc 1 205 0
 329 00b2 A168     		ldr	r1, [r4, #8]
 330              	.LVL48:
 331 00b4 FFF7FEFF 		bl	FLASH_ProgramWord
 332              	.LVL49:
 333 00b8 8DF80700 		strb	r0, [sp, #7]
 334              	.LVL50:
 335              		.loc 1 211 0
 336 00bc 9DF80720 		ldrb	r2, [sp, #7]	@ zero_extendqisi2
 337              	.LVL51:
 338              		.loc 1 208 0
 339 00c0 05F10C00 		add	r0, r5, #12
 340              	.LVL52:
 341              		.loc 1 211 0
ARM GAS  /tmp/cci4m5Na.s 			page 7


 342 00c4 042A     		cmp	r2, #4
 343 00c6 67D1     		bne	.L28
 344              	.LVL53:
 345              		.loc 1 205 0
 346 00c8 E168     		ldr	r1, [r4, #12]
 347 00ca FFF7FEFF 		bl	FLASH_ProgramWord
 348              	.LVL54:
 349 00ce 8DF80700 		strb	r0, [sp, #7]
 350              	.LVL55:
 351              		.loc 1 211 0
 352 00d2 9DF807C0 		ldrb	ip, [sp, #7]	@ zero_extendqisi2
 353              	.LVL56:
 354              		.loc 1 208 0
 355 00d6 05F11000 		add	r0, r5, #16
 356              	.LVL57:
 357              		.loc 1 211 0
 358 00da BCF1040F 		cmp	ip, #4
 359 00de 5BD1     		bne	.L28
 360              	.LVL58:
 361              		.loc 1 205 0
 362 00e0 2169     		ldr	r1, [r4, #16]
 363 00e2 FFF7FEFF 		bl	FLASH_ProgramWord
 364              	.LVL59:
 365 00e6 8DF80700 		strb	r0, [sp, #7]
 366              	.LVL60:
 367              		.loc 1 211 0
 368 00ea 9DF80730 		ldrb	r3, [sp, #7]	@ zero_extendqisi2
 369              	.LVL61:
 370              		.loc 1 208 0
 371 00ee 05F11400 		add	r0, r5, #20
 372              	.LVL62:
 373              		.loc 1 211 0
 374 00f2 042B     		cmp	r3, #4
 375 00f4 50D1     		bne	.L28
 376              	.LVL63:
 377              		.loc 1 205 0
 378 00f6 6169     		ldr	r1, [r4, #20]
 379 00f8 FFF7FEFF 		bl	FLASH_ProgramWord
 380              	.LVL64:
 381 00fc 8DF80700 		strb	r0, [sp, #7]
 382              	.LVL65:
 383              		.loc 1 211 0
 384 0100 9DF80710 		ldrb	r1, [sp, #7]	@ zero_extendqisi2
 385              	.LVL66:
 386              		.loc 1 208 0
 387 0104 05F11800 		add	r0, r5, #24
 388              	.LVL67:
 389              		.loc 1 211 0
 390 0108 0429     		cmp	r1, #4
 391 010a 45D1     		bne	.L28
 392              	.LVL68:
 393              		.loc 1 205 0
 394 010c A169     		ldr	r1, [r4, #24]
 395              	.LVL69:
 396 010e FFF7FEFF 		bl	FLASH_ProgramWord
 397              	.LVL70:
 398 0112 8DF80700 		strb	r0, [sp, #7]
ARM GAS  /tmp/cci4m5Na.s 			page 8


 399              	.LVL71:
 400              		.loc 1 211 0
 401 0116 9DF80720 		ldrb	r2, [sp, #7]	@ zero_extendqisi2
 402              	.LVL72:
 403              		.loc 1 208 0
 404 011a 05F11C00 		add	r0, r5, #28
 405              	.LVL73:
 406              		.loc 1 211 0
 407 011e 042A     		cmp	r2, #4
 408 0120 3AD1     		bne	.L28
 409              	.LVL74:
 410              		.loc 1 205 0
 411 0122 E169     		ldr	r1, [r4, #28]
 412 0124 FFF7FEFF 		bl	FLASH_ProgramWord
 413              	.LVL75:
 414 0128 8DF80700 		strb	r0, [sp, #7]
 415              	.LVL76:
 416              		.loc 1 211 0
 417 012c 9DF80750 		ldrb	r5, [sp, #7]	@ zero_extendqisi2
 418              	.LVL77:
 419              		.loc 1 150 0
 420 0130 4FF6FF70 		movw	r0, #65535
 421 0134 042D     		cmp	r5, #4
 422 0136 14BF     		ite	ne
 423 0138 0546     		movne	r5, r0
 424 013a 0125     		moveq	r5, #1
 425              	.LVL78:
 426              	.L18:
 427              		.loc 1 219 0
 428 013c 226A     		ldr	r2, [r4, #32]
 429              	.LVL79:
 430              		.loc 1 220 0
 431 013e 0021     		movs	r1, #0
 432              		.loc 1 219 0
 433 0140 02F1007E 		add	lr, r2, #33554432
 434 0144 0EF5BE33 		add	r3, lr, #97280
 435              		.loc 1 220 0
 436 0148 9800     		lsls	r0, r3, #2
 437 014a FFF7FEFF 		bl	FLASH_ProgramWord
 438              	.LVL80:
 439 014e 8DF80700 		strb	r0, [sp, #7]
 440              	.LVL81:
 441              		.loc 1 223 0
 442 0152 9DF80710 		ldrb	r1, [sp, #7]	@ zero_extendqisi2
 443              	.LVL82:
 444              		.loc 1 224 0
 445 0156 4FF6FF7C 		movw	ip, #65535
 446 015a 0429     		cmp	r1, #4
 447 015c 0CBF     		ite	eq
 448 015e 2846     		moveq	r0, r5
 449 0160 6046     		movne	r0, ip
 450              	.LVL83:
 451              	.L13:
 452              		.loc 1 227 0
 453 0162 00B2     		sxth	r0, r0
 454 0164 02B0     		add	sp, sp, #8
 455 0166 70BD     		pop	{r4, r5, r6, pc}
ARM GAS  /tmp/cci4m5Na.s 			page 9


 456              	.LVL84:
 457              	.L16:
 458              		.loc 1 185 0
 459 0168 4FF47040 		mov	r0, #61440
 460 016c C0F60500 		movt	r0, 2053
 461 0170 FFF7FEFF 		bl	FLASH_ErasePage
 462 0174 8DF80700 		strb	r0, [sp, #7]
 463              		.loc 1 188 0
 464 0178 9DF807C0 		ldrb	ip, [sp, #7]	@ zero_extendqisi2
 465              	.LVL85:
 466 017c BCF1040F 		cmp	ip, #4
 467              		.loc 1 189 0
 468 0180 18BF     		it	ne
 469 0182 4FF6FD70 		movwne	r0, #65533
 470              		.loc 1 188 0
 471 0186 ECD1     		bne	.L13
 472              		.loc 1 192 0
 473 0188 4FF47143 		mov	r3, #61696
 474 018c C0F60503 		movt	r3, 2053
 475 0190 0020     		movs	r0, #0
 476 0192 2062     		str	r0, [r4, #32]
 477 0194 1D46     		mov	r5, r3
 478 0196 75E7     		b	.L17
 479              	.LVL86:
 480              	.L28:
 481              		.loc 1 213 0
 482 0198 4FF6FF75 		movw	r5, #65535
 483 019c CEE7     		b	.L18
 484              	.LVL87:
 485              	.L19:
 486              		.loc 1 160 0
 487 019e 4FF6FB70 		movw	r0, #65531
 488 01a2 DEE7     		b	.L13
 489              		.cfi_endproc
 490              	.LFE65:
 491              		.size	vexFlashUserParamWrite, .-vexFlashUserParamWrite
 492 01a4 AFF30080 		.section	.text.vexFlashUserParamInit,"ax",%progbits
 492      AFF30080 
 492      AFF30080 
 493              		.align	2
 494              		.p2align 4,,15
 495              		.global	vexFlashUserParamInit
 496              		.thumb
 497              		.thumb_func
 498              		.type	vexFlashUserParamInit, %function
 499              	vexFlashUserParamInit:
 500              	.LFB66:
 501              		.loc 1 236 0
 502              		.cfi_startproc
 503              		@ args = 0, pretend = 0, frame = 8
 504              		@ frame_needed = 0, uses_anonymous_args = 0
 505 0000 00B5     		push	{lr}
 506              	.LCFI3:
 507              		.cfi_def_cfa_offset 4
 508              		.cfi_offset 14, -4
 509              		.loc 1 240 0
 510 0002 40F20003 		movw	r3, #:lower16:.LANCHOR2
ARM GAS  /tmp/cci4m5Na.s 			page 10


 511 0006 C0F20003 		movt	r3, #:upper16:.LANCHOR2
 512 000a B3F90020 		ldrsh	r2, [r3, #0]
 513              		.loc 1 236 0
 514 000e 83B0     		sub	sp, sp, #12
 515              	.LCFI4:
 516              		.cfi_def_cfa_offset 16
 517              		.loc 1 238 0
 518 0010 0421     		movs	r1, #4
 519 0012 8DF80710 		strb	r1, [sp, #7]
 520              	.LVL88:
 521              		.loc 1 257 0
 522 0016 4FF6FC70 		movw	r0, #65532
 523              		.loc 1 240 0
 524 001a 9AB9     		cbnz	r2, .L36
 525              		.loc 1 243 0
 526 001c 0122     		movs	r2, #1
 527 001e 1A80     		strh	r2, [r3, #0]	@ movhi
 528              		.loc 1 246 0
 529 0020 FFF7FEFF 		bl	FLASH_UnlockBank1
 530              		.loc 1 249 0
 531 0024 4FF47040 		mov	r0, #61440
 532 0028 C0F60500 		movt	r0, 2053
 533 002c FFF7FEFF 		bl	FLASH_ErasePage
 534 0030 8DF80700 		strb	r0, [sp, #7]
 535              		.loc 1 252 0
 536 0034 9DF80700 		ldrb	r0, [sp, #7]	@ zero_extendqisi2
 537              	.LVL89:
 538              		.loc 1 253 0
 539 0038 4FF6FD73 		movw	r3, #65533
 540 003c 0428     		cmp	r0, #4
 541 003e 14BF     		ite	ne
 542 0040 1846     		movne	r0, r3
 543 0042 0120     		moveq	r0, #1
 544              	.LVL90:
 545              	.L36:
 546              		.loc 1 261 0
 547 0044 00B2     		sxth	r0, r0
 548 0046 03B0     		add	sp, sp, #12
 549 0048 00BD     		pop	{pc}
 550              		.cfi_endproc
 551              	.LFE66:
 552              		.size	vexFlashUserParamInit, .-vexFlashUserParamInit
 553 004a 00BFAFF3 		.section	.bss.erase_done.7282,"aw",%nobits
 553      0080
 554              		.align	1
 555              		.set	.LANCHOR2,. + 0
 556              		.type	erase_done.7282, %object
 557              		.size	erase_done.7282, 2
 558              	erase_done.7282:
 559 0000 0000     		.space	2
 560              		.section	.bss.params,"aw",%nobits
 561              		.align	2
 562              		.set	.LANCHOR0,. + 0
 563              		.type	params, %object
 564              		.size	params, 40
 565              	params:
 566 0000 00000000 		.space	40
ARM GAS  /tmp/cci4m5Na.s 			page 11


 566      00000000 
 566      00000000 
 566      00000000 
 566      00000000 
 567              		.section	.bss.user_param_write_limit.7275,"aw",%nobits
 568              		.align	1
 569              		.set	.LANCHOR1,. + 0
 570              		.type	user_param_write_limit.7275, %object
 571              		.size	user_param_write_limit.7275, 2
 572              	user_param_write_limit.7275:
 573 0000 0000     		.space	2
 574              		.text
 575              	.Letext0:
 576              		.file 2 "/opt/pros/toolchain/bin/../lib/gcc/arm-none-eabi/4.6.3/../../../../arm-none-eabi/include/
 577              		.file 3 "../convex/cortex/fw/vexdigital.h"
 578              		.file 4 "../convex/cortex/fw/vexime.h"
 579              		.file 5 "../convex/cortex/opt/stm32f10x_flash.h"
 580              		.file 6 "../convex/cortex/opt/vexflash.h"
 581              		.file 7 "../ChibiOS_2.6.2/os/ports/common/ARMCMx/CMSIS/include/core_cm3.h"