ARM GAS  /tmp/cc2xClu5.s 			page 1


   1              		.syntax unified
   2              		.cpu cortex-m3
   3              		.fpu softvfp
   4              		.eabi_attribute 20, 1
   5              		.eabi_attribute 21, 1
   6              		.eabi_attribute 23, 3
   7              		.eabi_attribute 24, 1
   8              		.eabi_attribute 25, 1
   9              		.eabi_attribute 26, 1
  10              		.eabi_attribute 30, 2
  11              		.eabi_attribute 34, 1
  12              		.eabi_attribute 18, 4
  13              		.thumb
  14              		.file	"vexgyro.c"
  15              		.text
  16              	.Ltext0:
  17              		.cfi_sections	.debug_frame
  18              		.section	.text.vexGyroTask,"ax",%progbits
  19              		.align	2
  20              		.p2align 4,,15
  21              		.thumb
  22              		.thumb_func
  23              		.type	vexGyroTask, %function
  24              	vexGyroTask:
  25              	.LFB63:
  26              		.file 1 "../convex/cortex/opt/vexgyro.c"
  27              		.loc 1 71 0
  28              		.cfi_startproc
  29              		@ args = 0, pretend = 0, frame = 0
  30              		@ frame_needed = 0, uses_anonymous_args = 0
  31              	.LVL0:
  32              		.loc 1 84 0
  33 0000 40F20000 		movw	r0, #:lower16:rlist
  34              	.LVL1:
  35 0004 C0F20000 		movt	r0, #:upper16:rlist
  36              		.loc 1 71 0
  37 0008 2DE9F843 		push	{r3, r4, r5, r6, r7, r8, r9, lr}
  38              	.LCFI0:
  39              		.cfi_def_cfa_offset 32
  40              		.cfi_offset 14, -4
  41              		.cfi_offset 9, -8
  42              		.cfi_offset 8, -12
  43              		.cfi_offset 7, -16
  44              		.cfi_offset 6, -20
  45              		.cfi_offset 5, -24
  46              		.cfi_offset 4, -28
  47              		.cfi_offset 3, -32
  48              		.loc 1 84 0
  49 000c 8269     		ldr	r2, [r0, #24]
  50 000e 40F20003 		movw	r3, #:lower16:.LC0
  51 0012 C0F20003 		movt	r3, #:upper16:.LC0
  52 0016 9361     		str	r3, [r2, #24]
  53              	.LVL2:
  54 0018 4FF48065 		mov	r5, #1024
  55              		.loc 1 73 0
  56 001c 0024     		movs	r4, #0
  57              	.LVL3:
ARM GAS  /tmp/cc2xClu5.s 			page 2


  58              	.L2:
  59              		.loc 1 89 0 discriminator 2
  60 001e 0020     		movs	r0, #0
  61 0020 FFF7FEFF 		bl	vexAdcGet
  62 0024 2418     		adds	r4, r4, r0
  63              		.loc 1 90 0 discriminator 2
  64 0026 0120     		movs	r0, #1
  65 0028 FFF7FEFF 		bl	chThdSleep
  66 002c 691E     		subs	r1, r5, #1
  67              		.loc 1 89 0 discriminator 2
  68 002e 0020     		movs	r0, #0
  69              		.loc 1 90 0 discriminator 2
  70 0030 8EB2     		uxth	r6, r1
  71              		.loc 1 89 0 discriminator 2
  72 0032 FFF7FEFF 		bl	vexAdcGet
  73              		.loc 1 90 0 discriminator 2
  74 0036 751E     		subs	r5, r6, #1
  75              		.loc 1 89 0 discriminator 2
  76 0038 2418     		adds	r4, r4, r0
  77              	.LVL4:
  78              		.loc 1 90 0 discriminator 2
  79 003a ADB2     		uxth	r5, r5
  80 003c 0120     		movs	r0, #1
  81 003e FFF7FEFF 		bl	chThdSleep
  82              		.loc 1 87 0 discriminator 2
  83 0042 002D     		cmp	r5, #0
  84 0044 EBD1     		bne	.L2
  85              		.loc 1 93 0
  86 0046 04F57E70 		add	r0, r4, #1016
  87 004a C71D     		adds	r7, r0, #7
  88 004c 17EA2407 		ands	r7, r7, r4, asr #32
  89 0050 38BF     		it	cc
  90 0052 2746     		movcc	r7, r4
  91 0054 BA12     		asrs	r2, r7, #10
  92              	.LVL5:
  93              		.loc 1 94 0
  94 0056 9302     		lsls	r3, r2, #10
  95 0058 40F20006 		movw	r6, #:lower16:.LANCHOR0
  96              		.loc 1 117 0
  97 005c 4EF27F07 		movw	r7, #57471
  98              		.loc 1 94 0
  99 0060 C3EB0409 		rsb	r9, r3, r4
 100              	.LVL6:
 101 0064 1FFA82F8 		uxth	r8, r2
 102              		.loc 1 77 0
 103 0068 2C46     		mov	r4, r5
 104              	.LVL7:
 105 006a C0F20006 		movt	r6, #:upper16:.LANCHOR0
 106              		.loc 1 117 0
 107 006e C7F60767 		movt	r7, 32263
 108              	.LVL8:
 109              	.L4:
 110              		.loc 1 101 0
 111 0072 0020     		movs	r0, #0
 112 0074 FFF7FEFF 		bl	vexAdcGet
 113              	.LVL9:
 114              		.loc 1 103 0
ARM GAS  /tmp/cc2xClu5.s 			page 3


 115 0078 C8EB0003 		rsb	r3, r8, r0
 116 007c 98B2     		uxth	r0, r3
 117              	.LVL10:
 118              		.loc 1 106 0
 119 007e 021D     		adds	r2, r0, #4
 120 0080 91B2     		uxth	r1, r2
 121 0082 0829     		cmp	r1, #8
 122 0084 08D9     		bls	.L3
 123              		.loc 1 112 0
 124 0086 0135     		adds	r5, r5, #1
 125              	.LVL11:
 126 0088 AA05     		lsls	r2, r5, #22
 127              		.loc 1 109 0
 128 008a 0FFA80FC 		sxth	ip, r0
 129              		.loc 1 112 0
 130 008e 910D     		lsrs	r1, r2, #22
 131              		.loc 1 109 0
 132 0090 6444     		add	r4, r4, ip
 133              	.LVL12:
 134              		.loc 1 112 0
 135 0092 09B9     		cbnz	r1, .L3
 136              		.loc 1 113 0
 137 0094 C9EB0404 		rsb	r4, r9, r4
 138              	.LVL13:
 139              	.L3:
 140              		.loc 1 117 0
 141 0098 87FB0420 		smull	r2, r0, r7, r4
 142              	.LVL14:
 143 009c E117     		asrs	r1, r4, #31
 144 009e C1EBA013 		rsb	r3, r1, r0, asr #6
 145 00a2 3360     		str	r3, [r6, #0]
 146              		.loc 1 120 0
 147 00a4 0120     		movs	r0, #1
 148 00a6 FFF7FEFF 		bl	chThdSleep
 149              		.loc 1 121 0
 150 00aa E2E7     		b	.L4
 151              		.cfi_endproc
 152              	.LFE63:
 153              		.size	vexGyroTask, .-vexGyroTask
 154 00ac AFF30080 		.section	.text.vexGyroGet,"ax",%progbits
 155              		.align	2
 156              		.p2align 4,,15
 157              		.global	vexGyroGet
 158              		.thumb
 159              		.thumb_func
 160              		.type	vexGyroGet, %function
 161              	vexGyroGet:
 162              	.LFB64:
 163              		.loc 1 133 0
 164              		.cfi_startproc
 165              		@ args = 0, pretend = 0, frame = 0
 166              		@ frame_needed = 0, uses_anonymous_args = 0
 167              		@ link register save eliminated.
 168              		.loc 1 134 0
 169 0000 40F20003 		movw	r3, #:lower16:.LANCHOR0
 170 0004 C0F20003 		movt	r3, #:upper16:.LANCHOR0
 171              		.loc 1 135 0
ARM GAS  /tmp/cc2xClu5.s 			page 4


 172 0008 1868     		ldr	r0, [r3, #0]
 173 000a 7047     		bx	lr
 174              		.cfi_endproc
 175              	.LFE64:
 176              		.size	vexGyroGet, .-vexGyroGet
 177 000c AFF30080 		.section	.text.vexGyroInit,"ax",%progbits
 178              		.align	2
 179              		.p2align 4,,15
 180              		.global	vexGyroInit
 181              		.thumb
 182              		.thumb_func
 183              		.type	vexGyroInit, %function
 184              	vexGyroInit:
 185              	.LFB65:
 186              		.loc 1 143 0
 187              		.cfi_startproc
 188              		@ args = 0, pretend = 0, frame = 0
 189              		@ frame_needed = 0, uses_anonymous_args = 0
 190 0000 10B5     		push	{r4, lr}
 191              	.LCFI1:
 192              		.cfi_def_cfa_offset 8
 193              		.cfi_offset 14, -4
 194              		.cfi_offset 4, -8
 195              		.loc 1 144 0
 196 0002 40F20000 		movw	r0, #:lower16:.LANCHOR1
 197 0006 40F20003 		movw	r3, #:lower16:vexGyroTask
 198              		.loc 1 143 0
 199 000a 82B0     		sub	sp, sp, #8
 200              	.LCFI2:
 201              		.cfi_def_cfa_offset 16
 202              		.loc 1 144 0
 203 000c 0024     		movs	r4, #0
 204 000e 4FF42C71 		mov	r1, #688
 205 0012 4122     		movs	r2, #65
 206 0014 C0F20003 		movt	r3, #:upper16:vexGyroTask
 207 0018 C0F20000 		movt	r0, #:upper16:.LANCHOR1
 208 001c 0094     		str	r4, [sp, #0]
 209 001e FFF7FEFF 		bl	chThdCreateStatic
 210              		.loc 1 145 0
 211 0022 02B0     		add	sp, sp, #8
 212 0024 10BD     		pop	{r4, pc}
 213              		.cfi_endproc
 214              	.LFE65:
 215              		.size	vexGyroInit, .-vexGyroInit
 216              		.global	GyroJitterRange
 217 0026 00BFAFF3 		.section	.rodata.GyroJitterRange,"a",%progbits
 217      0080AFF3 
 217      0080
 218              		.align	2
 219              		.type	GyroJitterRange, %object
 220              		.size	GyroJitterRange, 4
 221              	GyroJitterRange:
 222 0000 04000000 		.word	4
 223              		.section	.rodata.str1.4,"aMS",%progbits,1
 224              		.align	2
 225              	.LC0:
 226 0000 6779726F 		.ascii	"gyro\000"
ARM GAS  /tmp/cc2xClu5.s 			page 5


 226      00
 227 0005 000000   		.section	.bss.GyroValue,"aw",%nobits
 228              		.align	2
 229              		.set	.LANCHOR0,. + 0
 230              		.type	GyroValue, %object
 231              		.size	GyroValue, 4
 232              	GyroValue:
 233 0000 00000000 		.space	4
 234              		.section	.bss.waVexGyroTask,"aw",%nobits
 235              		.align	3
 236              		.set	.LANCHOR1,. + 0
 237              		.type	waVexGyroTask, %object
 238              		.size	waVexGyroTask, 688
 239              	waVexGyroTask:
 240 0000 00000000 		.space	688
 240      00000000 
 240      00000000 
 240      00000000 
 240      00000000 
 241              		.text
 242              	.Letext0:
 243              		.file 2 "/opt/pros/toolchain/bin/../lib/gcc/arm-none-eabi/4.6.3/../../../../arm-none-eabi/include/
 244              		.file 3 "../ChibiOS_2.6.2/os/ports/GCC/ARMCMx/chtypes.h"
 245              		.file 4 "../ChibiOS_2.6.2/os/kernel/include/chlists.h"
 246              		.file 5 "../ChibiOS_2.6.2/os/kernel/include/chthreads.h"
 247              		.file 6 "../ChibiOS_2.6.2/os/ports/GCC/ARMCMx/chcore_v7m.h"
 248              		.file 7 "../ChibiOS_2.6.2/os/kernel/include/chschd.h"
 249              		.file 8 "../ChibiOS_2.6.2/os/kernel/include/chmtx.h"
 250              		.file 9 "../convex/cortex/fw/vexanalog.h"
 251              		.file 10 "../convex/cortex/fw/vexdigital.h"
 252              		.file 11 "../convex/cortex/fw/vexime.h"
 253              		.file 12 "../ChibiOS_2.6.2/os/ports/common/ARMCMx/CMSIS/include/core_cm3.h"