ARM GAS  /tmp/ccSSbbqd.s 			page 1


   1              		.syntax unified
   2              		.cpu cortex-m3
   3              		.fpu softvfp
   4              		.eabi_attribute 20, 1
   5              		.eabi_attribute 21, 1
   6              		.eabi_attribute 23, 3
   7              		.eabi_attribute 24, 1
   8              		.eabi_attribute 25, 1
   9              		.eabi_attribute 26, 1
  10              		.eabi_attribute 30, 2
  11              		.eabi_attribute 34, 1
  12              		.eabi_attribute 18, 4
  13              		.thumb
  14              		.file	"vexlcd.c"
  15              		.text
  16              	.Ltext0:
  17              		.cfi_sections	.debug_frame
  18              		.section	.text.vexLcdInit,"ax",%progbits
  19              		.align	2
  20              		.p2align 4,,15
  21              		.global	vexLcdInit
  22              		.thumb
  23              		.thumb_func
  24              		.type	vexLcdInit, %function
  25              	vexLcdInit:
  26              	.LFB64:
  27              		.file 1 "../convex/cortex/fw/vexlcd.c"
  28              		.loc 1 131 0
  29              		.cfi_startproc
  30              		@ args = 0, pretend = 0, frame = 0
  31              		@ frame_needed = 0, uses_anonymous_args = 0
  32              	.LVL0:
  33 0000 F0B5     		push	{r4, r5, r6, r7, lr}
  34              	.LCFI0:
  35              		.cfi_def_cfa_offset 20
  36              		.cfi_offset 14, -4
  37              		.cfi_offset 7, -8
  38              		.cfi_offset 6, -12
  39              		.cfi_offset 5, -16
  40              		.cfi_offset 4, -20
  41              		.loc 1 134 0
  42 0002 83B2     		uxth	r3, r0
  43 0004 012B     		cmp	r3, #1
  44              		.loc 1 131 0
  45 0006 83B0     		sub	sp, sp, #12
  46              	.LCFI1:
  47              		.cfi_def_cfa_offset 32
  48              		.loc 1 134 0
  49 0008 01D9     		bls	.L13
  50              	.LVL1:
  51              	.L1:
  52              		.loc 1 165 0
  53 000a 03B0     		add	sp, sp, #12
  54 000c F0BD     		pop	{r4, r5, r6, r7, pc}
  55              	.LVL2:
  56              	.L13:
  57              		.loc 1 138 0
ARM GAS  /tmp/ccSSbbqd.s 			page 2


  58 000e 0029     		cmp	r1, #0
  59 0010 FBD0     		beq	.L1
  60              		.loc 1 140 0
  61 0012 4700     		lsls	r7, r0, #1
  62 0014 3D18     		adds	r5, r7, r0
  63 0016 6C01     		lsls	r4, r5, #5
  64 0018 40F20006 		movw	r6, #:lower16:.LANCHOR0
  65 001c C0F20006 		movt	r6, #:upper16:.LANCHOR0
  66              		.loc 1 130 0
  67 0020 E21D     		adds	r2, r4, #7
  68              		.loc 1 140 0
  69 0022 3151     		str	r1, [r6, r4]
  70              	.LVL3:
  71              		.loc 1 130 0
  72 0024 B218     		adds	r2, r6, r2
  73 0026 1423     		movs	r3, #20
  74              		.loc 1 144 0
  75 0028 2024     		movs	r4, #32
  76              	.LVL4:
  77              	.L3:
  78              		.loc 1 144 0 is_stmt 0 discriminator 2
  79 002a 023B     		subs	r3, r3, #2
  80              		.loc 1 140 0 is_stmt 1 discriminator 2
  81 002c 511C     		adds	r1, r2, #1
  82              		.loc 1 144 0 discriminator 2
  83 002e 9BB2     		uxth	r3, r3
  84 0030 5470     		strb	r4, [r2, #1]
  85              		.loc 1 140 0 discriminator 2
  86 0032 0232     		adds	r2, r2, #2
  87              		.loc 1 144 0 discriminator 2
  88 0034 4C70     		strb	r4, [r1, #1]
  89              		.loc 1 143 0 discriminator 2
  90 0036 002B     		cmp	r3, #0
  91 0038 F7D1     		bne	.L3
  92              		.loc 1 145 0
  93 003a 3C18     		adds	r4, r7, r0
  94 003c 6201     		lsls	r2, r4, #5
  95 003e 06EB020C 		add	ip, r6, r2
  96 0042 8CF81830 		strb	r3, [ip, #24]
  97              	.LVL5:
  98              		.loc 1 130 0
  99 0046 1422     		movs	r2, #20
 100 0048 0CF11B03 		add	r3, ip, #27
 101              		.loc 1 148 0
 102 004c 2024     		movs	r4, #32
 103              	.LVL6:
 104              	.L4:
 105              		.loc 1 148 0 is_stmt 0 discriminator 2
 106 004e 911E     		subs	r1, r2, #2
 107              		.loc 1 145 0 is_stmt 1 discriminator 2
 108 0050 5D1C     		adds	r5, r3, #1
 109              		.loc 1 148 0 discriminator 2
 110 0052 8AB2     		uxth	r2, r1
 111 0054 5C70     		strb	r4, [r3, #1]
 112              		.loc 1 145 0 discriminator 2
 113 0056 0233     		adds	r3, r3, #2
 114              		.loc 1 148 0 discriminator 2
ARM GAS  /tmp/ccSSbbqd.s 			page 3


 115 0058 6C70     		strb	r4, [r5, #1]
 116              		.loc 1 147 0 discriminator 2
 117 005a 002A     		cmp	r2, #0
 118 005c F7D1     		bne	.L4
 119              		.loc 1 149 0
 120 005e 3C18     		adds	r4, r7, r0
 121 0060 6301     		lsls	r3, r4, #5
 122 0062 06EB030C 		add	ip, r6, r3
 123              		.loc 1 130 0
 124 0066 2F33     		adds	r3, r3, #47
 125              		.loc 1 149 0
 126 0068 8CF82C20 		strb	r2, [ip, #44]
 127              	.LVL7:
 128              		.loc 1 130 0
 129 006c F318     		adds	r3, r6, r3
 130 006e 2024     		movs	r4, #32
 131              		.loc 1 153 0
 132 0070 1146     		mov	r1, r2
 133              	.LVL8:
 134              	.L5:
 135              		.loc 1 153 0 is_stmt 0 discriminator 2
 136 0072 A51E     		subs	r5, r4, #2
 137              		.loc 1 149 0 is_stmt 1 discriminator 2
 138 0074 5A1C     		adds	r2, r3, #1
 139              		.loc 1 153 0 discriminator 2
 140 0076 ACB2     		uxth	r4, r5
 141 0078 5970     		strb	r1, [r3, #1]
 142              		.loc 1 149 0 discriminator 2
 143 007a 0233     		adds	r3, r3, #2
 144              		.loc 1 153 0 discriminator 2
 145 007c 5170     		strb	r1, [r2, #1]
 146              		.loc 1 152 0 discriminator 2
 147 007e 002C     		cmp	r4, #0
 148 0080 F7D1     		bne	.L5
 149              		.loc 1 159 0
 150 0082 40F20005 		movw	r5, #:lower16:.LANCHOR1
 151              		.loc 1 155 0
 152 0086 3A18     		adds	r2, r7, r0
 153              		.loc 1 159 0
 154 0088 C0F20005 		movt	r5, #:upper16:.LANCHOR1
 155              		.loc 1 155 0
 156 008c 5301     		lsls	r3, r2, #5
 157              		.loc 1 159 0
 158 008e B5F90010 		ldrsh	r1, [r5, #0]
 159              		.loc 1 155 0
 160 0092 F618     		adds	r6, r6, r3
 161              		.loc 1 156 0
 162 0094 0120     		movs	r0, #1
 163              	.LVL9:
 164              		.loc 1 155 0
 165 0096 86F85040 		strb	r4, [r6, #80]
 166              	.LVL10:
 167 009a 86F85140 		strb	r4, [r6, #81]
 168              	.LVL11:
 169 009e 86F85240 		strb	r4, [r6, #82]
 170              	.LVL12:
 171 00a2 86F85340 		strb	r4, [r6, #83]
ARM GAS  /tmp/ccSSbbqd.s 			page 4


 172              	.LVL13:
 173 00a6 86F85440 		strb	r4, [r6, #84]
 174              	.LVL14:
 175 00aa 86F85540 		strb	r4, [r6, #85]
 176              	.LVL15:
 177 00ae 86F85640 		strb	r4, [r6, #86]
 178              	.LVL16:
 179 00b2 86F85740 		strb	r4, [r6, #87]
 180              	.LVL17:
 181 00b6 86F85840 		strb	r4, [r6, #88]
 182              	.LVL18:
 183 00ba 86F85940 		strb	r4, [r6, #89]
 184              	.LVL19:
 185 00be 86F85A40 		strb	r4, [r6, #90]
 186              	.LVL20:
 187 00c2 86F85B40 		strb	r4, [r6, #91]
 188              	.LVL21:
 189 00c6 86F85C40 		strb	r4, [r6, #92]
 190              	.LVL22:
 191 00ca 86F85D40 		strb	r4, [r6, #93]
 192              	.LVL23:
 193 00ce 86F85E40 		strb	r4, [r6, #94]
 194              	.LVL24:
 195 00d2 86F85F40 		strb	r4, [r6, #95]
 196              	.LVL25:
 197              		.loc 1 156 0
 198 00d6 B080     		strh	r0, [r6, #4]	@ movhi
 199              		.loc 1 159 0
 200 00d8 0029     		cmp	r1, #0
 201 00da 96D1     		bne	.L1
 202              		.loc 1 161 0
 203 00dc 0126     		movs	r6, #1
 204              		.loc 1 162 0
 205 00de 40F20000 		movw	r0, #:lower16:.LANCHOR2
 206 00e2 40F20003 		movw	r3, #:lower16:VexLcdUpdate
 207              		.loc 1 161 0
 208 00e6 2E80     		strh	r6, [r5, #0]	@ movhi
 209              		.loc 1 162 0
 210 00e8 4FF4C071 		mov	r1, #384
 211 00ec 4022     		movs	r2, #64
 212 00ee C0F20003 		movt	r3, #:upper16:VexLcdUpdate
 213 00f2 C0F20000 		movt	r0, #:upper16:.LANCHOR2
 214 00f6 0094     		str	r4, [sp, #0]
 215 00f8 FFF7FEFF 		bl	chThdCreateStatic
 216 00fc 85E7     		b	.L1
 217              		.cfi_endproc
 218              	.LFE64:
 219              		.size	vexLcdInit, .-vexLcdInit
 220 00fe 00BF     		.section	.text.vexLcdSet,"ax",%progbits
 221              		.align	2
 222              		.p2align 4,,15
 223              		.global	vexLcdSet
 224              		.thumb
 225              		.thumb_func
 226              		.type	vexLcdSet, %function
 227              	vexLcdSet:
 228              	.LFB65:
ARM GAS  /tmp/ccSSbbqd.s 			page 5


 229              		.loc 1 176 0
 230              		.cfi_startproc
 231              		@ args = 0, pretend = 0, frame = 0
 232              		@ frame_needed = 0, uses_anonymous_args = 0
 233              		@ link register save eliminated.
 234              	.LVL26:
 235              		.loc 1 177 0
 236 0000 83B2     		uxth	r3, r0
 237 0002 012B     		cmp	r3, #1
 238 0004 00D9     		bls	.L18
 239 0006 7047     		bx	lr
 240              	.L18:
 241              	.LBB7:
 242              	.LBB8:
 243              		.loc 1 181 0
 244 0008 00EB4000 		add	r0, r0, r0, lsl #1
 245              	.LVL27:
 246 000c 4001     		lsls	r0, r0, #5
 247              	.LVL28:
 248 000e 044B     		ldr	r3, .L19
 249              	.LVL29:
 250              	.LBE8:
 251              	.LBE7:
 252              		.loc 1 180 0
 253 0010 01B1     		cbz	r1, .L17
 254              	.LVL30:
 255              		.loc 1 183 0
 256 0012 044B     		ldr	r3, .L19+4
 257              	.LVL31:
 258              	.L17:
 259 0014 1146     		mov	r1, r2
 260              	.LVL32:
 261 0016 C018     		adds	r0, r0, r3
 262              	.LVL33:
 263 0018 1022     		movs	r2, #16
 264              	.LVL34:
 265              		.loc 1 184 0
 266              		.loc 1 183 0
 267 001a FFF7FEBF 		b	strncpy
 268              	.LVL35:
 269              	.L20:
 270 001e 00BF     		.align	2
 271              	.L19:
 272 0020 08000000 		.word	.LANCHOR0+8
 273 0024 1C000000 		.word	.LANCHOR0+28
 274              		.cfi_endproc
 275              	.LFE65:
 276              		.size	vexLcdSet, .-vexLcdSet
 277 0028 AFF30080 		.section	.text.vexLcdSetAt,"ax",%progbits
 277      AFF30080 
 278              		.align	2
 279              		.p2align 4,,15
 280              		.global	vexLcdSetAt
 281              		.thumb
 282              		.thumb_func
 283              		.type	vexLcdSetAt, %function
 284              	vexLcdSetAt:
ARM GAS  /tmp/ccSSbbqd.s 			page 6


 285              	.LFB66:
 286              		.loc 1 196 0
 287              		.cfi_startproc
 288              		@ args = 0, pretend = 0, frame = 0
 289              		@ frame_needed = 0, uses_anonymous_args = 0
 290              		@ link register save eliminated.
 291              	.LVL36:
 292 0000 10B4     		push	{r4}
 293              	.LCFI2:
 294              		.cfi_def_cfa_offset 4
 295              		.cfi_offset 4, -4
 296              		.loc 1 197 0
 297 0002 84B2     		uxth	r4, r0
 298 0004 012C     		cmp	r4, #1
 299 0006 01D9     		bls	.L25
 300              	.L21:
 301              		.loc 1 207 0
 302 0008 10BC     		pop	{r4}
 303 000a 7047     		bx	lr
 304              	.L25:
 305              		.loc 1 200 0
 306 000c 94B2     		uxth	r4, r2
 307 000e 0F2C     		cmp	r4, #15
 308 0010 FAD8     		bhi	.L21
 309              		.loc 1 204 0
 310 0012 00EB4000 		add	r0, r0, r0, lsl #1
 311              	.LVL37:
 312 0016 4001     		lsls	r0, r0, #5
 313 0018 8018     		adds	r0, r0, r2
 314              		.loc 1 203 0
 315 001a 39B1     		cbz	r1, .L26
 316              		.loc 1 206 0
 317 001c 0449     		ldr	r1, .L27
 318              	.LVL38:
 319              	.L24:
 320 001e 4018     		adds	r0, r0, r1
 321 0020 C2F11002 		rsb	r2, r2, #16
 322              	.LVL39:
 323 0024 1946     		mov	r1, r3
 324              		.loc 1 207 0
 325 0026 10BC     		pop	{r4}
 326              		.loc 1 206 0
 327 0028 FFF7FEBF 		b	strncpy
 328              	.LVL40:
 329              	.L26:
 330              		.loc 1 204 0
 331 002c 0149     		ldr	r1, .L27+4
 332              	.LVL41:
 333 002e F6E7     		b	.L24
 334              	.L28:
 335              		.align	2
 336              	.L27:
 337 0030 1C000000 		.word	.LANCHOR0+28
 338 0034 08000000 		.word	.LANCHOR0+8
 339              		.cfi_endproc
 340              	.LFE66:
 341              		.size	vexLcdSetAt, .-vexLcdSetAt
ARM GAS  /tmp/ccSSbbqd.s 			page 7


 342 0038 AFF30080 		.section	.text.vexLcdPrintf,"ax",%progbits
 342      AFF30080 
 343              		.align	2
 344              		.p2align 4,,15
 345              		.global	vexLcdPrintf
 346              		.thumb
 347              		.thumb_func
 348              		.type	vexLcdPrintf, %function
 349              	vexLcdPrintf:
 350              	.LFB67:
 351              		.loc 1 218 0
 352              		.cfi_startproc
 353              		@ args = 4, pretend = 8, frame = 8
 354              		@ frame_needed = 0, uses_anonymous_args = 1
 355              	.LVL42:
 356 0000 0CB4     		push	{r2, r3}
 357              	.LCFI3:
 358              		.cfi_def_cfa_offset 8
 359              		.cfi_offset 3, -4
 360              		.cfi_offset 2, -8
 361 0002 F0B5     		push	{r4, r5, r6, r7, lr}
 362              	.LCFI4:
 363              		.cfi_def_cfa_offset 28
 364              		.cfi_offset 14, -12
 365              		.cfi_offset 7, -16
 366              		.cfi_offset 6, -20
 367              		.cfi_offset 5, -24
 368              		.cfi_offset 4, -28
 369 0004 83B0     		sub	sp, sp, #12
 370              	.LCFI5:
 371              		.cfi_def_cfa_offset 40
 372              		.loc 1 218 0
 373 0006 08AF     		add	r7, sp, #32
 374 0008 57F8042B 		ldr	r2, [r7], #4
 375              		.loc 1 224 0
 376 000c 40F20004 		movw	r4, #:lower16:.LANCHOR3
 377 0010 C0F20004 		movt	r4, #:upper16:.LANCHOR3
 378              		.loc 1 218 0
 379 0014 0646     		mov	r6, r0
 380 0016 0D46     		mov	r5, r1
 381              		.loc 1 224 0
 382 0018 2046     		mov	r0, r4
 383              	.LVL43:
 384 001a 2021     		movs	r1, #32
 385              	.LVL44:
 386 001c 3B46     		mov	r3, r7
 387              		.loc 1 221 0
 388 001e 0197     		str	r7, [sp, #4]
 389              		.loc 1 224 0
 390 0020 FFF7FEFF 		bl	vex_vsnprintf
 391              		.loc 1 226 0
 392 0024 3046     		mov	r0, r6
 393 0026 2946     		mov	r1, r5
 394 0028 2246     		mov	r2, r4
 395 002a FFF7FEFF 		bl	vexLcdSet
 396              		.loc 1 229 0
 397 002e 03B0     		add	sp, sp, #12
ARM GAS  /tmp/ccSSbbqd.s 			page 8


 398 0030 BDE8F040 		pop	{r4, r5, r6, r7, lr}
 399 0034 02B0     		add	sp, sp, #8
 400 0036 7047     		bx	lr
 401              		.cfi_endproc
 402              	.LFE67:
 403              		.size	vexLcdPrintf, .-vexLcdPrintf
 404 0038 AFF30080 		.section	.text.vexLcdPrintfAt,"ax",%progbits
 404      AFF30080 
 405              		.align	2
 406              		.p2align 4,,15
 407              		.global	vexLcdPrintfAt
 408              		.thumb
 409              		.thumb_func
 410              		.type	vexLcdPrintfAt, %function
 411              	vexLcdPrintfAt:
 412              	.LFB68:
 413              		.loc 1 241 0
 414              		.cfi_startproc
 415              		@ args = 4, pretend = 4, frame = 8
 416              		@ frame_needed = 0, uses_anonymous_args = 1
 417              	.LVL45:
 418 0000 08B4     		push	{r3}
 419              	.LCFI6:
 420              		.cfi_def_cfa_offset 4
 421              		.cfi_offset 3, -4
 422 0002 F0B5     		push	{r4, r5, r6, r7, lr}
 423              	.LCFI7:
 424              		.cfi_def_cfa_offset 24
 425              		.cfi_offset 14, -8
 426              		.cfi_offset 7, -12
 427              		.cfi_offset 6, -16
 428              		.cfi_offset 5, -20
 429              		.cfi_offset 4, -24
 430 0004 82B0     		sub	sp, sp, #8
 431              	.LCFI8:
 432              		.cfi_def_cfa_offset 32
 433              		.loc 1 241 0
 434 0006 0DF11C0E 		add	lr, sp, #28
 435 000a 5EF8043B 		ldr	r3, [lr], #4
 436              		.loc 1 247 0
 437 000e 40F20004 		movw	r4, #:lower16:.LANCHOR3
 438 0012 C0F20004 		movt	r4, #:upper16:.LANCHOR3
 439              		.loc 1 241 0
 440 0016 0746     		mov	r7, r0
 441 0018 0E46     		mov	r6, r1
 442 001a 1546     		mov	r5, r2
 443              		.loc 1 247 0
 444 001c 2021     		movs	r1, #32
 445              	.LVL46:
 446 001e 1A46     		mov	r2, r3
 447              	.LVL47:
 448 0020 2046     		mov	r0, r4
 449              	.LVL48:
 450 0022 7346     		mov	r3, lr
 451              		.loc 1 244 0
 452 0024 CDF804E0 		str	lr, [sp, #4]
 453              		.loc 1 247 0
ARM GAS  /tmp/ccSSbbqd.s 			page 9


 454 0028 FFF7FEFF 		bl	vex_vsnprintf
 455              		.loc 1 249 0
 456 002c 3846     		mov	r0, r7
 457 002e 3146     		mov	r1, r6
 458 0030 2A46     		mov	r2, r5
 459 0032 2346     		mov	r3, r4
 460 0034 FFF7FEFF 		bl	vexLcdSetAt
 461              		.loc 1 252 0
 462 0038 02B0     		add	sp, sp, #8
 463 003a BDE8F040 		pop	{r4, r5, r6, r7, lr}
 464 003e 01B0     		add	sp, sp, #4
 465 0040 7047     		bx	lr
 466              		.cfi_endproc
 467              	.LFE68:
 468              		.size	vexLcdPrintfAt, .-vexLcdPrintfAt
 469 0042 00BFAFF3 		.section	.text.vexLcdClearLine,"ax",%progbits
 469      0080AFF3 
 469      0080AFF3 
 469      0080
 470              		.align	2
 471              		.p2align 4,,15
 472              		.global	vexLcdClearLine
 473              		.thumb
 474              		.thumb_func
 475              		.type	vexLcdClearLine, %function
 476              	vexLcdClearLine:
 477              	.LFB69:
 478              		.loc 1 261 0
 479              		.cfi_startproc
 480              		@ args = 0, pretend = 0, frame = 0
 481              		@ frame_needed = 0, uses_anonymous_args = 0
 482              		@ link register save eliminated.
 483              	.LVL49:
 484              		.loc 1 262 0
 485 0000 40F20002 		movw	r2, #:lower16:.LC0
 486 0004 C0F20002 		movt	r2, #:upper16:.LC0
 487              		.loc 1 263 0
 488              		.loc 1 262 0
 489 0008 FFF7FEBF 		b	vexLcdSet
 490              	.LVL50:
 491              	.LVL51:
 492              		.cfi_endproc
 493              	.LFE69:
 494              		.size	vexLcdClearLine, .-vexLcdClearLine
 495 000c AFF30080 		.section	.text.vexLcdBacklight,"ax",%progbits
 496              		.align	2
 497              		.p2align 4,,15
 498              		.global	vexLcdBacklight
 499              		.thumb
 500              		.thumb_func
 501              		.type	vexLcdBacklight, %function
 502              	vexLcdBacklight:
 503              	.LFB70:
 504              		.loc 1 273 0
 505              		.cfi_startproc
 506              		@ args = 0, pretend = 0, frame = 0
 507              		@ frame_needed = 0, uses_anonymous_args = 0
ARM GAS  /tmp/ccSSbbqd.s 			page 10


 508              		@ link register save eliminated.
 509              	.LVL52:
 510              		.loc 1 274 0
 511 0000 83B2     		uxth	r3, r0
 512 0002 012B     		cmp	r3, #1
 513 0004 17D8     		bhi	.L32
 514              		.loc 1 277 0
 515 0006 4200     		lsls	r2, r0, #1
 516 0008 40F2000C 		movw	ip, #:lower16:.LANCHOR0
 517 000c 0129     		cmp	r1, #1
 518 000e 02EB0001 		add	r1, r2, r0
 519              	.LVL53:
 520 0012 C0F2000C 		movt	ip, #:upper16:.LANCHOR0
 521 0016 4FEA4113 		lsl	r3, r1, #5
 522 001a 0CEB0301 		add	r1, ip, r3
 523 001e 8979     		ldrb	r1, [r1, #6]	@ zero_extendqisi2
 524 0020 02EB0003 		add	r3, r2, r0
 525 0024 0CBF     		ite	eq
 526 0026 41F00101 		orreq	r1, r1, #1
 527 002a 01F0FE01 		andne	r1, r1, #254
 528 002e 5A01     		lsls	r2, r3, #5
 529 0030 0CEB0200 		add	r0, ip, r2
 530              	.LVL54:
 531 0034 8171     		strb	r1, [r0, #6]
 532              	.L32:
 533 0036 7047     		bx	lr
 534              		.cfi_endproc
 535              	.LFE70:
 536              		.size	vexLcdBacklight, .-vexLcdBacklight
 537 0038 AFF30080 		.section	.text.vexLcdButtonGet,"ax",%progbits
 537      AFF30080 
 538              		.align	2
 539              		.p2align 4,,15
 540              		.global	vexLcdButtonGet
 541              		.thumb
 542              		.thumb_func
 543              		.type	vexLcdButtonGet, %function
 544              	vexLcdButtonGet:
 545              	.LFB71:
 546              		.loc 1 288 0
 547              		.cfi_startproc
 548              		@ args = 0, pretend = 0, frame = 0
 549              		@ frame_needed = 0, uses_anonymous_args = 0
 550              		@ link register save eliminated.
 551              	.LVL55:
 552              		.loc 1 289 0
 553 0000 83B2     		uxth	r3, r0
 554 0002 012B     		cmp	r3, #1
 555 0004 01D9     		bls	.L39
 556              		.loc 1 290 0
 557 0006 0020     		movs	r0, #0
 558              	.LVL56:
 559              		.loc 1 293 0
 560 0008 7047     		bx	lr
 561              	.L39:
 562              		.loc 1 292 0
 563 000a 00EB4003 		add	r3, r0, r0, lsl #1
ARM GAS  /tmp/ccSSbbqd.s 			page 11


 564              	.LVL57:
 565 000e 40F20001 		movw	r1, #:lower16:.LANCHOR0
 566 0012 C0F20001 		movt	r1, #:upper16:.LANCHOR0
 567 0016 5A01     		lsls	r2, r3, #5
 568 0018 8818     		adds	r0, r1, r2
 569              	.LVL58:
 570 001a C079     		ldrb	r0, [r0, #7]	@ zero_extendqisi2
 571 001c 7047     		bx	lr
 572              		.cfi_endproc
 573              	.LFE71:
 574              		.size	vexLcdButtonGet, .-vexLcdButtonGet
 575 001e 00BF     		.section	.text.vexLcdSendMessage,"ax",%progbits
 576              		.align	2
 577              		.p2align 4,,15
 578              		.global	vexLcdSendMessage
 579              		.thumb
 580              		.thumb_func
 581              		.type	vexLcdSendMessage, %function
 582              	vexLcdSendMessage:
 583              	.LFB72:
 584              		.loc 1 304 0
 585              		.cfi_startproc
 586              		@ args = 0, pretend = 0, frame = 0
 587              		@ frame_needed = 0, uses_anonymous_args = 0
 588              		@ link register save eliminated.
 589              	.LVL59:
 590              		.loc 1 309 0
 591 0000 8BB2     		uxth	r3, r1
 592 0002 012B     		cmp	r3, #1
 593              		.loc 1 304 0
 594 0004 10B4     		push	{r4}
 595              	.LCFI9:
 596              		.cfi_def_cfa_offset 4
 597              		.cfi_offset 4, -4
 598              		.loc 1 309 0
 599 0006 01D9     		bls	.L79
 600              		.loc 1 345 0
 601 0008 10BC     		pop	{r4}
 602 000a 7047     		bx	lr
 603              	.L79:
 604              	.LVL60:
 605              	.LBB11:
 606              	.LBB12:
 607              		.loc 1 317 0
 608 000c 90F806C0 		ldrb	ip, [r0, #6]	@ zero_extendqisi2
 609              		.loc 1 313 0
 610 0010 AA22     		movs	r2, #170
 611              		.loc 1 315 0
 612 0012 1E23     		movs	r3, #30
 613              		.loc 1 314 0
 614 0014 5524     		movs	r4, #85
 615              		.loc 1 313 0
 616 0016 80F83020 		strb	r2, [r0, #48]
 617              		.loc 1 315 0
 618 001a 80F83230 		strb	r3, [r0, #50]
 619              		.loc 1 316 0
 620 001e 1222     		movs	r2, #18
ARM GAS  /tmp/ccSSbbqd.s 			page 12


 621              		.loc 1 317 0
 622 0020 5FEACC73 		lsls	r3, ip, #31
 623              		.loc 1 316 0
 624 0024 80F83320 		strb	r2, [r0, #51]
 625              		.loc 1 314 0
 626 0028 80F83140 		strb	r4, [r0, #49]
 627              		.loc 1 317 0
 628 002c 54BF     		ite	pl
 629 002e 0A46     		movpl	r2, r1
 630 0030 8A1C     		addmi	r2, r1, #2
 631              		.loc 1 321 0
 632 0032 2024     		movs	r4, #32
 633              		.loc 1 317 0
 634 0034 80F83420 		strb	r2, [r0, #52]
 635              	.LVL61:
 636              		.loc 1 321 0
 637 0038 80F83540 		strb	r4, [r0, #53]
 638              	.LVL62:
 639 003c 80F83640 		strb	r4, [r0, #54]
 640              	.LVL63:
 641 0040 80F83740 		strb	r4, [r0, #55]
 642              	.LVL64:
 643 0044 80F83840 		strb	r4, [r0, #56]
 644              	.LVL65:
 645 0048 80F83940 		strb	r4, [r0, #57]
 646              	.LVL66:
 647 004c 80F83A40 		strb	r4, [r0, #58]
 648              	.LVL67:
 649 0050 80F83B40 		strb	r4, [r0, #59]
 650              	.LVL68:
 651 0054 80F83C40 		strb	r4, [r0, #60]
 652              	.LVL69:
 653 0058 80F83D40 		strb	r4, [r0, #61]
 654              	.LVL70:
 655 005c 80F83E40 		strb	r4, [r0, #62]
 656              	.LVL71:
 657 0060 80F83F40 		strb	r4, [r0, #63]
 658              	.LVL72:
 659 0064 80F84040 		strb	r4, [r0, #64]
 660              	.LVL73:
 661 0068 80F84140 		strb	r4, [r0, #65]
 662              	.LVL74:
 663 006c 80F84240 		strb	r4, [r0, #66]
 664              	.LVL75:
 665 0070 80F84340 		strb	r4, [r0, #67]
 666              	.LVL76:
 667 0074 80F84440 		strb	r4, [r0, #68]
 668              	.LVL77:
 669              		.loc 1 324 0
 670 0078 0029     		cmp	r1, #0
 671 007a 40F08A80 		bne	.L44
 672              	.LVL78:
 673              		.loc 1 326 0
 674 007e 037A     		ldrb	r3, [r0, #8]	@ zero_extendqisi2
 675 0080 0BB1     		cbz	r3, .L45
 676              		.loc 1 327 0
 677 0082 80F83530 		strb	r3, [r0, #53]
ARM GAS  /tmp/ccSSbbqd.s 			page 13


 678              	.LVL79:
 679              	.L45:
 680              		.loc 1 326 0
 681 0086 437A     		ldrb	r3, [r0, #9]	@ zero_extendqisi2
 682 0088 0BB1     		cbz	r3, .L46
 683              		.loc 1 327 0
 684 008a 80F83630 		strb	r3, [r0, #54]
 685              	.L46:
 686              	.LVL80:
 687              		.loc 1 326 0
 688 008e 837A     		ldrb	r3, [r0, #10]	@ zero_extendqisi2
 689 0090 0BB1     		cbz	r3, .L47
 690              		.loc 1 327 0
 691 0092 80F83730 		strb	r3, [r0, #55]
 692              	.L47:
 693              	.LVL81:
 694              		.loc 1 326 0
 695 0096 C37A     		ldrb	r3, [r0, #11]	@ zero_extendqisi2
 696 0098 0BB1     		cbz	r3, .L48
 697              		.loc 1 327 0
 698 009a 80F83830 		strb	r3, [r0, #56]
 699              	.L48:
 700              	.LVL82:
 701              		.loc 1 326 0
 702 009e 037B     		ldrb	r3, [r0, #12]	@ zero_extendqisi2
 703 00a0 0BB1     		cbz	r3, .L49
 704              		.loc 1 327 0
 705 00a2 80F83930 		strb	r3, [r0, #57]
 706              	.L49:
 707              	.LVL83:
 708              		.loc 1 326 0
 709 00a6 437B     		ldrb	r3, [r0, #13]	@ zero_extendqisi2
 710 00a8 0BB1     		cbz	r3, .L50
 711              		.loc 1 327 0
 712 00aa 80F83A30 		strb	r3, [r0, #58]
 713              	.L50:
 714              	.LVL84:
 715              		.loc 1 326 0
 716 00ae 837B     		ldrb	r3, [r0, #14]	@ zero_extendqisi2
 717 00b0 0BB1     		cbz	r3, .L51
 718              		.loc 1 327 0
 719 00b2 80F83B30 		strb	r3, [r0, #59]
 720              	.L51:
 721              	.LVL85:
 722              		.loc 1 326 0
 723 00b6 C37B     		ldrb	r3, [r0, #15]	@ zero_extendqisi2
 724 00b8 0BB1     		cbz	r3, .L52
 725              		.loc 1 327 0
 726 00ba 80F83C30 		strb	r3, [r0, #60]
 727              	.L52:
 728              	.LVL86:
 729              		.loc 1 326 0
 730 00be 037C     		ldrb	r3, [r0, #16]	@ zero_extendqisi2
 731 00c0 0BB1     		cbz	r3, .L53
 732              		.loc 1 327 0
 733 00c2 80F83D30 		strb	r3, [r0, #61]
 734              	.L53:
ARM GAS  /tmp/ccSSbbqd.s 			page 14


 735              	.LVL87:
 736              		.loc 1 326 0
 737 00c6 437C     		ldrb	r3, [r0, #17]	@ zero_extendqisi2
 738 00c8 0BB1     		cbz	r3, .L54
 739              		.loc 1 327 0
 740 00ca 80F83E30 		strb	r3, [r0, #62]
 741              	.L54:
 742              	.LVL88:
 743              		.loc 1 326 0
 744 00ce 837C     		ldrb	r3, [r0, #18]	@ zero_extendqisi2
 745 00d0 0BB1     		cbz	r3, .L55
 746              		.loc 1 327 0
 747 00d2 80F83F30 		strb	r3, [r0, #63]
 748              	.L55:
 749              	.LVL89:
 750              		.loc 1 326 0
 751 00d6 C37C     		ldrb	r3, [r0, #19]	@ zero_extendqisi2
 752 00d8 0BB1     		cbz	r3, .L56
 753              		.loc 1 327 0
 754 00da 80F84030 		strb	r3, [r0, #64]
 755              	.L56:
 756              	.LVL90:
 757              		.loc 1 326 0
 758 00de 037D     		ldrb	r3, [r0, #20]	@ zero_extendqisi2
 759 00e0 0BB1     		cbz	r3, .L57
 760              		.loc 1 327 0
 761 00e2 80F84130 		strb	r3, [r0, #65]
 762              	.L57:
 763              	.LVL91:
 764              		.loc 1 326 0
 765 00e6 437D     		ldrb	r3, [r0, #21]	@ zero_extendqisi2
 766 00e8 0BB1     		cbz	r3, .L58
 767              		.loc 1 327 0
 768 00ea 80F84230 		strb	r3, [r0, #66]
 769              	.L58:
 770              	.LVL92:
 771              		.loc 1 326 0
 772 00ee 837D     		ldrb	r3, [r0, #22]	@ zero_extendqisi2
 773 00f0 0BB1     		cbz	r3, .L59
 774              		.loc 1 327 0
 775 00f2 80F84330 		strb	r3, [r0, #67]
 776              	.L59:
 777              	.LVL93:
 778              		.loc 1 326 0
 779 00f6 C37D     		ldrb	r3, [r0, #23]	@ zero_extendqisi2
 780 00f8 0BB1     		cbz	r3, .L77
 781              		.loc 1 327 0
 782 00fa 80F84430 		strb	r3, [r0, #68]
 783              	.LVL94:
 784              	.L77:
 785              		.loc 1 339 0
 786 00fe 90F83440 		ldrb	r4, [r0, #52]	@ zero_extendqisi2
 787 0102 90F83530 		ldrb	r3, [r0, #53]	@ zero_extendqisi2
 788              	.LVL95:
 789 0106 90F83610 		ldrb	r1, [r0, #54]	@ zero_extendqisi2
 790              	.LVL96:
 791 010a 90F837C0 		ldrb	ip, [r0, #55]	@ zero_extendqisi2
ARM GAS  /tmp/ccSSbbqd.s 			page 15


 792 010e E218     		adds	r2, r4, r3
 793 0110 5418     		adds	r4, r2, r1
 794              	.LVL97:
 795 0112 90F83810 		ldrb	r1, [r0, #56]	@ zero_extendqisi2
 796 0116 04EB0C03 		add	r3, r4, ip
 797 011a 90F839C0 		ldrb	ip, [r0, #57]	@ zero_extendqisi2
 798              	.LVL98:
 799 011e 90F83A40 		ldrb	r4, [r0, #58]	@ zero_extendqisi2
 800 0122 5A18     		adds	r2, r3, r1
 801              	.LVL99:
 802 0124 02EB0C03 		add	r3, r2, ip
 803 0128 90F83BC0 		ldrb	ip, [r0, #59]	@ zero_extendqisi2
 804              	.LVL100:
 805 012c 1919     		adds	r1, r3, r4
 806              	.LVL101:
 807 012e 90F83C40 		ldrb	r4, [r0, #60]	@ zero_extendqisi2
 808 0132 90F83D30 		ldrb	r3, [r0, #61]	@ zero_extendqisi2
 809 0136 01EB0C02 		add	r2, r1, ip
 810 013a 02EB040C 		add	ip, r2, r4
 811              	.LVL102:
 812 013e 90F83E10 		ldrb	r1, [r0, #62]	@ zero_extendqisi2
 813 0142 0CEB0304 		add	r4, ip, r3
 814              	.LVL103:
 815 0146 90F83F30 		ldrb	r3, [r0, #63]	@ zero_extendqisi2
 816 014a 90F840C0 		ldrb	ip, [r0, #64]	@ zero_extendqisi2
 817 014e 6218     		adds	r2, r4, r1
 818              	.LVL104:
 819 0150 D418     		adds	r4, r2, r3
 820              	.LVL105:
 821 0152 90F84130 		ldrb	r3, [r0, #65]	@ zero_extendqisi2
 822 0156 04EB0C01 		add	r1, r4, ip
 823              	.LVL106:
 824 015a 90F842C0 		ldrb	ip, [r0, #66]	@ zero_extendqisi2
 825 015e 90F84340 		ldrb	r4, [r0, #67]	@ zero_extendqisi2
 826 0162 CA18     		adds	r2, r1, r3
 827              	.LVL107:
 828 0164 02EB0C01 		add	r1, r2, ip
 829              	.LVL108:
 830 0168 0B19     		adds	r3, r1, r4
 831              	.LVL109:
 832 016a 90F84440 		ldrb	r4, [r0, #68]	@ zero_extendqisi2
 833              		.loc 1 344 0
 834 016e 0146     		mov	r1, r0
 835              		.loc 1 339 0
 836 0170 1FFA83FC 		uxth	ip, r3
 837              	.LVL110:
 838 0174 0CEB0402 		add	r2, ip, r4
 839              		.loc 1 344 0
 840 0178 51F8303B 		ldr	r3, [r1], #48
 841              		.loc 1 341 0
 842 017c 5242     		negs	r2, r2
 843 017e 80F84520 		strb	r2, [r0, #69]
 844              		.loc 1 344 0
 845 0182 03F13000 		add	r0, r3, #48
 846              	.LVL111:
 847 0186 1622     		movs	r2, #22
 848 0188 4FF0FF33 		mov	r3, #-1
ARM GAS  /tmp/ccSSbbqd.s 			page 16


 849              	.LBE12:
 850              	.LBE11:
 851              		.loc 1 345 0
 852 018c 10BC     		pop	{r4}
 853              	.LBB14:
 854              	.LBB13:
 855              		.loc 1 344 0
 856 018e FFF7FEBF 		b	chOQWriteTimeout
 857              	.LVL112:
 858              	.L44:
 859              		.loc 1 331 0
 860 0192 037F     		ldrb	r3, [r0, #28]	@ zero_extendqisi2
 861 0194 0BB1     		cbz	r3, .L61
 862              		.loc 1 332 0
 863 0196 80F83530 		strb	r3, [r0, #53]
 864              	.L61:
 865              	.LVL113:
 866              		.loc 1 331 0
 867 019a 437F     		ldrb	r3, [r0, #29]	@ zero_extendqisi2
 868 019c 0BB1     		cbz	r3, .L62
 869              		.loc 1 332 0
 870 019e 80F83630 		strb	r3, [r0, #54]
 871              	.L62:
 872              	.LVL114:
 873              		.loc 1 331 0
 874 01a2 837F     		ldrb	r3, [r0, #30]	@ zero_extendqisi2
 875 01a4 0BB1     		cbz	r3, .L63
 876              		.loc 1 332 0
 877 01a6 80F83730 		strb	r3, [r0, #55]
 878              	.L63:
 879              	.LVL115:
 880              		.loc 1 331 0
 881 01aa C37F     		ldrb	r3, [r0, #31]	@ zero_extendqisi2
 882 01ac 0BB1     		cbz	r3, .L64
 883              		.loc 1 332 0
 884 01ae 80F83830 		strb	r3, [r0, #56]
 885              	.L64:
 886              	.LVL116:
 887              		.loc 1 331 0
 888 01b2 90F82030 		ldrb	r3, [r0, #32]	@ zero_extendqisi2
 889 01b6 0BB1     		cbz	r3, .L65
 890              		.loc 1 332 0
 891 01b8 80F83930 		strb	r3, [r0, #57]
 892              	.L65:
 893              	.LVL117:
 894              		.loc 1 331 0
 895 01bc 90F82130 		ldrb	r3, [r0, #33]	@ zero_extendqisi2
 896 01c0 0BB1     		cbz	r3, .L66
 897              		.loc 1 332 0
 898 01c2 80F83A30 		strb	r3, [r0, #58]
 899              	.L66:
 900              	.LVL118:
 901              		.loc 1 331 0
 902 01c6 90F82230 		ldrb	r3, [r0, #34]	@ zero_extendqisi2
 903 01ca 0BB1     		cbz	r3, .L67
 904              		.loc 1 332 0
 905 01cc 80F83B30 		strb	r3, [r0, #59]
ARM GAS  /tmp/ccSSbbqd.s 			page 17


 906              	.L67:
 907              	.LVL119:
 908              		.loc 1 331 0
 909 01d0 90F82330 		ldrb	r3, [r0, #35]	@ zero_extendqisi2
 910 01d4 0BB1     		cbz	r3, .L68
 911              		.loc 1 332 0
 912 01d6 80F83C30 		strb	r3, [r0, #60]
 913              	.L68:
 914              	.LVL120:
 915              		.loc 1 331 0
 916 01da 90F82430 		ldrb	r3, [r0, #36]	@ zero_extendqisi2
 917 01de 0BB1     		cbz	r3, .L69
 918              		.loc 1 332 0
 919 01e0 80F83D30 		strb	r3, [r0, #61]
 920              	.L69:
 921              	.LVL121:
 922              		.loc 1 331 0
 923 01e4 90F82530 		ldrb	r3, [r0, #37]	@ zero_extendqisi2
 924 01e8 0BB1     		cbz	r3, .L70
 925              		.loc 1 332 0
 926 01ea 80F83E30 		strb	r3, [r0, #62]
 927              	.L70:
 928              	.LVL122:
 929              		.loc 1 331 0
 930 01ee 90F82630 		ldrb	r3, [r0, #38]	@ zero_extendqisi2
 931 01f2 0BB1     		cbz	r3, .L71
 932              		.loc 1 332 0
 933 01f4 80F83F30 		strb	r3, [r0, #63]
 934              	.L71:
 935              	.LVL123:
 936              		.loc 1 331 0
 937 01f8 90F82730 		ldrb	r3, [r0, #39]	@ zero_extendqisi2
 938 01fc 0BB1     		cbz	r3, .L72
 939              		.loc 1 332 0
 940 01fe 80F84030 		strb	r3, [r0, #64]
 941              	.L72:
 942              	.LVL124:
 943              		.loc 1 331 0
 944 0202 90F82830 		ldrb	r3, [r0, #40]	@ zero_extendqisi2
 945 0206 0BB1     		cbz	r3, .L73
 946              		.loc 1 332 0
 947 0208 80F84130 		strb	r3, [r0, #65]
 948              	.L73:
 949              	.LVL125:
 950              		.loc 1 331 0
 951 020c 90F82930 		ldrb	r3, [r0, #41]	@ zero_extendqisi2
 952 0210 0BB1     		cbz	r3, .L74
 953              		.loc 1 332 0
 954 0212 80F84230 		strb	r3, [r0, #66]
 955              	.L74:
 956              	.LVL126:
 957              		.loc 1 331 0
 958 0216 90F82A30 		ldrb	r3, [r0, #42]	@ zero_extendqisi2
 959 021a 0BB1     		cbz	r3, .L75
 960              		.loc 1 332 0
 961 021c 80F84330 		strb	r3, [r0, #67]
 962              	.L75:
ARM GAS  /tmp/ccSSbbqd.s 			page 18


 963              	.LVL127:
 964              		.loc 1 331 0
 965 0220 90F82B30 		ldrb	r3, [r0, #43]	@ zero_extendqisi2
 966 0224 002B     		cmp	r3, #0
 967 0226 3FF46AAF 		beq	.L77
 968              		.loc 1 327 0
 969 022a 80F84430 		strb	r3, [r0, #68]
 970              	.LVL128:
 971 022e 66E7     		b	.L77
 972              	.LBE13:
 973              	.LBE14:
 974              		.cfi_endproc
 975              	.LFE72:
 976              		.size	vexLcdSendMessage, .-vexLcdSendMessage
 977              		.section	.text.vexLcdCheckReceiveMessage,"ax",%progbits
 978              		.align	2
 979              		.p2align 4,,15
 980              		.global	vexLcdCheckReceiveMessage
 981              		.thumb
 982              		.thumb_func
 983              		.type	vexLcdCheckReceiveMessage, %function
 984              	vexLcdCheckReceiveMessage:
 985              	.LFB73:
 986              		.loc 1 355 0
 987              		.cfi_startproc
 988              		@ args = 0, pretend = 0, frame = 0
 989              		@ frame_needed = 0, uses_anonymous_args = 0
 990              	.LVL129:
 991 0000 10B5     		push	{r4, lr}
 992              	.LCFI10:
 993              		.cfi_def_cfa_offset 8
 994              		.cfi_offset 14, -4
 995              		.cfi_offset 4, -8
 996              		.loc 1 355 0
 997 0002 0446     		mov	r4, r0
 998              		.loc 1 359 0
 999 0004 0068     		ldr	r0, [r0, #0]
 1000              	.LVL130:
 1001 0006 4369     		ldr	r3, [r0, #20]
 1002 0008 002B     		cmp	r3, #0
 1003 000a 00F0C480 		beq	.L80
 1004              	.LBB21:
 1005              		.loc 1 367 0
 1006 000e 0021     		movs	r1, #0
 1007 0010 0C30     		adds	r0, r0, #12
 1008 0012 FFF7FEFF 		bl	chIQGetTimeout
 1009              	.LVL131:
 1010              		.loc 1 368 0
 1011 0016 01B2     		sxth	r1, r0
 1012 0018 4B1C     		adds	r3, r1, #1
 1013 001a 00F0B980 		beq	.L84
 1014              		.loc 1 367 0
 1015 001e 2368     		ldr	r3, [r4, #0]
 1016              		.loc 1 369 0
 1017 0020 84F85000 		strb	r0, [r4, #80]
 1018              	.LVL132:
 1019              		.loc 1 367 0
ARM GAS  /tmp/ccSSbbqd.s 			page 19


 1020 0024 0021     		movs	r1, #0
 1021 0026 03F10C00 		add	r0, r3, #12
 1022              	.LVL133:
 1023 002a FFF7FEFF 		bl	chIQGetTimeout
 1024              	.LVL134:
 1025              		.loc 1 368 0
 1026 002e 02B2     		sxth	r2, r0
 1027 0030 531C     		adds	r3, r2, #1
 1028 0032 00F0AD80 		beq	.L84
 1029              		.loc 1 367 0
 1030 0036 2268     		ldr	r2, [r4, #0]
 1031 0038 0021     		movs	r1, #0
 1032              		.loc 1 369 0
 1033 003a 84F85100 		strb	r0, [r4, #81]
 1034              	.LVL135:
 1035              		.loc 1 367 0
 1036 003e 02F10C00 		add	r0, r2, #12
 1037              	.LVL136:
 1038 0042 FFF7FEFF 		bl	chIQGetTimeout
 1039              	.LVL137:
 1040              		.loc 1 368 0
 1041 0046 01B2     		sxth	r1, r0
 1042 0048 4B1C     		adds	r3, r1, #1
 1043 004a 00F0A180 		beq	.L84
 1044              		.loc 1 367 0
 1045 004e 2368     		ldr	r3, [r4, #0]
 1046              		.loc 1 369 0
 1047 0050 84F85200 		strb	r0, [r4, #82]
 1048              	.LVL138:
 1049              		.loc 1 367 0
 1050 0054 0021     		movs	r1, #0
 1051 0056 03F10C00 		add	r0, r3, #12
 1052              	.LVL139:
 1053 005a FFF7FEFF 		bl	chIQGetTimeout
 1054              	.LVL140:
 1055              		.loc 1 368 0
 1056 005e 0FFA80FC 		sxth	ip, r0
 1057 0062 1CF10103 		adds	r3, ip, #1
 1058 0066 00F09380 		beq	.L84
 1059              		.loc 1 367 0
 1060 006a 2268     		ldr	r2, [r4, #0]
 1061 006c 0021     		movs	r1, #0
 1062              		.loc 1 369 0
 1063 006e 84F85300 		strb	r0, [r4, #83]
 1064              	.LVL141:
 1065              		.loc 1 367 0
 1066 0072 02F10C00 		add	r0, r2, #12
 1067              	.LVL142:
 1068 0076 FFF7FEFF 		bl	chIQGetTimeout
 1069              	.LVL143:
 1070              		.loc 1 368 0
 1071 007a 01B2     		sxth	r1, r0
 1072 007c 4B1C     		adds	r3, r1, #1
 1073 007e 00F08780 		beq	.L84
 1074              		.loc 1 367 0
 1075 0082 2368     		ldr	r3, [r4, #0]
 1076              		.loc 1 369 0
ARM GAS  /tmp/ccSSbbqd.s 			page 20


 1077 0084 84F85400 		strb	r0, [r4, #84]
 1078              	.LVL144:
 1079              		.loc 1 367 0
 1080 0088 0021     		movs	r1, #0
 1081 008a 03F10C00 		add	r0, r3, #12
 1082              	.LVL145:
 1083 008e FFF7FEFF 		bl	chIQGetTimeout
 1084              	.LVL146:
 1085              		.loc 1 368 0
 1086 0092 0FFA80FC 		sxth	ip, r0
 1087 0096 1CF10103 		adds	r3, ip, #1
 1088 009a 79D0     		beq	.L84
 1089              		.loc 1 367 0
 1090 009c 2268     		ldr	r2, [r4, #0]
 1091 009e 0021     		movs	r1, #0
 1092              		.loc 1 369 0
 1093 00a0 84F85500 		strb	r0, [r4, #85]
 1094              	.LVL147:
 1095              		.loc 1 367 0
 1096 00a4 02F10C00 		add	r0, r2, #12
 1097              	.LVL148:
 1098 00a8 FFF7FEFF 		bl	chIQGetTimeout
 1099              	.LVL149:
 1100              		.loc 1 368 0
 1101 00ac 01B2     		sxth	r1, r0
 1102 00ae 4B1C     		adds	r3, r1, #1
 1103 00b0 7DD0     		beq	.L83
 1104              		.loc 1 367 0
 1105 00b2 2368     		ldr	r3, [r4, #0]
 1106              		.loc 1 369 0
 1107 00b4 84F85600 		strb	r0, [r4, #86]
 1108              	.LVL150:
 1109              		.loc 1 367 0
 1110 00b8 0021     		movs	r1, #0
 1111 00ba 03F10C00 		add	r0, r3, #12
 1112              	.LVL151:
 1113 00be FFF7FEFF 		bl	chIQGetTimeout
 1114              	.LVL152:
 1115              		.loc 1 368 0
 1116 00c2 0FFA80FC 		sxth	ip, r0
 1117 00c6 1CF10103 		adds	r3, ip, #1
 1118 00ca 61D0     		beq	.L84
 1119              		.loc 1 367 0
 1120 00cc 2268     		ldr	r2, [r4, #0]
 1121 00ce 0021     		movs	r1, #0
 1122              		.loc 1 369 0
 1123 00d0 84F85700 		strb	r0, [r4, #87]
 1124              	.LVL153:
 1125              		.loc 1 367 0
 1126 00d4 02F10C00 		add	r0, r2, #12
 1127              	.LVL154:
 1128 00d8 FFF7FEFF 		bl	chIQGetTimeout
 1129              	.LVL155:
 1130              		.loc 1 368 0
 1131 00dc 01B2     		sxth	r1, r0
 1132 00de 4B1C     		adds	r3, r1, #1
 1133 00e0 56D0     		beq	.L84
ARM GAS  /tmp/ccSSbbqd.s 			page 21


 1134              		.loc 1 367 0
 1135 00e2 2368     		ldr	r3, [r4, #0]
 1136              		.loc 1 369 0
 1137 00e4 84F85800 		strb	r0, [r4, #88]
 1138              	.LVL156:
 1139              		.loc 1 367 0
 1140 00e8 0021     		movs	r1, #0
 1141 00ea 03F10C00 		add	r0, r3, #12
 1142              	.LVL157:
 1143 00ee FFF7FEFF 		bl	chIQGetTimeout
 1144              	.LVL158:
 1145              		.loc 1 368 0
 1146 00f2 0FFA80FC 		sxth	ip, r0
 1147 00f6 1CF10103 		adds	r3, ip, #1
 1148 00fa 49D0     		beq	.L84
 1149              		.loc 1 367 0
 1150 00fc 2268     		ldr	r2, [r4, #0]
 1151 00fe 0021     		movs	r1, #0
 1152              		.loc 1 369 0
 1153 0100 84F85900 		strb	r0, [r4, #89]
 1154              	.LVL159:
 1155              		.loc 1 367 0
 1156 0104 02F10C00 		add	r0, r2, #12
 1157              	.LVL160:
 1158 0108 FFF7FEFF 		bl	chIQGetTimeout
 1159              	.LVL161:
 1160              		.loc 1 368 0
 1161 010c 01B2     		sxth	r1, r0
 1162 010e 4B1C     		adds	r3, r1, #1
 1163 0110 3ED0     		beq	.L84
 1164              		.loc 1 367 0
 1165 0112 2368     		ldr	r3, [r4, #0]
 1166              		.loc 1 369 0
 1167 0114 84F85A00 		strb	r0, [r4, #90]
 1168              	.LVL162:
 1169              		.loc 1 367 0
 1170 0118 0021     		movs	r1, #0
 1171 011a 03F10C00 		add	r0, r3, #12
 1172              	.LVL163:
 1173 011e FFF7FEFF 		bl	chIQGetTimeout
 1174              	.LVL164:
 1175              		.loc 1 368 0
 1176 0122 0FFA80FC 		sxth	ip, r0
 1177 0126 1CF10103 		adds	r3, ip, #1
 1178 012a 31D0     		beq	.L84
 1179              		.loc 1 367 0
 1180 012c 2268     		ldr	r2, [r4, #0]
 1181 012e 0021     		movs	r1, #0
 1182              		.loc 1 369 0
 1183 0130 84F85B00 		strb	r0, [r4, #91]
 1184              	.LVL165:
 1185              		.loc 1 367 0
 1186 0134 02F10C00 		add	r0, r2, #12
 1187              	.LVL166:
 1188 0138 FFF7FEFF 		bl	chIQGetTimeout
 1189              	.LVL167:
 1190              		.loc 1 368 0
ARM GAS  /tmp/ccSSbbqd.s 			page 22


 1191 013c 01B2     		sxth	r1, r0
 1192 013e 4B1C     		adds	r3, r1, #1
 1193 0140 26D0     		beq	.L84
 1194              		.loc 1 367 0
 1195 0142 2368     		ldr	r3, [r4, #0]
 1196              		.loc 1 369 0
 1197 0144 84F85C00 		strb	r0, [r4, #92]
 1198              	.LVL168:
 1199              		.loc 1 367 0
 1200 0148 0021     		movs	r1, #0
 1201 014a 03F10C00 		add	r0, r3, #12
 1202              	.LVL169:
 1203 014e FFF7FEFF 		bl	chIQGetTimeout
 1204              	.LVL170:
 1205              		.loc 1 368 0
 1206 0152 0FFA80FC 		sxth	ip, r0
 1207 0156 1CF10103 		adds	r3, ip, #1
 1208 015a 19D0     		beq	.L84
 1209              		.loc 1 367 0
 1210 015c 2268     		ldr	r2, [r4, #0]
 1211 015e 0021     		movs	r1, #0
 1212              		.loc 1 369 0
 1213 0160 84F85D00 		strb	r0, [r4, #93]
 1214              	.LVL171:
 1215              		.loc 1 367 0
 1216 0164 02F10C00 		add	r0, r2, #12
 1217              	.LVL172:
 1218 0168 FFF7FEFF 		bl	chIQGetTimeout
 1219              	.LVL173:
 1220              		.loc 1 368 0
 1221 016c 01B2     		sxth	r1, r0
 1222 016e 4B1C     		adds	r3, r1, #1
 1223 0170 0ED0     		beq	.L84
 1224              		.loc 1 367 0
 1225 0172 2368     		ldr	r3, [r4, #0]
 1226              		.loc 1 369 0
 1227 0174 84F85E00 		strb	r0, [r4, #94]
 1228              	.LVL174:
 1229              		.loc 1 367 0
 1230 0178 0021     		movs	r1, #0
 1231 017a 03F10C00 		add	r0, r3, #12
 1232              	.LVL175:
 1233 017e FFF7FEFF 		bl	chIQGetTimeout
 1234              	.LVL176:
 1235              		.loc 1 368 0
 1236 0182 0FFA80FC 		sxth	ip, r0
 1237 0186 1CF10103 		adds	r3, ip, #1
 1238              		.loc 1 369 0
 1239 018a 18BF     		it	ne
 1240 018c 84F85F00 		strbne	r0, [r4, #95]
 1241              	.LVL177:
 1242              	.L84:
 1243              	.LBE21:
 1244              		.loc 1 385 0
 1245 0190 2368     		ldr	r3, [r4, #0]
 1246 0192 5A69     		ldr	r2, [r3, #20]
 1247 0194 02B9     		cbnz	r2, .L86
ARM GAS  /tmp/ccSSbbqd.s 			page 23


 1248              	.L80:
 1249 0196 10BD     		pop	{r4, pc}
 1250              	.L86:
 1251              	.LVL178:
 1252              	.LBB22:
 1253              	.LBB23:
 1254              	.LBB24:
 1255              		.loc 1 387 0
 1256 0198 2023     		movs	r3, #32
 1257              	.LVL179:
 1258              	@ 387 "../convex/cortex/fw/vexlcd.c" 1
 1259 019a 83F31188 		msr     BASEPRI, r3
 1260              	@ 0 "" 2
 1261              	.LVL180:
 1262              		.thumb
 1263              	.LBE24:
 1264              		.loc 1 388 0
 1265 019e 2068     		ldr	r0, [r4, #0]
 1266 01a0 0C30     		adds	r0, r0, #12
 1267 01a2 FFF7FEFF 		bl	chIQResetI
 1268              	.LVL181:
 1269              	.LBB25:
 1270              		.loc 1 389 0
 1271 01a6 0023     		movs	r3, #0
 1272              	.LVL182:
 1273              	@ 389 "../convex/cortex/fw/vexlcd.c" 1
 1274 01a8 83F31188 		msr     BASEPRI, r3
 1275              	@ 0 "" 2
 1276              	.LVL183:
 1277              		.thumb
 1278 01ac 10BD     		pop	{r4, pc}
 1279              	.LVL184:
 1280              	.L83:
 1281              	.LBE25:
 1282              	.LBE23:
 1283              	.LBE22:
 1284              		.loc 1 378 0
 1285 01ae 226D     		ldr	r2, [r4, #80]
 1286 01b0 45F2AA51 		movw	r1, #21930
 1287 01b4 22F07F40 		bic	r0, r2, #-16777216
 1288              	.LVL185:
 1289 01b8 C0F21601 		movt	r1, 22
 1290 01bc 8842     		cmp	r0, r1
 1291 01be E7D1     		bne	.L84
 1292              		.loc 1 380 0
 1293 01c0 94F85400 		ldrb	r0, [r4, #84]	@ zero_extendqisi2
 1294 01c4 94F855E0 		ldrb	lr, [r4, #85]	@ zero_extendqisi2
 1295 01c8 00EB0E01 		add	r1, r0, lr
 1296 01cc 11F0FF0F 		tst	r1, #255
 1297              		.loc 1 381 0
 1298 01d0 08BF     		it	eq
 1299 01d2 E071     		strbeq	r0, [r4, #7]
 1300 01d4 DCE7     		b	.L84
 1301              		.cfi_endproc
 1302              	.LFE73:
 1303              		.size	vexLcdCheckReceiveMessage, .-vexLcdCheckReceiveMessage
 1304 01d6 00BFAFF3 		.section	.text.VexLcdUpdate,"ax",%progbits
ARM GAS  /tmp/ccSSbbqd.s 			page 24


 1304      0080AFF3 
 1304      0080
 1305              		.align	2
 1306              		.p2align 4,,15
 1307              		.thumb
 1308              		.thumb_func
 1309              		.type	VexLcdUpdate, %function
 1310              	VexLcdUpdate:
 1311              	.LFB63:
 1312              		.loc 1 85 0
 1313              		.cfi_startproc
 1314              		@ args = 0, pretend = 0, frame = 0
 1315              		@ frame_needed = 0, uses_anonymous_args = 0
 1316              	.LVL186:
 1317              		.loc 1 88 0
 1318 0000 40F20000 		movw	r0, #:lower16:rlist
 1319              	.LVL187:
 1320 0004 C0F20000 		movt	r0, #:upper16:rlist
 1321 0008 8269     		ldr	r2, [r0, #24]
 1322 000a 40F20003 		movw	r3, #:lower16:.LC1
 1323              		.loc 1 85 0
 1324 000e 10B5     		push	{r4, lr}
 1325              	.LCFI11:
 1326              		.cfi_def_cfa_offset 8
 1327              		.cfi_offset 14, -4
 1328              		.cfi_offset 4, -8
 1329              		.loc 1 88 0
 1330 0010 C0F20003 		movt	r3, #:upper16:.LC1
 1331 0014 40F20004 		movw	r4, #:lower16:.LANCHOR0
 1332 0018 9361     		str	r3, [r2, #24]
 1333 001a C0F20004 		movt	r4, #:upper16:.LANCHOR0
 1334 001e 20E0     		b	.L99
 1335              	.L88:
 1336              		.loc 1 94 0
 1337 0020 B4F96420 		ldrsh	r2, [r4, #100]
 1338 0024 62BB     		cbnz	r2, .L100
 1339              	.L89:
 1340              		.loc 1 97 0
 1341 0026 1920     		movs	r0, #25
 1342 0028 FFF7FEFF 		bl	chThdSleep
 1343              		.loc 1 100 0
 1344 002c B4F90430 		ldrsh	r3, [r4, #4]
 1345 0030 002B     		cmp	r3, #0
 1346 0032 30D1     		bne	.L101
 1347              	.L90:
 1348              		.loc 1 102 0
 1349 0034 B4F96400 		ldrsh	r0, [r4, #100]
 1350 0038 0028     		cmp	r0, #0
 1351 003a 36D1     		bne	.L102
 1352              	.L91:
 1353              		.loc 1 106 0
 1354 003c B4F90410 		ldrsh	r1, [r4, #4]
 1355 0040 0029     		cmp	r1, #0
 1356 0042 39D1     		bne	.L103
 1357              	.L92:
 1358              		.loc 1 108 0
 1359 0044 B4F96420 		ldrsh	r2, [r4, #100]
ARM GAS  /tmp/ccSSbbqd.s 			page 25


 1360 0048 002A     		cmp	r2, #0
 1361 004a 40D1     		bne	.L104
 1362              	.L93:
 1363              		.loc 1 111 0
 1364 004c 1920     		movs	r0, #25
 1365 004e FFF7FEFF 		bl	chThdSleep
 1366              		.loc 1 114 0
 1367 0052 B4F90430 		ldrsh	r3, [r4, #4]
 1368 0056 002B     		cmp	r3, #0
 1369 0058 44D1     		bne	.L105
 1370              	.L94:
 1371              		.loc 1 116 0
 1372 005a B4F96400 		ldrsh	r0, [r4, #100]
 1373 005e 0028     		cmp	r0, #0
 1374 0060 4AD1     		bne	.L106
 1375              	.L99:
 1376              		.loc 1 92 0
 1377 0062 B4F90410 		ldrsh	r1, [r4, #4]
 1378 0066 0029     		cmp	r1, #0
 1379 0068 DAD0     		beq	.L88
 1380              		.loc 1 93 0
 1381 006a 40F20000 		movw	r0, #:lower16:.LANCHOR0
 1382 006e C0F20000 		movt	r0, #:upper16:.LANCHOR0
 1383 0072 0021     		movs	r1, #0
 1384 0074 FFF7FEFF 		bl	vexLcdSendMessage
 1385              		.loc 1 94 0
 1386 0078 B4F96420 		ldrsh	r2, [r4, #100]
 1387 007c 002A     		cmp	r2, #0
 1388 007e D2D0     		beq	.L89
 1389              	.L100:
 1390              		.loc 1 95 0
 1391 0080 1F48     		ldr	r0, .L107
 1392 0082 0021     		movs	r1, #0
 1393 0084 FFF7FEFF 		bl	vexLcdSendMessage
 1394              		.loc 1 97 0
 1395 0088 1920     		movs	r0, #25
 1396 008a FFF7FEFF 		bl	chThdSleep
 1397              		.loc 1 100 0
 1398 008e B4F90430 		ldrsh	r3, [r4, #4]
 1399 0092 002B     		cmp	r3, #0
 1400 0094 CED0     		beq	.L90
 1401              	.L101:
 1402              		.loc 1 101 0
 1403 0096 40F20000 		movw	r0, #:lower16:.LANCHOR0
 1404 009a C0F20000 		movt	r0, #:upper16:.LANCHOR0
 1405 009e FFF7FEFF 		bl	vexLcdCheckReceiveMessage
 1406              		.loc 1 102 0
 1407 00a2 B4F96400 		ldrsh	r0, [r4, #100]
 1408 00a6 0028     		cmp	r0, #0
 1409 00a8 C8D0     		beq	.L91
 1410              	.L102:
 1411              		.loc 1 103 0
 1412 00aa 1548     		ldr	r0, .L107
 1413 00ac FFF7FEFF 		bl	vexLcdCheckReceiveMessage
 1414              		.loc 1 106 0
 1415 00b0 B4F90410 		ldrsh	r1, [r4, #4]
 1416 00b4 0029     		cmp	r1, #0
ARM GAS  /tmp/ccSSbbqd.s 			page 26


 1417 00b6 C5D0     		beq	.L92
 1418              	.L103:
 1419              		.loc 1 107 0
 1420 00b8 40F20000 		movw	r0, #:lower16:.LANCHOR0
 1421 00bc C0F20000 		movt	r0, #:upper16:.LANCHOR0
 1422 00c0 0121     		movs	r1, #1
 1423 00c2 FFF7FEFF 		bl	vexLcdSendMessage
 1424              		.loc 1 108 0
 1425 00c6 B4F96420 		ldrsh	r2, [r4, #100]
 1426 00ca 002A     		cmp	r2, #0
 1427 00cc BED0     		beq	.L93
 1428              	.L104:
 1429              		.loc 1 109 0
 1430 00ce 0C48     		ldr	r0, .L107
 1431 00d0 0121     		movs	r1, #1
 1432 00d2 FFF7FEFF 		bl	vexLcdSendMessage
 1433              		.loc 1 111 0
 1434 00d6 1920     		movs	r0, #25
 1435 00d8 FFF7FEFF 		bl	chThdSleep
 1436              		.loc 1 114 0
 1437 00dc B4F90430 		ldrsh	r3, [r4, #4]
 1438 00e0 002B     		cmp	r3, #0
 1439 00e2 BAD0     		beq	.L94
 1440              	.L105:
 1441              		.loc 1 115 0
 1442 00e4 40F20000 		movw	r0, #:lower16:.LANCHOR0
 1443 00e8 C0F20000 		movt	r0, #:upper16:.LANCHOR0
 1444 00ec FFF7FEFF 		bl	vexLcdCheckReceiveMessage
 1445              		.loc 1 116 0
 1446 00f0 B4F96400 		ldrsh	r0, [r4, #100]
 1447 00f4 0028     		cmp	r0, #0
 1448 00f6 B4D0     		beq	.L99
 1449              	.L106:
 1450              		.loc 1 117 0
 1451 00f8 0148     		ldr	r0, .L107
 1452 00fa FFF7FEFF 		bl	vexLcdCheckReceiveMessage
 1453 00fe B0E7     		b	.L99
 1454              	.L108:
 1455              		.align	2
 1456              	.L107:
 1457 0100 60000000 		.word	.LANCHOR0+96
 1458              		.cfi_endproc
 1459              	.LFE63:
 1460              		.size	VexLcdUpdate, .-VexLcdUpdate
 1461 0104 AFF30080 		.section	.text.vexLcdDebug,"ax",%progbits
 1461      AFF30080 
 1461      AFF30080 
 1462              		.align	2
 1463              		.p2align 4,,15
 1464              		.global	vexLcdDebug
 1465              		.thumb
 1466              		.thumb_func
 1467              		.type	vexLcdDebug, %function
 1468              	vexLcdDebug:
 1469              	.LFB74:
 1470              		.loc 1 403 0
 1471              		.cfi_startproc
ARM GAS  /tmp/ccSSbbqd.s 			page 27


 1472              		@ args = 0, pretend = 0, frame = 0
 1473              		@ frame_needed = 0, uses_anonymous_args = 0
 1474              	.LVL188:
 1475 0000 38B5     		push	{r3, r4, r5, lr}
 1476              	.LCFI12:
 1477              		.cfi_def_cfa_offset 16
 1478              		.cfi_offset 14, -4
 1479              		.cfi_offset 5, -8
 1480              		.cfi_offset 4, -12
 1481              		.cfi_offset 3, -16
 1482              		.loc 1 407 0
 1483 0002 40F20004 		movw	r4, #:lower16:.LANCHOR0
 1484 0006 C0F20004 		movt	r4, #:upper16:.LANCHOR0
 1485 000a B4F90430 		ldrsh	r3, [r4, #4]
 1486              		.loc 1 403 0
 1487 000e 0546     		mov	r5, r0
 1488              		.loc 1 407 0
 1489 0010 002B     		cmp	r3, #0
 1490 0012 32D1     		bne	.L112
 1491              	.LVL189:
 1492              	.L110:
 1493              		.loc 1 415 0
 1494 0014 B4F96400 		ldrsh	r0, [r4, #100]
 1495 0018 40F20004 		movw	r4, #:lower16:.LANCHOR0
 1496 001c C0F20004 		movt	r4, #:upper16:.LANCHOR0
 1497 0020 00B9     		cbnz	r0, .L113
 1498 0022 38BD     		pop	{r3, r4, r5, pc}
 1499              	.L113:
 1500              		.loc 1 416 0
 1501 0024 40F20001 		movw	r1, #:lower16:.LC2
 1502 0028 C0F20001 		movt	r1, #:upper16:.LC2
 1503 002c 2846     		mov	r0, r5
 1504 002e FFF7FEFF 		bl	vex_chprintf
 1505              		.loc 1 417 0
 1506 0032 40F20001 		movw	r1, #:lower16:.LC6
 1507 0036 2846     		mov	r0, r5
 1508 0038 C0F20001 		movt	r1, #:upper16:.LC6
 1509 003c FFF7FEFF 		bl	vex_chprintf
 1510              		.loc 1 418 0
 1511 0040 40F20001 		movw	r1, #:lower16:.LC4
 1512 0044 04F16802 		add	r2, r4, #104
 1513 0048 2846     		mov	r0, r5
 1514 004a C0F20001 		movt	r1, #:upper16:.LC4
 1515 004e FFF7FEFF 		bl	vex_chprintf
 1516              		.loc 1 419 0
 1517 0052 40F20001 		movw	r1, #:lower16:.LC4
 1518 0056 04F17C02 		add	r2, r4, #124
 1519 005a 2846     		mov	r0, r5
 1520 005c C0F20001 		movt	r1, #:upper16:.LC4
 1521 0060 FFF7FEFF 		bl	vex_chprintf
 1522              		.loc 1 420 0
 1523 0064 40F20001 		movw	r1, #:lower16:.LC5
 1524 0068 94F86720 		ldrb	r2, [r4, #103]	@ zero_extendqisi2
 1525 006c 2846     		mov	r0, r5
 1526 006e C0F20001 		movt	r1, #:upper16:.LC5
 1527              		.loc 1 422 0
 1528 0072 BDE83840 		pop	{r3, r4, r5, lr}
ARM GAS  /tmp/ccSSbbqd.s 			page 28


 1529              		.loc 1 420 0
 1530 0076 FFF7FEBF 		b	vex_chprintf
 1531              	.LVL190:
 1532              	.L112:
 1533              		.loc 1 408 0
 1534 007a 40F20001 		movw	r1, #:lower16:.LC2
 1535              	.LVL191:
 1536 007e C0F20001 		movt	r1, #:upper16:.LC2
 1537 0082 FFF7FEFF 		bl	vex_chprintf
 1538              	.LVL192:
 1539              		.loc 1 409 0
 1540 0086 40F20001 		movw	r1, #:lower16:.LC3
 1541 008a 2846     		mov	r0, r5
 1542 008c C0F20001 		movt	r1, #:upper16:.LC3
 1543 0090 FFF7FEFF 		bl	vex_chprintf
 1544              		.loc 1 410 0
 1545 0094 40F20001 		movw	r1, #:lower16:.LC4
 1546 0098 04F10802 		add	r2, r4, #8
 1547 009c 2846     		mov	r0, r5
 1548 009e C0F20001 		movt	r1, #:upper16:.LC4
 1549 00a2 FFF7FEFF 		bl	vex_chprintf
 1550              		.loc 1 411 0
 1551 00a6 40F20001 		movw	r1, #:lower16:.LC4
 1552 00aa 04F11C02 		add	r2, r4, #28
 1553 00ae 2846     		mov	r0, r5
 1554 00b0 C0F20001 		movt	r1, #:upper16:.LC4
 1555 00b4 FFF7FEFF 		bl	vex_chprintf
 1556              		.loc 1 412 0
 1557 00b8 40F20001 		movw	r1, #:lower16:.LC5
 1558 00bc 2846     		mov	r0, r5
 1559 00be C0F20001 		movt	r1, #:upper16:.LC5
 1560 00c2 E279     		ldrb	r2, [r4, #7]	@ zero_extendqisi2
 1561 00c4 FFF7FEFF 		bl	vex_chprintf
 1562 00c8 A4E7     		b	.L110
 1563              		.cfi_endproc
 1564              	.LFE74:
 1565              		.size	vexLcdDebug, .-vexLcdDebug
 1566 00ca 00BFAFF3 		.section	.bss.lcd_running,"aw",%nobits
 1566      0080
 1567              		.align	1
 1568              		.set	.LANCHOR1,. + 0
 1569              		.type	lcd_running, %object
 1570              		.size	lcd_running, 2
 1571              	lcd_running:
 1572 0000 0000     		.space	2
 1573              		.section	.data.vexLcdData,"aw",%progbits
 1574              		.align	2
 1575              		.set	.LANCHOR0,. + 0
 1576              		.type	vexLcdData, %object
 1577              		.size	vexLcdData, 192
 1578              	vexLcdData:
 1579 0000 00000000 		.word	0
 1580 0004 0000     		.short	0
 1581 0006 01       		.byte	1
 1582 0007 00       		.byte	0
 1583 0008 00       		.ascii	"\000"
 1584 0009 00000000 		.space	19
ARM GAS  /tmp/ccSSbbqd.s 			page 29


 1584      00000000 
 1584      00000000 
 1584      00000000 
 1584      000000
 1585 001c 00       		.ascii	"\000"
 1586 001d 00000000 		.space	19
 1586      00000000 
 1586      00000000 
 1586      00000000 
 1586      000000
 1587 0030 00       		.ascii	"\000"
 1588 0031 00000000 		.space	31
 1588      00000000 
 1588      00000000 
 1588      00000000 
 1588      00000000 
 1589 0050 00       		.ascii	"\000"
 1590 0051 00000000 		.space	15
 1590      00000000 
 1590      00000000 
 1590      000000
 1591 0060 00000000 		.word	0
 1592 0064 0000     		.short	0
 1593 0066 01       		.byte	1
 1594 0067 00       		.byte	0
 1595 0068 00       		.ascii	"\000"
 1596 0069 00000000 		.space	19
 1596      00000000 
 1596      00000000 
 1596      00000000 
 1596      000000
 1597 007c 00       		.ascii	"\000"
 1598 007d 00000000 		.space	19
 1598      00000000 
 1598      00000000 
 1598      00000000 
 1598      000000
 1599 0090 00       		.ascii	"\000"
 1600 0091 00000000 		.space	31
 1600      00000000 
 1600      00000000 
 1600      00000000 
 1600      00000000 
 1601 00b0 00       		.ascii	"\000"
 1602 00b1 00000000 		.space	15
 1602      00000000 
 1602      00000000 
 1602      000000
 1603              		.section	.rodata.str1.4,"aMS",%progbits,1
 1604              		.align	2
 1605              	.LC0:
 1606 0000 20202020 		.ascii	"                \000"
 1606      20202020 
 1606      20202020 
 1606      20202020 
 1606      00
 1607 0011 000000   		.space	3
ARM GAS  /tmp/ccSSbbqd.s 			page 30


 1608              	.LC1:
 1609 0014 6C636400 		.ascii	"lcd\000"
 1610              	.LC2:
 1611 0018 0D0A00   		.ascii	"\015\012\000"
 1612 001b 00       		.space	1
 1613              	.LC3:
 1614 001c 4C434420 		.ascii	"LCD 0 \015\012\000"
 1614      30200D0A 
 1614      00
 1615 0025 000000   		.space	3
 1616              	.LC4:
 1617 0028 252D3136 		.ascii	"%-16s\015\012\000"
 1617      730D0A00 
 1618              	.LC5:
 1619 0030 42757474 		.ascii	"Buttons = %2X\015\012\000"
 1619      6F6E7320 
 1619      3D202532 
 1619      580D0A00 
 1620              	.LC6:
 1621 0040 4C434420 		.ascii	"LCD 1 \015\012\000"
 1621      31200D0A 
 1621      00
 1622 0049 000000   		.section	.bss.lcd_buffer,"aw",%nobits
 1623              		.align	2
 1624              		.set	.LANCHOR3,. + 0
 1625              		.type	lcd_buffer, %object
 1626              		.size	lcd_buffer, 32
 1627              	lcd_buffer:
 1628 0000 00000000 		.space	32
 1628      00000000 
 1628      00000000 
 1628      00000000 
 1628      00000000 
 1629              		.section	.bss.waVexLcdUpdate,"aw",%nobits
 1630              		.align	3
 1631              		.set	.LANCHOR2,. + 0
 1632              		.type	waVexLcdUpdate, %object
 1633              		.size	waVexLcdUpdate, 384
 1634              	waVexLcdUpdate:
 1635 0000 00000000 		.space	384
 1635      00000000 
 1635      00000000 
 1635      00000000 
 1635      00000000 
 1636              		.text
 1637              	.Letext0:
 1638              		.file 2 "/opt/pros/toolchain/bin/../lib/gcc/arm-none-eabi/4.6.3/include/stddef.h"
 1639              		.file 3 "/opt/pros/toolchain/bin/../lib/gcc/arm-none-eabi/4.6.3/include/stdarg.h"
 1640              		.file 4 "/opt/pros/toolchain/bin/../lib/gcc/arm-none-eabi/4.6.3/../../../../arm-none-eabi/include/
 1641              		.file 5 "../ChibiOS_2.6.2/os/ports/GCC/ARMCMx/chtypes.h"
 1642              		.file 6 "../ChibiOS_2.6.2/os/kernel/include/chlists.h"
 1643              		.file 7 "<built-in>"
 1644              		.file 8 "../ChibiOS_2.6.2/os/kernel/include/chthreads.h"
 1645              		.file 9 "../ChibiOS_2.6.2/os/ports/GCC/ARMCMx/chcore_v7m.h"
 1646              		.file 10 "../ChibiOS_2.6.2/os/kernel/include/chschd.h"
 1647              		.file 11 "../ChibiOS_2.6.2/os/kernel/include/chmtx.h"
 1648              		.file 12 "../ChibiOS_2.6.2/os/kernel/include/chevents.h"
ARM GAS  /tmp/ccSSbbqd.s 			page 31


 1649              		.file 13 "../ChibiOS_2.6.2/os/kernel/include/chqueues.h"
 1650              		.file 14 "../ChibiOS_2.6.2/os/kernel/include/chstreams.h"
 1651              		.file 15 "../ChibiOS_2.6.2/os/hal/platforms/STM32F1xx/stm32f10x.h"
 1652              		.file 16 "../ChibiOS_2.6.2/os/hal/include/serial.h"
 1653              		.file 17 "../convex/cortex/fw/vexcompat.h"
 1654              		.file 18 "../convex/cortex/fw/vexdigital.h"
 1655              		.file 19 "../convex/cortex/fw/vexime.h"
 1656              		.file 20 "../convex/cortex/fw/vexlcd.h"
 1657              		.file 21 "../ChibiOS_2.6.2/os/ports/common/ARMCMx/CMSIS/include/core_cm3.h"