ARM GAS  /tmp/ccbIeeFK.s 			page 1


   1              		.syntax unified
   2              		.cpu cortex-m3
   3              		.fpu softvfp
   4              		.eabi_attribute 20, 1
   5              		.eabi_attribute 21, 1
   6              		.eabi_attribute 23, 3
   7              		.eabi_attribute 24, 1
   8              		.eabi_attribute 25, 1
   9              		.eabi_attribute 26, 1
  10              		.eabi_attribute 30, 2
  11              		.eabi_attribute 34, 1
  12              		.eabi_attribute 18, 4
  13              		.thumb
  14              		.file	"vexrttl.c"
  15              		.text
  16              	.Ltext0:
  17              		.cfi_sections	.debug_frame
  18              		.section	.text.vexAudioPlayRtttl,"ax",%progbits
  19              		.align	2
  20              		.p2align 4,,15
  21              		.global	vexAudioPlayRtttl
  22              		.thumb
  23              		.thumb_func
  24              		.type	vexAudioPlayRtttl, %function
  25              	vexAudioPlayRtttl:
  26              	.LFB64:
  27              		.file 1 "../convex/cortex/fw/vexrttl.c"
  28              		.loc 1 113 0
  29              		.cfi_startproc
  30              		@ args = 0, pretend = 0, frame = 8
  31              		@ frame_needed = 0, uses_anonymous_args = 0
  32              	.LVL0:
  33 0000 2DE9F04F 		push	{r4, r5, r6, r7, r8, r9, sl, fp, lr}
  34              	.LCFI0:
  35              		.cfi_def_cfa_offset 36
  36              		.cfi_offset 14, -4
  37              		.cfi_offset 11, -8
  38              		.cfi_offset 10, -12
  39              		.cfi_offset 9, -16
  40              		.cfi_offset 8, -20
  41              		.cfi_offset 7, -24
  42              		.cfi_offset 6, -28
  43              		.cfi_offset 5, -32
  44              		.cfi_offset 4, -36
  45              		.loc 1 123 0
  46 0004 0378     		ldrb	r3, [r0, #0]	@ zero_extendqisi2
  47              		.loc 1 113 0
  48 0006 0F46     		mov	r7, r1
  49              		.loc 1 123 0
  50 0008 191C     		adds	r1, r3, #0
  51              	.LVL1:
  52 000a 18BF     		it	ne
  53 000c 0121     		movne	r1, #1
  54              		.loc 1 113 0
  55 000e 83B0     		sub	sp, sp, #12
  56              	.LCFI1:
  57              		.cfi_def_cfa_offset 48
ARM GAS  /tmp/ccbIeeFK.s 			page 2


  58              		.loc 1 122 0
  59 0010 40F20004 		movw	r4, #:lower16:.LANCHOR0
  60              		.loc 1 123 0
  61 0014 3A2B     		cmp	r3, #58
  62 0016 0CBF     		ite	eq
  63 0018 0021     		moveq	r1, #0
  64 001a 01F00101 		andne	r1, r1, #1
  65              		.loc 1 113 0
  66 001e 0092     		str	r2, [sp, #0]
  67              		.loc 1 123 0
  68 0020 8146     		mov	r9, r0
  69              		.loc 1 122 0
  70 0022 C0F20004 		movt	r4, #:upper16:.LANCHOR0
  71              		.loc 1 123 0
  72 0026 A9B1     		cbz	r1, .L2
  73              		.loc 1 122 0
  74 0028 40F20002 		movw	r2, #:lower16:.LANCHOR0
  75              	.LVL2:
  76 002c C0F20002 		movt	r2, #:upper16:.LANCHOR0
  77              		.loc 1 112 0
  78 0030 8146     		mov	r9, r0
  79              	.LVL3:
  80              	.L3:
  81              		.loc 1 125 0
  82 0032 02F8013B 		strb	r3, [r2], #1
  83              		.loc 1 123 0
  84 0036 10F8013F 		ldrb	r3, [r0, #1]!	@ zero_extendqisi2
  85              		.loc 1 125 0
  86 003a 1446     		mov	r4, r2
  87              	.LVL4:
  88              		.loc 1 123 0
  89 003c 191C     		adds	r1, r3, #0
  90 003e 18BF     		it	ne
  91 0040 0121     		movne	r1, #1
  92 0042 3A2B     		cmp	r3, #58
  93 0044 0CBF     		ite	eq
  94 0046 0021     		moveq	r1, #0
  95 0048 01F00101 		andne	r1, r1, #1
  96              		.loc 1 125 0
  97 004c 09F10109 		add	r9, r9, #1
  98              	.LVL5:
  99              		.loc 1 123 0
 100 0050 0029     		cmp	r1, #0
 101 0052 EED1     		bne	.L3
 102              	.LVL6:
 103              	.L2:
 104              		.loc 1 127 0
 105 0054 0023     		movs	r3, #0
 106 0056 2370     		strb	r3, [r4, #0]
 107              		.loc 1 129 0
 108 0058 99F80030 		ldrb	r3, [r9, #0]	@ zero_extendqisi2
 109 005c 002B     		cmp	r3, #0
 110 005e 00F01B81 		beq	.L58
 111              		.loc 1 130 0
 112 0062 09F10109 		add	r9, r9, #1
 113              	.LVL7:
 114              		.loc 1 133 0
ARM GAS  /tmp/ccbIeeFK.s 			page 3


 115 0066 99F80000 		ldrb	r0, [r9, #0]	@ zero_extendqisi2
 116              		.loc 1 118 0
 117 006a 4FF03F08 		mov	r8, #63
 118              	.LVL8:
 119              		.loc 1 117 0
 120 006e 0626     		movs	r6, #6
 121              		.loc 1 116 0
 122 0070 0425     		movs	r5, #4
 123              	.LBB7:
 124              		.loc 1 151 0
 125 0072 4FF0200A 		mov	sl, #32
 126              	.LBE7:
 127              		.loc 1 133 0
 128 0076 0028     		cmp	r0, #0
 129 0078 4AD0     		beq	.L7
 130              	.L74:
 131              	.LBB8:
 132              		.loc 1 138 0 discriminator 1
 133 007a 2028     		cmp	r0, #32
 134 007c 08BF     		it	eq
 135 007e 4B46     		moveq	r3, r9
 136 0080 08D1     		bne	.L18
 137              	.L6:
 138              		.loc 1 138 0 is_stmt 0 discriminator 2
 139 0082 13F8010F 		ldrb	r0, [r3, #1]!	@ zero_extendqisi2
 140 0086 09F10109 		add	r9, r9, #1
 141              	.LVL9:
 142 008a 2028     		cmp	r0, #32
 143 008c F9D0     		beq	.L6
 144              		.loc 1 139 0 is_stmt 1
 145 008e 0028     		cmp	r0, #0
 146 0090 00F00281 		beq	.L58
 147              	.L18:
 148              		.loc 1 140 0
 149 0094 3A28     		cmp	r0, #58
 150 0096 3BD0     		beq	.L7
 151              	.LVL10:
 152              		.loc 1 143 0
 153 0098 99F80120 		ldrb	r2, [r9, #1]	@ zero_extendqisi2
 154 009c 3D2A     		cmp	r2, #61
 155 009e 40F0FB80 		bne	.L58
 156              		.loc 1 147 0
 157 00a2 99F80230 		ldrb	r3, [r9, #2]	@ zero_extendqisi2
 158              		.loc 1 145 0
 159 00a6 09F10204 		add	r4, r9, #2
 160              	.LVL11:
 161              		.loc 1 147 0
 162 00aa A3F13002 		sub	r2, r3, #48
 163 00ae 5FFA82F9 		uxtb	r9, r2
 164              	.LVL12:
 165 00b2 B9F1090F 		cmp	r9, #9
 166 00b6 00F2F680 		bhi	.L54
 167              		.loc 1 112 0
 168 00ba A446     		mov	ip, r4
 169              		.loc 1 146 0
 170 00bc 0021     		movs	r1, #0
 171              	.LVL13:
ARM GAS  /tmp/ccbIeeFK.s 			page 4


 172              	.L9:
 173              		.loc 1 147 0 discriminator 2
 174 00be 1CF8013F 		ldrb	r3, [ip, #1]!	@ zero_extendqisi2
 175 00c2 01EB8101 		add	r1, r1, r1, lsl #2
 176 00c6 02EB4101 		add	r1, r2, r1, lsl #1
 177              	.LVL14:
 178 00ca A3F13002 		sub	r2, r3, #48
 179 00ce 5FFA82F9 		uxtb	r9, r2
 180 00d2 0134     		adds	r4, r4, #1
 181              	.LVL15:
 182 00d4 B9F1090F 		cmp	r9, #9
 183 00d8 F1D9     		bls	.L9
 184              	.LVL16:
 185              	.L8:
 186              		.loc 1 149 0
 187 00da 6428     		cmp	r0, #100
 188 00dc 00F0D980 		beq	.L12
 189 00e0 6F28     		cmp	r0, #111
 190 00e2 08BF     		it	eq
 191 00e4 0E46     		moveq	r6, r1
 192 00e6 02D0     		beq	.L13
 193              		.loc 1 153 0
 194 00e8 6228     		cmp	r0, #98
 195 00ea 08BF     		it	eq
 196 00ec 8846     		moveq	r8, r1
 197              	.LVL17:
 198              	.L13:
 199              		.loc 1 156 0 discriminator 1
 200 00ee 202B     		cmp	r3, #32
 201              		.loc 1 112 0 discriminator 1
 202 00f0 A146     		mov	r9, r4
 203              		.loc 1 156 0 discriminator 1
 204 00f2 05D1     		bne	.L15
 205              	.LVL18:
 206              	.L16:
 207              		.loc 1 156 0 is_stmt 0 discriminator 2
 208 00f4 14F8013F 		ldrb	r3, [r4, #1]!	@ zero_extendqisi2
 209 00f8 09F10109 		add	r9, r9, #1
 210              	.LVL19:
 211 00fc 202B     		cmp	r3, #32
 212 00fe F9D0     		beq	.L16
 213              	.L15:
 214              		.loc 1 157 0 is_stmt 1
 215 0100 2C2B     		cmp	r3, #44
 216 0102 08BF     		it	eq
 217 0104 09F10109 		addeq	r9, r9, #1
 218              	.LVL20:
 219              	.LBE8:
 220              		.loc 1 133 0
 221 0108 99F80000 		ldrb	r0, [r9, #0]	@ zero_extendqisi2
 222              	.LVL21:
 223 010c 0028     		cmp	r0, #0
 224 010e B4D1     		bne	.L74
 225              	.L7:
 226              		.loc 1 163 0
 227 0110 99F80130 		ldrb	r3, [r9, #1]	@ zero_extendqisi2
 228              		.loc 1 159 0
ARM GAS  /tmp/ccbIeeFK.s 			page 5


 229 0114 09F10104 		add	r4, r9, #1
 230              	.LVL22:
 231              		.loc 1 163 0
 232 0118 002B     		cmp	r3, #0
 233 011a 00F01B81 		beq	.L19
 234              		.loc 1 112 0
 235 011e 2146     		mov	r1, r4
 236 0120 1A46     		mov	r2, r3
 237              		.loc 1 163 0
 238 0122 0120     		movs	r0, #1
 239              	.LVL23:
 240              	.L21:
 241              		.loc 1 165 0
 242 0124 2C2A     		cmp	r2, #44
 243              		.loc 1 163 0
 244 0126 11F8012F 		ldrb	r2, [r1, #1]!	@ zero_extendqisi2
 245              		.loc 1 166 0
 246 012a 08BF     		it	eq
 247 012c 0130     		addeq	r0, r0, #1
 248              	.LVL24:
 249              		.loc 1 163 0
 250 012e 002A     		cmp	r2, #0
 251 0130 F8D1     		bne	.L21
 252              		.loc 1 169 0
 253 0132 0128     		cmp	r0, #1
 254 0134 07D0     		beq	.L22
 255              		.loc 1 170 0
 256 0136 0130     		adds	r0, r0, #1
 257              	.LVL25:
 258 0138 FFF7FEFF 		bl	vexAudioInitChipToneSong
 259              	.LVL26:
 260 013c 99F80130 		ldrb	r3, [r9, #1]	@ zero_extendqisi2
 261              		.loc 1 173 0
 262 0140 002B     		cmp	r3, #0
 263 0142 00F00781 		beq	.L19
 264              	.L22:
 265              	.LBB9:
 266              	.LBB10:
 267              	.LBB11:
 268              		.loc 1 100 0
 269 0146 40F2000A 		movw	sl, #:lower16:.LANCHOR1
 270 014a 4AF6AB29 		movw	r9, #43691
 271              	.LVL27:
 272              	.LBE11:
 273              	.LBE10:
 274              		.loc 1 242 0
 275 014e 4FEAC808 		lsl	r8, r8, #3
 276              	.LVL28:
 277              	.LBB14:
 278              		.loc 1 191 0
 279 0152 4FF0200B 		mov	fp, #32
 280              	.LBE14:
 281              	.LBB15:
 282              	.LBB12:
 283              		.loc 1 100 0
 284 0156 C0F2000A 		movt	sl, #:upper16:.LANCHOR1
 285 015a C2F6AA29 		movt	r9, 10922
ARM GAS  /tmp/ccbIeeFK.s 			page 6


 286 015e 0196     		str	r6, [sp, #4]
 287              	.L23:
 288              	.LBE12:
 289              	.LBE15:
 290              		.loc 1 182 0 discriminator 1
 291 0160 202B     		cmp	r3, #32
 292 0162 08BF     		it	eq
 293 0164 2246     		moveq	r2, r4
 294 0166 04D1     		bne	.L49
 295              	.L24:
 296              		.loc 1 182 0 is_stmt 0 discriminator 2
 297 0168 12F8013F 		ldrb	r3, [r2, #1]!	@ zero_extendqisi2
 298 016c 0134     		adds	r4, r4, #1
 299              	.LVL29:
 300 016e 202B     		cmp	r3, #32
 301 0170 FAD0     		beq	.L24
 302              	.L49:
 303              		.loc 1 183 0 is_stmt 1
 304 0172 002B     		cmp	r3, #0
 305 0174 00F09080 		beq	.L58
 306              		.loc 1 186 0
 307 0178 303B     		subs	r3, r3, #48
 308 017a D8B2     		uxtb	r0, r3
 309 017c 0928     		cmp	r0, #9
 310              	.LBB16:
 311              		.loc 1 189 0
 312 017e 2178     		ldrb	r1, [r4, #0]	@ zero_extendqisi2
 313              	.LBE16:
 314              		.loc 1 186 0
 315 0180 88BF     		it	hi
 316 0182 2A46     		movhi	r2, r5
 317 0184 17D8     		bhi	.L26
 318              	.LVL30:
 319              	.LBB17:
 320              		.loc 1 189 0 discriminator 1
 321 0186 A1F13002 		sub	r2, r1, #48
 322 018a 5FFA82FC 		uxtb	ip, r2
 323 018e BCF1090F 		cmp	ip, #9
 324 0192 00F20681 		bhi	.L57
 325              		.loc 1 189 0 is_stmt 0
 326 0196 2046     		mov	r0, r4
 327              	.LBE17:
 328              	.LBE9:
 329              		.loc 1 112 0 is_stmt 1
 330 0198 0023     		movs	r3, #0
 331              	.LVL31:
 332              	.L28:
 333              	.LBB21:
 334              	.LBB18:
 335              		.loc 1 189 0 discriminator 2
 336 019a 10F8011F 		ldrb	r1, [r0, #1]!	@ zero_extendqisi2
 337 019e 03EB8306 		add	r6, r3, r3, lsl #2
 338 01a2 02EB4603 		add	r3, r2, r6, lsl #1
 339              	.LVL32:
 340 01a6 A1F13002 		sub	r2, r1, #48
 341 01aa D6B2     		uxtb	r6, r2
 342 01ac 0134     		adds	r4, r4, #1
ARM GAS  /tmp/ccbIeeFK.s 			page 7


 343              	.LVL33:
 344 01ae 092E     		cmp	r6, #9
 345 01b0 F3D9     		bls	.L28
 346              	.LVL34:
 347              	.L27:
 348              		.loc 1 191 0
 349 01b2 9BFBF3F2 		sdiv	r2, fp, r3
 350              	.LVL35:
 351              	.L26:
 352              	.LBE18:
 353              		.loc 1 195 0
 354 01b6 6829     		cmp	r1, #104
 355 01b8 00F2F080 		bhi	.L29
 356 01bc DFE811F0 		tbh	[pc, r1, lsl #1]
 357              	.L38:
 358 01c0 6C00     		.2byte	(.L58-.L38)/2
 359 01c2 EE00     		.2byte	(.L29-.L38)/2
 360 01c4 EE00     		.2byte	(.L29-.L38)/2
 361 01c6 EE00     		.2byte	(.L29-.L38)/2
 362 01c8 EE00     		.2byte	(.L29-.L38)/2
 363 01ca EE00     		.2byte	(.L29-.L38)/2
 364 01cc EE00     		.2byte	(.L29-.L38)/2
 365 01ce EE00     		.2byte	(.L29-.L38)/2
 366 01d0 EE00     		.2byte	(.L29-.L38)/2
 367 01d2 EE00     		.2byte	(.L29-.L38)/2
 368 01d4 EE00     		.2byte	(.L29-.L38)/2
 369 01d6 EE00     		.2byte	(.L29-.L38)/2
 370 01d8 EE00     		.2byte	(.L29-.L38)/2
 371 01da EE00     		.2byte	(.L29-.L38)/2
 372 01dc EE00     		.2byte	(.L29-.L38)/2
 373 01de EE00     		.2byte	(.L29-.L38)/2
 374 01e0 EE00     		.2byte	(.L29-.L38)/2
 375 01e2 EE00     		.2byte	(.L29-.L38)/2
 376 01e4 EE00     		.2byte	(.L29-.L38)/2
 377 01e6 EE00     		.2byte	(.L29-.L38)/2
 378 01e8 EE00     		.2byte	(.L29-.L38)/2
 379 01ea EE00     		.2byte	(.L29-.L38)/2
 380 01ec EE00     		.2byte	(.L29-.L38)/2
 381 01ee EE00     		.2byte	(.L29-.L38)/2
 382 01f0 EE00     		.2byte	(.L29-.L38)/2
 383 01f2 EE00     		.2byte	(.L29-.L38)/2
 384 01f4 EE00     		.2byte	(.L29-.L38)/2
 385 01f6 EE00     		.2byte	(.L29-.L38)/2
 386 01f8 EE00     		.2byte	(.L29-.L38)/2
 387 01fa EE00     		.2byte	(.L29-.L38)/2
 388 01fc EE00     		.2byte	(.L29-.L38)/2
 389 01fe EE00     		.2byte	(.L29-.L38)/2
 390 0200 EE00     		.2byte	(.L29-.L38)/2
 391 0202 EE00     		.2byte	(.L29-.L38)/2
 392 0204 EE00     		.2byte	(.L29-.L38)/2
 393 0206 EE00     		.2byte	(.L29-.L38)/2
 394 0208 EE00     		.2byte	(.L29-.L38)/2
 395 020a EE00     		.2byte	(.L29-.L38)/2
 396 020c EE00     		.2byte	(.L29-.L38)/2
 397 020e EE00     		.2byte	(.L29-.L38)/2
 398 0210 EE00     		.2byte	(.L29-.L38)/2
 399 0212 EE00     		.2byte	(.L29-.L38)/2
ARM GAS  /tmp/ccbIeeFK.s 			page 8


 400 0214 EE00     		.2byte	(.L29-.L38)/2
 401 0216 EE00     		.2byte	(.L29-.L38)/2
 402 0218 EE00     		.2byte	(.L29-.L38)/2
 403 021a EE00     		.2byte	(.L29-.L38)/2
 404 021c EE00     		.2byte	(.L29-.L38)/2
 405 021e EE00     		.2byte	(.L29-.L38)/2
 406 0220 EE00     		.2byte	(.L29-.L38)/2
 407 0222 EE00     		.2byte	(.L29-.L38)/2
 408 0224 EE00     		.2byte	(.L29-.L38)/2
 409 0226 EE00     		.2byte	(.L29-.L38)/2
 410 0228 EE00     		.2byte	(.L29-.L38)/2
 411 022a EE00     		.2byte	(.L29-.L38)/2
 412 022c EE00     		.2byte	(.L29-.L38)/2
 413 022e EE00     		.2byte	(.L29-.L38)/2
 414 0230 EE00     		.2byte	(.L29-.L38)/2
 415 0232 EE00     		.2byte	(.L29-.L38)/2
 416 0234 EE00     		.2byte	(.L29-.L38)/2
 417 0236 EE00     		.2byte	(.L29-.L38)/2
 418 0238 EE00     		.2byte	(.L29-.L38)/2
 419 023a EE00     		.2byte	(.L29-.L38)/2
 420 023c EE00     		.2byte	(.L29-.L38)/2
 421 023e EE00     		.2byte	(.L29-.L38)/2
 422 0240 EE00     		.2byte	(.L29-.L38)/2
 423 0242 EC00     		.2byte	(.L30-.L38)/2
 424 0244 7500     		.2byte	(.L31-.L38)/2
 425 0246 EA00     		.2byte	(.L59-.L38)/2
 426 0248 E800     		.2byte	(.L33-.L38)/2
 427 024a E600     		.2byte	(.L34-.L38)/2
 428 024c E400     		.2byte	(.L35-.L38)/2
 429 024e E200     		.2byte	(.L36-.L38)/2
 430 0250 7500     		.2byte	(.L31-.L38)/2
 431 0252 EE00     		.2byte	(.L29-.L38)/2
 432 0254 EE00     		.2byte	(.L29-.L38)/2
 433 0256 EE00     		.2byte	(.L29-.L38)/2
 434 0258 EE00     		.2byte	(.L29-.L38)/2
 435 025a EE00     		.2byte	(.L29-.L38)/2
 436 025c EE00     		.2byte	(.L29-.L38)/2
 437 025e EE00     		.2byte	(.L29-.L38)/2
 438 0260 EE00     		.2byte	(.L29-.L38)/2
 439 0262 EE00     		.2byte	(.L29-.L38)/2
 440 0264 EE00     		.2byte	(.L29-.L38)/2
 441 0266 EE00     		.2byte	(.L29-.L38)/2
 442 0268 EE00     		.2byte	(.L29-.L38)/2
 443 026a EE00     		.2byte	(.L29-.L38)/2
 444 026c EE00     		.2byte	(.L29-.L38)/2
 445 026e EE00     		.2byte	(.L29-.L38)/2
 446 0270 EE00     		.2byte	(.L29-.L38)/2
 447 0272 EE00     		.2byte	(.L29-.L38)/2
 448 0274 EE00     		.2byte	(.L29-.L38)/2
 449 0276 EE00     		.2byte	(.L29-.L38)/2
 450 0278 EE00     		.2byte	(.L29-.L38)/2
 451 027a EE00     		.2byte	(.L29-.L38)/2
 452 027c EE00     		.2byte	(.L29-.L38)/2
 453 027e EE00     		.2byte	(.L29-.L38)/2
 454 0280 EE00     		.2byte	(.L29-.L38)/2
 455 0282 EC00     		.2byte	(.L30-.L38)/2
 456 0284 7500     		.2byte	(.L31-.L38)/2
ARM GAS  /tmp/ccbIeeFK.s 			page 9


 457 0286 EA00     		.2byte	(.L59-.L38)/2
 458 0288 E800     		.2byte	(.L33-.L38)/2
 459 028a E600     		.2byte	(.L34-.L38)/2
 460 028c E400     		.2byte	(.L35-.L38)/2
 461 028e E200     		.2byte	(.L36-.L38)/2
 462 0290 7500     		.2byte	(.L31-.L38)/2
 463              	.LVL36:
 464              	.L12:
 465              	.LBE21:
 466              	.LBB22:
 467              		.loc 1 151 0
 468 0292 9AFBF1F5 		sdiv	r5, sl, r1
 469 0296 2AE7     		b	.L13
 470              	.LVL37:
 471              	.L58:
 472              	.LBE22:
 473              	.LBB23:
 474              		.loc 1 197 0
 475 0298 40F20000 		movw	r0, #:lower16:.LC0
 476 029c C0F20000 		movt	r0, #:upper16:.LC0
 477              	.L4:
 478              	.LBE23:
 479              		.loc 1 258 0
 480 02a0 03B0     		add	sp, sp, #12
 481 02a2 BDE8F08F 		pop	{r4, r5, r6, r7, r8, r9, sl, fp, pc}
 482              	.LVL38:
 483              	.L54:
 484              	.LBB24:
 485              		.loc 1 146 0
 486 02a6 0021     		movs	r1, #0
 487 02a8 17E7     		b	.L8
 488              	.LVL39:
 489              	.L31:
 490              	.LBE24:
 491              	.LBB25:
 492              		.loc 1 205 0
 493 02aa 0B20     		movs	r0, #11
 494              	.LVL40:
 495              	.L32:
 496              		.loc 1 209 0
 497 02ac 6178     		ldrb	r1, [r4, #1]	@ zero_extendqisi2
 498 02ae 2329     		cmp	r1, #35
 499 02b0 62D0     		beq	.L39
 500              		.loc 1 208 0
 501 02b2 0134     		adds	r4, r4, #1
 502              	.LVL41:
 503              	.L40:
 504              		.loc 1 214 0
 505 02b4 6229     		cmp	r1, #98
 506 02b6 5BD0     		beq	.L75
 507              	.L41:
 508              		.loc 1 221 0
 509 02b8 2E29     		cmp	r1, #46
 510              		.loc 1 224 0
 511 02ba 04BF     		itt	eq
 512 02bc 6178     		ldrbeq	r1, [r4, #1]	@ zero_extendqisi2
 513              		.loc 1 223 0
ARM GAS  /tmp/ccbIeeFK.s 			page 10


 514 02be 02EBD273 		addeq	r3, r2, r2, lsr #31
 515              		.loc 1 228 0
 516 02c2 A1F13006 		sub	r6, r1, #48
 517 02c6 5FFA86FE 		uxtb	lr, r6
 518              		.loc 1 223 0
 519 02ca 04BF     		itt	eq
 520 02cc 02EB6302 		addeq	r2, r2, r3, asr #1
 521              	.LVL42:
 522              		.loc 1 224 0
 523 02d0 0134     		addeq	r4, r4, #1
 524              	.LVL43:
 525              		.loc 1 228 0
 526 02d2 BEF1090F 		cmp	lr, #9
 527 02d6 96BF     		itet	ls
 528 02d8 6178     		ldrbls	r1, [r4, #1]	@ zero_extendqisi2
 529 02da 019E     		ldrhi	r6, [sp, #4]
 530              	.LVL44:
 531 02dc 0134     		addls	r4, r4, #1
 532              	.LVL45:
 533              		.loc 1 231 0
 534 02de 2E29     		cmp	r1, #46
 535              		.loc 1 234 0
 536 02e0 01BF     		itttt	eq
 537 02e2 6178     		ldrbeq	r1, [r4, #1]	@ zero_extendqisi2
 538              		.loc 1 233 0
 539 02e4 02EBD27E 		addeq	lr, r2, r2, lsr #31
 540 02e8 02EB6E02 		addeq	r2, r2, lr, asr #1
 541              	.LVL46:
 542              		.loc 1 234 0
 543 02ec 0134     		addeq	r4, r4, #1
 544              	.LVL47:
 545              		.loc 1 238 0
 546 02ee 2029     		cmp	r1, #32
 547 02f0 05D1     		bne	.L45
 548 02f2 2346     		mov	r3, r4
 549              	.LVL48:
 550              	.L46:
 551              		.loc 1 238 0 is_stmt 0 discriminator 2
 552 02f4 13F8011F 		ldrb	r1, [r3, #1]!	@ zero_extendqisi2
 553 02f8 0134     		adds	r4, r4, #1
 554              	.LVL49:
 555 02fa 2029     		cmp	r1, #32
 556 02fc FAD0     		beq	.L46
 557              	.L45:
 558              		.loc 1 239 0 is_stmt 1
 559 02fe 2C29     		cmp	r1, #44
 560              		.loc 1 242 0
 561 0300 4EF66021 		movw	r1, #60000
 562 0304 01FB02F2 		mul	r2, r1, r2
 563              		.loc 1 239 0
 564 0308 08BF     		it	eq
 565 030a 0134     		addeq	r4, r4, #1
 566              	.LVL50:
 567              		.loc 1 243 0
 568 030c 431C     		adds	r3, r0, #1
 569              		.loc 1 242 0
 570 030e 92FBF8F2 		sdiv	r2, r2, r8
ARM GAS  /tmp/ccbIeeFK.s 			page 11


 571              	.LVL51:
 572              		.loc 1 243 0
 573 0312 35D0     		beq	.L61
 574              		.loc 1 246 0
 575 0314 711C     		adds	r1, r6, #1
 576 0316 01EB4103 		add	r3, r1, r1, lsl #1
 577 031a 00EB8303 		add	r3, r0, r3, lsl #2
 578              	.LVL52:
 579              	.LBB19:
 580              	.LBB13:
 581              		.loc 1 100 0
 582 031e 89FB0316 		smull	r1, r6, r9, r3
 583              	.LVL53:
 584 0322 D917     		asrs	r1, r3, #31
 585 0324 7610     		asrs	r6, r6, #1
 586 0326 881B     		subs	r0, r1, r6
 587              	.LVL54:
 588 0328 4FF0010C 		mov	ip, #1
 589 032c 0930     		adds	r0, r0, #9
 590 032e 0CFA00F0 		lsl	r0, ip, r0
 591 0332 C1EB060E 		rsb	lr, r1, r6
 592 0336 0EEB4E0C 		add	ip, lr, lr, lsl #1
 593 033a A3EB8C01 		sub	r1, r3, ip, lsl #2
 594 033e 5AF82130 		ldr	r3, [sl, r1, lsl #2]
 595              	.LVL55:
 596 0342 93FBF0F0 		sdiv	r0, r3, r0
 597              	.L48:
 598              	.LVL56:
 599              	.LBE13:
 600              	.LBE19:
 601              		.loc 1 248 0
 602 0346 3946     		mov	r1, r7
 603 0348 FFF7FEFF 		bl	vexAudioSetNextChipTone
 604              	.LVL57:
 605              	.LBE25:
 606              		.loc 1 173 0
 607 034c 2378     		ldrb	r3, [r4, #0]	@ zero_extendqisi2
 608 034e 002B     		cmp	r3, #0
 609 0350 7FF406AF 		bne	.L23
 610              	.L19:
 611              		.loc 1 252 0
 612 0354 0020     		movs	r0, #0
 613 0356 0146     		mov	r1, r0
 614 0358 4FF4FA72 		mov	r2, #500
 615 035c FFF7FEFF 		bl	vexAudioSetNextChipTone
 616              		.loc 1 255 0
 617 0360 0098     		ldr	r0, [sp, #0]
 618 0362 FFF7FEFF 		bl	vexAudioStartChipToneSong
 619              		.loc 1 257 0
 620 0366 40F20000 		movw	r0, #:lower16:.LANCHOR0
 621 036a C0F20000 		movt	r0, #:upper16:.LANCHOR0
 622 036e 97E7     		b	.L4
 623              	.LVL58:
 624              	.L75:
 625              	.LBB26:
 626              		.loc 1 217 0
 627 0370 6178     		ldrb	r1, [r4, #1]	@ zero_extendqisi2
ARM GAS  /tmp/ccbIeeFK.s 			page 12


 628              		.loc 1 216 0
 629 0372 0138     		subs	r0, r0, #1
 630              	.LVL59:
 631              		.loc 1 217 0
 632 0374 0134     		adds	r4, r4, #1
 633              	.LVL60:
 634 0376 9FE7     		b	.L41
 635              	.LVL61:
 636              	.L39:
 637              		.loc 1 212 0
 638 0378 A178     		ldrb	r1, [r4, #2]	@ zero_extendqisi2
 639              		.loc 1 211 0
 640 037a 0130     		adds	r0, r0, #1
 641              	.LVL62:
 642              		.loc 1 212 0
 643 037c 0234     		adds	r4, r4, #2
 644              	.LVL63:
 645 037e 99E7     		b	.L40
 646              	.LVL64:
 647              	.L61:
 648              		.loc 1 244 0
 649 0380 0020     		movs	r0, #0
 650              	.LVL65:
 651 0382 E0E7     		b	.L48
 652              	.LVL66:
 653              	.L36:
 654              		.loc 1 202 0
 655 0384 0720     		movs	r0, #7
 656 0386 91E7     		b	.L32
 657              	.LVL67:
 658              	.L35:
 659              		.loc 1 201 0
 660 0388 0520     		movs	r0, #5
 661 038a 8FE7     		b	.L32
 662              	.LVL68:
 663              	.L34:
 664              		.loc 1 200 0
 665 038c 0420     		movs	r0, #4
 666 038e 8DE7     		b	.L32
 667              	.LVL69:
 668              	.L33:
 669              		.loc 1 199 0
 670 0390 0220     		movs	r0, #2
 671 0392 8BE7     		b	.L32
 672              	.LVL70:
 673              	.L59:
 674              		.loc 1 198 0
 675 0394 0020     		movs	r0, #0
 676 0396 89E7     		b	.L32
 677              	.L30:
 678              	.LVL71:
 679              		.loc 1 203 0
 680 0398 0920     		movs	r0, #9
 681 039a 87E7     		b	.L32
 682              	.LVL72:
 683              	.L29:
 684              		.loc 1 175 0
ARM GAS  /tmp/ccbIeeFK.s 			page 13


 685 039c 4FF0FF30 		mov	r0, #-1
 686 03a0 84E7     		b	.L32
 687              	.LVL73:
 688              	.L57:
 689              	.LBB20:
 690              		.loc 1 189 0
 691 03a2 0023     		movs	r3, #0
 692 03a4 05E7     		b	.L27
 693              	.LBE20:
 694              	.LBE26:
 695              		.cfi_endproc
 696              	.LFE64:
 697              		.size	vexAudioPlayRtttl, .-vexAudioPlayRtttl
 698 03a6 00BFAFF3 		.section	.rodata.notefreq,"a",%progbits
 698      0080AFF3 
 698      0080
 699              		.align	2
 700              		.set	.LANCHOR1,. + 0
 701              		.type	notefreq, %object
 702              		.size	notefreq, 48
 703              	notefreq:
 704 0000 5A100000 		.word	4186
 705 0004 52110000 		.word	4434
 706 0008 5A120000 		.word	4698
 707 000c 72130000 		.word	4978
 708 0010 9A140000 		.word	5274
 709 0014 D3150000 		.word	5587
 710 0018 1F170000 		.word	5919
 711 001c 7F180000 		.word	6271
 712 0020 F4190000 		.word	6644
 713 0024 801B0000 		.word	7040
 714 0028 221D0000 		.word	7458
 715 002c DE1E0000 		.word	7902
 716              		.section	.rodata.str1.4,"aMS",%progbits,1
 717              		.align	2
 718              	.LC0:
 719 0000 00       		.ascii	"\000"
 720 0001 000000   		.section	.bss.name,"aw",%nobits
 721              		.align	2
 722              		.set	.LANCHOR0,. + 0
 723              		.type	name, %object
 724              		.size	name, 48
 725              	name:
 726 0000 00000000 		.space	48
 726      00000000 
 726      00000000 
 726      00000000 
 726      00000000 
 727              		.text
 728              	.Letext0:
 729              		.file 2 "../convex/cortex/fw/vexdigital.h"
 730              		.file 3 "../convex/cortex/fw/vexime.h"
 731              		.file 4 "/opt/pros/toolchain/bin/../lib/gcc/arm-none-eabi/4.6.3/../../../../arm-none-eabi/include/
 732              		.file 5 "../ChibiOS_2.6.2/os/ports/common/ARMCMx/CMSIS/include/core_cm3.h"