ARM GAS  /tmp/cc7hiEJG.s 			page 1


   1              		.syntax unified
   2              		.cpu cortex-m3
   3              		.fpu softvfp
   4              		.eabi_attribute 20, 1
   5              		.eabi_attribute 21, 1
   6              		.eabi_attribute 23, 3
   7              		.eabi_attribute 24, 1
   8              		.eabi_attribute 25, 1
   9              		.eabi_attribute 26, 1
  10              		.eabi_attribute 30, 2
  11              		.eabi_attribute 34, 1
  12              		.eabi_attribute 18, 4
  13              		.thumb
  14              		.file	"vexspi.c"
  15              		.text
  16              	.Ltext0:
  17              		.cfi_sections	.debug_frame
  18              		.section	.text.chprintf,"ax",%progbits
  19              		.align	2
  20              		.p2align 4,,15
  21              		.thumb
  22              		.thumb_func
  23              		.type	chprintf, %function
  24              	chprintf:
  25              	.LFB63:
  26              		.file 1 "../ChibiOS_2.6.2/os/various/chprintf.h"
  27              		.loc 1 69 0
  28              		.cfi_startproc
  29              		@ args = 4, pretend = 12, frame = 8
  30              		@ frame_needed = 0, uses_anonymous_args = 1
  31              	.LVL0:
  32 0000 0EB4     		push	{r1, r2, r3}
  33              	.LCFI0:
  34              		.cfi_def_cfa_offset 12
  35              		.cfi_offset 3, -4
  36              		.cfi_offset 2, -8
  37              		.cfi_offset 1, -12
  38 0002 00B5     		push	{lr}
  39              	.LCFI1:
  40              		.cfi_def_cfa_offset 16
  41              		.cfi_offset 14, -16
  42 0004 82B0     		sub	sp, sp, #8
  43              	.LCFI2:
  44              		.cfi_def_cfa_offset 24
  45              		.loc 1 69 0
  46 0006 03AB     		add	r3, sp, #12
  47 0008 53F8041B 		ldr	r1, [r3], #4
  48              		.loc 1 73 0
  49 000c 1A46     		mov	r2, r3
  50              		.loc 1 72 0
  51 000e 0193     		str	r3, [sp, #4]
  52              		.loc 1 73 0
  53 0010 FFF7FEFF 		bl	chvprintf
  54              	.LVL1:
  55              		.loc 1 75 0
  56 0014 02B0     		add	sp, sp, #8
  57 0016 5DF804EB 		pop	{lr}
ARM GAS  /tmp/cc7hiEJG.s 			page 2


  58 001a 03B0     		add	sp, sp, #12
  59 001c 7047     		bx	lr
  60              		.cfi_endproc
  61              	.LFE63:
  62              		.size	chprintf, .-chprintf
  63 001e 00BF     		.section	.text._vspi_gpt_cb,"ax",%progbits
  64              		.align	2
  65              		.p2align 4,,15
  66              		.thumb
  67              		.thumb_func
  68              		.type	_vspi_gpt_cb, %function
  69              	_vspi_gpt_cb:
  70              	.LFB64:
  71              		.file 2 "../convex/cortex/fw/vexspi.c"
  72              		.loc 2 102 0
  73              		.cfi_startproc
  74              		@ args = 0, pretend = 0, frame = 0
  75              		@ frame_needed = 0, uses_anonymous_args = 0
  76              	.LVL2:
  77 0000 10B5     		push	{r4, lr}
  78              	.LCFI3:
  79              		.cfi_def_cfa_offset 8
  80              		.cfi_offset 14, -4
  81              		.cfi_offset 4, -8
  82              	.LBB2:
  83              		.loc 2 105 0
  84 0002 2023     		movs	r3, #32
  85              	.LVL3:
  86              	@ 105 "../convex/cortex/fw/vexspi.c" 1
  87 0004 83F31188 		msr     BASEPRI, r3
  88              	@ 0 "" 2
  89              	.LVL4:
  90              		.thumb
  91              	.LBE2:
  92              		.loc 2 108 0
  93 0008 40F20004 		movw	r4, #:lower16:.LANCHOR0
  94 000c C0F20004 		movt	r4, #:upper16:.LANCHOR0
  95 0010 2068     		ldr	r0, [r4, #0]
  96              	.LVL5:
  97 0012 18B1     		cbz	r0, .L3
  98              		.loc 2 109 0
  99 0014 FFF7FEFF 		bl	chSchReadyI
 100              	.LVL6:
 101              		.loc 2 110 0
 102 0018 0023     		movs	r3, #0
 103 001a 2360     		str	r3, [r4, #0]
 104              	.LVL7:
 105              	.L3:
 106              	.LBB3:
 107              		.loc 2 113 0
 108 001c 0023     		movs	r3, #0
 109              	.LVL8:
 110              	@ 113 "../convex/cortex/fw/vexspi.c" 1
 111 001e 83F31188 		msr     BASEPRI, r3
 112              	@ 0 "" 2
 113              	.LVL9:
 114              		.thumb
ARM GAS  /tmp/cc7hiEJG.s 			page 3


 115              	.LBE3:
 116              		.loc 2 114 0
 117 0022 10BD     		pop	{r4, pc}
 118              		.cfi_endproc
 119              	.LFE64:
 120              		.size	_vspi_gpt_cb, .-_vspi_gpt_cb
 121 0024 AFF30080 		.section	.text.vexSpiInit,"ax",%progbits
 121      AFF30080 
 121      AFF30080 
 122              		.align	2
 123              		.p2align 4,,15
 124              		.global	vexSpiInit
 125              		.thumb
 126              		.thumb_func
 127              		.type	vexSpiInit, %function
 128              	vexSpiInit:
 129              	.LFB65:
 130              		.loc 2 135 0
 131              		.cfi_startproc
 132              		@ args = 0, pretend = 0, frame = 0
 133              		@ frame_needed = 0, uses_anonymous_args = 0
 134              	.LVL10:
 135 0000 38B5     		push	{r3, r4, r5, lr}
 136              	.LCFI4:
 137              		.cfi_def_cfa_offset 16
 138              		.cfi_offset 14, -4
 139              		.cfi_offset 5, -8
 140              		.cfi_offset 4, -12
 141              		.cfi_offset 3, -16
 142 0002 40F20000 		movw	r0, #:lower16:.LANCHOR2
 143 0006 40F20004 		movw	r4, #:lower16:.LANCHOR1
 144              		.loc 2 135 0
 145 000a 0022     		movs	r2, #0
 146 000c C0F20004 		movt	r4, #:upper16:.LANCHOR1
 147 0010 C0F20000 		movt	r0, #:upper16:.LANCHOR2
 148              	.LVL11:
 149              	.L6:
 150              		.loc 2 140 0 discriminator 2
 151 0014 835C     		ldrb	r3, [r0, r2]	@ zero_extendqisi2
 152 0016 511C     		adds	r1, r2, #1
 153 0018 A354     		strb	r3, [r4, r2]
 154 001a 455C     		ldrb	r5, [r0, r1]	@ zero_extendqisi2
 155 001c 0232     		adds	r2, r2, #2
 156 001e 40F20003 		movw	r3, #:lower16:.LANCHOR1
 157              		.loc 2 139 0 discriminator 2
 158 0022 202A     		cmp	r2, #32
 159              		.loc 2 140 0 discriminator 2
 160 0024 6554     		strb	r5, [r4, r1]
 161 0026 C0F20003 		movt	r3, #:upper16:.LANCHOR1
 162              		.loc 2 139 0 discriminator 2
 163 002a F3D1     		bne	.L6
 164              		.loc 2 142 0
 165 002c 0022     		movs	r2, #0
 166              		.loc 2 145 0
 167 002e 40F20000 		movw	r0, #:lower16:SPID1
 168 0032 40F20001 		movw	r1, #:lower16:.LANCHOR3
 169 0036 C0F20000 		movt	r0, #:upper16:SPID1
ARM GAS  /tmp/cc7hiEJG.s 			page 4


 170 003a C0F20001 		movt	r1, #:upper16:.LANCHOR3
 171              		.loc 2 142 0
 172 003e A3F86020 		strh	r2, [r3, #96]	@ movhi
 173              		.loc 2 145 0
 174 0042 FFF7FEFF 		bl	spiStart
 175              		.loc 2 148 0
 176 0046 40F20000 		movw	r0, #:lower16:GPTD2
 177 004a 40F20001 		movw	r1, #:lower16:.LANCHOR4
 178 004e C0F20000 		movt	r0, #:upper16:GPTD2
 179 0052 C0F20001 		movt	r1, #:upper16:.LANCHOR4
 180              		.loc 2 149 0
 181 0056 BDE83840 		pop	{r3, r4, r5, lr}
 182              		.loc 2 148 0
 183 005a FFF7FEBF 		b	gptStart
 184              		.cfi_endproc
 185              	.LFE65:
 186              		.size	vexSpiInit, .-vexSpiInit
 187 005e 00BF     		.section	.text.vexSpiTeamnameSet,"ax",%progbits
 188              		.align	2
 189              		.p2align 4,,15
 190              		.global	vexSpiTeamnameSet
 191              		.thumb
 192              		.thumb_func
 193              		.type	vexSpiTeamnameSet, %function
 194              	vexSpiTeamnameSet:
 195              	.LFB66:
 196              		.loc 2 158 0
 197              		.cfi_startproc
 198              		@ args = 0, pretend = 0, frame = 0
 199              		@ frame_needed = 0, uses_anonymous_args = 0
 200              		@ link register save eliminated.
 201              	.LVL12:
 202              		.loc 2 163 0
 203 0000 0278     		ldrb	r2, [r0, #0]	@ zero_extendqisi2
 204              		.loc 2 164 0
 205 0002 40F20003 		movw	r3, #:lower16:.LANCHOR5
 206 0006 C0F20003 		movt	r3, #:upper16:.LANCHOR5
 207 000a 1A70     		strb	r2, [r3, #0]
 208              		.loc 2 163 0
 209 000c 02B1     		cbz	r2, .L11
 210              		.loc 2 164 0
 211 000e 0130     		adds	r0, r0, #1
 212              	.LVL13:
 213              	.L11:
 214              		.loc 2 163 0
 215 0010 0178     		ldrb	r1, [r0, #0]	@ zero_extendqisi2
 216              		.loc 2 164 0
 217 0012 5970     		strb	r1, [r3, #1]
 218              		.loc 2 163 0
 219 0014 01B1     		cbz	r1, .L13
 220              		.loc 2 164 0
 221 0016 0130     		adds	r0, r0, #1
 222              	.LVL14:
 223              	.L13:
 224              		.loc 2 163 0
 225 0018 0278     		ldrb	r2, [r0, #0]	@ zero_extendqisi2
 226              		.loc 2 164 0
ARM GAS  /tmp/cc7hiEJG.s 			page 5


 227 001a 9A70     		strb	r2, [r3, #2]
 228              		.loc 2 163 0
 229 001c 02B1     		cbz	r2, .L15
 230              		.loc 2 164 0
 231 001e 0130     		adds	r0, r0, #1
 232              	.LVL15:
 233              	.L15:
 234              		.loc 2 163 0
 235 0020 0178     		ldrb	r1, [r0, #0]	@ zero_extendqisi2
 236              		.loc 2 164 0
 237 0022 D970     		strb	r1, [r3, #3]
 238              		.loc 2 163 0
 239 0024 01B1     		cbz	r1, .L17
 240              		.loc 2 164 0
 241 0026 0130     		adds	r0, r0, #1
 242              	.LVL16:
 243              	.L17:
 244              		.loc 2 163 0
 245 0028 0278     		ldrb	r2, [r0, #0]	@ zero_extendqisi2
 246              		.loc 2 164 0
 247 002a 1A71     		strb	r2, [r3, #4]
 248              		.loc 2 163 0
 249 002c 02B1     		cbz	r2, .L19
 250              		.loc 2 164 0
 251 002e 0130     		adds	r0, r0, #1
 252              	.LVL17:
 253              	.L19:
 254              		.loc 2 163 0
 255 0030 0178     		ldrb	r1, [r0, #0]	@ zero_extendqisi2
 256              		.loc 2 164 0
 257 0032 5971     		strb	r1, [r3, #5]
 258              		.loc 2 163 0
 259 0034 01B1     		cbz	r1, .L21
 260              		.loc 2 164 0
 261 0036 0130     		adds	r0, r0, #1
 262              	.LVL18:
 263              	.L21:
 264              		.loc 2 163 0
 265 0038 0278     		ldrb	r2, [r0, #0]	@ zero_extendqisi2
 266              		.loc 2 164 0
 267 003a 9A71     		strb	r2, [r3, #6]
 268              		.loc 2 163 0
 269 003c 02B1     		cbz	r2, .L23
 270              		.loc 2 164 0
 271 003e 0130     		adds	r0, r0, #1
 272              	.LVL19:
 273              	.L23:
 274              		.loc 2 163 0
 275 0040 0078     		ldrb	r0, [r0, #0]	@ zero_extendqisi2
 276              	.LVL20:
 277              		.loc 2 166 0
 278 0042 D871     		strb	r0, [r3, #7]
 279              		.loc 2 168 0
 280 0044 7047     		bx	lr
 281              		.cfi_endproc
 282              	.LFE66:
 283              		.size	vexSpiTeamnameSet, .-vexSpiTeamnameSet
ARM GAS  /tmp/cc7hiEJG.s 			page 6


 284 0046 00BFAFF3 		.section	.text.vexSpiGetOnlineStatus,"ax",%progbits
 284      0080AFF3 
 284      0080
 285              		.align	2
 286              		.p2align 4,,15
 287              		.global	vexSpiGetOnlineStatus
 288              		.thumb
 289              		.thumb_func
 290              		.type	vexSpiGetOnlineStatus, %function
 291              	vexSpiGetOnlineStatus:
 292              	.LFB67:
 293              		.loc 2 178 0
 294              		.cfi_startproc
 295              		@ args = 0, pretend = 0, frame = 0
 296              		@ frame_needed = 0, uses_anonymous_args = 0
 297              		@ link register save eliminated.
 298              		.loc 2 179 0
 299 0000 40F20003 		movw	r3, #:lower16:.LANCHOR1
 300 0004 C0F20003 		movt	r3, #:upper16:.LANCHOR1
 301              		.loc 2 180 0
 302 0008 B3F96000 		ldrsh	r0, [r3, #96]
 303 000c 7047     		bx	lr
 304              		.cfi_endproc
 305              	.LFE67:
 306              		.size	vexSpiGetOnlineStatus, .-vexSpiGetOnlineStatus
 307 000e 00BF     		.section	.text.vexSpiGetJoystickDataPtr,"ax",%progbits
 308              		.align	2
 309              		.p2align 4,,15
 310              		.global	vexSpiGetJoystickDataPtr
 311              		.thumb
 312              		.thumb_func
 313              		.type	vexSpiGetJoystickDataPtr, %function
 314              	vexSpiGetJoystickDataPtr:
 315              	.LFB68:
 316              		.loc 2 190 0
 317              		.cfi_startproc
 318              		@ args = 0, pretend = 0, frame = 0
 319              		@ frame_needed = 0, uses_anonymous_args = 0
 320              		@ link register save eliminated.
 321              	.LVL21:
 322              		.loc 2 192 0
 323 0000 034B     		ldr	r3, .L30
 324 0002 03F10C02 		add	r2, r3, #12
 325              		.loc 2 195 0
 326 0006 0128     		cmp	r0, #1
 327 0008 D4BF     		ite	le
 328 000a 1846     		movle	r0, r3
 329 000c 1046     		movgt	r0, r2
 330              	.LVL22:
 331 000e 7047     		bx	lr
 332              	.L31:
 333              		.align	2
 334              	.L30:
 335 0010 26000000 		.word	.LANCHOR1+38
 336              		.cfi_endproc
 337              	.LFE68:
 338              		.size	vexSpiGetJoystickDataPtr, .-vexSpiGetJoystickDataPtr
ARM GAS  /tmp/cc7hiEJG.s 			page 7


 339 0014 AFF30080 		.section	.text.vexSpiGetControl,"ax",%progbits
 339      AFF30080 
 339      AFF30080 
 340              		.align	2
 341              		.p2align 4,,15
 342              		.global	vexSpiGetControl
 343              		.thumb
 344              		.thumb_func
 345              		.type	vexSpiGetControl, %function
 346              	vexSpiGetControl:
 347              	.LFB69:
 348              		.loc 2 204 0
 349              		.cfi_startproc
 350              		@ args = 0, pretend = 0, frame = 0
 351              		@ frame_needed = 0, uses_anonymous_args = 0
 352              		@ link register save eliminated.
 353              		.loc 2 205 0
 354 0000 40F20003 		movw	r3, #:lower16:.LANCHOR1
 355 0004 C0F20003 		movt	r3, #:upper16:.LANCHOR1
 356              		.loc 2 206 0
 357 0008 93F82300 		ldrb	r0, [r3, #35]	@ zero_extendqisi2
 358 000c 7047     		bx	lr
 359              		.cfi_endproc
 360              	.LFE69:
 361              		.size	vexSpiGetControl, .-vexSpiGetControl
 362 000e 00BF     		.section	.text.vexSpiGetMainBattery,"ax",%progbits
 363              		.align	2
 364              		.p2align 4,,15
 365              		.global	vexSpiGetMainBattery
 366              		.thumb
 367              		.thumb_func
 368              		.type	vexSpiGetMainBattery, %function
 369              	vexSpiGetMainBattery:
 370              	.LFB70:
 371              		.loc 2 221 0
 372              		.cfi_startproc
 373              		@ args = 0, pretend = 0, frame = 0
 374              		@ frame_needed = 0, uses_anonymous_args = 0
 375              		@ link register save eliminated.
 376              		.loc 2 223 0
 377 0000 40F20001 		movw	r1, #:lower16:.LANCHOR1
 378 0004 C0F20001 		movt	r1, #:upper16:.LANCHOR1
 379 0008 91F82400 		ldrb	r0, [r1, #36]	@ zero_extendqisi2
 380 000c C0EB0012 		rsb	r2, r0, r0, lsl #4
 381 0010 C0EB8203 		rsb	r3, r0, r2, lsl #2
 382              		.loc 2 224 0
 383 0014 98B2     		uxth	r0, r3
 384 0016 7047     		bx	lr
 385              		.cfi_endproc
 386              	.LFE70:
 387              		.size	vexSpiGetMainBattery, .-vexSpiGetMainBattery
 388 0018 AFF30080 		.section	.text.vexSpiGetBackupBattery,"ax",%progbits
 388      AFF30080 
 389              		.align	2
 390              		.p2align 4,,15
 391              		.global	vexSpiGetBackupBattery
 392              		.thumb
ARM GAS  /tmp/cc7hiEJG.s 			page 8


 393              		.thumb_func
 394              		.type	vexSpiGetBackupBattery, %function
 395              	vexSpiGetBackupBattery:
 396              	.LFB71:
 397              		.loc 2 234 0
 398              		.cfi_startproc
 399              		@ args = 0, pretend = 0, frame = 0
 400              		@ frame_needed = 0, uses_anonymous_args = 0
 401              		@ link register save eliminated.
 402              		.loc 2 236 0
 403 0000 40F20001 		movw	r1, #:lower16:.LANCHOR1
 404 0004 C0F20001 		movt	r1, #:upper16:.LANCHOR1
 405 0008 91F82500 		ldrb	r0, [r1, #37]	@ zero_extendqisi2
 406 000c C0EB0012 		rsb	r2, r0, r0, lsl #4
 407 0010 C0EB8203 		rsb	r3, r0, r2, lsl #2
 408              		.loc 2 237 0
 409 0014 98B2     		uxth	r0, r3
 410 0016 7047     		bx	lr
 411              		.cfi_endproc
 412              	.LFE71:
 413              		.size	vexSpiGetBackupBattery, .-vexSpiGetBackupBattery
 414 0018 AFF30080 		.section	.text.vexSpiSetMotor,"ax",%progbits
 414      AFF30080 
 415              		.align	2
 416              		.p2align 4,,15
 417              		.global	vexSpiSetMotor
 418              		.thumb
 419              		.thumb_func
 420              		.type	vexSpiSetMotor, %function
 421              	vexSpiSetMotor:
 422              	.LFB72:
 423              		.loc 2 253 0
 424              		.cfi_startproc
 425              		@ args = 0, pretend = 0, frame = 0
 426              		@ frame_needed = 0, uses_anonymous_args = 0
 427              		@ link register save eliminated.
 428              	.LVL23:
 429              		.loc 2 258 0
 430 0000 83B2     		uxth	r3, r0
 431 0002 072B     		cmp	r3, #7
 432 0004 0AD8     		bhi	.L35
 433              		.loc 2 263 0
 434 0006 7F29     		cmp	r1, #127
 435 0008 09DD     		ble	.L41
 436              		.loc 2 264 0
 437 000a FF21     		movs	r1, #255
 438              	.LVL24:
 439              	.L37:
 440              		.loc 2 273 0
 441 000c 40F2000C 		movw	ip, #:lower16:.LANCHOR1
 442 0010 C0F2000C 		movt	ip, #:upper16:.LANCHOR1
 443 0014 6044     		add	r0, ip, r0
 444              	.LVL25:
 445              		.loc 2 272 0
 446 0016 6AB1     		cbz	r2, .L42
 447              	.LVL26:
 448              	.L38:
ARM GAS  /tmp/cc7hiEJG.s 			page 9


 449              		.loc 2 275 0
 450 0018 C943     		mvns	r1, r1
 451 001a 8171     		strb	r1, [r0, #6]
 452              	.L35:
 453 001c 7047     		bx	lr
 454              	.LVL27:
 455              	.L41:
 456              		.loc 2 266 0
 457 001e 11F17F0F 		cmn	r1, #127
 458 0022 09DA     		bge	.L43
 459              		.loc 2 273 0
 460 0024 40F2000C 		movw	ip, #:lower16:.LANCHOR1
 461 0028 C0F2000C 		movt	ip, #:upper16:.LANCHOR1
 462              		.loc 2 267 0
 463 002c 0021     		movs	r1, #0
 464              	.LVL28:
 465              		.loc 2 273 0
 466 002e 6044     		add	r0, ip, r0
 467              		.loc 2 272 0
 468 0030 002A     		cmp	r2, #0
 469 0032 F1D1     		bne	.L38
 470              	.LVL29:
 471              	.L42:
 472              		.loc 2 273 0
 473 0034 8171     		strb	r1, [r0, #6]
 474 0036 7047     		bx	lr
 475              	.LVL30:
 476              	.L43:
 477              		.loc 2 269 0
 478 0038 7F31     		adds	r1, r1, #127
 479              	.LVL31:
 480 003a C9B2     		uxtb	r1, r1
 481              	.LVL32:
 482 003c E6E7     		b	.L37
 483              		.cfi_endproc
 484              	.LFE72:
 485              		.size	vexSpiSetMotor, .-vexSpiSetMotor
 486 003e 00BF     		.section	.text.vexSpiTickDelay,"ax",%progbits
 487              		.align	2
 488              		.p2align 4,,15
 489              		.global	vexSpiTickDelay
 490              		.thumb
 491              		.thumb_func
 492              		.type	vexSpiTickDelay, %function
 493              	vexSpiTickDelay:
 494              	.LFB73:
 495              		.loc 2 287 0
 496              		.cfi_startproc
 497              		@ args = 0, pretend = 0, frame = 0
 498              		@ frame_needed = 0, uses_anonymous_args = 0
 499              	.LVL33:
 500 0000 08B5     		push	{r3, lr}
 501              	.LCFI5:
 502              		.cfi_def_cfa_offset 8
 503              		.cfi_offset 14, -4
 504              		.cfi_offset 3, -8
 505              		.loc 2 287 0
ARM GAS  /tmp/cc7hiEJG.s 			page 10


 506 0002 0146     		mov	r1, r0
 507              	.LBB4:
 508              		.loc 2 291 0
 509 0004 2023     		movs	r3, #32
 510              	.LVL34:
 511              	@ 291 "../convex/cortex/fw/vexspi.c" 1
 512 0006 83F31188 		msr     BASEPRI, r3
 513              	@ 0 "" 2
 514              	.LVL35:
 515              		.thumb
 516              	.LBE4:
 517              		.loc 2 292 0
 518 000a 40F20000 		movw	r0, #:lower16:rlist
 519              	.LVL36:
 520 000e C0F20000 		movt	r0, #:upper16:rlist
 521 0012 8269     		ldr	r2, [r0, #24]
 522 0014 40F20003 		movw	r3, #:lower16:.LANCHOR0
 523              	.LVL37:
 524 0018 C0F20003 		movt	r3, #:upper16:.LANCHOR0
 525              		.loc 2 293 0
 526 001c 40F20000 		movw	r0, #:lower16:GPTD2
 527              		.loc 2 292 0
 528 0020 1A60     		str	r2, [r3, #0]
 529              		.loc 2 293 0
 530 0022 C0F20000 		movt	r0, #:upper16:GPTD2
 531 0026 FFF7FEFF 		bl	gptStartOneShotI
 532              		.loc 2 294 0
 533 002a 0220     		movs	r0, #2
 534 002c FFF7FEFF 		bl	chSchGoSleepS
 535              	.LBB5:
 536              		.loc 2 295 0
 537 0030 0023     		movs	r3, #0
 538              	.LVL38:
 539              	@ 295 "../convex/cortex/fw/vexspi.c" 1
 540 0032 83F31188 		msr     BASEPRI, r3
 541              	@ 0 "" 2
 542              	.LVL39:
 543              		.thumb
 544              	.LBE5:
 545              		.loc 2 296 0
 546 0036 08BD     		pop	{r3, pc}
 547              		.cfi_endproc
 548              	.LFE73:
 549              		.size	vexSpiTickDelay, .-vexSpiTickDelay
 550 0038 AFF30080 		.section	.text.vexSpiSend,"ax",%progbits
 550      AFF30080 
 551              		.align	2
 552              		.p2align 4,,15
 553              		.global	vexSpiSend
 554              		.thumb
 555              		.thumb_func
 556              		.type	vexSpiSend, %function
 557              	vexSpiSend:
 558              	.LFB74:
 559              		.loc 2 311 0
 560              		.cfi_startproc
 561              		@ args = 0, pretend = 0, frame = 0
ARM GAS  /tmp/cc7hiEJG.s 			page 11


 562              		@ frame_needed = 0, uses_anonymous_args = 0
 563              	.LVL40:
 564 0000 70B5     		push	{r4, r5, r6, lr}
 565              	.LCFI6:
 566              		.cfi_def_cfa_offset 16
 567              		.cfi_offset 14, -4
 568              		.cfi_offset 6, -8
 569              		.cfi_offset 5, -12
 570              		.cfi_offset 4, -16
 571              		.loc 2 318 0
 572 0002 40F20004 		movw	r4, #:lower16:.LANCHOR1
 573 0006 C0F20004 		movt	r4, #:upper16:.LANCHOR1
 574 000a A378     		ldrb	r3, [r4, #2]	@ zero_extendqisi2
 575 000c 032B     		cmp	r3, #3
 576 000e 00F09B81 		beq	.L72
 577              	.L46:
 578              		.loc 2 335 0
 579 0012 4FF40065 		mov	r5, #2048
 580 0016 C4F20105 		movt	r5, 16385
 581 001a 4FF40066 		mov	r6, #2048
 582              		.loc 2 339 0
 583 001e 40F20000 		movw	r0, #:lower16:SPID1
 584 0022 C0F20000 		movt	r0, #:upper16:SPID1
 585              		.loc 2 335 0
 586 0026 2E61     		str	r6, [r5, #16]
 587              	.LVL41:
 588              		.loc 2 339 0
 589 0028 FFF7FEFF 		bl	spi_lld_select
 590              		.loc 2 340 0
 591 002c 40F20000 		movw	r0, #:lower16:SPID1
 592 0030 2188     		ldrh	r1, [r4, #0]
 593 0032 C0F20000 		movt	r0, #:upper16:SPID1
 594 0036 FFF7FEFF 		bl	spi_lld_polled_exchange
 595 003a A4F84000 		strh	r0, [r4, #64]	@ movhi
 596              		.loc 2 342 0
 597 003e 40F20000 		movw	r0, #:lower16:SPID1
 598 0042 C0F20000 		movt	r0, #:upper16:SPID1
 599 0046 FFF7FEFF 		bl	spi_lld_unselect
 600              		.loc 2 353 0
 601 004a 0820     		movs	r0, #8
 602 004c FFF7FEFF 		bl	vexSpiTickDelay
 603              	.LVL42:
 604              		.loc 2 339 0
 605 0050 40F20000 		movw	r0, #:lower16:SPID1
 606 0054 C0F20000 		movt	r0, #:upper16:SPID1
 607 0058 FFF7FEFF 		bl	spi_lld_select
 608              		.loc 2 340 0
 609 005c 40F20000 		movw	r0, #:lower16:SPID1
 610 0060 6188     		ldrh	r1, [r4, #2]
 611 0062 C0F20000 		movt	r0, #:upper16:SPID1
 612 0066 FFF7FEFF 		bl	spi_lld_polled_exchange
 613 006a A4F84200 		strh	r0, [r4, #66]	@ movhi
 614              		.loc 2 342 0
 615 006e 40F20000 		movw	r0, #:lower16:SPID1
 616 0072 C0F20000 		movt	r0, #:upper16:SPID1
 617 0076 FFF7FEFF 		bl	spi_lld_unselect
 618              		.loc 2 353 0
ARM GAS  /tmp/cc7hiEJG.s 			page 12


 619 007a 0820     		movs	r0, #8
 620 007c FFF7FEFF 		bl	vexSpiTickDelay
 621              	.LVL43:
 622              		.loc 2 339 0
 623 0080 40F20000 		movw	r0, #:lower16:SPID1
 624 0084 C0F20000 		movt	r0, #:upper16:SPID1
 625 0088 FFF7FEFF 		bl	spi_lld_select
 626              		.loc 2 340 0
 627 008c 40F20000 		movw	r0, #:lower16:SPID1
 628 0090 A188     		ldrh	r1, [r4, #4]
 629 0092 C0F20000 		movt	r0, #:upper16:SPID1
 630 0096 FFF7FEFF 		bl	spi_lld_polled_exchange
 631 009a A4F84400 		strh	r0, [r4, #68]	@ movhi
 632              		.loc 2 342 0
 633 009e 40F20000 		movw	r0, #:lower16:SPID1
 634 00a2 C0F20000 		movt	r0, #:upper16:SPID1
 635 00a6 FFF7FEFF 		bl	spi_lld_unselect
 636              		.loc 2 353 0
 637 00aa 0820     		movs	r0, #8
 638 00ac FFF7FEFF 		bl	vexSpiTickDelay
 639              	.LVL44:
 640              		.loc 2 339 0
 641 00b0 40F20000 		movw	r0, #:lower16:SPID1
 642 00b4 C0F20000 		movt	r0, #:upper16:SPID1
 643 00b8 FFF7FEFF 		bl	spi_lld_select
 644              		.loc 2 340 0
 645 00bc 40F20000 		movw	r0, #:lower16:SPID1
 646 00c0 E188     		ldrh	r1, [r4, #6]
 647 00c2 C0F20000 		movt	r0, #:upper16:SPID1
 648 00c6 FFF7FEFF 		bl	spi_lld_polled_exchange
 649 00ca A4F84600 		strh	r0, [r4, #70]	@ movhi
 650              		.loc 2 342 0
 651 00ce 40F20000 		movw	r0, #:lower16:SPID1
 652 00d2 C0F20000 		movt	r0, #:upper16:SPID1
 653 00d6 FFF7FEFF 		bl	spi_lld_unselect
 654              		.loc 2 347 0
 655 00da 4920     		movs	r0, #73
 656 00dc FFF7FEFF 		bl	vexSpiTickDelay
 657              		.loc 2 339 0
 658 00e0 40F20000 		movw	r0, #:lower16:SPID1
 659 00e4 C0F20000 		movt	r0, #:upper16:SPID1
 660              		.loc 2 350 0
 661 00e8 6E61     		str	r6, [r5, #20]
 662              	.LVL45:
 663              		.loc 2 339 0
 664 00ea FFF7FEFF 		bl	spi_lld_select
 665              		.loc 2 340 0
 666 00ee 40F20000 		movw	r0, #:lower16:SPID1
 667 00f2 2189     		ldrh	r1, [r4, #8]
 668 00f4 C0F20000 		movt	r0, #:upper16:SPID1
 669 00f8 FFF7FEFF 		bl	spi_lld_polled_exchange
 670 00fc A4F84800 		strh	r0, [r4, #72]	@ movhi
 671              		.loc 2 342 0
 672 0100 40F20000 		movw	r0, #:lower16:SPID1
 673 0104 C0F20000 		movt	r0, #:upper16:SPID1
 674 0108 FFF7FEFF 		bl	spi_lld_unselect
 675              		.loc 2 353 0
ARM GAS  /tmp/cc7hiEJG.s 			page 13


 676 010c 0820     		movs	r0, #8
 677 010e FFF7FEFF 		bl	vexSpiTickDelay
 678              	.LVL46:
 679              		.loc 2 339 0
 680 0112 40F20000 		movw	r0, #:lower16:SPID1
 681 0116 C0F20000 		movt	r0, #:upper16:SPID1
 682 011a FFF7FEFF 		bl	spi_lld_select
 683              		.loc 2 340 0
 684 011e 40F20000 		movw	r0, #:lower16:SPID1
 685 0122 6189     		ldrh	r1, [r4, #10]
 686 0124 C0F20000 		movt	r0, #:upper16:SPID1
 687 0128 FFF7FEFF 		bl	spi_lld_polled_exchange
 688 012c A4F84A00 		strh	r0, [r4, #74]	@ movhi
 689              		.loc 2 342 0
 690 0130 40F20000 		movw	r0, #:lower16:SPID1
 691 0134 C0F20000 		movt	r0, #:upper16:SPID1
 692 0138 FFF7FEFF 		bl	spi_lld_unselect
 693              		.loc 2 353 0
 694 013c 0820     		movs	r0, #8
 695 013e FFF7FEFF 		bl	vexSpiTickDelay
 696              	.LVL47:
 697              		.loc 2 339 0
 698 0142 40F20000 		movw	r0, #:lower16:SPID1
 699 0146 C0F20000 		movt	r0, #:upper16:SPID1
 700 014a FFF7FEFF 		bl	spi_lld_select
 701              		.loc 2 340 0
 702 014e 40F20000 		movw	r0, #:lower16:SPID1
 703 0152 A189     		ldrh	r1, [r4, #12]
 704 0154 C0F20000 		movt	r0, #:upper16:SPID1
 705 0158 FFF7FEFF 		bl	spi_lld_polled_exchange
 706 015c A4F84C00 		strh	r0, [r4, #76]	@ movhi
 707              		.loc 2 342 0
 708 0160 40F20000 		movw	r0, #:lower16:SPID1
 709 0164 C0F20000 		movt	r0, #:upper16:SPID1
 710 0168 FFF7FEFF 		bl	spi_lld_unselect
 711              		.loc 2 353 0
 712 016c 0820     		movs	r0, #8
 713 016e FFF7FEFF 		bl	vexSpiTickDelay
 714              	.LVL48:
 715              		.loc 2 339 0
 716 0172 40F20000 		movw	r0, #:lower16:SPID1
 717 0176 C0F20000 		movt	r0, #:upper16:SPID1
 718 017a FFF7FEFF 		bl	spi_lld_select
 719              		.loc 2 340 0
 720 017e 40F20000 		movw	r0, #:lower16:SPID1
 721 0182 E189     		ldrh	r1, [r4, #14]
 722 0184 C0F20000 		movt	r0, #:upper16:SPID1
 723 0188 FFF7FEFF 		bl	spi_lld_polled_exchange
 724 018c A4F84E00 		strh	r0, [r4, #78]	@ movhi
 725              		.loc 2 342 0
 726 0190 40F20000 		movw	r0, #:lower16:SPID1
 727 0194 C0F20000 		movt	r0, #:upper16:SPID1
 728 0198 FFF7FEFF 		bl	spi_lld_unselect
 729              		.loc 2 347 0
 730 019c 4920     		movs	r0, #73
 731 019e FFF7FEFF 		bl	vexSpiTickDelay
 732              		.loc 2 339 0
ARM GAS  /tmp/cc7hiEJG.s 			page 14


 733 01a2 40F20000 		movw	r0, #:lower16:SPID1
 734 01a6 C0F20000 		movt	r0, #:upper16:SPID1
 735              		.loc 2 350 0
 736 01aa 6E61     		str	r6, [r5, #20]
 737              	.LVL49:
 738              		.loc 2 339 0
 739 01ac FFF7FEFF 		bl	spi_lld_select
 740              		.loc 2 340 0
 741 01b0 40F20000 		movw	r0, #:lower16:SPID1
 742 01b4 218A     		ldrh	r1, [r4, #16]
 743 01b6 C0F20000 		movt	r0, #:upper16:SPID1
 744 01ba FFF7FEFF 		bl	spi_lld_polled_exchange
 745 01be A4F85000 		strh	r0, [r4, #80]	@ movhi
 746              		.loc 2 342 0
 747 01c2 40F20000 		movw	r0, #:lower16:SPID1
 748 01c6 C0F20000 		movt	r0, #:upper16:SPID1
 749 01ca FFF7FEFF 		bl	spi_lld_unselect
 750              		.loc 2 353 0
 751 01ce 0820     		movs	r0, #8
 752 01d0 FFF7FEFF 		bl	vexSpiTickDelay
 753              	.LVL50:
 754              		.loc 2 339 0
 755 01d4 40F20000 		movw	r0, #:lower16:SPID1
 756 01d8 C0F20000 		movt	r0, #:upper16:SPID1
 757 01dc FFF7FEFF 		bl	spi_lld_select
 758              		.loc 2 340 0
 759 01e0 40F20000 		movw	r0, #:lower16:SPID1
 760 01e4 618A     		ldrh	r1, [r4, #18]
 761 01e6 C0F20000 		movt	r0, #:upper16:SPID1
 762 01ea FFF7FEFF 		bl	spi_lld_polled_exchange
 763 01ee A4F85200 		strh	r0, [r4, #82]	@ movhi
 764              		.loc 2 342 0
 765 01f2 40F20000 		movw	r0, #:lower16:SPID1
 766 01f6 C0F20000 		movt	r0, #:upper16:SPID1
 767 01fa FFF7FEFF 		bl	spi_lld_unselect
 768              		.loc 2 353 0
 769 01fe 0820     		movs	r0, #8
 770 0200 FFF7FEFF 		bl	vexSpiTickDelay
 771              	.LVL51:
 772              		.loc 2 339 0
 773 0204 40F20000 		movw	r0, #:lower16:SPID1
 774 0208 C0F20000 		movt	r0, #:upper16:SPID1
 775 020c FFF7FEFF 		bl	spi_lld_select
 776              		.loc 2 340 0
 777 0210 40F20000 		movw	r0, #:lower16:SPID1
 778 0214 A18A     		ldrh	r1, [r4, #20]
 779 0216 C0F20000 		movt	r0, #:upper16:SPID1
 780 021a FFF7FEFF 		bl	spi_lld_polled_exchange
 781 021e A4F85400 		strh	r0, [r4, #84]	@ movhi
 782              		.loc 2 342 0
 783 0222 40F20000 		movw	r0, #:lower16:SPID1
 784 0226 C0F20000 		movt	r0, #:upper16:SPID1
 785 022a FFF7FEFF 		bl	spi_lld_unselect
 786              		.loc 2 353 0
 787 022e 0820     		movs	r0, #8
 788 0230 FFF7FEFF 		bl	vexSpiTickDelay
 789              	.LVL52:
ARM GAS  /tmp/cc7hiEJG.s 			page 15


 790              		.loc 2 339 0
 791 0234 40F20000 		movw	r0, #:lower16:SPID1
 792 0238 C0F20000 		movt	r0, #:upper16:SPID1
 793 023c FFF7FEFF 		bl	spi_lld_select
 794              		.loc 2 340 0
 795 0240 40F20000 		movw	r0, #:lower16:SPID1
 796 0244 E18A     		ldrh	r1, [r4, #22]
 797 0246 C0F20000 		movt	r0, #:upper16:SPID1
 798 024a FFF7FEFF 		bl	spi_lld_polled_exchange
 799 024e A4F85600 		strh	r0, [r4, #86]	@ movhi
 800              		.loc 2 342 0
 801 0252 40F20000 		movw	r0, #:lower16:SPID1
 802 0256 C0F20000 		movt	r0, #:upper16:SPID1
 803 025a FFF7FEFF 		bl	spi_lld_unselect
 804              		.loc 2 347 0
 805 025e 4920     		movs	r0, #73
 806 0260 FFF7FEFF 		bl	vexSpiTickDelay
 807              		.loc 2 339 0
 808 0264 40F20000 		movw	r0, #:lower16:SPID1
 809 0268 C0F20000 		movt	r0, #:upper16:SPID1
 810              		.loc 2 350 0
 811 026c 6E61     		str	r6, [r5, #20]
 812              	.LVL53:
 813              		.loc 2 339 0
 814 026e FFF7FEFF 		bl	spi_lld_select
 815              		.loc 2 340 0
 816 0272 40F20000 		movw	r0, #:lower16:SPID1
 817 0276 218B     		ldrh	r1, [r4, #24]
 818 0278 C0F20000 		movt	r0, #:upper16:SPID1
 819 027c FFF7FEFF 		bl	spi_lld_polled_exchange
 820 0280 A4F85800 		strh	r0, [r4, #88]	@ movhi
 821              		.loc 2 342 0
 822 0284 40F20000 		movw	r0, #:lower16:SPID1
 823 0288 C0F20000 		movt	r0, #:upper16:SPID1
 824 028c FFF7FEFF 		bl	spi_lld_unselect
 825              		.loc 2 353 0
 826 0290 0820     		movs	r0, #8
 827 0292 FFF7FEFF 		bl	vexSpiTickDelay
 828              	.LVL54:
 829              		.loc 2 339 0
 830 0296 40F20000 		movw	r0, #:lower16:SPID1
 831 029a C0F20000 		movt	r0, #:upper16:SPID1
 832 029e FFF7FEFF 		bl	spi_lld_select
 833              		.loc 2 340 0
 834 02a2 40F20000 		movw	r0, #:lower16:SPID1
 835 02a6 618B     		ldrh	r1, [r4, #26]
 836 02a8 C0F20000 		movt	r0, #:upper16:SPID1
 837 02ac FFF7FEFF 		bl	spi_lld_polled_exchange
 838 02b0 A4F85A00 		strh	r0, [r4, #90]	@ movhi
 839              		.loc 2 342 0
 840 02b4 40F20000 		movw	r0, #:lower16:SPID1
 841 02b8 C0F20000 		movt	r0, #:upper16:SPID1
 842 02bc FFF7FEFF 		bl	spi_lld_unselect
 843              		.loc 2 353 0
 844 02c0 0820     		movs	r0, #8
 845 02c2 FFF7FEFF 		bl	vexSpiTickDelay
 846              	.LVL55:
ARM GAS  /tmp/cc7hiEJG.s 			page 16


 847              		.loc 2 339 0
 848 02c6 40F20000 		movw	r0, #:lower16:SPID1
 849 02ca C0F20000 		movt	r0, #:upper16:SPID1
 850 02ce FFF7FEFF 		bl	spi_lld_select
 851              		.loc 2 340 0
 852 02d2 40F20000 		movw	r0, #:lower16:SPID1
 853 02d6 A18B     		ldrh	r1, [r4, #28]
 854 02d8 C0F20000 		movt	r0, #:upper16:SPID1
 855 02dc FFF7FEFF 		bl	spi_lld_polled_exchange
 856 02e0 A4F85C00 		strh	r0, [r4, #92]	@ movhi
 857              		.loc 2 342 0
 858 02e4 40F20000 		movw	r0, #:lower16:SPID1
 859 02e8 C0F20000 		movt	r0, #:upper16:SPID1
 860 02ec FFF7FEFF 		bl	spi_lld_unselect
 861              		.loc 2 353 0
 862 02f0 0820     		movs	r0, #8
 863 02f2 FFF7FEFF 		bl	vexSpiTickDelay
 864              	.LVL56:
 865              		.loc 2 339 0
 866 02f6 40F20000 		movw	r0, #:lower16:SPID1
 867 02fa C0F20000 		movt	r0, #:upper16:SPID1
 868 02fe FFF7FEFF 		bl	spi_lld_select
 869              		.loc 2 340 0
 870 0302 40F20000 		movw	r0, #:lower16:SPID1
 871 0306 E18B     		ldrh	r1, [r4, #30]
 872 0308 C0F20000 		movt	r0, #:upper16:SPID1
 873 030c FFF7FEFF 		bl	spi_lld_polled_exchange
 874 0310 A4F85E00 		strh	r0, [r4, #94]	@ movhi
 875              		.loc 2 342 0
 876 0314 40F20000 		movw	r0, #:lower16:SPID1
 877 0318 C0F20000 		movt	r0, #:upper16:SPID1
 878 031c FFF7FEFF 		bl	spi_lld_unselect
 879              		.loc 2 353 0
 880 0320 0820     		movs	r0, #8
 881 0322 FFF7FEFF 		bl	vexSpiTickDelay
 882              	.LVL57:
 883              		.loc 2 357 0
 884 0326 E07F     		ldrb	r0, [r4, #31]	@ zero_extendqisi2
 885              		.loc 2 360 0
 886 0328 B4F840C0 		ldrh	ip, [r4, #64]
 887 032c 4CF61713 		movw	r3, #51479
 888              		.loc 2 357 0
 889 0330 411C     		adds	r1, r0, #1
 890              		.loc 2 340 0
 891 0332 40F20002 		movw	r2, #:lower16:.LANCHOR1
 892              		.loc 2 360 0
 893 0336 9C45     		cmp	ip, r3
 894              		.loc 2 357 0
 895 0338 E177     		strb	r1, [r4, #31]
 896              		.loc 2 340 0
 897 033a C0F20002 		movt	r2, #:upper16:.LANCHOR1
 898              		.loc 2 360 0
 899 033e 31D0     		beq	.L73
 900              		.loc 2 392 0
 901 0340 536E     		ldr	r3, [r2, #100]
 902 0342 581C     		adds	r0, r3, #1
 903 0344 5066     		str	r0, [r2, #100]
ARM GAS  /tmp/cc7hiEJG.s 			page 17


 904              	.LVL58:
 905              	.L45:
 906 0346 70BD     		pop	{r4, r5, r6, pc}
 907              	.L72:
 908              	.LVL59:
 909              	.LBB6:
 910              		.loc 2 320 0
 911 0348 40F20003 		movw	r3, #:lower16:.LANCHOR5
 912 034c C0F20003 		movt	r3, #:upper16:.LANCHOR5
 913              		.loc 2 327 0
 914 0350 1A78     		ldrb	r2, [r3, #0]	@ zero_extendqisi2
 915              		.loc 2 322 0
 916 0352 5521     		movs	r1, #85
 917 0354 6171     		strb	r1, [r4, #5]
 918              	.LVL60:
 919              		.loc 2 327 0
 920 0356 002A     		cmp	r2, #0
 921 0358 54D1     		bne	.L47
 922              	.LVL61:
 923              		.loc 2 330 0
 924 035a 2022     		movs	r2, #32
 925 035c A271     		strb	r2, [r4, #6]
 926              		.loc 2 327 0
 927 035e 1A78     		ldrb	r2, [r3, #0]	@ zero_extendqisi2
 928 0360 002A     		cmp	r2, #0
 929 0362 54D1     		bne	.L49
 930              	.L77:
 931              	.LVL62:
 932              		.loc 2 330 0
 933 0364 2020     		movs	r0, #32
 934 0366 E071     		strb	r0, [r4, #7]
 935              		.loc 2 327 0
 936 0368 1A78     		ldrb	r2, [r3, #0]	@ zero_extendqisi2
 937 036a 002A     		cmp	r2, #0
 938 036c 54D1     		bne	.L51
 939              	.L78:
 940              	.LVL63:
 941              		.loc 2 330 0
 942 036e 2025     		movs	r5, #32
 943 0370 2572     		strb	r5, [r4, #8]
 944              		.loc 2 327 0
 945 0372 1A78     		ldrb	r2, [r3, #0]	@ zero_extendqisi2
 946 0374 002A     		cmp	r2, #0
 947 0376 54D1     		bne	.L53
 948              	.L79:
 949              	.LVL64:
 950              		.loc 2 330 0
 951 0378 2026     		movs	r6, #32
 952 037a 6672     		strb	r6, [r4, #9]
 953              		.loc 2 327 0
 954 037c 1A78     		ldrb	r2, [r3, #0]	@ zero_extendqisi2
 955 037e 002A     		cmp	r2, #0
 956 0380 54D1     		bne	.L55
 957              	.L80:
 958              	.LVL65:
 959              		.loc 2 330 0
 960 0382 2021     		movs	r1, #32
ARM GAS  /tmp/cc7hiEJG.s 			page 18


 961 0384 A172     		strb	r1, [r4, #10]
 962              		.loc 2 327 0
 963 0386 1A78     		ldrb	r2, [r3, #0]	@ zero_extendqisi2
 964 0388 002A     		cmp	r2, #0
 965 038a 54D1     		bne	.L57
 966              	.L81:
 967              	.LVL66:
 968              		.loc 2 330 0
 969 038c 2022     		movs	r2, #32
 970 038e E272     		strb	r2, [r4, #11]
 971              		.loc 2 327 0
 972 0390 1A78     		ldrb	r2, [r3, #0]	@ zero_extendqisi2
 973 0392 002A     		cmp	r2, #0
 974 0394 54D1     		bne	.L59
 975              	.L82:
 976              		.loc 2 330 0
 977 0396 2020     		movs	r0, #32
 978 0398 2073     		strb	r0, [r4, #12]
 979              	.L60:
 980              	.LVL67:
 981              		.loc 2 327 0
 982 039a 1B78     		ldrb	r3, [r3, #0]	@ zero_extendqisi2
 983              	.LVL68:
 984 039c 03B9     		cbnz	r3, .L71
 985              		.loc 2 330 0
 986 039e 2023     		movs	r3, #32
 987              	.L71:
 988 03a0 6373     		strb	r3, [r4, #13]
 989              	.LVL69:
 990 03a2 36E6     		b	.L46
 991              	.LVL70:
 992              	.L73:
 993              	.LBE6:
 994              		.loc 2 360 0
 995 03a4 02F13F03 		add	r3, r2, #63
 996              		.loc 2 310 0
 997 03a8 02F15F05 		add	r5, r2, #95
 998              	.LVL71:
 999              	.L64:
 1000              		.loc 2 310 0 is_stmt 0 discriminator 2
 1001 03ac 5A1C     		adds	r2, r3, #1
 1002              		.loc 2 364 0 is_stmt 1 discriminator 2
 1003 03ae 93F802E0 		ldrb	lr, [r3, #2]	@ zero_extendqisi2
 1004 03b2 5978     		ldrb	r1, [r3, #1]	@ zero_extendqisi2
 1005              		.loc 2 310 0 discriminator 2
 1006 03b4 0233     		adds	r3, r3, #2
 1007              		.loc 2 363 0 discriminator 2
 1008 03b6 AB42     		cmp	r3, r5
 1009              		.loc 2 364 0 discriminator 2
 1010 03b8 02F8201C 		strb	r1, [r2, #-32]
 1011 03bc 03F820EC 		strb	lr, [r3, #-32]
 1012              		.loc 2 363 0 discriminator 2
 1013 03c0 F4D1     		bne	.L64
 1014              		.loc 2 367 0
 1015 03c2 94F82210 		ldrb	r1, [r4, #34]	@ zero_extendqisi2
 1016 03c6 40F20003 		movw	r3, #:lower16:.LANCHOR1
 1017 03ca 01F00F02 		and	r2, r1, #15
ARM GAS  /tmp/cc7hiEJG.s 			page 19


 1018 03ce 082A     		cmp	r2, #8
 1019 03d0 C0F20003 		movt	r3, #:upper16:.LANCHOR1
 1020 03d4 37D0     		beq	.L74
 1021              	.L65:
 1022              		.loc 2 371 0
 1023 03d6 94F802E0 		ldrb	lr, [r4, #2]	@ zero_extendqisi2
 1024 03da 40F20003 		movw	r3, #:lower16:.LANCHOR1
 1025 03de 0EF00E0C 		and	ip, lr, #14
 1026 03e2 BCF1020F 		cmp	ip, #2
 1027 03e6 C0F20003 		movt	r3, #:upper16:.LANCHOR1
 1028 03ea ACD1     		bne	.L45
 1029              		.loc 2 374 0
 1030 03ec 022A     		cmp	r2, #2
 1031 03ee 33D0     		beq	.L75
 1032              		.loc 2 377 0
 1033 03f0 032A     		cmp	r2, #3
 1034 03f2 2CD0     		beq	.L76
 1035              	.L68:
 1036              		.loc 2 384 0
 1037 03f4 11F00C0F 		tst	r1, #12
 1038 03f8 A5D0     		beq	.L45
 1039              		.loc 2 386 0
 1040 03fa 0821     		movs	r1, #8
 1041              		.loc 2 387 0
 1042 03fc 0023     		movs	r3, #0
 1043              		.loc 2 386 0
 1044 03fe A170     		strb	r1, [r4, #2]
 1045              		.loc 2 387 0
 1046 0400 6371     		strb	r3, [r4, #5]
 1047 0402 70BD     		pop	{r4, r5, r6, pc}
 1048              	.LVL72:
 1049              	.L47:
 1050              	.LBB7:
 1051              		.loc 2 328 0
 1052 0404 A271     		strb	r2, [r4, #6]
 1053              	.LVL73:
 1054 0406 0133     		adds	r3, r3, #1
 1055              	.LVL74:
 1056              		.loc 2 327 0
 1057 0408 1A78     		ldrb	r2, [r3, #0]	@ zero_extendqisi2
 1058 040a 002A     		cmp	r2, #0
 1059 040c AAD0     		beq	.L77
 1060              	.L49:
 1061              		.loc 2 328 0
 1062 040e E271     		strb	r2, [r4, #7]
 1063 0410 0133     		adds	r3, r3, #1
 1064              	.LVL75:
 1065              		.loc 2 327 0
 1066 0412 1A78     		ldrb	r2, [r3, #0]	@ zero_extendqisi2
 1067 0414 002A     		cmp	r2, #0
 1068 0416 AAD0     		beq	.L78
 1069              	.L51:
 1070              		.loc 2 328 0
 1071 0418 2272     		strb	r2, [r4, #8]
 1072 041a 0133     		adds	r3, r3, #1
 1073              	.LVL76:
 1074              		.loc 2 327 0
ARM GAS  /tmp/cc7hiEJG.s 			page 20


 1075 041c 1A78     		ldrb	r2, [r3, #0]	@ zero_extendqisi2
 1076 041e 002A     		cmp	r2, #0
 1077 0420 AAD0     		beq	.L79
 1078              	.L53:
 1079              		.loc 2 328 0
 1080 0422 6272     		strb	r2, [r4, #9]
 1081 0424 0133     		adds	r3, r3, #1
 1082              	.LVL77:
 1083              		.loc 2 327 0
 1084 0426 1A78     		ldrb	r2, [r3, #0]	@ zero_extendqisi2
 1085 0428 002A     		cmp	r2, #0
 1086 042a AAD0     		beq	.L80
 1087              	.L55:
 1088              		.loc 2 328 0
 1089 042c A272     		strb	r2, [r4, #10]
 1090 042e 0133     		adds	r3, r3, #1
 1091              	.LVL78:
 1092              		.loc 2 327 0
 1093 0430 1A78     		ldrb	r2, [r3, #0]	@ zero_extendqisi2
 1094 0432 002A     		cmp	r2, #0
 1095 0434 AAD0     		beq	.L81
 1096              	.L57:
 1097              		.loc 2 328 0
 1098 0436 E272     		strb	r2, [r4, #11]
 1099 0438 0133     		adds	r3, r3, #1
 1100              	.LVL79:
 1101              		.loc 2 327 0
 1102 043a 1A78     		ldrb	r2, [r3, #0]	@ zero_extendqisi2
 1103 043c 002A     		cmp	r2, #0
 1104 043e AAD0     		beq	.L82
 1105              	.L59:
 1106              		.loc 2 328 0
 1107 0440 2273     		strb	r2, [r4, #12]
 1108 0442 0133     		adds	r3, r3, #1
 1109              	.LVL80:
 1110 0444 A9E7     		b	.L60
 1111              	.LVL81:
 1112              	.L74:
 1113              	.LBE7:
 1114              		.loc 2 368 0
 1115 0446 0120     		movs	r0, #1
 1116 0448 A3F86000 		strh	r0, [r3, #96]	@ movhi
 1117 044c C3E7     		b	.L65
 1118              	.L76:
 1119              		.loc 2 379 0
 1120 044e 0822     		movs	r2, #8
 1121              		.loc 2 380 0
 1122 0450 0020     		movs	r0, #0
 1123              		.loc 2 379 0
 1124 0452 9A70     		strb	r2, [r3, #2]
 1125              		.loc 2 380 0
 1126 0454 5871     		strb	r0, [r3, #5]
 1127 0456 CDE7     		b	.L68
 1128              	.L75:
 1129              		.loc 2 375 0
 1130 0458 0322     		movs	r2, #3
 1131 045a 9A70     		strb	r2, [r3, #2]
ARM GAS  /tmp/cc7hiEJG.s 			page 21


 1132 045c CAE7     		b	.L68
 1133              		.cfi_endproc
 1134              	.LFE74:
 1135              		.size	vexSpiSend, .-vexSpiSend
 1136 045e 00BF     		.section	.text.vexSpiDebug,"ax",%progbits
 1137              		.align	2
 1138              		.p2align 4,,15
 1139              		.global	vexSpiDebug
 1140              		.thumb
 1141              		.thumb_func
 1142              		.type	vexSpiDebug, %function
 1143              	vexSpiDebug:
 1144              	.LFB75:
 1145              		.loc 2 404 0
 1146              		.cfi_startproc
 1147              		@ args = 0, pretend = 0, frame = 0
 1148              		@ frame_needed = 0, uses_anonymous_args = 0
 1149              	.LVL82:
 1150              		.loc 2 412 0
 1151 0000 0129     		cmp	r1, #1
 1152              		.loc 2 404 0
 1153 0002 2DE9F041 		push	{r4, r5, r6, r7, r8, lr}
 1154              	.LCFI7:
 1155              		.cfi_def_cfa_offset 24
 1156              		.cfi_offset 14, -4
 1157              		.cfi_offset 8, -8
 1158              		.cfi_offset 7, -12
 1159              		.cfi_offset 6, -16
 1160              		.cfi_offset 5, -20
 1161              		.cfi_offset 4, -24
 1162              		.loc 2 404 0
 1163 0006 1546     		mov	r5, r2
 1164 0008 D8BF     		it	le
 1165 000a 40F20005 		movwle	r5, #:lower16:.LANCHOR1
 1166 000e 0446     		mov	r4, r0
 1167 0010 D8BF     		it	le
 1168 0012 C0F20005 		movtle	r5, #:upper16:.LANCHOR1
 1169              		.loc 2 412 0
 1170 0016 0EDD     		ble	.L84
 1171              		.loc 2 414 0
 1172 0018 1068     		ldr	r0, [r2, #0]
 1173              	.LVL83:
 1174 001a FFF7FEFF 		bl	atoi
 1175              	.LVL84:
 1176 001e 0746     		mov	r7, r0	@ movhi
 1177              	.LVL85:
 1178              		.loc 2 415 0
 1179 0020 6868     		ldr	r0, [r5, #4]
 1180 0022 FFF7FEFF 		bl	atoi
 1181              	.LVL86:
 1182              		.loc 2 416 0
 1183 0026 3EB2     		sxth	r6, r7
 1184              		.loc 2 417 0
 1185 0028 40F20005 		movw	r5, #:lower16:.LANCHOR1
 1186 002c C0F20005 		movt	r5, #:upper16:.LANCHOR1
 1187              		.loc 2 416 0
 1188 0030 012E     		cmp	r6, #1
ARM GAS  /tmp/cc7hiEJG.s 			page 22


 1189              		.loc 2 417 0
 1190 0032 C8BF     		it	gt
 1191 0034 A855     		strbgt	r0, [r5, r6]
 1192              	.LVL87:
 1193              	.L84:
 1194              		.loc 2 417 0 is_stmt 0 discriminator 1
 1195 0036 A44E     		ldr	r6, .L95
 1196              		.loc 2 403 0 is_stmt 1 discriminator 1
 1197 0038 06F11807 		add	r7, r6, #24
 1198              	.LVL88:
 1199              	.L85:
 1200              		.loc 2 421 0 discriminator 2
 1201 003c 40F20001 		movw	r1, #:lower16:.LC0
 1202 0040 7278     		ldrb	r2, [r6, #1]	@ zero_extendqisi2
 1203 0042 2046     		mov	r0, r4
 1204 0044 C0F20001 		movt	r1, #:upper16:.LC0
 1205 0048 FFF7FEFF 		bl	chprintf
 1206              		.loc 2 403 0 discriminator 2
 1207 004c 731C     		adds	r3, r6, #1
 1208              		.loc 2 421 0 discriminator 2
 1209 004e 40F20001 		movw	r1, #:lower16:.LC0
 1210              		.loc 2 403 0 discriminator 2
 1211 0052 0236     		adds	r6, r6, #2
 1212              		.loc 2 421 0 discriminator 2
 1213 0054 2046     		mov	r0, r4
 1214 0056 C0F20001 		movt	r1, #:upper16:.LC0
 1215 005a 5A78     		ldrb	r2, [r3, #1]	@ zero_extendqisi2
 1216 005c FFF7FEFF 		bl	chprintf
 1217              		.loc 2 420 0 discriminator 2
 1218 0060 BE42     		cmp	r6, r7
 1219 0062 EBD1     		bne	.L85
 1220              		.loc 2 422 0
 1221 0064 40F20001 		movw	r1, #:lower16:.LC1
 1222 0068 C0F20001 		movt	r1, #:upper16:.LC1
 1223 006c 2046     		mov	r0, r4
 1224 006e FFF7FEFF 		bl	chprintf
 1225              	.LVL89:
 1226              		.loc 2 424 0
 1227 0072 40F20001 		movw	r1, #:lower16:.LC0
 1228 0076 2046     		mov	r0, r4
 1229 0078 C0F20001 		movt	r1, #:upper16:.LC0
 1230 007c 2A7E     		ldrb	r2, [r5, #24]	@ zero_extendqisi2
 1231 007e FFF7FEFF 		bl	chprintf
 1232              	.LVL90:
 1233 0082 40F20001 		movw	r1, #:lower16:.LC0
 1234 0086 2046     		mov	r0, r4
 1235 0088 C0F20001 		movt	r1, #:upper16:.LC0
 1236 008c 6A7E     		ldrb	r2, [r5, #25]	@ zero_extendqisi2
 1237 008e FFF7FEFF 		bl	chprintf
 1238              	.LVL91:
 1239 0092 40F20001 		movw	r1, #:lower16:.LC0
 1240 0096 2046     		mov	r0, r4
 1241 0098 C0F20001 		movt	r1, #:upper16:.LC0
 1242 009c AA7E     		ldrb	r2, [r5, #26]	@ zero_extendqisi2
 1243 009e FFF7FEFF 		bl	chprintf
 1244              	.LVL92:
 1245 00a2 40F20001 		movw	r1, #:lower16:.LC0
ARM GAS  /tmp/cc7hiEJG.s 			page 23


 1246 00a6 2046     		mov	r0, r4
 1247 00a8 C0F20001 		movt	r1, #:upper16:.LC0
 1248 00ac EA7E     		ldrb	r2, [r5, #27]	@ zero_extendqisi2
 1249 00ae FFF7FEFF 		bl	chprintf
 1250              	.LVL93:
 1251 00b2 40F20001 		movw	r1, #:lower16:.LC0
 1252 00b6 2046     		mov	r0, r4
 1253 00b8 C0F20001 		movt	r1, #:upper16:.LC0
 1254 00bc 2A7F     		ldrb	r2, [r5, #28]	@ zero_extendqisi2
 1255 00be FFF7FEFF 		bl	chprintf
 1256              	.LVL94:
 1257 00c2 40F20001 		movw	r1, #:lower16:.LC0
 1258 00c6 2046     		mov	r0, r4
 1259 00c8 C0F20001 		movt	r1, #:upper16:.LC0
 1260 00cc 6A7F     		ldrb	r2, [r5, #29]	@ zero_extendqisi2
 1261 00ce FFF7FEFF 		bl	chprintf
 1262              	.LVL95:
 1263 00d2 40F20001 		movw	r1, #:lower16:.LC0
 1264 00d6 2046     		mov	r0, r4
 1265 00d8 C0F20001 		movt	r1, #:upper16:.LC0
 1266 00dc AA7F     		ldrb	r2, [r5, #30]	@ zero_extendqisi2
 1267 00de FFF7FEFF 		bl	chprintf
 1268              	.LVL96:
 1269 00e2 40F20001 		movw	r1, #:lower16:.LC0
 1270 00e6 2046     		mov	r0, r4
 1271 00e8 C0F20001 		movt	r1, #:upper16:.LC0
 1272 00ec EA7F     		ldrb	r2, [r5, #31]	@ zero_extendqisi2
 1273 00ee FFF7FEFF 		bl	chprintf
 1274              	.LVL97:
 1275              		.loc 2 425 0
 1276 00f2 40F20001 		movw	r1, #:lower16:.LC1
 1277 00f6 2046     		mov	r0, r4
 1278 00f8 C0F20001 		movt	r1, #:upper16:.LC1
 1279 00fc FFF7FEFF 		bl	chprintf
 1280              	.LVL98:
 1281 0100 724E     		ldr	r6, .L95+4
 1282              		.loc 2 403 0
 1283 0102 06F11807 		add	r7, r6, #24
 1284              	.LVL99:
 1285              	.L86:
 1286              		.loc 2 428 0 discriminator 2
 1287 0106 40F20001 		movw	r1, #:lower16:.LC0
 1288 010a 7278     		ldrb	r2, [r6, #1]	@ zero_extendqisi2
 1289 010c 2046     		mov	r0, r4
 1290 010e C0F20001 		movt	r1, #:upper16:.LC0
 1291 0112 FFF7FEFF 		bl	chprintf
 1292              		.loc 2 403 0 discriminator 2
 1293 0116 721C     		adds	r2, r6, #1
 1294              		.loc 2 428 0 discriminator 2
 1295 0118 40F20001 		movw	r1, #:lower16:.LC0
 1296              		.loc 2 403 0 discriminator 2
 1297 011c 0236     		adds	r6, r6, #2
 1298              		.loc 2 428 0 discriminator 2
 1299 011e 2046     		mov	r0, r4
 1300 0120 C0F20001 		movt	r1, #:upper16:.LC0
 1301 0124 5278     		ldrb	r2, [r2, #1]	@ zero_extendqisi2
 1302 0126 FFF7FEFF 		bl	chprintf
ARM GAS  /tmp/cc7hiEJG.s 			page 24


 1303              		.loc 2 427 0 discriminator 2
 1304 012a BE42     		cmp	r6, r7
 1305 012c EBD1     		bne	.L86
 1306              		.loc 2 429 0
 1307 012e 40F20001 		movw	r1, #:lower16:.LC1
 1308 0132 2046     		mov	r0, r4
 1309 0134 C0F20001 		movt	r1, #:upper16:.LC1
 1310 0138 FFF7FEFF 		bl	chprintf
 1311              	.LVL100:
 1312              		.loc 2 431 0
 1313 013c 40F20001 		movw	r1, #:lower16:.LC0
 1314 0140 2046     		mov	r0, r4
 1315 0142 95F83820 		ldrb	r2, [r5, #56]	@ zero_extendqisi2
 1316 0146 C0F20001 		movt	r1, #:upper16:.LC0
 1317 014a FFF7FEFF 		bl	chprintf
 1318              	.LVL101:
 1319 014e 40F20001 		movw	r1, #:lower16:.LC0
 1320 0152 2046     		mov	r0, r4
 1321 0154 95F83920 		ldrb	r2, [r5, #57]	@ zero_extendqisi2
 1322 0158 C0F20001 		movt	r1, #:upper16:.LC0
 1323 015c FFF7FEFF 		bl	chprintf
 1324              	.LVL102:
 1325 0160 40F20001 		movw	r1, #:lower16:.LC0
 1326 0164 2046     		mov	r0, r4
 1327 0166 95F83A20 		ldrb	r2, [r5, #58]	@ zero_extendqisi2
 1328 016a C0F20001 		movt	r1, #:upper16:.LC0
 1329 016e FFF7FEFF 		bl	chprintf
 1330              	.LVL103:
 1331 0172 40F20001 		movw	r1, #:lower16:.LC0
 1332 0176 2046     		mov	r0, r4
 1333 0178 95F83B20 		ldrb	r2, [r5, #59]	@ zero_extendqisi2
 1334 017c C0F20001 		movt	r1, #:upper16:.LC0
 1335 0180 FFF7FEFF 		bl	chprintf
 1336              	.LVL104:
 1337 0184 40F20001 		movw	r1, #:lower16:.LC0
 1338 0188 2046     		mov	r0, r4
 1339 018a 95F83C20 		ldrb	r2, [r5, #60]	@ zero_extendqisi2
 1340 018e C0F20001 		movt	r1, #:upper16:.LC0
 1341 0192 FFF7FEFF 		bl	chprintf
 1342              	.LVL105:
 1343 0196 40F20001 		movw	r1, #:lower16:.LC0
 1344 019a 2046     		mov	r0, r4
 1345 019c 95F83D20 		ldrb	r2, [r5, #61]	@ zero_extendqisi2
 1346 01a0 C0F20001 		movt	r1, #:upper16:.LC0
 1347 01a4 FFF7FEFF 		bl	chprintf
 1348              	.LVL106:
 1349 01a8 40F20001 		movw	r1, #:lower16:.LC0
 1350 01ac 2046     		mov	r0, r4
 1351 01ae 95F83E20 		ldrb	r2, [r5, #62]	@ zero_extendqisi2
 1352 01b2 C0F20001 		movt	r1, #:upper16:.LC0
 1353 01b6 FFF7FEFF 		bl	chprintf
 1354              	.LVL107:
 1355 01ba 40F20001 		movw	r1, #:lower16:.LC0
 1356 01be 95F83F20 		ldrb	r2, [r5, #63]	@ zero_extendqisi2
 1357 01c2 2046     		mov	r0, r4
 1358 01c4 C0F20001 		movt	r1, #:upper16:.LC0
 1359 01c8 FFF7FEFF 		bl	chprintf
ARM GAS  /tmp/cc7hiEJG.s 			page 25


 1360              	.LVL108:
 1361              		.loc 2 432 0
 1362 01cc 40F20001 		movw	r1, #:lower16:.LC1
 1363 01d0 2046     		mov	r0, r4
 1364 01d2 C0F20001 		movt	r1, #:upper16:.LC1
 1365 01d6 FFF7FEFF 		bl	chprintf
 1366              		.loc 2 434 0
 1367 01da 40F20001 		movw	r1, #:lower16:.LC2
 1368 01de 6A6E     		ldr	r2, [r5, #100]
 1369 01e0 2046     		mov	r0, r4
 1370 01e2 C0F20001 		movt	r1, #:upper16:.LC2
 1371 01e6 FFF7FEFF 		bl	chprintf
 1372              		.loc 2 436 0
 1373 01ea 40F20001 		movw	r1, #:lower16:.LC3
 1374 01ee 2046     		mov	r0, r4
 1375 01f0 C0F20001 		movt	r1, #:upper16:.LC3
 1376 01f4 FFF7FEFF 		bl	chprintf
 1377              		.loc 2 437 0
 1378 01f8 40F20001 		movw	r1, #:lower16:.LC4
 1379 01fc 2046     		mov	r0, r4
 1380 01fe 95F82620 		ldrb	r2, [r5, #38]	@ zero_extendqisi2
 1381 0202 C0F20001 		movt	r1, #:upper16:.LC4
 1382 0206 FFF7FEFF 		bl	chprintf
 1383              		.loc 2 438 0
 1384 020a 40F20001 		movw	r1, #:lower16:.LC5
 1385 020e 2046     		mov	r0, r4
 1386 0210 95F82720 		ldrb	r2, [r5, #39]	@ zero_extendqisi2
 1387 0214 C0F20001 		movt	r1, #:upper16:.LC5
 1388 0218 FFF7FEFF 		bl	chprintf
 1389              		.loc 2 439 0
 1390 021c 40F20001 		movw	r1, #:lower16:.LC6
 1391 0220 2046     		mov	r0, r4
 1392 0222 95F82820 		ldrb	r2, [r5, #40]	@ zero_extendqisi2
 1393 0226 C0F20001 		movt	r1, #:upper16:.LC6
 1394 022a FFF7FEFF 		bl	chprintf
 1395              		.loc 2 440 0
 1396 022e 40F20001 		movw	r1, #:lower16:.LC7
 1397 0232 2046     		mov	r0, r4
 1398 0234 95F82920 		ldrb	r2, [r5, #41]	@ zero_extendqisi2
 1399 0238 C0F20001 		movt	r1, #:upper16:.LC7
 1400 023c FFF7FEFF 		bl	chprintf
 1401              		.loc 2 441 0
 1402 0240 40F20001 		movw	r1, #:lower16:.LC8
 1403 0244 95F82E30 		ldrb	r3, [r5, #46]	@ zero_extendqisi2
 1404 0248 95F82D20 		ldrb	r2, [r5, #45]	@ zero_extendqisi2
 1405 024c 2046     		mov	r0, r4
 1406 024e C0F20001 		movt	r1, #:upper16:.LC8
 1407 0252 FFF7FEFF 		bl	chprintf
 1408              		.loc 2 442 0
 1409 0256 40F20001 		movw	r1, #:lower16:.LC9
 1410 025a 2046     		mov	r0, r4
 1411 025c C0F20001 		movt	r1, #:upper16:.LC9
 1412 0260 FFF7FEFF 		bl	chprintf
 1413              		.loc 2 443 0
 1414 0264 40F20001 		movw	r1, #:lower16:.LC4
 1415 0268 2046     		mov	r0, r4
 1416 026a 95F83220 		ldrb	r2, [r5, #50]	@ zero_extendqisi2
ARM GAS  /tmp/cc7hiEJG.s 			page 26


 1417 026e C0F20001 		movt	r1, #:upper16:.LC4
 1418 0272 FFF7FEFF 		bl	chprintf
 1419              		.loc 2 444 0
 1420 0276 40F20001 		movw	r1, #:lower16:.LC5
 1421 027a 2046     		mov	r0, r4
 1422 027c 95F83320 		ldrb	r2, [r5, #51]	@ zero_extendqisi2
 1423 0280 C0F20001 		movt	r1, #:upper16:.LC5
 1424 0284 FFF7FEFF 		bl	chprintf
 1425              		.loc 2 445 0
 1426 0288 40F20001 		movw	r1, #:lower16:.LC6
 1427 028c 2046     		mov	r0, r4
 1428 028e 95F83420 		ldrb	r2, [r5, #52]	@ zero_extendqisi2
 1429 0292 C0F20001 		movt	r1, #:upper16:.LC6
 1430 0296 FFF7FEFF 		bl	chprintf
 1431              		.loc 2 446 0
 1432 029a 40F20001 		movw	r1, #:lower16:.LC7
 1433 029e 2046     		mov	r0, r4
 1434 02a0 95F83520 		ldrb	r2, [r5, #53]	@ zero_extendqisi2
 1435 02a4 C0F20001 		movt	r1, #:upper16:.LC7
 1436 02a8 FFF7FEFF 		bl	chprintf
 1437              		.loc 2 447 0
 1438 02ac 40F20001 		movw	r1, #:lower16:.LC8
 1439 02b0 95F83920 		ldrb	r2, [r5, #57]	@ zero_extendqisi2
 1440 02b4 95F83A30 		ldrb	r3, [r5, #58]	@ zero_extendqisi2
 1441 02b8 2046     		mov	r0, r4
 1442 02ba C0F20001 		movt	r1, #:upper16:.LC8
 1443              		.loc 2 449 0
 1444 02be BDE8F041 		pop	{r4, r5, r6, r7, r8, lr}
 1445              		.loc 2 447 0
 1446 02c2 FFF7FEBF 		b	chprintf
 1447              	.L96:
 1448 02c6 00BF     		.align	2
 1449              	.L95:
 1450 02c8 FFFFFFFF 		.word	.LANCHOR1-1
 1451 02cc 1F000000 		.word	.LANCHOR1+31
 1452              		.cfi_endproc
 1453              	.LFE75:
 1454              		.size	vexSpiDebug, .-vexSpiDebug
 1455              		.section	.rodata.txInitData,"a",%progbits
 1456              		.align	2
 1457              		.set	.LANCHOR2,. + 0
 1458              		.type	txInitData, %object
 1459              		.size	txInitData, 32
 1460              	txInitData:
 1461 0000 17       		.byte	23
 1462 0001 C9       		.byte	-55
 1463 0002 02       		.byte	2
 1464 0003 00       		.byte	0
 1465 0004 00       		.byte	0
 1466 0005 00       		.byte	0
 1467 0006 7F       		.byte	127
 1468 0007 7F       		.byte	127
 1469 0008 7F       		.byte	127
 1470 0009 7F       		.byte	127
 1471 000a 7F       		.byte	127
 1472 000b 7F       		.byte	127
 1473 000c 7F       		.byte	127
ARM GAS  /tmp/cc7hiEJG.s 			page 27


 1474 000d 7F       		.byte	127
 1475 000e 00       		.byte	0
 1476 000f 00       		.byte	0
 1477 0010 00       		.byte	0
 1478 0011 00       		.byte	0
 1479 0012 00       		.byte	0
 1480 0013 00       		.byte	0
 1481 0014 00       		.byte	0
 1482 0015 00       		.byte	0
 1483 0016 00       		.byte	0
 1484 0017 00       		.byte	0
 1485 0018 00       		.byte	0
 1486 0019 00       		.byte	0
 1487 001a 00       		.byte	0
 1488 001b 00       		.byte	0
 1489 001c 00       		.byte	0
 1490 001d 00       		.byte	0
 1491 001e 01       		.byte	1
 1492 001f 00       		.byte	0
 1493              		.section	.data.spicfg,"aw",%progbits
 1494              		.align	2
 1495              		.set	.LANCHOR3,. + 0
 1496              		.type	spicfg, %object
 1497              		.size	spicfg, 12
 1498              	spicfg:
 1499 0000 00000000 		.word	0
 1500 0004 00180140 		.word	1073813504
 1501 0008 0000     		.short	0
 1502 000a 2108     		.short	2081
 1503              		.section	.rodata.vexSpiGpt,"a",%progbits
 1504              		.align	2
 1505              		.set	.LANCHOR4,. + 0
 1506              		.type	vexSpiGpt, %object
 1507              		.size	vexSpiGpt, 12
 1508              	vexSpiGpt:
 1509 0000 40420F00 		.word	1000000
 1510 0004 00000000 		.word	_vspi_gpt_cb
 1511 0008 00000000 		.word	0
 1512              		.section	.rodata.str1.4,"aMS",%progbits,1
 1513              		.align	2
 1514              	.LC0:
 1515 0000 25303258 		.ascii	"%02X \000"
 1515      2000
 1516 0006 0000     		.space	2
 1517              	.LC1:
 1518 0008 0D0A00   		.ascii	"\015\012\000"
 1519 000b 00       		.space	1
 1520              	.LC2:
 1521 000c 6572726F 		.ascii	"errors %ld\015\012\000"
 1521      72732025 
 1521      6C640D0A 
 1521      00
 1522 0019 000000   		.space	3
 1523              	.LC3:
 1524 001c 4A533120 		.ascii	"JS1 - \000"
 1524      2D2000
 1525 0023 00       		.space	1
ARM GAS  /tmp/cc7hiEJG.s 			page 28


 1526              	.LC4:
 1527 0024 63683120 		.ascii	"ch1 %3d \000"
 1527      25336420 
 1527      00
 1528 002d 000000   		.space	3
 1529              	.LC5:
 1530 0030 63683220 		.ascii	"ch2 %3d \000"
 1530      25336420 
 1530      00
 1531 0039 000000   		.space	3
 1532              	.LC6:
 1533 003c 63683320 		.ascii	"ch3 %3d \000"
 1533      25336420 
 1533      00
 1534 0045 000000   		.space	3
 1535              	.LC7:
 1536 0048 63683420 		.ascii	"ch4 %3d \000"
 1536      25336420 
 1536      00
 1537 0051 000000   		.space	3
 1538              	.LC8:
 1539 0054 62757474 		.ascii	"button %2X%2X\015\012\000"
 1539      6F6E2025 
 1539      32582532 
 1539      580D0A00 
 1540              	.LC9:
 1541 0064 4A533220 		.ascii	"JS2 - \000"
 1541      2D2000
 1542 006b 00       		.section	.bss.vexSpiData,"aw",%nobits
 1543              		.align	2
 1544              		.set	.LANCHOR1,. + 0
 1545              		.type	vexSpiData, %object
 1546              		.size	vexSpiData, 104
 1547              	vexSpiData:
 1548 0000 00000000 		.space	104
 1548      00000000 
 1548      00000000 
 1548      00000000 
 1548      00000000 
 1549              		.section	.data.spiTeamName,"aw",%progbits
 1550              		.align	2
 1551              		.set	.LANCHOR5,. + 0
 1552              		.type	spiTeamName, %object
 1553              		.size	spiTeamName, 16
 1554              	spiTeamName:
 1555 0000 434F4E56 		.ascii	"CONVEX  \000"
 1555      45582020 
 1555      00
 1556 0009 00000000 		.space	7
 1556      000000
 1557              		.section	.bss.spiThread,"aw",%nobits
 1558              		.align	2
 1559              		.set	.LANCHOR0,. + 0
 1560              		.type	spiThread, %object
 1561              		.size	spiThread, 4
 1562              	spiThread:
 1563 0000 00000000 		.space	4
ARM GAS  /tmp/cc7hiEJG.s 			page 29


 1564              		.text
 1565              	.Letext0:
 1566              		.file 3 "/opt/pros/toolchain/bin/../lib/gcc/arm-none-eabi/4.6.3/include/stddef.h"
 1567              		.file 4 "/opt/pros/toolchain/bin/../lib/gcc/arm-none-eabi/4.6.3/../../../../arm-none-eabi/include/
 1568              		.file 5 "../ChibiOS_2.6.2/os/ports/GCC/ARMCMx/chtypes.h"
 1569              		.file 6 "../ChibiOS_2.6.2/os/kernel/include/chlists.h"
 1570              		.file 7 "../ChibiOS_2.6.2/os/kernel/include/chthreads.h"
 1571              		.file 8 "../ChibiOS_2.6.2/os/ports/GCC/ARMCMx/chcore_v7m.h"
 1572              		.file 9 "../ChibiOS_2.6.2/os/kernel/include/chschd.h"
 1573              		.file 10 "../ChibiOS_2.6.2/os/kernel/include/chmtx.h"
 1574              		.file 11 "../ChibiOS_2.6.2/os/kernel/include/chstreams.h"
 1575              		.file 12 "../ChibiOS_2.6.2/os/hal/platforms/STM32F1xx/stm32f10x.h"
 1576              		.file 13 "../ChibiOS_2.6.2/os/hal/platforms/STM32F1xx/stm32_dma.h"
 1577              		.file 14 "../ChibiOS_2.6.2/os/hal/platforms/STM32/GPIOv1/pal_lld.h"
 1578              		.file 15 "../ChibiOS_2.6.2/os/hal/include/gpt.h"
 1579              		.file 16 "../ChibiOS_2.6.2/os/hal/platforms/STM32/TIMv1/gpt_lld.h"
 1580              		.file 17 "../ChibiOS_2.6.2/os/hal/platforms/STM32/TIMv1/stm32_tim.h"
 1581              		.file 18 "../ChibiOS_2.6.2/os/hal/include/spi.h"
 1582              		.file 19 "../ChibiOS_2.6.2/os/hal/platforms/STM32/SPIv1/spi_lld.h"
 1583              		.file 20 "/opt/pros/toolchain/bin/../lib/gcc/arm-none-eabi/4.6.3/include/stdarg.h"
 1584              		.file 21 "<built-in>"
 1585              		.file 22 "../convex/cortex/fw/vexcompat.h"
 1586              		.file 23 "../convex/cortex/fw/vexdigital.h"
 1587              		.file 24 "../convex/cortex/fw/vexime.h"
 1588              		.file 25 "../convex/cortex/fw/vexspi.h"
 1589              		.file 26 "../ChibiOS_2.6.2/os/ports/common/ARMCMx/CMSIS/include/core_cm3.h"