ARM GAS  /tmp/cc7pr4dF.s 			page 1


   1              		.syntax unified
   2              		.cpu cortex-m3
   3              		.fpu softvfp
   4              		.eabi_attribute 20, 1
   5              		.eabi_attribute 21, 1
   6              		.eabi_attribute 23, 3
   7              		.eabi_attribute 24, 1
   8              		.eabi_attribute 25, 1
   9              		.eabi_attribute 26, 1
  10              		.eabi_attribute 30, 2
  11              		.eabi_attribute 34, 1
  12              		.eabi_attribute 18, 4
  13              		.thumb
  14              		.file	"vexshell.c"
  15              		.text
  16              	.Ltext0:
  17              		.cfi_sections	.debug_frame
  18              		.section	.text.list_commands,"ax",%progbits
  19              		.align	2
  20              		.p2align 4,,15
  21              		.thumb
  22              		.thumb_func
  23              		.type	list_commands, %function
  24              	list_commands:
  25              	.LFB65:
  26              		.file 1 "../convex/cortex/fw/vexshell.c"
  27              		.loc 1 120 0
  28              		.cfi_startproc
  29              		@ args = 0, pretend = 0, frame = 0
  30              		@ frame_needed = 0, uses_anonymous_args = 0
  31              	.LVL0:
  32              		.loc 1 121 0
  33 0000 0A68     		ldr	r2, [r1, #0]
  34              		.loc 1 120 0
  35 0002 F8B5     		push	{r3, r4, r5, r6, r7, lr}
  36              	.LCFI0:
  37              		.cfi_def_cfa_offset 24
  38              		.cfi_offset 14, -4
  39              		.cfi_offset 7, -8
  40              		.cfi_offset 6, -12
  41              		.cfi_offset 5, -16
  42              		.cfi_offset 4, -20
  43              		.cfi_offset 3, -24
  44              		.loc 1 120 0
  45 0004 0D46     		mov	r5, r1
  46 0006 0646     		mov	r6, r0
  47              		.loc 1 121 0
  48 0008 82B1     		cbz	r2, .L1
  49 000a 0C46     		mov	r4, r1
  50 000c 01F10807 		add	r7, r1, #8
  51              	.LVL1:
  52              	.L3:
  53              		.loc 1 123 0
  54 0010 40F20001 		movw	r1, #:lower16:.LC0
  55 0014 3046     		mov	r0, r6
  56 0016 C0F20001 		movt	r1, #:upper16:.LC0
  57 001a 0834     		adds	r4, r4, #8
ARM GAS  /tmp/cc7pr4dF.s 			page 2


  58 001c FFF7FEFF 		bl	vex_chprintf
  59              		.loc 1 119 0
  60 0020 601B     		subs	r0, r4, r5
  61 0022 3B18     		adds	r3, r7, r0
  62              		.loc 1 121 0
  63 0024 53F8082C 		ldr	r2, [r3, #-8]
  64 0028 002A     		cmp	r2, #0
  65 002a F1D1     		bne	.L3
  66              	.L1:
  67 002c F8BD     		pop	{r3, r4, r5, r6, r7, pc}
  68              		.cfi_endproc
  69              	.LFE65:
  70              		.size	list_commands, .-list_commands
  71 002e 00BF     		.section	.text.cmd_flags,"ax",%progbits
  72              		.align	2
  73              		.p2align 4,,15
  74              		.thumb
  75              		.thumb_func
  76              		.type	cmd_flags, %function
  77              	cmd_flags:
  78              	.LFB71:
  79              		.loc 1 263 0
  80              		.cfi_startproc
  81              		@ args = 0, pretend = 0, frame = 0
  82              		@ frame_needed = 0, uses_anonymous_args = 0
  83              	.LVL2:
  84              		.loc 1 264 0
  85 0000 0129     		cmp	r1, #1
  86              		.loc 1 263 0
  87 0002 70B5     		push	{r4, r5, r6, lr}
  88              	.LCFI1:
  89              		.cfi_def_cfa_offset 16
  90              		.cfi_offset 14, -4
  91              		.cfi_offset 6, -8
  92              		.cfi_offset 5, -12
  93              		.cfi_offset 4, -16
  94              		.loc 1 263 0
  95 0004 0446     		mov	r4, r0
  96 0006 1546     		mov	r5, r2
  97              		.loc 1 264 0
  98 0008 7EDD     		ble	.L14
  99              		.loc 1 271 0
 100 000a 1668     		ldr	r6, [r2, #0]
 101 000c 40F20001 		movw	r1, #:lower16:.LC4
 102              	.LVL3:
 103 0010 3046     		mov	r0, r6
 104              	.LVL4:
 105 0012 C0F20001 		movt	r1, #:upper16:.LC4
 106 0016 FFF7FEFF 		bl	strcasecmp
 107              	.LVL5:
 108 001a A0B9     		cbnz	r0, .L8
 109              		.loc 1 272 0
 110 001c 6E68     		ldr	r6, [r5, #4]
 111 001e 40F20001 		movw	r1, #:lower16:.LC5
 112 0022 3046     		mov	r0, r6
 113 0024 C0F20001 		movt	r1, #:upper16:.LC5
 114 0028 FFF7FEFF 		bl	strcasecmp
ARM GAS  /tmp/cc7pr4dF.s 			page 3


 115 002c 0028     		cmp	r0, #0
 116 002e 5CD0     		beq	.L15
 117              	.L9:
 118              		.loc 1 276 0
 119 0030 40F20001 		movw	r1, #:lower16:.LC7
 120 0034 3046     		mov	r0, r6
 121 0036 C0F20001 		movt	r1, #:upper16:.LC7
 122 003a FFF7FEFF 		bl	strcasecmp
 123 003e 0346     		mov	r3, r0
 124 0040 0028     		cmp	r0, #0
 125 0042 44D0     		beq	.L10
 126              		.loc 1 278 0
 127 0044 2E68     		ldr	r6, [r5, #0]
 128              	.L8:
 129              		.loc 1 281 0
 130 0046 40F20001 		movw	r1, #:lower16:.LC9
 131 004a 3046     		mov	r0, r6
 132 004c C0F20001 		movt	r1, #:upper16:.LC9
 133 0050 FFF7FEFF 		bl	strcasecmp
 134 0054 88B9     		cbnz	r0, .L6
 135              		.loc 1 282 0
 136 0056 6E68     		ldr	r6, [r5, #4]
 137 0058 40F20001 		movw	r1, #:lower16:.LC5
 138 005c 3046     		mov	r0, r6
 139 005e C0F20001 		movt	r1, #:upper16:.LC5
 140 0062 FFF7FEFF 		bl	strcasecmp
 141 0066 C0B1     		cbz	r0, .L16
 142              		.loc 1 286 0
 143 0068 40F20001 		movw	r1, #:lower16:.LC7
 144 006c 3046     		mov	r0, r6
 145 006e C0F20001 		movt	r1, #:upper16:.LC7
 146 0072 FFF7FEFF 		bl	strcasecmp
 147 0076 0346     		mov	r3, r0
 148 0078 00B1     		cbz	r0, .L17
 149              	.L6:
 150 007a 70BD     		pop	{r4, r5, r6, pc}
 151              	.L17:
 152              		.loc 1 287 0
 153 007c 40F2000E 		movw	lr, #:lower16:.LANCHOR1
 154              		.loc 1 288 0
 155 0080 40F20001 		movw	r1, #:lower16:.LC11
 156              		.loc 1 287 0
 157 0084 C0F2000E 		movt	lr, #:upper16:.LANCHOR1
 158              		.loc 1 288 0
 159 0088 2046     		mov	r0, r4
 160 008a C0F20001 		movt	r1, #:upper16:.LC11
 161              		.loc 1 287 0
 162 008e 8EF80030 		strb	r3, [lr, #0]
 163              		.loc 1 291 0
 164 0092 BDE87040 		pop	{r4, r5, r6, lr}
 165              		.loc 1 288 0
 166 0096 FFF7FEBF 		b	vex_chprintf
 167              	.L16:
 168              		.loc 1 283 0
 169 009a 40F2000C 		movw	ip, #:lower16:.LANCHOR1
 170              		.loc 1 284 0
 171 009e 40F20001 		movw	r1, #:lower16:.LC10
ARM GAS  /tmp/cc7pr4dF.s 			page 4


 172              		.loc 1 283 0
 173 00a2 C0F2000C 		movt	ip, #:upper16:.LANCHOR1
 174 00a6 0122     		movs	r2, #1
 175              		.loc 1 284 0
 176 00a8 C0F20001 		movt	r1, #:upper16:.LC10
 177 00ac 2046     		mov	r0, r4
 178              		.loc 1 283 0
 179 00ae 8CF80020 		strb	r2, [ip, #0]
 180              		.loc 1 284 0
 181 00b2 FFF7FEFF 		bl	vex_chprintf
 182 00b6 6E68     		ldr	r6, [r5, #4]
 183              		.loc 1 286 0
 184 00b8 40F20001 		movw	r1, #:lower16:.LC7
 185 00bc 3046     		mov	r0, r6
 186 00be C0F20001 		movt	r1, #:upper16:.LC7
 187 00c2 FFF7FEFF 		bl	strcasecmp
 188 00c6 0346     		mov	r3, r0
 189 00c8 0028     		cmp	r0, #0
 190 00ca D6D1     		bne	.L6
 191 00cc D6E7     		b	.L17
 192              	.L10:
 193              		.loc 1 277 0
 194 00ce 40F20006 		movw	r6, #:lower16:.LANCHOR0
 195 00d2 C0F20006 		movt	r6, #:upper16:.LANCHOR0
 196              		.loc 1 278 0
 197 00d6 40F20001 		movw	r1, #:lower16:.LC8
 198              		.loc 1 277 0
 199 00da 3370     		strb	r3, [r6, #0]
 200              		.loc 1 278 0
 201 00dc 2046     		mov	r0, r4
 202 00de C0F20001 		movt	r1, #:upper16:.LC8
 203 00e2 FFF7FEFF 		bl	vex_chprintf
 204 00e6 2E68     		ldr	r6, [r5, #0]
 205 00e8 ADE7     		b	.L8
 206              	.L15:
 207              		.loc 1 273 0
 208 00ea 40F20003 		movw	r3, #:lower16:.LANCHOR0
 209 00ee C0F20003 		movt	r3, #:upper16:.LANCHOR0
 210 00f2 0122     		movs	r2, #1
 211              		.loc 1 274 0
 212 00f4 40F20001 		movw	r1, #:lower16:.LC6
 213 00f8 2046     		mov	r0, r4
 214 00fa C0F20001 		movt	r1, #:upper16:.LC6
 215              		.loc 1 273 0
 216 00fe 1A70     		strb	r2, [r3, #0]
 217              		.loc 1 274 0
 218 0100 FFF7FEFF 		bl	vex_chprintf
 219 0104 6E68     		ldr	r6, [r5, #4]
 220 0106 93E7     		b	.L9
 221              	.LVL6:
 222              	.L14:
 223              		.loc 1 265 0
 224 0108 40F20001 		movw	r1, #:lower16:.LC1
 225              	.LVL7:
 226 010c C0F20001 		movt	r1, #:upper16:.LC1
 227 0110 FFF7FEFF 		bl	vex_chprintf
 228              		.loc 1 266 0
ARM GAS  /tmp/cc7pr4dF.s 			page 5


 229 0114 40F20001 		movw	r1, #:lower16:.LC2
 230 0118 2046     		mov	r0, r4
 231 011a C0F20001 		movt	r1, #:upper16:.LC2
 232 011e FFF7FEFF 		bl	vex_chprintf
 233              		.loc 1 267 0
 234 0122 40F20001 		movw	r1, #:lower16:.LC3
 235 0126 2046     		mov	r0, r4
 236 0128 C0F20001 		movt	r1, #:upper16:.LC3
 237              		.loc 1 291 0
 238 012c BDE87040 		pop	{r4, r5, r6, lr}
 239              		.loc 1 267 0
 240 0130 FFF7FEBF 		b	vex_chprintf
 241              		.cfi_endproc
 242              	.LFE71:
 243              		.size	cmd_flags, .-cmd_flags
 244 0134 AFF30080 		.section	.text.cmd_systime,"ax",%progbits
 244      AFF30080 
 244      AFF30080 
 245              		.align	2
 246              		.p2align 4,,15
 247              		.thumb
 248              		.thumb_func
 249              		.type	cmd_systime, %function
 250              	cmd_systime:
 251              	.LFB67:
 252              		.loc 1 172 0
 253              		.cfi_startproc
 254              		@ args = 0, pretend = 0, frame = 0
 255              		@ frame_needed = 0, uses_anonymous_args = 0
 256              		@ link register save eliminated.
 257              	.LVL8:
 258              		.loc 1 174 0
 259 0000 0029     		cmp	r1, #0
 260 0002 09DD     		ble	.L19
 261              	.LVL9:
 262              	.LBB41:
 263              	.LBB42:
 264              		.loc 1 113 0
 265 0004 40F20001 		movw	r1, #:lower16:.LC12
 266              	.LVL10:
 267 0008 40F20002 		movw	r2, #:lower16:.LC13
 268              	.LVL11:
 269 000c C0F20001 		movt	r1, #:upper16:.LC12
 270 0010 C0F20002 		movt	r2, #:upper16:.LC13
 271              	.LBE42:
 272              	.LBE41:
 273              		.loc 1 179 0
 274              	.LBB44:
 275              	.LBB43:
 276              		.loc 1 113 0
 277 0014 FFF7FEBF 		b	vex_chprintf
 278              	.LVL12:
 279              	.L19:
 280              	.LBE43:
 281              	.LBE44:
 282              	.LBB45:
 283              	.LBB46:
ARM GAS  /tmp/cc7pr4dF.s 			page 6


 284              		.loc 1 178 0
 285 0018 40F20003 		movw	r3, #:lower16:vtlist
 286 001c C0F20003 		movt	r3, #:upper16:vtlist
 287 0020 DA68     		ldr	r2, [r3, #12]
 288              	.LVL13:
 289 0022 40F20001 		movw	r1, #:lower16:.LC14
 290              	.LVL14:
 291 0026 C0F20001 		movt	r1, #:upper16:.LC14
 292              	.LBE46:
 293              	.LBE45:
 294              		.loc 1 179 0
 295              	.LBB48:
 296              	.LBB47:
 297              		.loc 1 178 0
 298 002a FFF7FEBF 		b	vex_chprintf
 299              	.LVL15:
 300              	.LBE47:
 301              	.LBE48:
 302              		.cfi_endproc
 303              	.LFE67:
 304              		.size	cmd_systime, .-cmd_systime
 305 002e 00BF     		.section	.text.cmd_info,"ax",%progbits
 306              		.align	2
 307              		.p2align 4,,15
 308              		.thumb
 309              		.thumb_func
 310              		.type	cmd_info, %function
 311              	cmd_info:
 312              	.LFB66:
 313              		.loc 1 134 0
 314              		.cfi_startproc
 315              		@ args = 0, pretend = 0, frame = 0
 316              		@ frame_needed = 0, uses_anonymous_args = 0
 317              	.LVL16:
 318 0000 30B5     		push	{r4, r5, lr}
 319              	.LCFI2:
 320              		.cfi_def_cfa_offset 12
 321              		.cfi_offset 14, -4
 322              		.cfi_offset 5, -8
 323              		.cfi_offset 4, -12
 324              		.loc 1 136 0
 325 0002 0029     		cmp	r1, #0
 326              		.loc 1 134 0
 327 0004 83B0     		sub	sp, sp, #12
 328              	.LCFI3:
 329              		.cfi_def_cfa_offset 24
 330              		.loc 1 134 0
 331 0006 0446     		mov	r4, r0
 332              		.loc 1 136 0
 333 0008 0CDD     		ble	.L21
 334              	.LVL17:
 335              	.LBB55:
 336              	.LBB56:
 337              		.loc 1 113 0
 338 000a 40F20001 		movw	r1, #:lower16:.LC12
 339              	.LVL18:
 340 000e 40F20002 		movw	r2, #:lower16:.LC15
ARM GAS  /tmp/cc7pr4dF.s 			page 7


 341              	.LVL19:
 342 0012 C0F20001 		movt	r1, #:upper16:.LC12
 343 0016 C0F20002 		movt	r2, #:upper16:.LC15
 344              	.LBE56:
 345              	.LBE55:
 346              		.loc 1 166 0
 347 001a 03B0     		add	sp, sp, #12
 348 001c BDE83040 		pop	{r4, r5, lr}
 349              	.LBB58:
 350              	.LBB57:
 351              		.loc 1 113 0
 352 0020 FFF7FEBF 		b	vex_chprintf
 353              	.LVL20:
 354              	.L21:
 355              	.LBE57:
 356              	.LBE58:
 357              	.LBB59:
 358              	.LBB60:
 359              		.loc 1 141 0
 360 0024 40F20001 		movw	r1, #:lower16:.LC16
 361              	.LVL21:
 362 0028 40F20002 		movw	r2, #:lower16:.LC17
 363              	.LVL22:
 364 002c C0F20001 		movt	r1, #:upper16:.LC16
 365 0030 C0F20002 		movt	r2, #:upper16:.LC17
 366 0034 FFF7FEFF 		bl	vex_chprintf
 367              		.loc 1 143 0
 368 0038 40F20001 		movw	r1, #:lower16:.LC18
 369 003c 40F20002 		movw	r2, #:lower16:.LC19
 370 0040 2046     		mov	r0, r4
 371 0042 C0F20001 		movt	r1, #:upper16:.LC18
 372 0046 C0F20002 		movt	r2, #:upper16:.LC19
 373 004a FFF7FEFF 		bl	vex_chprintf
 374              		.loc 1 145 0
 375 004e 40F20001 		movw	r1, #:lower16:.LC20
 376 0052 40F20002 		movw	r2, #:lower16:.LC21
 377 0056 2046     		mov	r0, r4
 378 0058 C0F20001 		movt	r1, #:upper16:.LC20
 379 005c C0F20002 		movt	r2, #:upper16:.LC21
 380 0060 FFF7FEFF 		bl	vex_chprintf
 381              		.loc 1 147 0
 382 0064 40F20001 		movw	r1, #:lower16:.LC22
 383 0068 40F20002 		movw	r2, #:lower16:.LC23
 384 006c 2046     		mov	r0, r4
 385 006e C0F20001 		movt	r1, #:upper16:.LC22
 386 0072 C0F20002 		movt	r2, #:upper16:.LC23
 387 0076 FFF7FEFF 		bl	vex_chprintf
 388              		.loc 1 150 0
 389 007a 40F20001 		movw	r1, #:lower16:.LC24
 390 007e 40F20002 		movw	r2, #:lower16:.LC25
 391 0082 2046     		mov	r0, r4
 392 0084 C0F20001 		movt	r1, #:upper16:.LC24
 393 0088 C0F20002 		movt	r2, #:upper16:.LC25
 394 008c FFF7FEFF 		bl	vex_chprintf
 395              		.loc 1 153 0
 396 0090 40F20001 		movw	r1, #:lower16:.LC26
 397 0094 40F20002 		movw	r2, #:lower16:.LC27
ARM GAS  /tmp/cc7pr4dF.s 			page 8


 398 0098 2046     		mov	r0, r4
 399 009a C0F20001 		movt	r1, #:upper16:.LC26
 400 009e C0F20002 		movt	r2, #:upper16:.LC27
 401 00a2 FFF7FEFF 		bl	vex_chprintf
 402              		.loc 1 156 0
 403 00a6 40F20001 		movw	r1, #:lower16:.LC28
 404 00aa 40F20002 		movw	r2, #:lower16:.LC29
 405 00ae 2046     		mov	r0, r4
 406 00b0 C0F20001 		movt	r1, #:upper16:.LC28
 407 00b4 C0F20002 		movt	r2, #:upper16:.LC29
 408 00b8 FFF7FEFF 		bl	vex_chprintf
 409              		.loc 1 159 0
 410 00bc 40F20001 		movw	r1, #:lower16:.LC30
 411 00c0 40F20002 		movw	r2, #:lower16:.LC31
 412 00c4 2046     		mov	r0, r4
 413 00c6 C0F20001 		movt	r1, #:upper16:.LC30
 414 00ca C0F20002 		movt	r2, #:upper16:.LC31
 415 00ce FFF7FEFF 		bl	vex_chprintf
 416              		.loc 1 163 0
 417 00d2 40F20005 		movw	r5, #:lower16:.LC35
 418 00d6 40F20001 		movw	r1, #:lower16:.LC32
 419 00da 40F20002 		movw	r2, #:lower16:.LC33
 420 00de 40F20003 		movw	r3, #:lower16:.LC34
 421 00e2 C0F20005 		movt	r5, #:upper16:.LC35
 422 00e6 2046     		mov	r0, r4
 423 00e8 C0F20001 		movt	r1, #:upper16:.LC32
 424 00ec C0F20002 		movt	r2, #:upper16:.LC33
 425 00f0 C0F20003 		movt	r3, #:upper16:.LC34
 426 00f4 0095     		str	r5, [sp, #0]
 427 00f6 FFF7FEFF 		bl	vex_chprintf
 428              	.LBE60:
 429              	.LBE59:
 430              		.loc 1 166 0
 431 00fa 03B0     		add	sp, sp, #12
 432 00fc 30BD     		pop	{r4, r5, pc}
 433              		.cfi_endproc
 434              	.LFE66:
 435              		.size	cmd_info, .-cmd_info
 436 00fe 00BF     		.section	.text.cmd_reboot,"ax",%progbits
 437              		.align	2
 438              		.p2align 4,,15
 439              		.thumb
 440              		.thumb_func
 441              		.type	cmd_reboot, %function
 442              	cmd_reboot:
 443              	.LFB70:
 444              		.loc 1 249 0
 445              		.cfi_startproc
 446              		@ args = 0, pretend = 0, frame = 0
 447              		@ frame_needed = 0, uses_anonymous_args = 0
 448              	.LVL23:
 449              		.loc 1 251 0
 450 0000 0029     		cmp	r1, #0
 451              		.loc 1 249 0
 452 0002 08B5     		push	{r3, lr}
 453              	.LCFI4:
 454              		.cfi_def_cfa_offset 8
ARM GAS  /tmp/cc7pr4dF.s 			page 9


 455              		.cfi_offset 14, -4
 456              		.cfi_offset 3, -8
 457              		.loc 1 251 0
 458 0004 07DD     		ble	.L23
 459              		.loc 1 252 0
 460 0006 40F20001 		movw	r1, #:lower16:.LC36
 461              	.LVL24:
 462 000a C0F20001 		movt	r1, #:upper16:.LC36
 463              		.loc 1 258 0
 464 000e BDE80840 		pop	{r3, lr}
 465              		.loc 1 252 0
 466 0012 FFF7FEBF 		b	vex_chprintf
 467              	.LVL25:
 468              	.L23:
 469              	.LBB69:
 470              	.LBB70:
 471              		.loc 1 255 0
 472 0016 40F20001 		movw	r1, #:lower16:.LC37
 473              	.LVL26:
 474 001a C0F20001 		movt	r1, #:upper16:.LC37
 475 001e FFF7FEFF 		bl	vex_chprintf
 476              	.LVL27:
 477              		.loc 1 256 0
 478 0022 6420     		movs	r0, #100
 479 0024 FFF7FEFF 		bl	chThdSleep
 480              	.LBB71:
 481              	.LBB72:
 482              	.LBB73:
 483              	.LBB74:
 484              		.file 2 "../ChibiOS_2.6.2/os/ports/common/ARMCMx/CMSIS/include/core_cmInstr.h"
 485              		.loc 2 343 0
 486              	@ 343 "../ChibiOS_2.6.2/os/ports/common/ARMCMx/CMSIS/include/core_cmInstr.h" 1
 487 0028 BFF34F8F 		dsb
 488              	@ 0 "" 2
 489              		.thumb
 490              	.LBE74:
 491              	.LBE73:
 492              		.file 3 "../ChibiOS_2.6.2/os/ports/common/ARMCMx/CMSIS/include/core_cm3.h"
 493              		.loc 3 1483 0
 494 002c 4FF46D42 		mov	r2, #60672
 495 0030 CEF20002 		movt	r2, 57344
 496 0034 D368     		ldr	r3, [r2, #12]
 497 0036 0420     		movs	r0, #4
 498 0038 03F4E061 		and	r1, r3, #1792
 499 003c C0F2FA50 		movt	r0, 1530
 500 0040 41EA0003 		orr	r3, r1, r0
 501              		.loc 3 1482 0
 502 0044 D360     		str	r3, [r2, #12]
 503              	.LBB75:
 504              	.LBB76:
 505              		.loc 2 343 0
 506              	@ 343 "../ChibiOS_2.6.2/os/ports/common/ARMCMx/CMSIS/include/core_cmInstr.h" 1
 507 0046 BFF34F8F 		dsb
 508              	@ 0 "" 2
 509              		.thumb
 510              	.L24:
 511 004a FEE7     		b	.L24
ARM GAS  /tmp/cc7pr4dF.s 			page 10


 512              	.LBE76:
 513              	.LBE75:
 514              	.LBE72:
 515              	.LBE71:
 516              	.LBE70:
 517              	.LBE69:
 518              		.cfi_endproc
 519              	.LFE70:
 520              		.size	cmd_reboot, .-cmd_reboot
 521 004c AFF30080 		.section	.text.cmd_threads,"ax",%progbits
 522              		.align	2
 523              		.p2align 4,,15
 524              		.thumb
 525              		.thumb_func
 526              		.type	cmd_threads, %function
 527              	cmd_threads:
 528              	.LFB69:
 529              		.loc 1 215 0
 530              		.cfi_startproc
 531              		@ args = 0, pretend = 0, frame = 0
 532              		@ frame_needed = 0, uses_anonymous_args = 0
 533              	.LVL28:
 534 0000 F0B5     		push	{r4, r5, r6, r7, lr}
 535              	.LCFI5:
 536              		.cfi_def_cfa_offset 20
 537              		.cfi_offset 14, -4
 538              		.cfi_offset 7, -8
 539              		.cfi_offset 6, -12
 540              		.cfi_offset 5, -16
 541              		.cfi_offset 4, -20
 542              		.loc 1 220 0
 543 0002 0029     		cmp	r1, #0
 544              		.loc 1 215 0
 545 0004 85B0     		sub	sp, sp, #20
 546              	.LCFI6:
 547              		.cfi_def_cfa_offset 40
 548              		.loc 1 215 0
 549 0006 0546     		mov	r5, r0
 550              		.loc 1 220 0
 551 0008 08DD     		ble	.L26
 552              		.loc 1 222 0
 553 000a 40F20001 		movw	r1, #:lower16:.LC38
 554              	.LVL29:
 555 000e C0F20001 		movt	r1, #:upper16:.LC38
 556              		.loc 1 244 0
 557 0012 05B0     		add	sp, sp, #20
 558 0014 BDE8F040 		pop	{r4, r5, r6, r7, lr}
 559              		.loc 1 222 0
 560 0018 FFF7FEBF 		b	vex_chprintf
 561              	.LVL30:
 562              	.L26:
 563              	.LBB79:
 564              	.LBB80:
 565              		.loc 1 226 0
 566 001c 40F20001 		movw	r1, #:lower16:.LC39
 567              	.LVL31:
 568 0020 C0F20001 		movt	r1, #:upper16:.LC39
ARM GAS  /tmp/cc7pr4dF.s 			page 11


 569 0024 FFF7FEFF 		bl	vex_chprintf
 570              	.LVL32:
 571              		.loc 1 227 0
 572 0028 FFF7FEFF 		bl	chRegFirstThread
 573 002c 40F20006 		movw	r6, #:lower16:.LANCHOR2
 574 0030 C0F20006 		movt	r6, #:upper16:.LANCHOR2
 575 0034 0446     		mov	r4, r0
 576              	.LVL33:
 577 0036 1EE0     		b	.L29
 578              	.LVL34:
 579              	.L32:
 580              		.loc 1 232 0
 581 0038 FFF7FEFF 		bl	vex_chprintf
 582              	.L28:
 583              		.loc 1 236 0
 584 003c A168     		ldr	r1, [r4, #8]
 585 003e E368     		ldr	r3, [r4, #12]
 586 0040 276A     		ldr	r7, [r4, #32]
 587 0042 0091     		str	r1, [sp, #0]
 588              		.loc 1 238 0
 589 0044 A27F     		ldrb	r2, [r4, #30]	@ zero_extendqisi2
 590              		.loc 1 236 0
 591 0046 40F20001 		movw	r1, #:lower16:.LC42
 592              		.loc 1 238 0
 593 004a 501E     		subs	r0, r2, #1
 594              		.loc 1 236 0
 595 004c 0190     		str	r0, [sp, #4]
 596 004e 227F     		ldrb	r2, [r4, #28]	@ zero_extendqisi2
 597 0050 C0F20001 		movt	r1, #:upper16:.LC42
 598 0054 56F822E0 		ldr	lr, [r6, r2, lsl #2]
 599 0058 2846     		mov	r0, r5
 600 005a 2246     		mov	r2, r4
 601 005c CDF808E0 		str	lr, [sp, #8]
 602 0060 0397     		str	r7, [sp, #12]
 603 0062 FFF7FEFF 		bl	vex_chprintf
 604              		.loc 1 241 0
 605 0066 2046     		mov	r0, r4
 606 0068 FFF7FEFF 		bl	chRegNextThread
 607 006c 0446     		mov	r4, r0
 608              	.LVL35:
 609              		.loc 1 242 0
 610 006e 1420     		movs	r0, #20
 611              	.LVL36:
 612 0070 FFF7FEFF 		bl	chThdSleep
 613              		.loc 1 243 0
 614 0074 84B1     		cbz	r4, .L31
 615              	.L29:
 616              		.loc 1 231 0
 617 0076 A369     		ldr	r3, [r4, #24]
 618              		.loc 1 232 0
 619 0078 40F20001 		movw	r1, #:lower16:.LC40
 620 007c 2846     		mov	r0, r5
 621 007e C0F20001 		movt	r1, #:upper16:.LC40
 622 0082 1A46     		mov	r2, r3
 623              		.loc 1 231 0
 624 0084 002B     		cmp	r3, #0
 625 0086 D7D1     		bne	.L32
ARM GAS  /tmp/cc7pr4dF.s 			page 12


 626              		.loc 1 234 0
 627 0088 40F20001 		movw	r1, #:lower16:.LC41
 628 008c C0F20001 		movt	r1, #:upper16:.LC41
 629 0090 2846     		mov	r0, r5
 630 0092 FFF7FEFF 		bl	vex_chprintf
 631 0096 D1E7     		b	.L28
 632              	.L31:
 633              	.LBE80:
 634              	.LBE79:
 635              		.loc 1 244 0
 636 0098 05B0     		add	sp, sp, #20
 637 009a F0BD     		pop	{r4, r5, r6, r7, pc}
 638              		.cfi_endproc
 639              	.LFE69:
 640              		.size	cmd_threads, .-cmd_threads
 641 009c AFF30080 		.section	.text.cmd_mem,"ax",%progbits
 642              		.align	2
 643              		.p2align 4,,15
 644              		.thumb
 645              		.thumb_func
 646              		.type	cmd_mem, %function
 647              	cmd_mem:
 648              	.LFB68:
 649              		.loc 1 191 0
 650              		.cfi_startproc
 651              		@ args = 0, pretend = 0, frame = 8
 652              		@ frame_needed = 0, uses_anonymous_args = 0
 653              	.LVL37:
 654 0000 30B5     		push	{r4, r5, lr}
 655              	.LCFI7:
 656              		.cfi_def_cfa_offset 12
 657              		.cfi_offset 14, -4
 658              		.cfi_offset 5, -8
 659              		.cfi_offset 4, -12
 660              		.loc 1 196 0
 661 0002 0029     		cmp	r1, #0
 662              		.loc 1 191 0
 663 0004 83B0     		sub	sp, sp, #12
 664              	.LCFI8:
 665              		.cfi_def_cfa_offset 24
 666              		.loc 1 191 0
 667 0006 0446     		mov	r4, r0
 668              		.loc 1 196 0
 669 0008 07DD     		ble	.L34
 670              		.loc 1 198 0
 671 000a 40F20001 		movw	r1, #:lower16:.LC43
 672              	.LVL38:
 673 000e C0F20001 		movt	r1, #:upper16:.LC43
 674 0012 FFF7FEFF 		bl	vex_chprintf
 675              	.LVL39:
 676              	.L33:
 677              		.loc 1 209 0
 678 0016 03B0     		add	sp, sp, #12
 679 0018 30BD     		pop	{r4, r5, pc}
 680              	.LVL40:
 681              	.L34:
 682              	.LBB83:
ARM GAS  /tmp/cc7pr4dF.s 			page 13


 683              	.LBB84:
 684              		.loc 1 202 0
 685 001a 01A9     		add	r1, sp, #4
 686              	.LVL41:
 687 001c 0020     		movs	r0, #0
 688 001e FFF7FEFF 		bl	chHeapStatus
 689              	.LVL42:
 690 0022 0546     		mov	r5, r0
 691              	.LVL43:
 692              		.loc 1 203 0
 693 0024 FFF7FEFF 		bl	chCoreStatus
 694              	.LVL44:
 695 0028 40F20001 		movw	r1, #:lower16:.LC44
 696 002c 0246     		mov	r2, r0
 697 002e C0F20001 		movt	r1, #:upper16:.LC44
 698 0032 2046     		mov	r0, r4
 699 0034 FFF7FEFF 		bl	vex_chprintf
 700              		.loc 1 204 0
 701 0038 40F20001 		movw	r1, #:lower16:.LC45
 702 003c 2A46     		mov	r2, r5
 703 003e 2046     		mov	r0, r4
 704 0040 C0F20001 		movt	r1, #:upper16:.LC45
 705 0044 FFF7FEFF 		bl	vex_chprintf
 706              		.loc 1 205 0
 707 0048 40F20001 		movw	r1, #:lower16:.LC46
 708              	.LVL45:
 709 004c 019A     		ldr	r2, [sp, #4]
 710 004e 2046     		mov	r0, r4
 711 0050 C0F20001 		movt	r1, #:upper16:.LC46
 712 0054 FFF7FEFF 		bl	vex_chprintf
 713              		.loc 1 207 0
 714 0058 0949     		ldr	r1, .L36
 715 005a 40F20000 		movw	r0, #:lower16:_edata
 716 005e C0F20000 		movt	r0, #:upper16:_edata
 717 0062 40F20003 		movw	r3, #:lower16:_data
 718 0066 4218     		adds	r2, r0, r1
 719 0068 C0F20003 		movt	r3, #:upper16:_data
 720 006c D21A     		subs	r2, r2, r3
 721              	.LVL46:
 722              		.loc 1 208 0
 723 006e 40F20001 		movw	r1, #:lower16:.LC47
 724 0072 2046     		mov	r0, r4
 725 0074 C0F20001 		movt	r1, #:upper16:.LC47
 726 0078 1346     		mov	r3, r2
 727 007a FFF7FEFF 		bl	vex_chprintf
 728              	.LVL47:
 729 007e CAE7     		b	.L33
 730              	.L37:
 731              		.align	2
 732              	.L36:
 733 0080 000000F8 		.word	_textdata-134217728
 734              	.LBE84:
 735              	.LBE83:
 736              		.cfi_endproc
 737              	.LFE68:
 738              		.size	cmd_mem, .-cmd_mem
 739 0084 AFF30080 		.section	.text._strtok.constprop.5,"ax",%progbits
ARM GAS  /tmp/cc7pr4dF.s 			page 14


 739      AFF30080 
 739      AFF30080 
 740              		.align	2
 741              		.p2align 4,,15
 742              		.thumb
 743              		.thumb_func
 744              		.type	_strtok.constprop.5, %function
 745              	_strtok.constprop.5:
 746              	.LFB83:
 747              		.loc 1 90 0
 748              		.cfi_startproc
 749              		@ args = 0, pretend = 0, frame = 0
 750              		@ frame_needed = 0, uses_anonymous_args = 0
 751              	.LVL48:
 752 0000 38B5     		push	{r3, r4, r5, lr}
 753              	.LCFI9:
 754              		.cfi_def_cfa_offset 16
 755              		.cfi_offset 14, -4
 756              		.cfi_offset 5, -8
 757              		.cfi_offset 4, -12
 758              		.cfi_offset 3, -16
 759              		.loc 1 93 0
 760 0002 0446     		mov	r4, r0
 761              		.loc 1 90 0
 762 0004 0D46     		mov	r5, r1
 763              		.loc 1 93 0
 764 0006 C0B1     		cbz	r0, .L39
 765              		.loc 1 94 0
 766 0008 0860     		str	r0, [r1, #0]
 767              	.LVL49:
 768              	.L40:
 769              		.loc 1 100 0
 770 000a 40F20001 		movw	r1, #:lower16:.LANCHOR3
 771              	.LVL50:
 772 000e C0F20001 		movt	r1, #:upper16:.LANCHOR3
 773 0012 2046     		mov	r0, r4
 774              	.LVL51:
 775 0014 FFF7FEFF 		bl	strspn
 776 0018 2418     		adds	r4, r4, r0
 777              	.LVL52:
 778              		.loc 1 101 0
 779 001a 2046     		mov	r0, r4
 780 001c 2021     		movs	r1, #32
 781 001e FFF7FEFF 		bl	strchr
 782 0022 2860     		str	r0, [r5, #0]
 783              		.loc 1 102 0
 784 0024 18B1     		cbz	r0, .L42
 785              		.loc 1 103 0
 786 0026 0023     		movs	r3, #0
 787 0028 00F8013B 		strb	r3, [r0], #1
 788 002c 2860     		str	r0, [r5, #0]
 789              	.L42:
 790              		.loc 1 105 0
 791 002e 2078     		ldrb	r0, [r4, #0]	@ zero_extendqisi2
 792 0030 0028     		cmp	r0, #0
 793 0032 14BF     		ite	ne
 794 0034 2046     		movne	r0, r4
ARM GAS  /tmp/cc7pr4dF.s 			page 15


 795 0036 0020     		moveq	r0, #0
 796 0038 38BD     		pop	{r3, r4, r5, pc}
 797              	.LVL53:
 798              	.L39:
 799              		.loc 1 95 0
 800 003a 0C68     		ldr	r4, [r1, #0]
 801              	.LVL54:
 802              		.loc 1 97 0
 803 003c 002C     		cmp	r4, #0
 804 003e E4D1     		bne	.L40
 805              		.loc 1 98 0
 806 0040 2046     		mov	r0, r4
 807              	.LVL55:
 808              		.loc 1 106 0
 809 0042 38BD     		pop	{r3, r4, r5, pc}
 810              		.cfi_endproc
 811              	.LFE83:
 812              		.size	_strtok.constprop.5, .-_strtok.constprop.5
 813 0044 AFF30080 		.section	.text.shellInit,"ax",%progbits
 813      AFF30080 
 813      AFF30080 
 814              		.align	2
 815              		.p2align 4,,15
 816              		.global	shellInit
 817              		.thumb
 818              		.thumb_func
 819              		.type	shellInit, %function
 820              	shellInit:
 821              	.LFB74:
 822              		.loc 1 430 0
 823              		.cfi_startproc
 824              		@ args = 0, pretend = 0, frame = 0
 825              		@ frame_needed = 0, uses_anonymous_args = 0
 826              		@ link register save eliminated.
 827              		.loc 1 431 0
 828 0000 40F20003 		movw	r3, #:lower16:.LANCHOR4
 829 0004 C0F20003 		movt	r3, #:upper16:.LANCHOR4
 830 0008 1B60     		str	r3, [r3, #0]
 831              		.loc 1 432 0
 832 000a 7047     		bx	lr
 833              		.cfi_endproc
 834              	.LFE74:
 835              		.size	shellInit, .-shellInit
 836 000c AFF30080 		.section	.text.shellCreate,"ax",%progbits
 837              		.align	2
 838              		.p2align 4,,15
 839              		.global	shellCreate
 840              		.thumb
 841              		.thumb_func
 842              		.type	shellCreate, %function
 843              	shellCreate:
 844              	.LFB75:
 845              		.loc 1 446 0
 846              		.cfi_startproc
 847              		@ args = 0, pretend = 0, frame = 0
 848              		@ frame_needed = 0, uses_anonymous_args = 0
 849              	.LVL56:
ARM GAS  /tmp/cc7pr4dF.s 			page 16


 850 0000 00B5     		push	{lr}
 851              	.LCFI10:
 852              		.cfi_def_cfa_offset 4
 853              		.cfi_offset 14, -4
 854              		.loc 1 447 0
 855 0002 40F20003 		movw	r3, #:lower16:shell_thread
 856              		.loc 1 446 0
 857 0006 83B0     		sub	sp, sp, #12
 858              	.LCFI11:
 859              		.cfi_def_cfa_offset 16
 860              		.loc 1 447 0
 861 0008 0090     		str	r0, [sp, #0]
 862 000a C0F20003 		movt	r3, #:upper16:shell_thread
 863 000e 0020     		movs	r0, #0
 864              	.LVL57:
 865 0010 FFF7FEFF 		bl	chThdCreateFromHeap
 866              	.LVL58:
 867              		.loc 1 448 0
 868 0014 03B0     		add	sp, sp, #12
 869 0016 00BD     		pop	{pc}
 870              		.cfi_endproc
 871              	.LFE75:
 872              		.size	shellCreate, .-shellCreate
 873 0018 AFF30080 		.section	.text.shellCreateStatic,"ax",%progbits
 873      AFF30080 
 874              		.align	2
 875              		.p2align 4,,15
 876              		.global	shellCreateStatic
 877              		.thumb
 878              		.thumb_func
 879              		.type	shellCreateStatic, %function
 880              	shellCreateStatic:
 881              	.LFB76:
 882              		.loc 1 462 0
 883              		.cfi_startproc
 884              		@ args = 0, pretend = 0, frame = 0
 885              		@ frame_needed = 0, uses_anonymous_args = 0
 886              	.LVL59:
 887 0000 00B5     		push	{lr}
 888              	.LCFI12:
 889              		.cfi_def_cfa_offset 4
 890              		.cfi_offset 14, -4
 891 0002 83B0     		sub	sp, sp, #12
 892              	.LCFI13:
 893              		.cfi_def_cfa_offset 16
 894              		.loc 1 463 0
 895 0004 0090     		str	r0, [sp, #0]
 896 0006 0846     		mov	r0, r1
 897              	.LVL60:
 898 0008 1146     		mov	r1, r2
 899              	.LVL61:
 900 000a 1A46     		mov	r2, r3
 901              	.LVL62:
 902 000c 40F20003 		movw	r3, #:lower16:shell_thread
 903              	.LVL63:
 904 0010 C0F20003 		movt	r3, #:upper16:shell_thread
 905 0014 FFF7FEFF 		bl	chThdCreateStatic
ARM GAS  /tmp/cc7pr4dF.s 			page 17


 906              	.LVL64:
 907              		.loc 1 464 0
 908 0018 03B0     		add	sp, sp, #12
 909 001a 00BD     		pop	{pc}
 910              		.cfi_endproc
 911              	.LFE76:
 912              		.size	shellCreateStatic, .-shellCreateStatic
 913 001c AFF30080 		.section	.text.shellGetLine,"ax",%progbits
 914              		.align	2
 915              		.p2align 4,,15
 916              		.global	shellGetLine
 917              		.thumb
 918              		.thumb_func
 919              		.type	shellGetLine, %function
 920              	shellGetLine:
 921              	.LFB77:
 922              		.loc 1 476 0
 923              		.cfi_startproc
 924              		@ args = 0, pretend = 0, frame = 16
 925              		@ frame_needed = 0, uses_anonymous_args = 0
 926              	.LVL65:
 927 0000 2DE9F04F 		push	{r4, r5, r6, r7, r8, r9, sl, fp, lr}
 928              	.LCFI14:
 929              		.cfi_def_cfa_offset 36
 930              		.cfi_offset 14, -4
 931              		.cfi_offset 11, -8
 932              		.cfi_offset 10, -12
 933              		.cfi_offset 9, -16
 934              		.cfi_offset 8, -20
 935              		.cfi_offset 7, -24
 936              		.cfi_offset 6, -28
 937              		.cfi_offset 5, -32
 938              		.cfi_offset 4, -36
 939              		.loc 1 483 0
 940 0004 40F2000B 		movw	fp, #:lower16:vtlist
 941 0008 C0F2000B 		movt	fp, #:upper16:vtlist
 942              		.loc 1 476 0
 943 000c 8846     		mov	r8, r1
 944              	.LVL66:
 945              		.loc 1 483 0
 946 000e DBF80C10 		ldr	r1, [fp, #12]
 947              	.LVL67:
 948              		.loc 1 476 0
 949 0012 85B0     		sub	sp, sp, #20
 950              	.LCFI15:
 951              		.cfi_def_cfa_offset 56
 952              	.LBB85:
 953              		.loc 1 604 0
 954 0014 013A     		subs	r2, r2, #1
 955              	.LVL68:
 956              	.LBE85:
 957              		.loc 1 476 0
 958 0016 0546     		mov	r5, r0
 959              		.loc 1 483 0
 960 0018 0191     		str	r1, [sp, #4]
 961              	.LVL69:
 962 001a C146     		mov	r9, r8
ARM GAS  /tmp/cc7pr4dF.s 			page 18


 963 001c 4446     		mov	r4, r8
 964              		.loc 1 486 0
 965 001e 0026     		movs	r6, #0
 966              	.LBB86:
 967              		.loc 1 604 0
 968 0020 08EB0207 		add	r7, r8, r2
 969              	.LVL70:
 970              	.L108:
 971              		.loc 1 492 0
 972 0024 2A68     		ldr	r2, [r5, #0]
 973 0026 2846     		mov	r0, r5
 974              	.LVL71:
 975 0028 5368     		ldr	r3, [r2, #4]
 976 002a 0DF10F01 		add	r1, sp, #15
 977 002e 0122     		movs	r2, #1
 978 0030 9847     		blx	r3
 979 0032 0028     		cmp	r0, #0
 980 0034 7BD0     		beq	.L76
 981              	.LVL72:
 982              	.L120:
 983              		.loc 1 501 0
 984 0036 33B2     		sxth	r3, r6
 985 0038 012B     		cmp	r3, #1
 986 003a 69D0     		beq	.L117
 987              	.LVL73:
 988              		.loc 1 513 0
 989 003c 022B     		cmp	r3, #2
 990 003e 18BF     		it	ne
 991 0040 9DF80F20 		ldrbne	r2, [sp, #15]	@ zero_extendqisi2
 992 0044 75D0     		beq	.L118
 993              	.LVL74:
 994              	.L52:
 995              		.loc 1 537 0
 996 0046 1B2A     		cmp	r2, #27
 997 0048 00F04881 		beq	.L82
 998 004c 00F2B280 		bhi	.L63
 999 0050 082A     		cmp	r2, #8
 1000 0052 00F0CA80 		beq	.L59
 1001 0056 0D2A     		cmp	r2, #13
 1002 0058 00F01081 		beq	.L60
 1003 005c 042A     		cmp	r2, #4
 1004 005e 00F0B480 		beq	.L119
 1005              	.L57:
 1006              		.loc 1 603 0
 1007 0062 1F2A     		cmp	r2, #31
 1008 0064 DED9     		bls	.L108
 1009              		.loc 1 604 0
 1010 0066 BC42     		cmp	r4, r7
 1011 0068 DCD2     		bcs	.L108
 1012              		.loc 1 607 0
 1013 006a 40F2000C 		movw	ip, #:lower16:.LANCHOR0
 1014 006e C0F2000C 		movt	ip, #:upper16:.LANCHOR0
 1015              		.loc 1 605 0
 1016 0072 2346     		mov	r3, r4
 1017              		.loc 1 607 0
 1018 0074 9CF80000 		ldrb	r0, [ip, #0]	@ zero_extendqisi2
 1019              		.loc 1 605 0
ARM GAS  /tmp/cc7pr4dF.s 			page 19


 1020 0078 03F8012B 		strb	r2, [r3], #1
 1021              	.LVL75:
 1022 007c 1C46     		mov	r4, r3
 1023              		.loc 1 607 0
 1024 007e 0028     		cmp	r0, #0
 1025 0080 D0D0     		beq	.L108
 1026              		.loc 1 608 0
 1027 0082 40F20001 		movw	r1, #:lower16:.LANCHOR1
 1028 0086 C0F20001 		movt	r1, #:upper16:.LANCHOR1
 1029 008a 0C78     		ldrb	r4, [r1, #0]	@ zero_extendqisi2
 1030 008c 002C     		cmp	r4, #0
 1031 008e 40F03381 		bne	.L71
 1032              	.L74:
 1033              		.loc 1 609 0 discriminator 1
 1034 0092 9945     		cmp	r9, r3
 1035 0094 00F03781 		beq	.L73
 1036 0098 C3EB0900 		rsb	r0, r3, r9
 1037              		.loc 1 610 0
 1038 009c CA46     		mov	sl, r9
 1039 009e 40F20001 		movw	r1, #:lower16:.LC51
 1040 00a2 1AF8012B 		ldrb	r2, [sl], #1	@ zero_extendqisi2
 1041 00a6 C443     		mvns	r4, r0
 1042 00a8 C0F20001 		movt	r1, #:upper16:.LC51
 1043 00ac 2846     		mov	r0, r5
 1044 00ae 0093     		str	r3, [sp, #0]
 1045 00b0 FFF7FEFF 		bl	vex_chprintf
 1046              	.LVL76:
 1047              		.loc 1 609 0
 1048 00b4 009B     		ldr	r3, [sp, #0]
 1049 00b6 04F00104 		and	r4, r4, #1
 1050 00ba 5345     		cmp	r3, sl
 1051 00bc 26D0     		beq	.L111
 1052 00be 64B1     		cbz	r4, .L75
 1053              	.LVL77:
 1054              		.loc 1 610 0
 1055 00c0 40F20001 		movw	r1, #:lower16:.LC51
 1056 00c4 1AF8012B 		ldrb	r2, [sl], #1	@ zero_extendqisi2
 1057 00c8 2846     		mov	r0, r5
 1058 00ca C0F20001 		movt	r1, #:upper16:.LC51
 1059 00ce 0093     		str	r3, [sp, #0]
 1060 00d0 FFF7FEFF 		bl	vex_chprintf
 1061              		.loc 1 609 0
 1062 00d4 009B     		ldr	r3, [sp, #0]
 1063 00d6 5345     		cmp	r3, sl
 1064 00d8 18D0     		beq	.L111
 1065              	.L75:
 1066              		.loc 1 610 0
 1067 00da D146     		mov	r9, sl
 1068 00dc 40F20001 		movw	r1, #:lower16:.LC51
 1069 00e0 19F8012B 		ldrb	r2, [r9], #1	@ zero_extendqisi2
 1070 00e4 C0F20001 		movt	r1, #:upper16:.LC51
 1071 00e8 2846     		mov	r0, r5
 1072 00ea 0093     		str	r3, [sp, #0]
 1073 00ec FFF7FEFF 		bl	vex_chprintf
 1074 00f0 40F20001 		movw	r1, #:lower16:.LC51
 1075 00f4 9AF80120 		ldrb	r2, [sl, #1]	@ zero_extendqisi2
 1076 00f8 2846     		mov	r0, r5
ARM GAS  /tmp/cc7pr4dF.s 			page 20


 1077 00fa C0F20001 		movt	r1, #:upper16:.LC51
 1078 00fe FFF7FEFF 		bl	vex_chprintf
 1079              		.loc 1 609 0
 1080 0102 009B     		ldr	r3, [sp, #0]
 1081              		.loc 1 610 0
 1082 0104 09F1010A 		add	sl, r9, #1
 1083              		.loc 1 609 0
 1084 0108 5345     		cmp	r3, sl
 1085 010a E6D1     		bne	.L75
 1086              	.L111:
 1087              		.loc 1 475 0
 1088 010c 9946     		mov	r9, r3
 1089 010e FAE0     		b	.L73
 1090              	.LVL78:
 1091              	.L117:
 1092              		.loc 1 503 0
 1093 0110 9DF80F20 		ldrb	r2, [sp, #15]	@ zero_extendqisi2
 1094              		.loc 1 509 0
 1095 0114 0026     		movs	r6, #0
 1096              		.loc 1 503 0
 1097 0116 5B2A     		cmp	r2, #91
 1098 0118 95D1     		bne	.L52
 1099              		.loc 1 492 0
 1100 011a 2A68     		ldr	r2, [r5, #0]
 1101 011c 2846     		mov	r0, r5
 1102 011e 5368     		ldr	r3, [r2, #4]
 1103 0120 0DF10F01 		add	r1, sp, #15
 1104 0124 0122     		movs	r2, #1
 1105              		.loc 1 505 0
 1106 0126 0226     		movs	r6, #2
 1107              	.LVL79:
 1108              		.loc 1 492 0
 1109 0128 9847     		blx	r3
 1110 012a 0028     		cmp	r0, #0
 1111 012c 83D1     		bne	.L120
 1112              	.LVL80:
 1113              	.L76:
 1114              		.loc 1 493 0
 1115 012e 0120     		movs	r0, #1
 1116 0130 53E0     		b	.L50
 1117              	.LVL81:
 1118              	.L118:
 1119              		.loc 1 515 0
 1120 0132 9DF80F00 		ldrb	r0, [sp, #15]	@ zero_extendqisi2
 1121              	.LVL82:
 1122 0136 4128     		cmp	r0, #65
 1123              	.LVL83:
 1124 0138 01D0     		beq	.L121
 1125              		.loc 1 532 0
 1126 013a 0026     		movs	r6, #0
 1127              	.LVL84:
 1128 013c 72E7     		b	.L108
 1129              	.LVL85:
 1130              	.L121:
 1131              		.loc 1 518 0
 1132 013e 40F20009 		movw	r9, #:lower16:.LANCHOR0
 1133              	.LVL86:
ARM GAS  /tmp/cc7pr4dF.s 			page 21


 1134 0142 C0F20009 		movt	r9, #:upper16:.LANCHOR0
 1135 0146 99F80060 		ldrb	r6, [r9, #0]	@ zero_extendqisi2
 1136              	.LVL87:
 1137 014a 002E     		cmp	r6, #0
 1138 014c 40F0C880 		bne	.L122
 1139              	.L55:
 1140              	.LVL88:
 1141              		.loc 1 523 0 discriminator 1
 1142 0150 BC42     		cmp	r4, r7
 1143 0152 80F0DD80 		bcs	.L79
 1144              		.loc 1 522 0
 1145 0156 40F20003 		movw	r3, #:lower16:.LANCHOR5
 1146 015a C0F20003 		movt	r3, #:upper16:.LANCHOR5
 1147              		.loc 1 523 0
 1148 015e 1E78     		ldrb	r6, [r3, #0]	@ zero_extendqisi2
 1149 0160 002E     		cmp	r6, #0
 1150 0162 00F08980 		beq	.L114
 1151 0166 E243     		mvns	r2, r4
 1152 0168 D119     		adds	r1, r2, r7
 1153 016a CA07     		lsls	r2, r1, #31
 1154 016c A146     		mov	r9, r4
 1155 016e 19D5     		bpl	.L56
 1156              		.loc 1 524 0
 1157 0170 04F8016B 		strb	r6, [r4], #1
 1158              	.LVL89:
 1159              		.loc 1 523 0
 1160 0174 13F8016F 		ldrb	r6, [r3, #1]!	@ zero_extendqisi2
 1161              		.loc 1 524 0
 1162 0178 A146     		mov	r9, r4
 1163              	.LVL90:
 1164              		.loc 1 523 0
 1165 017a 002E     		cmp	r6, #0
 1166 017c 3FF452AF 		beq	.L108
 1167              		.loc 1 524 0
 1168 0180 09F8016B 		strb	r6, [r9], #1
 1169              		.loc 1 523 0
 1170 0184 B945     		cmp	r9, r7
 1171              		.loc 1 524 0
 1172 0186 4C46     		mov	r4, r9
 1173              	.LVL91:
 1174              		.loc 1 523 0
 1175 0188 11D0     		beq	.L81
 1176              	.LVL92:
 1177              	.L123:
 1178              		.loc 1 523 0 is_stmt 0 discriminator 2
 1179 018a 5E78     		ldrb	r6, [r3, #1]	@ zero_extendqisi2
 1180 018c 0133     		adds	r3, r3, #1
 1181 018e 002E     		cmp	r6, #0
 1182 0190 3FF448AF 		beq	.L108
 1183              		.loc 1 524 0 is_stmt 1
 1184 0194 09F8016B 		strb	r6, [r9], #1
 1185              		.loc 1 523 0
 1186 0198 5E78     		ldrb	r6, [r3, #1]	@ zero_extendqisi2
 1187              		.loc 1 524 0
 1188 019a 4C46     		mov	r4, r9
 1189              	.LVL93:
 1190              		.loc 1 523 0
ARM GAS  /tmp/cc7pr4dF.s 			page 22


 1191 019c 0133     		adds	r3, r3, #1
 1192 019e 002E     		cmp	r6, #0
 1193 01a0 3FF440AF 		beq	.L108
 1194              	.LVL94:
 1195              	.L56:
 1196              		.loc 1 524 0
 1197 01a4 09F8016B 		strb	r6, [r9], #1
 1198              		.loc 1 523 0
 1199 01a8 B945     		cmp	r9, r7
 1200              		.loc 1 524 0
 1201 01aa 4C46     		mov	r4, r9
 1202              	.LVL95:
 1203              		.loc 1 523 0
 1204 01ac EDD1     		bne	.L123
 1205              	.LVL96:
 1206              	.L81:
 1207              		.loc 1 524 0
 1208 01ae B946     		mov	r9, r7
 1209              		.loc 1 532 0
 1210 01b0 0026     		movs	r6, #0
 1211 01b2 37E7     		b	.L108
 1212              	.LVL97:
 1213              	.L63:
 1214              		.loc 1 537 0
 1215 01b4 7F2A     		cmp	r2, #127
 1216 01b6 18D0     		beq	.L59
 1217 01b8 C92A     		cmp	r2, #201
 1218 01ba 11D0     		beq	.L62
 1219 01bc 212A     		cmp	r2, #33
 1220 01be 7FF450AF 		bne	.L57
 1221              		.loc 1 599 0
 1222 01c2 6420     		movs	r0, #100
 1223 01c4 FFF7FEFF 		bl	chThdSleep
 1224              		.loc 1 600 0
 1225 01c8 2CE7     		b	.L108
 1226              	.L119:
 1227              		.loc 1 541 0
 1228 01ca 40F20001 		movw	r1, #:lower16:.LC50
 1229 01ce 2846     		mov	r0, r5
 1230 01d0 C0F20001 		movt	r1, #:upper16:.LC50
 1231 01d4 FFF7FEFF 		bl	vex_chprintf
 1232              		.loc 1 542 0
 1233 01d8 0120     		movs	r0, #1
 1234              	.LVL98:
 1235              	.L50:
 1236              	.LBE86:
 1237              		.loc 1 620 0
 1238 01da 05B0     		add	sp, sp, #20
 1239 01dc BDE8F08F 		pop	{r4, r5, r6, r7, r8, r9, sl, fp, pc}
 1240              	.LVL99:
 1241              	.L62:
 1242              	.LBB87:
 1243              		.loc 1 592 0
 1244 01e0 4FF4FA70 		mov	r0, #500
 1245 01e4 FFF7FEFF 		bl	chThdSleep
 1246              		.loc 1 593 0
 1247 01e8 1CE7     		b	.L108
ARM GAS  /tmp/cc7pr4dF.s 			page 23


 1248              	.L59:
 1249              		.loc 1 548 0
 1250 01ea 4445     		cmp	r4, r8
 1251 01ec 3FF41AAF 		beq	.L108
 1252              		.loc 1 550 0
 1253 01f0 40F2000C 		movw	ip, #:lower16:.LANCHOR0
 1254 01f4 C0F2000C 		movt	ip, #:upper16:.LANCHOR0
 1255 01f8 9CF80030 		ldrb	r3, [ip, #0]	@ zero_extendqisi2
 1256 01fc 002B     		cmp	r3, #0
 1257 01fe 3AD0     		beq	.L64
 1258              		.loc 1 552 0 discriminator 1
 1259 0200 4C45     		cmp	r4, r9
 1260 0202 2FD0     		beq	.L65
 1261              		.loc 1 553 0
 1262 0204 CA46     		mov	sl, r9
 1263 0206 6FEA0900 		mvn	r0, r9
 1264 020a 1AF8012B 		ldrb	r2, [sl], #1	@ zero_extendqisi2
 1265 020e 40F20001 		movw	r1, #:lower16:.LC51
 1266 0212 2318     		adds	r3, r4, r0
 1267 0214 C0F20001 		movt	r1, #:upper16:.LC51
 1268 0218 2846     		mov	r0, r5
 1269 021a 03F00109 		and	r9, r3, #1
 1270              	.LVL100:
 1271 021e FFF7FEFF 		bl	vex_chprintf
 1272              		.loc 1 552 0
 1273 0222 A245     		cmp	sl, r4
 1274 0224 1ED0     		beq	.L65
 1275 0226 B9F1000F 		cmp	r9, #0
 1276 022a 04D0     		beq	.L86
 1277              	.LVL101:
 1278              		.loc 1 553 0
 1279 022c 40F20001 		movw	r1, #:lower16:.LC51
 1280 0230 1AF8012B 		ldrb	r2, [sl], #1	@ zero_extendqisi2
 1281 0234 0FE0     		b	.L115
 1282              	.L86:
 1283 0236 D146     		mov	r9, sl
 1284 0238 19F8012B 		ldrb	r2, [r9], #1	@ zero_extendqisi2
 1285 023c 40F20001 		movw	r1, #:lower16:.LC51
 1286 0240 C0F20001 		movt	r1, #:upper16:.LC51
 1287 0244 2846     		mov	r0, r5
 1288 0246 FFF7FEFF 		bl	vex_chprintf
 1289 024a 9AF80120 		ldrb	r2, [sl, #1]	@ zero_extendqisi2
 1290 024e 40F20001 		movw	r1, #:lower16:.LC51
 1291 0252 09F1010A 		add	sl, r9, #1
 1292              	.L115:
 1293 0256 2846     		mov	r0, r5
 1294 0258 C0F20001 		movt	r1, #:upper16:.LC51
 1295 025c FFF7FEFF 		bl	vex_chprintf
 1296              		.loc 1 552 0
 1297 0260 A245     		cmp	sl, r4
 1298 0262 E8D1     		bne	.L86
 1299              	.L65:
 1300              		.loc 1 555 0
 1301 0264 40F20001 		movw	r1, #:lower16:.LC52
 1302 0268 0822     		movs	r2, #8
 1303 026a 2846     		mov	r0, r5
 1304 026c C0F20001 		movt	r1, #:upper16:.LC52
ARM GAS  /tmp/cc7pr4dF.s 			page 24


 1305 0270 1346     		mov	r3, r2
 1306 0272 FFF7FEFF 		bl	vex_chprintf
 1307              	.L64:
 1308              		.loc 1 559 0
 1309 0276 013C     		subs	r4, r4, #1
 1310              	.LVL102:
 1311              	.L114:
 1312              		.loc 1 561 0
 1313 0278 A146     		mov	r9, r4
 1314 027a D3E6     		b	.L108
 1315              	.LVL103:
 1316              	.L60:
 1317              		.loc 1 568 0
 1318 027c 40F2000E 		movw	lr, #:lower16:.LANCHOR0
 1319 0280 C0F2000E 		movt	lr, #:upper16:.LANCHOR0
 1320 0284 9EF80010 		ldrb	r1, [lr, #0]	@ zero_extendqisi2
 1321              		.loc 1 566 0
 1322 0288 0022     		movs	r2, #0
 1323 028a 2270     		strb	r2, [r4, #0]
 1324              		.loc 1 568 0
 1325 028c E9B1     		cbz	r1, .L67
 1326              		.loc 1 570 0
 1327 028e 4C45     		cmp	r4, r9
 1328 0290 07D0     		beq	.L68
 1329              		.loc 1 571 0
 1330 0292 40F20001 		movw	r1, #:lower16:.LC49
 1331 0296 2846     		mov	r0, r5
 1332 0298 C0F20001 		movt	r1, #:upper16:.LC49
 1333 029c 4A46     		mov	r2, r9
 1334 029e FFF7FEFF 		bl	vex_chprintf
 1335              	.L68:
 1336              	.LVL104:
 1337              		.loc 1 574 0 discriminator 1
 1338 02a2 98F80020 		ldrb	r2, [r8, #0]	@ zero_extendqisi2
 1339 02a6 40F20001 		movw	r1, #:lower16:.LANCHOR5
 1340 02aa C0F20001 		movt	r1, #:upper16:.LANCHOR5
 1341 02ae 52B1     		cbz	r2, .L69
 1342              		.loc 1 574 0 is_stmt 0
 1343 02b0 40F20003 		movw	r3, #:lower16:.LANCHOR5
 1344 02b4 C0F20003 		movt	r3, #:upper16:.LANCHOR5
 1345              	.LVL105:
 1346              	.L70:
 1347              		.loc 1 575 0 is_stmt 1 discriminator 2
 1348 02b8 03F8012B 		strb	r2, [r3], #1
 1349              		.loc 1 574 0 discriminator 2
 1350 02bc 18F8012F 		ldrb	r2, [r8, #1]!	@ zero_extendqisi2
 1351 02c0 1946     		mov	r1, r3
 1352              	.LVL106:
 1353 02c2 002A     		cmp	r2, #0
 1354 02c4 F8D1     		bne	.L70
 1355              	.LVL107:
 1356              	.L69:
 1357              		.loc 1 576 0
 1358 02c6 0023     		movs	r3, #0
 1359 02c8 0B70     		strb	r3, [r1, #0]
 1360              	.L67:
 1361              		.loc 1 580 0
ARM GAS  /tmp/cc7pr4dF.s 			page 25


 1362 02ca 40F20001 		movw	r1, #:lower16:.LC53
 1363 02ce 2846     		mov	r0, r5
 1364 02d0 C0F20001 		movt	r1, #:upper16:.LC53
 1365 02d4 FFF7FEFF 		bl	vex_chprintf
 1366              		.loc 1 581 0
 1367 02d8 0020     		movs	r0, #0
 1368 02da 7EE7     		b	.L50
 1369              	.LVL108:
 1370              	.L82:
 1371              		.loc 1 586 0
 1372 02dc 0126     		movs	r6, #1
 1373 02de A1E6     		b	.L108
 1374              	.LVL109:
 1375              	.L122:
 1376              		.loc 1 519 0
 1377 02e0 40F20001 		movw	r1, #:lower16:.LC49
 1378 02e4 40F20002 		movw	r2, #:lower16:.LANCHOR5
 1379 02e8 2846     		mov	r0, r5
 1380              	.LVL110:
 1381 02ea C0F20001 		movt	r1, #:upper16:.LC49
 1382 02ee C0F20002 		movt	r2, #:upper16:.LANCHOR5
 1383 02f2 FFF7FEFF 		bl	vex_chprintf
 1384 02f6 2BE7     		b	.L55
 1385              	.LVL111:
 1386              	.L71:
 1387              		.loc 1 608 0 discriminator 1
 1388 02f8 DBF80C00 		ldr	r0, [fp, #12]
 1389 02fc 019C     		ldr	r4, [sp, #4]
 1390 02fe 021B     		subs	r2, r0, r4
 1391 0300 322A     		cmp	r2, #50
 1392 0302 3FF6C6AE 		bhi	.L74
 1393              	.LVL112:
 1394              	.L73:
 1395              		.loc 1 613 0
 1396 0306 DBF80C10 		ldr	r1, [fp, #12]
 1397              		.loc 1 605 0
 1398 030a 1C46     		mov	r4, r3
 1399              		.loc 1 613 0
 1400 030c 0191     		str	r1, [sp, #4]
 1401              	.LVL113:
 1402 030e 89E6     		b	.L108
 1403              	.LVL114:
 1404              	.L79:
 1405              		.loc 1 523 0
 1406 0310 A146     		mov	r9, r4
 1407              		.loc 1 532 0
 1408 0312 0026     		movs	r6, #0
 1409 0314 86E6     		b	.L108
 1410              	.LBE87:
 1411              		.cfi_endproc
 1412              	.LFE77:
 1413              		.size	shellGetLine, .-shellGetLine
 1414 0316 00BFAFF3 		.section	.text.shell_thread,"ax",%progbits
 1414      0080AFF3 
 1414      0080
 1415              		.align	2
 1416              		.p2align 4,,15
ARM GAS  /tmp/cc7pr4dF.s 			page 26


 1417              		.thumb
 1418              		.thumb_func
 1419              		.type	shell_thread, %function
 1420              	shell_thread:
 1421              	.LFB73:
 1422              		.loc 1 337 0
 1423              		.cfi_startproc
 1424              		@ args = 0, pretend = 0, frame = 88
 1425              		@ frame_needed = 0, uses_anonymous_args = 0
 1426              	.LVL115:
 1427 0000 2DE9F047 		push	{r4, r5, r6, r7, r8, r9, sl, lr}
 1428              	.LCFI16:
 1429              		.cfi_def_cfa_offset 32
 1430              		.cfi_offset 14, -4
 1431              		.cfi_offset 10, -8
 1432              		.cfi_offset 9, -12
 1433              		.cfi_offset 8, -16
 1434              		.cfi_offset 7, -20
 1435              		.cfi_offset 6, -24
 1436              		.cfi_offset 5, -28
 1437              		.cfi_offset 4, -32
 1438              		.loc 1 345 0
 1439 0004 40F20001 		movw	r1, #:lower16:rlist
 1440 0008 C0F20001 		movt	r1, #:upper16:rlist
 1441              		.loc 1 340 0
 1442 000c 0468     		ldr	r4, [r0, #0]
 1443              	.LVL116:
 1444              		.loc 1 345 0
 1445 000e 8A69     		ldr	r2, [r1, #24]
 1446 0010 40F20003 		movw	r3, #:lower16:.LC54
 1447 0014 C0F20003 		movt	r3, #:upper16:.LC54
 1448              		.loc 1 346 0
 1449 0018 40F20001 		movw	r1, #:lower16:.LC55
 1450              		.loc 1 337 0
 1451 001c 98B0     		sub	sp, sp, #96
 1452              	.LCFI17:
 1453              		.cfi_def_cfa_offset 128
 1454              		.loc 1 341 0
 1455 001e 4568     		ldr	r5, [r0, #4]
 1456              	.LVL117:
 1457              		.loc 1 346 0
 1458 0020 C0F20001 		movt	r1, #:upper16:.LC55
 1459              		.loc 1 345 0
 1460 0024 9361     		str	r3, [r2, #24]
 1461              		.loc 1 346 0
 1462 0026 2046     		mov	r0, r4
 1463              	.LVL118:
 1464 0028 FFF7FEFF 		bl	vex_chprintf
 1465              	.LVL119:
 1466              		.loc 1 347 0
 1467 002c 40F20001 		movw	r1, #:lower16:.LC56
 1468 0030 C0F20001 		movt	r1, #:upper16:.LC56
 1469 0034 2046     		mov	r0, r4
 1470 0036 FFF7FEFF 		bl	vex_chprintf
 1471              		.loc 1 348 0
 1472 003a 40F20001 		movw	r1, #:lower16:.LC57
 1473 003e 40F20002 		movw	r2, #:lower16:.LC17
ARM GAS  /tmp/cc7pr4dF.s 			page 27


 1474 0042 40F20003 		movw	r3, #:lower16:.LC31
 1475 0046 C0F20001 		movt	r1, #:upper16:.LC57
 1476 004a C0F20002 		movt	r2, #:upper16:.LC17
 1477 004e C0F20003 		movt	r3, #:upper16:.LC31
 1478 0052 2046     		mov	r0, r4
 1479 0054 FFF7FEFF 		bl	vex_chprintf
 1480              		.loc 1 351 0
 1481 0058 40F20006 		movw	r6, #:lower16:.LC35
 1482 005c 40F20001 		movw	r1, #:lower16:.LC58
 1483 0060 40F20002 		movw	r2, #:lower16:.LC33
 1484 0064 40F20003 		movw	r3, #:lower16:.LC34
 1485 0068 C0F20006 		movt	r6, #:upper16:.LC35
 1486 006c 2046     		mov	r0, r4
 1487 006e C0F20001 		movt	r1, #:upper16:.LC58
 1488 0072 C0F20002 		movt	r2, #:upper16:.LC33
 1489 0076 C0F20003 		movt	r3, #:upper16:.LC34
 1490 007a 0096     		str	r6, [sp, #0]
 1491 007c FFF7FEFF 		bl	vex_chprintf
 1492              	.LBB88:
 1493              	.LBB89:
 1494              		.loc 1 336 0
 1495 0080 7D4E     		ldr	r6, .L155
 1496              	.L152:
 1497              	.LBE89:
 1498              	.LBE88:
 1499              		.loc 1 357 0
 1500 0082 40F20001 		movw	r1, #:lower16:.LC59
 1501 0086 C0F20001 		movt	r1, #:upper16:.LC59
 1502 008a 2046     		mov	r0, r4
 1503 008c FFF7FEFF 		bl	vex_chprintf
 1504              		.loc 1 358 0
 1505 0090 2046     		mov	r0, r4
 1506 0092 02A9     		add	r1, sp, #8
 1507 0094 4022     		movs	r2, #64
 1508 0096 FFF7FEFF 		bl	shellGetLine
 1509 009a 0746     		mov	r7, r0
 1510 009c 0028     		cmp	r0, #0
 1511 009e 33D1     		bne	.L154
 1512              		.loc 1 364 0
 1513 00a0 17A9     		add	r1, sp, #92
 1514 00a2 02A8     		add	r0, sp, #8
 1515 00a4 FFF7FEFF 		bl	_strtok.constprop.5
 1516              		.loc 1 369 0
 1517 00a8 17A9     		add	r1, sp, #92
 1518              		.loc 1 364 0
 1519 00aa 8046     		mov	r8, r0
 1520              	.LVL120:
 1521              		.loc 1 369 0
 1522 00ac 3846     		mov	r0, r7
 1523              	.LVL121:
 1524 00ae FFF7FEFF 		bl	_strtok.constprop.5
 1525              	.LVL122:
 1526 00b2 0346     		mov	r3, r0
 1527 00b4 0028     		cmp	r0, #0
 1528 00b6 3FD0     		beq	.L143
 1529 00b8 3846     		mov	r0, r7
 1530              	.LVL123:
ARM GAS  /tmp/cc7pr4dF.s 			page 28


 1531 00ba 17A9     		add	r1, sp, #92
 1532              		.loc 1 377 0
 1533 00bc 1293     		str	r3, [sp, #72]
 1534              	.LVL124:
 1535              		.loc 1 369 0
 1536 00be FFF7FEFF 		bl	_strtok.constprop.5
 1537              	.LVL125:
 1538 00c2 0346     		mov	r3, r0
 1539 00c4 0028     		cmp	r0, #0
 1540 00c6 7CD0     		beq	.L144
 1541 00c8 3846     		mov	r0, r7
 1542              	.LVL126:
 1543 00ca 17A9     		add	r1, sp, #92
 1544              		.loc 1 377 0
 1545 00cc 1393     		str	r3, [sp, #76]
 1546              	.LVL127:
 1547              		.loc 1 369 0
 1548 00ce FFF7FEFF 		bl	_strtok.constprop.5
 1549              	.LVL128:
 1550 00d2 0346     		mov	r3, r0
 1551 00d4 0028     		cmp	r0, #0
 1552 00d6 77D0     		beq	.L145
 1553 00d8 3846     		mov	r0, r7
 1554              	.LVL129:
 1555 00da 17A9     		add	r1, sp, #92
 1556              		.loc 1 377 0
 1557 00dc 1493     		str	r3, [sp, #80]
 1558              	.LVL130:
 1559              		.loc 1 369 0
 1560 00de FFF7FEFF 		bl	_strtok.constprop.5
 1561              	.LVL131:
 1562 00e2 0346     		mov	r3, r0
 1563 00e4 0028     		cmp	r0, #0
 1564 00e6 72D0     		beq	.L146
 1565 00e8 3846     		mov	r0, r7
 1566              	.LVL132:
 1567 00ea 17A9     		add	r1, sp, #92
 1568              		.loc 1 377 0
 1569 00ec 1593     		str	r3, [sp, #84]
 1570              	.LVL133:
 1571              		.loc 1 369 0
 1572 00ee FFF7FEFF 		bl	_strtok.constprop.5
 1573              	.LVL134:
 1574 00f2 0028     		cmp	r0, #0
 1575 00f4 6ED0     		beq	.L147
 1576              		.loc 1 373 0
 1577 00f6 40F20001 		movw	r1, #:lower16:.LC61
 1578 00fa 2046     		mov	r0, r4
 1579              	.LVL135:
 1580 00fc C0F20001 		movt	r1, #:upper16:.LC61
 1581 0100 FFF7FEFF 		bl	vex_chprintf
 1582              	.LVL136:
 1583              		.loc 1 379 0
 1584 0104 1697     		str	r7, [sp, #88]
 1585 0106 BCE7     		b	.L152
 1586              	.LVL137:
 1587              	.L154:
ARM GAS  /tmp/cc7pr4dF.s 			page 29


 1588              		.loc 1 360 0
 1589 0108 40F20001 		movw	r1, #:lower16:.LC60
 1590 010c 2046     		mov	r0, r4
 1591 010e C0F20001 		movt	r1, #:upper16:.LC60
 1592 0112 FFF7FEFF 		bl	vex_chprintf
 1593              	.L128:
 1594              	.LBB91:
 1595              		.loc 1 418 0
 1596 0116 2023     		movs	r3, #32
 1597              	.LVL138:
 1598              	@ 418 "../convex/cortex/fw/vexshell.c" 1
 1599 0118 83F31188 		msr     BASEPRI, r3
 1600              	@ 0 "" 2
 1601              	.LVL139:
 1602              		.thumb
 1603              	.LBE91:
 1604              		.loc 1 419 0
 1605 011c 40F20000 		movw	r0, #:lower16:.LANCHOR4
 1606 0120 0021     		movs	r1, #0
 1607 0122 C0F20000 		movt	r0, #:upper16:.LANCHOR4
 1608 0126 FFF7FEFF 		bl	chEvtBroadcastFlagsI
 1609              	.LVL140:
 1610              		.loc 1 420 0
 1611 012a 0020     		movs	r0, #0
 1612 012c FFF7FEFF 		bl	chThdExitS
 1613              		.loc 1 423 0
 1614 0130 0020     		movs	r0, #0
 1615 0132 18B0     		add	sp, sp, #96
 1616 0134 BDE8F087 		pop	{r4, r5, r6, r7, r8, r9, sl, pc}
 1617              	.LVL141:
 1618              	.L143:
 1619              		.loc 1 366 0
 1620 0138 8146     		mov	r9, r0
 1621              	.LVL142:
 1622              	.L129:
 1623              		.loc 1 379 0
 1624 013a 0DF1600E 		add	lr, sp, #96
 1625 013e 0020     		movs	r0, #0
 1626              	.LVL143:
 1627 0140 0EEB890C 		add	ip, lr, r9, lsl #2
 1628 0144 4CF8180C 		str	r0, [ip, #-24]
 1629              		.loc 1 381 0
 1630 0148 B8F1000F 		cmp	r8, #0
 1631 014c 99D0     		beq	.L152
 1632              		.loc 1 383 0
 1633 014e 40F20001 		movw	r1, #:lower16:.LC62
 1634 0152 4046     		mov	r0, r8
 1635 0154 C0F20001 		movt	r1, #:upper16:.LC62
 1636 0158 FFF7FEFF 		bl	strcasecmp
 1637 015c 70B9     		cbnz	r0, .L131
 1638              		.loc 1 385 0
 1639 015e B9F1000F 		cmp	r9, #0
 1640 0162 D8D0     		beq	.L128
 1641              	.LVL144:
 1642              	.LBB92:
 1643              	.LBB93:
 1644              		.loc 1 113 0
ARM GAS  /tmp/cc7pr4dF.s 			page 30


 1645 0164 40F20001 		movw	r1, #:lower16:.LC12
 1646 0168 40F20002 		movw	r2, #:lower16:.LC62
 1647 016c 2046     		mov	r0, r4
 1648 016e C0F20001 		movt	r1, #:upper16:.LC12
 1649 0172 C0F20002 		movt	r2, #:upper16:.LC62
 1650 0176 FFF7FEFF 		bl	vex_chprintf
 1651              	.LBE93:
 1652              	.LBE92:
 1653              		.loc 1 388 0
 1654 017a 82E7     		b	.L152
 1655              	.LVL145:
 1656              	.L131:
 1657              		.loc 1 393 0
 1658 017c 40F20001 		movw	r1, #:lower16:.LC63
 1659 0180 4046     		mov	r0, r8
 1660 0182 C0F20001 		movt	r1, #:upper16:.LC63
 1661 0186 FFF7FEFF 		bl	strcasecmp
 1662 018a 30B3     		cbz	r0, .L133
 1663              	.LVL146:
 1664              	.LBB94:
 1665              	.LBB90:
 1666              		.loc 1 313 0
 1667 018c 40F2000A 		movw	sl, #:lower16:.LANCHOR6
 1668 0190 C0F2000A 		movt	sl, #:upper16:.LANCHOR6
 1669 0194 DAF80000 		ldr	r0, [sl, #0]
 1670 0198 5746     		mov	r7, sl
 1671 019a 38B9     		cbnz	r0, .L139
 1672 019c 2CE0     		b	.L135
 1673              	.LVL147:
 1674              	.L138:
 1675              		.loc 1 315 0
 1676 019e 0837     		adds	r7, r7, #8
 1677              	.LVL148:
 1678              		.loc 1 336 0
 1679 01a0 CAEB0703 		rsb	r3, sl, r7
 1680 01a4 9A19     		adds	r2, r3, r6
 1681              		.loc 1 313 0
 1682 01a6 52F8080C 		ldr	r0, [r2, #-8]
 1683 01aa 28B3     		cbz	r0, .L135
 1684              	.LVL149:
 1685              	.L139:
 1686              		.loc 1 314 0
 1687 01ac 4146     		mov	r1, r8
 1688 01ae FFF7FEFF 		bl	strcasecmp
 1689              	.LVL150:
 1690 01b2 0028     		cmp	r0, #0
 1691 01b4 F3D1     		bne	.L138
 1692              	.LVL151:
 1693              	.L153:
 1694              	.LBE90:
 1695              	.LBE94:
 1696              	.LBB95:
 1697              	.LBB96:
 1698              		.loc 1 315 0
 1699 01b6 7F68     		ldr	r7, [r7, #4]
 1700 01b8 2046     		mov	r0, r4
 1701 01ba 4946     		mov	r1, r9
ARM GAS  /tmp/cc7pr4dF.s 			page 31


 1702 01bc 12AA     		add	r2, sp, #72
 1703 01be B847     		blx	r7
 1704 01c0 5FE7     		b	.L152
 1705              	.LVL152:
 1706              	.L144:
 1707              	.LBE96:
 1708              	.LBE95:
 1709              		.loc 1 377 0
 1710 01c2 4FF00109 		mov	r9, #1
 1711 01c6 B8E7     		b	.L129
 1712              	.LVL153:
 1713              	.L145:
 1714 01c8 4FF00209 		mov	r9, #2
 1715 01cc B5E7     		b	.L129
 1716              	.LVL154:
 1717              	.L146:
 1718 01ce 4FF00309 		mov	r9, #3
 1719 01d2 B2E7     		b	.L129
 1720              	.LVL155:
 1721              	.L147:
 1722              		.loc 1 369 0
 1723 01d4 4FF00409 		mov	r9, #4
 1724 01d8 AFE7     		b	.L129
 1725              	.LVL156:
 1726              	.L133:
 1727              		.loc 1 395 0
 1728 01da B9F1000F 		cmp	r9, #0
 1729 01de 1FD0     		beq	.L136
 1730              	.LVL157:
 1731              	.LBB98:
 1732              	.LBB99:
 1733              		.loc 1 113 0
 1734 01e0 40F20001 		movw	r1, #:lower16:.LC12
 1735 01e4 40F20002 		movw	r2, #:lower16:.LC63
 1736 01e8 2046     		mov	r0, r4
 1737 01ea C0F20001 		movt	r1, #:upper16:.LC12
 1738 01ee C0F20002 		movt	r2, #:upper16:.LC63
 1739 01f2 FFF7FEFF 		bl	vex_chprintf
 1740              	.LBE99:
 1741              	.LBE98:
 1742              		.loc 1 398 0
 1743 01f6 44E7     		b	.L152
 1744              	.LVL158:
 1745              	.L135:
 1746              		.loc 1 408 0
 1747 01f8 6DB3     		cbz	r5, .L142
 1748              	.LVL159:
 1749              	.LBB100:
 1750              	.LBB97:
 1751              		.loc 1 313 0
 1752 01fa 2868     		ldr	r0, [r5, #0]
 1753 01fc 58B3     		cbz	r0, .L142
 1754 01fe 2F46     		mov	r7, r5
 1755              		.loc 1 336 0
 1756 0200 05F1080A 		add	sl, r5, #8
 1757 0204 06E0     		b	.L141
 1758              	.LVL160:
ARM GAS  /tmp/cc7pr4dF.s 			page 32


 1759              	.L140:
 1760              		.loc 1 315 0
 1761 0206 0837     		adds	r7, r7, #8
 1762              	.LVL161:
 1763              		.loc 1 336 0
 1764 0208 781B     		subs	r0, r7, r5
 1765 020a 00EB0A01 		add	r1, r0, sl
 1766              		.loc 1 313 0
 1767 020e 51F8080C 		ldr	r0, [r1, #-8]
 1768 0212 00B3     		cbz	r0, .L142
 1769              	.LVL162:
 1770              	.L141:
 1771              		.loc 1 314 0
 1772 0214 4146     		mov	r1, r8
 1773 0216 FFF7FEFF 		bl	strcasecmp
 1774              	.LVL163:
 1775 021a 0028     		cmp	r0, #0
 1776 021c F3D1     		bne	.L140
 1777 021e CAE7     		b	.L153
 1778              	.LVL164:
 1779              	.L136:
 1780              	.LBE97:
 1781              	.LBE100:
 1782              		.loc 1 401 0
 1783 0220 40F20001 		movw	r1, #:lower16:.LC64
 1784 0224 C0F20001 		movt	r1, #:upper16:.LC64
 1785 0228 2046     		mov	r0, r4
 1786 022a FFF7FEFF 		bl	vex_chprintf
 1787              		.loc 1 402 0
 1788 022e 40F20001 		movw	r1, #:lower16:.LANCHOR6
 1789 0232 2046     		mov	r0, r4
 1790 0234 C0F20001 		movt	r1, #:upper16:.LANCHOR6
 1791 0238 FFF7FEFF 		bl	list_commands
 1792              		.loc 1 403 0
 1793 023c 1DB1     		cbz	r5, .L137
 1794              		.loc 1 404 0
 1795 023e 2046     		mov	r0, r4
 1796 0240 2946     		mov	r1, r5
 1797 0242 FFF7FEFF 		bl	list_commands
 1798              	.L137:
 1799              		.loc 1 405 0
 1800 0246 40F20001 		movw	r1, #:lower16:.LC53
 1801 024a 2046     		mov	r0, r4
 1802 024c C0F20001 		movt	r1, #:upper16:.LC53
 1803 0250 FFF7FEFF 		bl	vex_chprintf
 1804 0254 15E7     		b	.L152
 1805              	.L142:
 1806              		.loc 1 410 0
 1807 0256 40F20001 		movw	r1, #:lower16:.LC49
 1808 025a 2046     		mov	r0, r4
 1809 025c C0F20001 		movt	r1, #:upper16:.LC49
 1810 0260 4246     		mov	r2, r8
 1811 0262 FFF7FEFF 		bl	vex_chprintf
 1812              		.loc 1 411 0
 1813 0266 40F20001 		movw	r1, #:lower16:.LC65
 1814 026a 2046     		mov	r0, r4
 1815 026c C0F20001 		movt	r1, #:upper16:.LC65
ARM GAS  /tmp/cc7pr4dF.s 			page 33


 1816 0270 FFF7FEFF 		bl	vex_chprintf
 1817 0274 05E7     		b	.L152
 1818              	.L156:
 1819 0276 00BF     		.align	2
 1820              	.L155:
 1821 0278 08000000 		.word	.LANCHOR6+8
 1822              		.cfi_endproc
 1823              	.LFE73:
 1824              		.size	shell_thread, .-shell_thread
 1825              		.global	shell_terminated
 1826 027c AFF30080 		.section	.rodata
 1827              		.align	2
 1828              		.set	.LANCHOR3,. + 0
 1829              	.LC48:
 1830 0000 20003900 		.ascii	" \0009\000"
 1831              		.section	.rodata.states.7548,"a",%progbits
 1832              		.align	2
 1833              		.set	.LANCHOR2,. + 0
 1834              		.type	states.7548, %object
 1835              		.size	states.7548, 60
 1836              	states.7548:
 1837 0000 48040000 		.word	.LC70
 1838 0004 50040000 		.word	.LC71
 1839 0008 58040000 		.word	.LC72
 1840 000c 64040000 		.word	.LC73
 1841 0010 6C040000 		.word	.LC74
 1842 0014 74040000 		.word	.LC75
 1843 0018 7C040000 		.word	.LC76
 1844 001c 88040000 		.word	.LC77
 1845 0020 90040000 		.word	.LC78
 1846 0024 98040000 		.word	.LC79
 1847 0028 A4040000 		.word	.LC80
 1848 002c AC040000 		.word	.LC81
 1849 0030 B4040000 		.word	.LC82
 1850 0034 BC040000 		.word	.LC83
 1851 0038 C4040000 		.word	.LC84
 1852              		.section	.data.shell_echo,"aw",%progbits
 1853              		.set	.LANCHOR0,. + 0
 1854              		.type	shell_echo, %object
 1855              		.size	shell_echo, 1
 1856              	shell_echo:
 1857 0000 01       		.byte	1
 1858              		.section	.rodata.str1.4,"aMS",%progbits,1
 1859              		.align	2
 1860              	.LC0:
 1861 0000 25732000 		.ascii	"%s \000"
 1862              	.LC1:
 1863 0004 55736167 		.ascii	"Usage:flags [flag] [on|off]\015\012\000"
 1863      653A666C 
 1863      61677320 
 1863      5B666C61 
 1863      675D205B 
 1864 0022 0000     		.space	2
 1865              	.LC2:
 1866 0024 20202020 		.ascii	"      example\015\012\000"
 1866      20206578 
 1866      616D706C 
ARM GAS  /tmp/cc7pr4dF.s 			page 34


 1866      650D0A00 
 1867              	.LC3:
 1868 0034 20202020 		.ascii	"      flags echo on\015\012\000"
 1868      2020666C 
 1868      61677320 
 1868      6563686F 
 1868      206F6E0D 
 1869 004a 0000     		.space	2
 1870              	.LC4:
 1871 004c 6563686F 		.ascii	"echo\000"
 1871      00
 1872 0051 000000   		.space	3
 1873              	.LC5:
 1874 0054 6F6E00   		.ascii	"on\000"
 1875 0057 00       		.space	1
 1876              	.LC6:
 1877 0058 6563686F 		.ascii	"echo is on\015\012\000"
 1877      20697320 
 1877      6F6E0D0A 
 1877      00
 1878 0065 000000   		.space	3
 1879              	.LC7:
 1880 0068 6F666600 		.ascii	"off\000"
 1881              	.LC8:
 1882 006c 6563686F 		.ascii	"echo is off\015\012\000"
 1882      20697320 
 1882      6F66660D 
 1882      0A00
 1883 007a 0000     		.space	2
 1884              	.LC9:
 1885 007c 62756672 		.ascii	"bufr\000"
 1885      00
 1886 0081 000000   		.space	3
 1887              	.LC10:
 1888 0084 62756666 		.ascii	"buffering is on\015\012\000"
 1888      6572696E 
 1888      67206973 
 1888      206F6E0D 
 1888      0A00
 1889 0096 0000     		.space	2
 1890              	.LC11:
 1891 0098 62756666 		.ascii	"buffering is off\015\012\000"
 1891      6572696E 
 1891      67206973 
 1891      206F6666 
 1891      0D0A00
 1892 00ab 00       		.space	1
 1893              	.LC12:
 1894 00ac 55736167 		.ascii	"Usage: %s\015\012\000"
 1894      653A2025 
 1894      730D0A00 
 1895              	.LC13:
 1896 00b8 73797374 		.ascii	"systime\000"
 1896      696D6500 
 1897              	.LC14:
 1898 00c0 256C750D 		.ascii	"%lu\015\012\000"
 1898      0A00
ARM GAS  /tmp/cc7pr4dF.s 			page 35


 1899 00c6 0000     		.space	2
 1900              	.LC15:
 1901 00c8 696E666F 		.ascii	"info\000"
 1901      00
 1902 00cd 000000   		.space	3
 1903              	.LC16:
 1904 00d0 4B65726E 		.ascii	"Kernel:       %s\015\012\000"
 1904      656C3A20 
 1904      20202020 
 1904      20202573 
 1904      0D0A00
 1905 00e3 00       		.space	1
 1906              	.LC17:
 1907 00e4 322E362E 		.ascii	"2.6.2\000"
 1907      3200
 1908 00ea 0000     		.space	2
 1909              	.LC18:
 1910 00ec 436F6D70 		.ascii	"Compiler:     %s\015\012\000"
 1910      696C6572 
 1910      3A202020 
 1910      20202573 
 1910      0D0A00
 1911 00ff 00       		.space	1
 1912              	.LC19:
 1913 0100 47434320 		.ascii	"GCC 4.6.3\000"
 1913      342E362E 
 1913      3300
 1914 010a 0000     		.space	2
 1915              	.LC20:
 1916 010c 41726368 		.ascii	"Architecture: %s\015\012\000"
 1916      69746563 
 1916      74757265 
 1916      3A202573 
 1916      0D0A00
 1917 011f 00       		.space	1
 1918              	.LC21:
 1919 0120 41524D76 		.ascii	"ARMv7-M\000"
 1919      372D4D00 
 1920              	.LC22:
 1921 0128 436F7265 		.ascii	"Core Variant: %s\015\012\000"
 1921      20566172 
 1921      69616E74 
 1921      3A202573 
 1921      0D0A00
 1922 013b 00       		.space	1
 1923              	.LC23:
 1924 013c 436F7274 		.ascii	"Cortex-M3\000"
 1924      65782D4D 
 1924      3300
 1925 0146 0000     		.space	2
 1926              	.LC24:
 1927 0148 506F7274 		.ascii	"Port Info:    %s\015\012\000"
 1927      20496E66 
 1927      6F3A2020 
 1927      20202573 
 1927      0D0A00
 1928 015b 00       		.space	1
ARM GAS  /tmp/cc7pr4dF.s 			page 36


 1929              	.LC25:
 1930 015c 41647661 		.ascii	"Advanced kernel mode\000"
 1930      6E636564 
 1930      206B6572 
 1930      6E656C20 
 1930      6D6F6465 
 1931 0171 000000   		.space	3
 1932              	.LC26:
 1933 0174 506C6174 		.ascii	"Platform:     %s\015\012\000"
 1933      666F726D 
 1933      3A202020 
 1933      20202573 
 1933      0D0A00
 1934 0187 00       		.space	1
 1935              	.LC27:
 1936 0188 53544D33 		.ascii	"STM32F10x Performance Line High Density\000"
 1936      32463130 
 1936      78205065 
 1936      72666F72 
 1936      6D616E63 
 1937              	.LC28:
 1938 01b0 426F6172 		.ascii	"Board:        %s\015\012\000"
 1938      643A2020 
 1938      20202020 
 1938      20202573 
 1938      0D0A00
 1939 01c3 00       		.space	1
 1940              	.LC29:
 1941 01c4 56455820 		.ascii	"VEX CORTEX\000"
 1941      434F5254 
 1941      455800
 1942 01cf 00       		.space	1
 1943              	.LC30:
 1944 01d0 436F6E56 		.ascii	"ConVEX:       %s\015\012\000"
 1944      45583A20 
 1944      20202020 
 1944      20202573 
 1944      0D0A00
 1945 01e3 00       		.space	1
 1946              	.LC31:
 1947 01e4 312E302E 		.ascii	"1.0.4\000"
 1947      3400
 1948 01ea 0000     		.space	2
 1949              	.LC32:
 1950 01ec 4275696C 		.ascii	"Build time:   %s%s%s\015\012\000"
 1950      64207469 
 1950      6D653A20 
 1950      20202573 
 1950      25732573 
 1951 0203 00       		.space	1
 1952              	.LC33:
 1953 0204 4A616E20 		.ascii	"Jan 27 2014\000"
 1953      32372032 
 1953      30313400 
 1954              	.LC34:
 1955 0210 202D2000 		.ascii	" - \000"
 1956              	.LC35:
ARM GAS  /tmp/cc7pr4dF.s 			page 37


 1957 0214 32303A34 		.ascii	"20:41:18\000"
 1957      313A3138 
 1957      00
 1958 021d 000000   		.space	3
 1959              	.LC36:
 1960 0220 55736167 		.ascii	"Usage: reboot\015\012\000"
 1960      653A2072 
 1960      65626F6F 
 1960      740D0A00 
 1961              	.LC37:
 1962 0230 7265626F 		.ascii	"rebooting...\015\012\000"
 1962      6F74696E 
 1962      672E2E2E 
 1962      0D0A00
 1963 023f 00       		.space	1
 1964              	.LC38:
 1965 0240 55736167 		.ascii	"Usage: threads\015\012\000"
 1965      653A2074 
 1965      68726561 
 1965      64730D0A 
 1965      00
 1966 0251 000000   		.space	3
 1967              	.LC39:
 1968 0254 20202020 		.ascii	"            name addr     stack    prio refs     st"
 1968      20202020 
 1968      20202020 
 1968      6E616D65 
 1968      20616464 
 1969 0287 61746520 		.ascii	"ate time\015\012\000"
 1969      74696D65 
 1969      0D0A00
 1970 0292 0000     		.space	2
 1971              	.LC40:
 1972 0294 25313673 		.ascii	"%16s \000"
 1972      2000
 1973 029a 0000     		.space	2
 1974              	.LC41:
 1975 029c 20202020 		.ascii	"                 \000"
 1975      20202020 
 1975      20202020 
 1975      20202020 
 1975      2000
 1976 02ae 0000     		.space	2
 1977              	.LC42:
 1978 02b0 252E386C 		.ascii	"%.8lx %.8lx %4lu %4lu %9s %lu\015\012\000"
 1978      7820252E 
 1978      386C7820 
 1978      25346C75 
 1978      2025346C 
 1979              	.LC43:
 1980 02d0 55736167 		.ascii	"Usage: mem\015\012\000"
 1980      653A206D 
 1980      656D0D0A 
 1980      00
 1981 02dd 000000   		.space	3
 1982              	.LC44:
 1983 02e0 636F7265 		.ascii	"core free memory : %u bytes\015\012\000"
ARM GAS  /tmp/cc7pr4dF.s 			page 38


 1983      20667265 
 1983      65206D65 
 1983      6D6F7279 
 1983      203A2025 
 1984 02fe 0000     		.space	2
 1985              	.LC45:
 1986 0300 68656170 		.ascii	"heap fragments   : %u\015\012\000"
 1986      20667261 
 1986      676D656E 
 1986      74732020 
 1986      203A2025 
 1987              	.LC46:
 1988 0318 68656170 		.ascii	"heap free total  : %u bytes\015\012\000"
 1988      20667265 
 1988      6520746F 
 1988      74616C20 
 1988      203A2025 
 1989 0336 0000     		.space	2
 1990              	.LC47:
 1991 0338 666C6173 		.ascii	"flash used       : %lu (0x%05X) bytes\015\012\000"
 1991      68207573 
 1991      65642020 
 1991      20202020 
 1991      203A2025 
 1992              	.LC49:
 1993 0360 257300   		.ascii	"%s\000"
 1994 0363 00       		.space	1
 1995              	.LC50:
 1996 0364 5E4400   		.ascii	"^D\000"
 1997 0367 00       		.space	1
 1998              	.LC51:
 1999 0368 256300   		.ascii	"%c\000"
 2000 036b 00       		.space	1
 2001              	.LC52:
 2002 036c 25632025 		.ascii	"%c %c\000"
 2002      6300
 2003 0372 0000     		.space	2
 2004              	.LC53:
 2005 0374 0D0A00   		.ascii	"\015\012\000"
 2006 0377 00       		.space	1
 2007              	.LC54:
 2008 0378 7368656C 		.ascii	"shell\000"
 2008      6C00
 2009 037e 0000     		.space	2
 2010              	.LC55:
 2011 0380 1B5B324A 		.ascii	"\033[2J\000"
 2011      00
 2012 0385 000000   		.space	3
 2013              	.LC56:
 2014 0388 0D0A5645 		.ascii	"\015\012VEX-Cortex Shell V1.00\015\012\000"
 2014      582D436F 
 2014      72746578 
 2014      20536865 
 2014      6C6C2056 
 2015 03a3 00       		.space	1
 2016              	.LC57:
 2017 03a4 4B65726E 		.ascii	"Kernel:%s  ConVEX:%s  \000"
ARM GAS  /tmp/cc7pr4dF.s 			page 39


 2017      656C3A25 
 2017      73202043 
 2017      6F6E5645 
 2017      583A2573 
 2018 03bb 00       		.space	1
 2019              	.LC58:
 2020 03bc 4275696C 		.ascii	"Build time:%s%s%s\015\012\000"
 2020      64207469 
 2020      6D653A25 
 2020      73257325 
 2020      730D0A00 
 2021              	.LC59:
 2022 03d0 63683E20 		.ascii	"ch> \000"
 2022      00
 2023 03d5 000000   		.space	3
 2024              	.LC60:
 2025 03d8 0D0A6C6F 		.ascii	"\015\012logout\000"
 2025      676F7574 
 2025      00
 2026 03e1 000000   		.space	3
 2027              	.LC61:
 2028 03e4 746F6F20 		.ascii	"too many arguments\015\012\000"
 2028      6D616E79 
 2028      20617267 
 2028      756D656E 
 2028      74730D0A 
 2029 03f9 000000   		.space	3
 2030              	.LC62:
 2031 03fc 65786974 		.ascii	"exit\000"
 2031      00
 2032 0401 000000   		.space	3
 2033              	.LC63:
 2034 0404 68656C70 		.ascii	"help\000"
 2034      00
 2035 0409 000000   		.space	3
 2036              	.LC64:
 2037 040c 436F6D6D 		.ascii	"Commands: help exit \000"
 2037      616E6473 
 2037      3A206865 
 2037      6C702065 
 2037      78697420 
 2038 0421 000000   		.space	3
 2039              	.LC65:
 2040 0424 203F0D0A 		.ascii	" ?\015\012\000"
 2040      00
 2041 0429 000000   		.space	3
 2042              	.LC66:
 2043 042c 6D656D00 		.ascii	"mem\000"
 2044              	.LC67:
 2045 0430 74687265 		.ascii	"threads\000"
 2045      61647300 
 2046              	.LC68:
 2047 0438 7265626F 		.ascii	"reboot\000"
 2047      6F7400
 2048 043f 00       		.space	1
 2049              	.LC69:
 2050 0440 666C6167 		.ascii	"flags\000"
ARM GAS  /tmp/cc7pr4dF.s 			page 40


 2050      7300
 2051 0446 0000     		.space	2
 2052              	.LC70:
 2053 0448 52454144 		.ascii	"READY\000"
 2053      5900
 2054 044e 0000     		.space	2
 2055              	.LC71:
 2056 0450 43555252 		.ascii	"CURRENT\000"
 2056      454E5400 
 2057              	.LC72:
 2058 0458 53555350 		.ascii	"SUSPENDED\000"
 2058      454E4445 
 2058      4400
 2059 0462 0000     		.space	2
 2060              	.LC73:
 2061 0464 57545345 		.ascii	"WTSEM\000"
 2061      4D00
 2062 046a 0000     		.space	2
 2063              	.LC74:
 2064 046c 57544D54 		.ascii	"WTMTX\000"
 2064      5800
 2065 0472 0000     		.space	2
 2066              	.LC75:
 2067 0474 5754434F 		.ascii	"WTCOND\000"
 2067      4E4400
 2068 047b 00       		.space	1
 2069              	.LC76:
 2070 047c 534C4545 		.ascii	"SLEEPING\000"
 2070      50494E47 
 2070      00
 2071 0485 000000   		.space	3
 2072              	.LC77:
 2073 0488 57544558 		.ascii	"WTEXIT\000"
 2073      495400
 2074 048f 00       		.space	1
 2075              	.LC78:
 2076 0490 57544F52 		.ascii	"WTOREVT\000"
 2076      45565400 
 2077              	.LC79:
 2078 0498 5754414E 		.ascii	"WTANDEVT\000"
 2078      44455654 
 2078      00
 2079 04a1 000000   		.space	3
 2080              	.LC80:
 2081 04a4 534E444D 		.ascii	"SNDMSGQ\000"
 2081      53475100 
 2082              	.LC81:
 2083 04ac 534E444D 		.ascii	"SNDMSG\000"
 2083      534700
 2084 04b3 00       		.space	1
 2085              	.LC82:
 2086 04b4 57544D53 		.ascii	"WTMSG\000"
 2086      4700
 2087 04ba 0000     		.space	2
 2088              	.LC83:
 2089 04bc 57545155 		.ascii	"WTQUEUE\000"
 2089      45554500 
ARM GAS  /tmp/cc7pr4dF.s 			page 41


 2090              	.LC84:
 2091 04c4 46494E41 		.ascii	"FINAL\000"
 2091      4C00
 2092 04ca 0000     		.section	.bss.history.7611,"aw",%nobits
 2093              		.align	2
 2094              		.set	.LANCHOR5,. + 0
 2095              		.type	history.7611, %object
 2096              		.size	history.7611, 64
 2097              	history.7611:
 2098 0000 00000000 		.space	64
 2098      00000000 
 2098      00000000 
 2098      00000000 
 2098      00000000 
 2099              		.section	.data.shell_bufr,"aw",%progbits
 2100              		.set	.LANCHOR1,. + 0
 2101              		.type	shell_bufr, %object
 2102              		.size	shell_bufr, 1
 2103              	shell_bufr:
 2104 0000 01       		.byte	1
 2105              		.section	.bss.shell_terminated,"aw",%nobits
 2106              		.align	2
 2107              		.set	.LANCHOR4,. + 0
 2108              		.type	shell_terminated, %object
 2109              		.size	shell_terminated, 4
 2110              	shell_terminated:
 2111 0000 00000000 		.space	4
 2112              		.section	.data.local_commands,"aw",%progbits
 2113              		.align	2
 2114              		.set	.LANCHOR6,. + 0
 2115              		.type	local_commands, %object
 2116              		.size	local_commands, 56
 2117              	local_commands:
 2118 0000 C8000000 		.word	.LC15
 2119 0004 00000000 		.word	cmd_info
 2120 0008 B8000000 		.word	.LC13
 2121 000c 00000000 		.word	cmd_systime
 2122 0010 2C040000 		.word	.LC66
 2123 0014 00000000 		.word	cmd_mem
 2124 0018 30040000 		.word	.LC67
 2125 001c 00000000 		.word	cmd_threads
 2126 0020 38040000 		.word	.LC68
 2127 0024 00000000 		.word	cmd_reboot
 2128 0028 40040000 		.word	.LC69
 2129 002c 00000000 		.word	cmd_flags
 2130 0030 00000000 		.word	0
 2131 0034 00000000 		.word	0
 2132              		.text
 2133              	.Letext0:
 2134              		.file 4 "/opt/pros/toolchain/bin/../lib/gcc/arm-none-eabi/4.6.3/include/stddef.h"
 2135              		.file 5 "/opt/pros/toolchain/bin/../lib/gcc/arm-none-eabi/4.6.3/../../../../arm-none-eabi/include/
 2136              		.file 6 "../ChibiOS_2.6.2/os/ports/GCC/ARMCMx/chtypes.h"
 2137              		.file 7 "../ChibiOS_2.6.2/os/kernel/include/chlists.h"
 2138              		.file 8 "../ChibiOS_2.6.2/os/kernel/include/chthreads.h"
 2139              		.file 9 "../ChibiOS_2.6.2/os/ports/GCC/ARMCMx/chcore_v7m.h"
 2140              		.file 10 "../ChibiOS_2.6.2/os/kernel/include/chvt.h"
 2141              		.file 11 "../ChibiOS_2.6.2/os/kernel/include/chschd.h"
ARM GAS  /tmp/cc7pr4dF.s 			page 42


 2142              		.file 12 "../ChibiOS_2.6.2/os/kernel/include/chmtx.h"
 2143              		.file 13 "../ChibiOS_2.6.2/os/kernel/include/chevents.h"
 2144              		.file 14 "../ChibiOS_2.6.2/os/kernel/include/chstreams.h"
 2145              		.file 15 "../convex/cortex/fw/vexcompat.h"
 2146              		.file 16 "../convex/cortex/fw/vexdigital.h"
 2147              		.file 17 "../convex/cortex/fw/vexime.h"
 2148              		.file 18 "../convex/cortex/fw/vexshell.h"