ARM GAS  /tmp/ccSyXJsl.s 			page 1


   1              		.syntax unified
   2              		.cpu cortex-m3
   3              		.fpu softvfp
   4              		.eabi_attribute 20, 1
   5              		.eabi_attribute 21, 1
   6              		.eabi_attribute 23, 3
   7              		.eabi_attribute 24, 1
   8              		.eabi_attribute 25, 1
   9              		.eabi_attribute 26, 1
  10              		.eabi_attribute 30, 2
  11              		.eabi_attribute 34, 1
  12              		.eabi_attribute 18, 4
  13              		.thumb
  14              		.file	"vexsensor.c"
  15              		.text
  16              	.Ltext0:
  17              		.cfi_sections	.debug_frame
  18              		.section	.text.vexSensorIsAnalog,"ax",%progbits
  19              		.align	2
  20              		.p2align 4,,15
  21              		.global	vexSensorIsAnalog
  22              		.thumb
  23              		.thumb_func
  24              		.type	vexSensorIsAnalog, %function
  25              	vexSensorIsAnalog:
  26              	.LFB63:
  27              		.file 1 "../convex/cortex/fw/vexsensor.c"
  28              		.loc 1 63 0
  29              		.cfi_startproc
  30              		@ args = 0, pretend = 0, frame = 0
  31              		@ frame_needed = 0, uses_anonymous_args = 0
  32              		@ link register save eliminated.
  33              	.LVL0:
  34              		.loc 1 62 0
  35 0000 C0B2     		uxtb	r0, r0
  36              		.loc 1 68 0
  37 0002 0728     		cmp	r0, #7
  38 0004 8CBF     		ite	hi
  39 0006 0020     		movhi	r0, #0
  40              	.LVL1:
  41 0008 0120     		movls	r0, #1
  42 000a 7047     		bx	lr
  43              		.cfi_endproc
  44              	.LFE63:
  45              		.size	vexSensorIsAnalog, .-vexSensorIsAnalog
  46 000c AFF30080 		.section	.text.vexSensorValueGet,"ax",%progbits
  47              		.align	2
  48              		.p2align 4,,15
  49              		.global	vexSensorValueGet
  50              		.thumb
  51              		.thumb_func
  52              		.type	vexSensorValueGet, %function
  53              	vexSensorValueGet:
  54              	.LFB64:
  55              		.loc 1 79 0
  56              		.cfi_startproc
  57              		@ args = 0, pretend = 0, frame = 0
ARM GAS  /tmp/ccSyXJsl.s 			page 2


  58              		@ frame_needed = 0, uses_anonymous_args = 0
  59              	.LVL2:
  60              		.loc 1 80 0
  61 0000 0728     		cmp	r0, #7
  62              		.loc 1 79 0
  63 0002 10B5     		push	{r4, lr}
  64              	.LCFI0:
  65              		.cfi_def_cfa_offset 8
  66              		.cfi_offset 14, -4
  67              		.cfi_offset 4, -8
  68              		.loc 1 80 0
  69 0004 19DD     		ble	.L16
  70              		.loc 1 83 0
  71 0006 1328     		cmp	r0, #19
  72 0008 08DD     		ble	.L17
  73              		.loc 1 119 0
  74 000a 1B28     		cmp	r0, #27
  75 000c 01DD     		ble	.L18
  76              		.loc 1 125 0
  77 000e 0020     		movs	r0, #0
  78              	.LVL3:
  79              		.loc 1 126 0
  80 0010 10BD     		pop	{r4, pc}
  81              	.LVL4:
  82              	.L18:
  83              	.LBB2:
  84              		.loc 1 122 0
  85 0012 1438     		subs	r0, r0, #20
  86              	.LVL5:
  87              	.LBE2:
  88              		.loc 1 126 0
  89 0014 BDE81040 		pop	{r4, lr}
  90              	.LBB3:
  91              		.loc 1 122 0
  92 0018 FFF7FEBF 		b	vexImeGetCount
  93              	.LVL6:
  94              	.L17:
  95              	.LBE3:
  96              	.LBB4:
  97              		.loc 1 86 0
  98 001c A0F10803 		sub	r3, r0, #8
  99              	.LVL7:
 100              		.loc 1 87 0
 101 0020 5CB2     		sxtb	r4, r3
 102 0022 2046     		mov	r0, r4
 103              	.LVL8:
 104 0024 FFF7FEFF 		bl	vexDigitalTypeGet
 105              	.LVL9:
 106              		.loc 1 89 0
 107 0028 0138     		subs	r0, r0, #1
 108              	.LVL10:
 109 002a 0728     		cmp	r0, #7
 110 002c 14D8     		bhi	.L13
 111 002e DFE800F0 		tbb	[pc, r0]
 112              	.L12:
 113 0032 07       		.byte	(.L11-.L12)/2
 114 0033 07       		.byte	(.L11-.L12)/2
ARM GAS  /tmp/ccSyXJsl.s 			page 3


 115 0034 0B       		.byte	(.L8-.L12)/2
 116 0035 1C       		.byte	(.L9-.L12)/2
 117 0036 15       		.byte	(.L10-.L12)/2
 118 0037 13       		.byte	(.L13-.L12)/2
 119 0038 13       		.byte	(.L13-.L12)/2
 120 0039 07       		.byte	(.L11-.L12)/2
 121              		.align	1
 122              	.LVL11:
 123              	.L16:
 124              	.LBE4:
 125              		.loc 1 81 0
 126 003a FFF7FEFF 		bl	vexAdcGet
 127              	.LVL12:
 128 003e 10BD     		pop	{r4, pc}
 129              	.L11:
 130              	.LBB5:
 131              		.loc 1 100 0
 132 0040 2046     		mov	r0, r4
 133 0042 FFF7FEFF 		bl	vexDigitalPinGet
 134 0046 10BD     		pop	{r4, pc}
 135              	.L8:
 136              		.loc 1 103 0
 137 0048 2046     		mov	r0, r4
 138 004a FFF7FEFF 		bl	vexDigitalChannelGet
 139              	.LVL13:
 140              		.loc 1 104 0
 141 004e 00B2     		sxth	r0, r0
 142              	.LBE5:
 143              		.loc 1 126 0
 144 0050 BDE81040 		pop	{r4, lr}
 145              	.LBB6:
 146              		.loc 1 104 0
 147 0054 FFF7FEBF 		b	vexEncoderGet
 148              	.LVL14:
 149              	.L13:
 150              		.loc 1 125 0
 151 0058 0020     		movs	r0, #0
 152 005a 10BD     		pop	{r4, pc}
 153              	.L10:
 154              		.loc 1 111 0
 155 005c 2046     		mov	r0, r4
 156 005e FFF7FEFF 		bl	vexDigitalChannelGet
 157              	.LVL15:
 158              		.loc 1 112 0
 159 0062 C0B2     		uxtb	r0, r0
 160              	.LVL16:
 161 0064 FFF7FEFF 		bl	vexSonarGetInch
 162 0068 10BD     		pop	{r4, pc}
 163              	.L9:
 164              		.loc 1 107 0
 165 006a 2046     		mov	r0, r4
 166 006c FFF7FEFF 		bl	vexDigitalChannelGet
 167              	.LVL17:
 168              		.loc 1 108 0
 169 0070 C0B2     		uxtb	r0, r0
 170              	.LVL18:
 171 0072 FFF7FEFF 		bl	vexSonarGetCm
ARM GAS  /tmp/ccSyXJsl.s 			page 4


 172 0076 10BD     		pop	{r4, pc}
 173              	.LBE6:
 174              		.cfi_endproc
 175              	.LFE64:
 176              		.size	vexSensorValueGet, .-vexSensorValueGet
 177 0078 AFF30080 		.section	.text.vexSensorValueSet,"ax",%progbits
 177      AFF30080 
 178              		.align	2
 179              		.p2align 4,,15
 180              		.global	vexSensorValueSet
 181              		.thumb
 182              		.thumb_func
 183              		.type	vexSensorValueSet, %function
 184              	vexSensorValueSet:
 185              	.LFB65:
 186              		.loc 1 138 0
 187              		.cfi_startproc
 188              		@ args = 0, pretend = 0, frame = 0
 189              		@ frame_needed = 0, uses_anonymous_args = 0
 190              	.LVL19:
 191              		.loc 1 139 0
 192 0000 0728     		cmp	r0, #7
 193              		.loc 1 138 0
 194 0002 38B5     		push	{r3, r4, r5, lr}
 195              	.LCFI1:
 196              		.cfi_def_cfa_offset 16
 197              		.cfi_offset 14, -4
 198              		.cfi_offset 5, -8
 199              		.cfi_offset 4, -12
 200              		.cfi_offset 3, -16
 201              		.loc 1 138 0
 202 0004 0C46     		mov	r4, r1
 203              		.loc 1 139 0
 204 0006 03DD     		ble	.L19
 205              		.loc 1 142 0
 206 0008 1328     		cmp	r0, #19
 207 000a 02DD     		ble	.L24
 208              		.loc 1 172 0
 209 000c 1B28     		cmp	r0, #27
 210 000e 12DD     		ble	.L25
 211              	.LVL20:
 212              	.L19:
 213 0010 38BD     		pop	{r3, r4, r5, pc}
 214              	.LVL21:
 215              	.L24:
 216              	.LBB7:
 217              		.loc 1 145 0
 218 0012 0838     		subs	r0, r0, #8
 219              	.LVL22:
 220              		.loc 1 146 0
 221 0014 45B2     		sxtb	r5, r0
 222 0016 2846     		mov	r0, r5
 223              	.LVL23:
 224 0018 FFF7FEFF 		bl	vexDigitalTypeGet
 225              	.LVL24:
 226              		.loc 1 148 0
 227 001c 0228     		cmp	r0, #2
ARM GAS  /tmp/ccSyXJsl.s 			page 5


 228 001e 0FD0     		beq	.L22
 229 0020 0328     		cmp	r0, #3
 230 0022 F5D1     		bne	.L19
 231              		.loc 1 160 0
 232 0024 2846     		mov	r0, r5
 233              	.LVL25:
 234 0026 FFF7FEFF 		bl	vexDigitalChannelGet
 235              	.LVL26:
 236              		.loc 1 161 0
 237 002a 2146     		mov	r1, r4
 238 002c 00B2     		sxth	r0, r0
 239              	.LBE7:
 240              		.loc 1 179 0
 241 002e BDE83840 		pop	{r3, r4, r5, lr}
 242              	.LBB8:
 243              		.loc 1 161 0
 244 0032 FFF7FEBF 		b	vexEncoderSet
 245              	.LVL27:
 246              	.L25:
 247              	.LBE8:
 248              	.LBB9:
 249              		.loc 1 175 0
 250 0036 1438     		subs	r0, r0, #20
 251              	.LVL28:
 252              	.LBE9:
 253              		.loc 1 179 0
 254 0038 BDE83840 		pop	{r3, r4, r5, lr}
 255              	.LBB10:
 256              		.loc 1 175 0
 257 003c FFF7FEBF 		b	vexImeSetCount
 258              	.LVL29:
 259              	.L22:
 260              	.LBE10:
 261              	.LBB11:
 262              		.loc 1 157 0
 263 0040 2846     		mov	r0, r5
 264              	.LVL30:
 265 0042 E1B2     		uxtb	r1, r4
 266              	.LBE11:
 267              		.loc 1 179 0
 268 0044 BDE83840 		pop	{r3, r4, r5, lr}
 269              	.LBB12:
 270              		.loc 1 157 0
 271 0048 FFF7FEBF 		b	vexDigitalPinSet
 272              	.LBE12:
 273              		.cfi_endproc
 274              	.LFE65:
 275              		.size	vexSensorValueSet, .-vexSensorValueSet
 276 004c AFF30080 		.text
 277              	.Letext0:
 278              		.file 2 "/opt/pros/toolchain/bin/../lib/gcc/arm-none-eabi/4.6.3/../../../../arm-none-eabi/include/
 279              		.file 3 "../ChibiOS_2.6.2/os/ports/GCC/ARMCMx/chtypes.h"
 280              		.file 4 "../convex/cortex/fw/vexdigital.h"
 281              		.file 5 "../convex/cortex/fw/vexconfig.h"
 282              		.file 6 "../convex/cortex/fw/vexsensor.h"
 283              		.file 7 "../ChibiOS_2.6.2/os/ports/common/ARMCMx/CMSIS/include/core_cm3.h"