ARM GAS  /tmp/ccPmbHTh.s 			page 1


   1              		.syntax unified
   2              		.cpu cortex-m3
   3              		.fpu softvfp
   4              		.eabi_attribute 20, 1
   5              		.eabi_attribute 21, 1
   6              		.eabi_attribute 23, 3
   7              		.eabi_attribute 24, 1
   8              		.eabi_attribute 25, 1
   9              		.eabi_attribute 26, 1
  10              		.eabi_attribute 30, 2
  11              		.eabi_attribute 34, 1
  12              		.eabi_attribute 18, 4
  13              		.thumb
  14              		.file	"vexuser.c"
  15              		.text
  16              	.Ltext0:
  17              		.cfi_sections	.debug_frame
  18              		.section	.text.GetArmPot,"ax",%progbits
  19              		.align	2
  20              		.p2align 4,,15
  21              		.thumb
  22              		.thumb_func
  23              		.type	GetArmPot, %function
  24              	GetArmPot:
  25              	.LFB67:
  26              		.file 1 "arm.c"
  27              		.loc 1 26 0
  28              		.cfi_startproc
  29              		@ args = 0, pretend = 0, frame = 0
  30              		@ frame_needed = 0, uses_anonymous_args = 0
  31 0000 10B5     		push	{r4, lr}
  32              	.LCFI0:
  33              		.cfi_def_cfa_offset 8
  34              		.cfi_offset 14, -4
  35              		.cfi_offset 4, -8
  36              		.loc 1 27 0
  37 0002 0220     		movs	r0, #2
  38 0004 FFF7FEFF 		bl	vexAdcGet
  39 0008 0446     		mov	r4, r0
  40 000a 0720     		movs	r0, #7
  41 000c FFF7FEFF 		bl	vexAdcGet
  42 0010 2418     		adds	r4, r4, r0
  43 0012 04EBD474 		add	r4, r4, r4, lsr #31
  44              		.loc 1 28 0
  45 0016 44F34F00 		sbfx	r0, r4, #1, #16
  46 001a 10BD     		pop	{r4, pc}
  47              		.cfi_endproc
  48              	.LFE67:
  49              		.size	GetArmPot, .-GetArmPot
  50              		.global	__aeabi_i2d
  51              		.global	__aeabi_ddiv
  52 001c AFF30080 		.section	.text.autonSelect,"ax",%progbits
  53              		.align	2
  54              		.p2align 4,,15
  55              		.global	autonSelect
  56              		.thumb
  57              		.thumb_func
ARM GAS  /tmp/ccPmbHTh.s 			page 2


  58              		.type	autonSelect, %function
  59              	autonSelect:
  60              	.LFB80:
  61              		.file 2 "auton.c"
  62              		.loc 2 302 0
  63              		.cfi_startproc
  64              		@ args = 0, pretend = 0, frame = 8
  65              		@ frame_needed = 0, uses_anonymous_args = 0
  66              	.LVL0:
  67 0000 2DE9F04F 		push	{r4, r5, r6, r7, r8, r9, sl, fp, lr}
  68              	.LCFI1:
  69              		.cfi_def_cfa_offset 36
  70              		.cfi_offset 14, -4
  71              		.cfi_offset 11, -8
  72              		.cfi_offset 10, -12
  73              		.cfi_offset 9, -16
  74              		.cfi_offset 8, -20
  75              		.cfi_offset 7, -24
  76              		.cfi_offset 6, -28
  77              		.cfi_offset 5, -32
  78              		.cfi_offset 4, -36
  79              		.loc 2 309 0
  80 0004 40F20000 		movw	r0, #:lower16:.LC0
  81              	.LVL1:
  82              		.loc 2 302 0
  83 0008 85B0     		sub	sp, sp, #20
  84              	.LCFI2:
  85              		.cfi_def_cfa_offset 56
  86              		.loc 2 309 0
  87 000a 0121     		movs	r1, #1
  88 000c C0F20000 		movt	r0, #:upper16:.LC0
  89 0010 FFF7FEFF 		bl	vexTaskRegisterPersistant
  90              		.loc 2 311 0
  91 0014 0B20     		movs	r0, #11
  92 0016 0021     		movs	r1, #0
  93 0018 FFF7FEFF 		bl	vexDigitalPinSet
  94              	.LVL2:
  95              		.loc 2 319 0
  96 001c FFF7FEFF 		bl	vexControllerCompetitonState
  97 0020 40F20006 		movw	r6, #:lower16:.LANCHOR1
  98 0024 40F20008 		movw	r8, #:lower16:.LANCHOR3
  99              		.loc 2 313 0
 100 0028 0025     		movs	r5, #0
 101              	.LVL3:
 102 002a 40F20009 		movw	r9, #:lower16:.LANCHOR0
 103 002e C0F20006 		movt	r6, #:upper16:.LANCHOR1
 104 0032 40F20007 		movw	r7, #:lower16:.LANCHOR2
 105 0036 C0F20008 		movt	r8, #:upper16:.LANCHOR3
 106              		.loc 2 319 0
 107 003a 0306     		lsls	r3, r0, #24
 108              		.loc 2 305 0
 109 003c 2C46     		mov	r4, r5
 110              	.LVL4:
 111 003e C0F20009 		movt	r9, #:upper16:.LANCHOR0
 112 0042 C0F20007 		movt	r7, #:upper16:.LANCHOR2
 113              		.loc 2 326 0
 114 0046 B346     		mov	fp, r6
ARM GAS  /tmp/ccPmbHTh.s 			page 3


 115 0048 C246     		mov	sl, r8
 116              		.loc 2 319 0
 117 004a 46D5     		bpl	.L3
 118              	.LVL5:
 119              	.L16:
 120              		.loc 2 321 0
 121 004c C4F38001 		ubfx	r1, r4, #2, #1
 122 0050 0A20     		movs	r0, #10
 123 0052 FFF7FEFF 		bl	vexDigitalPinSet
 124              		.loc 2 323 0
 125 0056 FFF7FEFF 		bl	vexSpiGetMainBattery
 126 005a FFF7FEFF 		bl	__aeabi_i2d
 127 005e 30A3     		adr	r3, .L17
 128 0060 D3E90023 		ldrd	r2, [r3]
 129 0064 FFF7FEFF 		bl	__aeabi_ddiv
 130 0068 40F20002 		movw	r2, #:lower16:.LC1
 131 006c CDE90001 		strd	r0, [sp]
 132 0070 0020     		movs	r0, #0
 133 0072 0146     		mov	r1, r0
 134 0074 C0F20002 		movt	r2, #:upper16:.LC1
 135 0078 FFF7FEFF 		bl	vexLcdPrintf
 136              		.loc 2 326 0
 137 007c B8F90020 		ldrsh	r2, [r8, #0]
 138 0080 B6F90030 		ldrsh	r3, [r6, #0]
 139 0084 57F822E0 		ldr	lr, [r7, r2, lsl #2]
 140 0088 40F20002 		movw	r2, #:lower16:.LC2
 141 008c 59F82330 		ldr	r3, [r9, r3, lsl #2]
 142 0090 0121     		movs	r1, #1
 143 0092 C0F20002 		movt	r2, #:upper16:.LC2
 144 0096 0020     		movs	r0, #0
 145 0098 CDF800E0 		str	lr, [sp, #0]
 146 009c FFF7FEFF 		bl	vexLcdPrintf
 147              		.loc 2 330 0
 148 00a0 0020     		movs	r0, #0
 149 00a2 FFF7FEFF 		bl	vexLcdButtonGet
 150 00a6 0346     		mov	r3, r0
 151 00a8 0120     		movs	r0, #1
 152 00aa 0393     		str	r3, [sp, #12]
 153 00ac FFF7FEFF 		bl	vexLcdButtonGet
 154 00b0 039B     		ldr	r3, [sp, #12]
 155              		.loc 2 321 0
 156 00b2 0134     		adds	r4, r4, #1
 157              		.loc 2 330 0
 158 00b4 0343     		orrs	r3, r3, r0
 159 00b6 DBB2     		uxtb	r3, r3
 160              		.loc 2 321 0
 161 00b8 A4B2     		uxth	r4, r4
 162              	.LVL6:
 163              		.loc 2 332 0
 164 00ba CBB1     		cbz	r3, .L8
 165              		.loc 2 334 0
 166 00bc 2DB9     		cbnz	r5, .L11
 167              		.loc 2 335 0
 168 00be 012B     		cmp	r3, #1
 169 00c0 18D0     		beq	.L13
 170              		.loc 2 337 0
 171 00c2 022B     		cmp	r3, #2
ARM GAS  /tmp/ccPmbHTh.s 			page 4


 172 00c4 20D0     		beq	.L14
 173              		.loc 2 342 0
 174 00c6 042B     		cmp	r3, #4
 175 00c8 0CD0     		beq	.L15
 176              	.LVL7:
 177              	.L11:
 178              		.loc 2 347 0
 179 00ca 0125     		movs	r5, #1
 180              	.LVL8:
 181              	.L4:
 182              		.loc 2 356 0
 183 00cc 1920     		movs	r0, #25
 184 00ce FFF7FEFF 		bl	vexSleep
 185              		.loc 2 319 0
 186 00d2 FFF7FEFF 		bl	vexControllerCompetitonState
 187 00d6 0306     		lsls	r3, r0, #24
 188 00d8 B8D4     		bmi	.L16
 189              	.LVL9:
 190              	.L3:
 191              		.loc 2 354 0
 192 00da 0A20     		movs	r0, #10
 193 00dc 0121     		movs	r1, #1
 194 00de FFF7FEFF 		bl	vexDigitalPinSet
 195 00e2 F3E7     		b	.L4
 196              	.LVL10:
 197              	.L15:
 198              		.loc 2 343 0
 199 00e4 AAF80050 		strh	r5, [sl, #0]	@ movhi
 200              		.loc 2 344 0
 201 00e8 ABF80050 		strh	r5, [fp, #0]	@ movhi
 202              		.loc 2 347 0
 203 00ec 0125     		movs	r5, #1
 204              	.LVL11:
 205 00ee EDE7     		b	.L4
 206              	.LVL12:
 207              	.L8:
 208              		.loc 2 351 0
 209 00f0 1D46     		mov	r5, r3
 210              	.LVL13:
 211 00f2 EBE7     		b	.L4
 212              	.LVL14:
 213              	.L13:
 214              		.loc 2 336 0
 215 00f4 BBF90020 		ldrsh	r2, [fp, #0]
 216              		.loc 2 347 0
 217 00f8 1D46     		mov	r5, r3
 218              	.LVL15:
 219              		.loc 2 336 0
 220 00fa D2F10103 		rsbs	r3, r2, #1
 221              	.LVL16:
 222 00fe 38BF     		it	cc
 223 0100 0023     		movcc	r3, #0
 224 0102 ABF80030 		strh	r3, [fp, #0]	@ movhi
 225 0106 E1E7     		b	.L4
 226              	.LVL17:
 227              	.L14:
 228              		.loc 2 338 0
ARM GAS  /tmp/ccPmbHTh.s 			page 5


 229 0108 BAF80030 		ldrh	r3, [sl, #0]
 230              	.LVL18:
 231 010c 591C     		adds	r1, r3, #1
 232              		.loc 2 339 0
 233 010e 08B2     		sxth	r0, r1
 234 0110 0328     		cmp	r0, #3
 235              		.loc 2 338 0
 236 0112 AAF80010 		strh	r1, [sl, #0]	@ movhi
 237              		.loc 2 339 0
 238 0116 D8DD     		ble	.L11
 239              		.loc 2 340 0
 240 0118 AAF80050 		strh	r5, [sl, #0]	@ movhi
 241              		.loc 2 347 0
 242 011c 0125     		movs	r5, #1
 243              	.LVL19:
 244 011e D5E7     		b	.L4
 245              	.L18:
 246              		.align	3
 247              	.L17:
 248 0120 00000000 		.word	0
 249 0124 00408F40 		.word	1083129856
 250              		.cfi_endproc
 251              	.LFE80:
 252              		.size	autonSelect, .-autonSelect
 253              		.global	__aeabi_i2f
 254              		.global	__aeabi_fmul
 255              		.global	__aeabi_fcmpgt
 256              		.global	__aeabi_fcmplt
 257              		.global	__aeabi_f2iz
 258 0128 AFF30080 		.section	.text.ArmPidController,"ax",%progbits
 258      AFF30080 
 259              		.align	2
 260              		.p2align 4,,15
 261              		.global	ArmPidController
 262              		.thumb
 263              		.thumb_func
 264              		.type	ArmPidController, %function
 265              	ArmPidController:
 266              	.LFB68:
 267              		.loc 1 33 0
 268              		.cfi_startproc
 269              		@ args = 0, pretend = 0, frame = 0
 270              		@ frame_needed = 0, uses_anonymous_args = 0
 271              	.LVL20:
 272              		.loc 1 39 0
 273 0000 40F20000 		movw	r0, #:lower16:.LC3
 274              	.LVL21:
 275              		.loc 1 33 0
 276 0004 38B5     		push	{r3, r4, r5, lr}
 277              	.LCFI3:
 278              		.cfi_def_cfa_offset 16
 279              		.cfi_offset 14, -4
 280              		.cfi_offset 5, -8
 281              		.cfi_offset 4, -12
 282              		.cfi_offset 3, -16
 283              		.loc 1 39 0
 284 0006 C0F20000 		movt	r0, #:upper16:.LC3
ARM GAS  /tmp/ccPmbHTh.s 			page 6


 285 000a 40F20005 		movw	r5, #:lower16:.LANCHOR4
 286 000e FFF7FEFF 		bl	vexTaskRegister
 287 0012 C0F20005 		movt	r5, #:upper16:.LANCHOR4
 288 0016 12E0     		b	.L21
 289              	.LVL22:
 290              	.L24:
 291              		.loc 1 54 0
 292 0018 2046     		mov	r0, r4
 293 001a FFF7FEFF 		bl	__aeabi_fcmplt
 294 001e 40BB     		cbnz	r0, .L23
 295 0020 2046     		mov	r0, r4
 296 0022 FFF7FEFF 		bl	__aeabi_f2iz
 297              	.L20:
 298              	.LVL23:
 299              		.loc 1 58 0
 300 0026 04B2     		sxth	r4, r0
 301 0028 2146     		mov	r1, r4
 302 002a 0720     		movs	r0, #7
 303 002c FFF7FEFF 		bl	vexMotorSet
 304              		.loc 1 59 0
 305 0030 0220     		movs	r0, #2
 306 0032 2146     		mov	r1, r4
 307 0034 FFF7FEFF 		bl	vexMotorSet
 308              		.loc 1 62 0
 309 0038 1920     		movs	r0, #25
 310 003a FFF7FEFF 		bl	vexSleep
 311              	.LVL24:
 312              	.L21:
 313              		.loc 1 45 0
 314 003e FFF7FEFF 		bl	GetArmPot
 315              	.LVL25:
 316              		.loc 1 47 0
 317 0042 B5F90030 		ldrsh	r3, [r5, #0]
 318              		.loc 1 49 0
 319 0046 181A     		subs	r0, r3, r0
 320              	.LVL26:
 321 0048 FFF7FEFF 		bl	__aeabi_i2f
 322 004c 49F69A11 		movw	r1, #39322
 323 0050 C3F69961 		movt	r1, 16025
 324 0054 FFF7FEFF 		bl	__aeabi_fmul
 325              		.loc 1 51 0
 326 0058 0021     		movs	r1, #0
 327 005a C4F2FE21 		movt	r1, 17150
 328              		.loc 1 49 0
 329 005e 0446     		mov	r4, r0
 330              	.LVL27:
 331              		.loc 1 51 0
 332 0060 FFF7FEFF 		bl	__aeabi_fcmpgt
 333              	.LVL28:
 334              		.loc 1 54 0
 335 0064 0021     		movs	r1, #0
 336 0066 CCF2FE21 		movt	r1, 49918
 337              		.loc 1 51 0
 338 006a 0028     		cmp	r0, #0
 339 006c D4D0     		beq	.L24
 340 006e 7F20     		movs	r0, #127
 341 0070 D9E7     		b	.L20
ARM GAS  /tmp/ccPmbHTh.s 			page 7


 342              	.L23:
 343              		.loc 1 54 0
 344 0072 4FF68170 		movw	r0, #65409
 345 0076 D6E7     		b	.L20
 346              		.cfi_endproc
 347              	.LFE68:
 348              		.size	ArmPidController, .-ArmPidController
 349 0078 AFF30080 		.section	.text.ArmTask,"ax",%progbits
 349      AFF30080 
 350              		.align	2
 351              		.p2align 4,,15
 352              		.global	ArmTask
 353              		.thumb
 354              		.thumb_func
 355              		.type	ArmTask, %function
 356              	ArmTask:
 357              	.LFB69:
 358              		.loc 1 71 0
 359              		.cfi_startproc
 360              		@ args = 0, pretend = 0, frame = 0
 361              		@ frame_needed = 0, uses_anonymous_args = 0
 362              	.LVL29:
 363              		.loc 1 73 0
 364 0000 40F20000 		movw	r0, #:lower16:.LC4
 365              	.LVL30:
 366              		.loc 1 71 0
 367 0004 F8B5     		push	{r3, r4, r5, r6, r7, lr}
 368              	.LCFI4:
 369              		.cfi_def_cfa_offset 24
 370              		.cfi_offset 14, -4
 371              		.cfi_offset 7, -8
 372              		.cfi_offset 6, -12
 373              		.cfi_offset 5, -16
 374              		.cfi_offset 4, -20
 375              		.cfi_offset 3, -24
 376              		.loc 1 73 0
 377 0006 C0F20000 		movt	r0, #:upper16:.LC4
 378 000a 40F20004 		movw	r4, #:lower16:.LANCHOR4
 379 000e 40F20005 		movw	r5, #:lower16:.LANCHOR5
 380 0012 40F20006 		movw	r6, #:lower16:.LANCHOR6
 381 0016 40F20007 		movw	r7, #:lower16:.LANCHOR7
 382 001a FFF7FEFF 		bl	vexTaskRegister
 383 001e C0F20004 		movt	r4, #:upper16:.LANCHOR4
 384 0022 C0F20005 		movt	r5, #:upper16:.LANCHOR5
 385 0026 C0F20006 		movt	r6, #:upper16:.LANCHOR6
 386 002a C0F20007 		movt	r7, #:upper16:.LANCHOR7
 387 002e 04E0     		b	.L33
 388              	.L34:
 389              	.LVL31:
 390              	.LBB44:
 391              	.LBB45:
 392              		.loc 1 16 0
 393 0030 2B88     		ldrh	r3, [r5, #0]
 394 0032 2380     		strh	r3, [r4, #0]	@ movhi
 395              	.LVL32:
 396              	.L27:
 397              	.LBE45:
ARM GAS  /tmp/ccPmbHTh.s 			page 8


 398              	.LBE44:
 399              		.loc 1 103 0
 400 0034 1920     		movs	r0, #25
 401 0036 FFF7FEFF 		bl	vexSleep
 402              	.L33:
 403              		.loc 1 77 0
 404 003a 0620     		movs	r0, #6
 405 003c FFF7FEFF 		bl	vexControllerGet
 406 0040 0128     		cmp	r0, #1
 407 0042 F5D0     		beq	.L34
 408              		.loc 1 80 0
 409 0044 0720     		movs	r0, #7
 410 0046 FFF7FEFF 		bl	vexControllerGet
 411 004a 0128     		cmp	r0, #1
 412 004c 02D1     		bne	.L28
 413              	.LVL33:
 414              	.LBB46:
 415              	.LBB47:
 416              		.loc 1 16 0
 417 004e 3088     		ldrh	r0, [r6, #0]
 418 0050 2080     		strh	r0, [r4, #0]	@ movhi
 419 0052 EFE7     		b	.L27
 420              	.LVL34:
 421              	.L28:
 422              	.LBE47:
 423              	.LBE46:
 424              		.loc 1 83 0
 425 0054 0420     		movs	r0, #4
 426 0056 FFF7FEFF 		bl	vexControllerGet
 427 005a 0128     		cmp	r0, #1
 428 005c 02D1     		bne	.L29
 429              	.LVL35:
 430              	.LBB48:
 431              	.LBB49:
 432              		.loc 1 16 0
 433 005e 3988     		ldrh	r1, [r7, #0]
 434 0060 2180     		strh	r1, [r4, #0]	@ movhi
 435 0062 E7E7     		b	.L27
 436              	.LVL36:
 437              	.L29:
 438              	.LBE49:
 439              	.LBE48:
 440              		.loc 1 86 0
 441 0064 0F20     		movs	r0, #15
 442 0066 FFF7FEFF 		bl	vexControllerGet
 443 006a 0128     		cmp	r0, #1
 444 006c 04D1     		bne	.L30
 445              	.LVL37:
 446              	.LBB50:
 447              	.LBB51:
 448              		.loc 1 23 0
 449 006e B4F90020 		ldrsh	r2, [r4, #0]
 450              	.LBE51:
 451              	.LBE50:
 452              		.loc 1 87 0
 453 0072 193A     		subs	r2, r2, #25
 454              	.LBB52:
ARM GAS  /tmp/ccPmbHTh.s 			page 9


 455              	.LBB53:
 456              		.loc 1 16 0
 457 0074 2280     		strh	r2, [r4, #0]	@ movhi
 458 0076 DDE7     		b	.L27
 459              	.LVL38:
 460              	.L30:
 461              	.LBE53:
 462              	.LBE52:
 463              		.loc 1 89 0
 464 0078 0E20     		movs	r0, #14
 465 007a FFF7FEFF 		bl	vexControllerGet
 466 007e 0128     		cmp	r0, #1
 467 0080 04D1     		bne	.L31
 468              	.LVL39:
 469              	.LBB54:
 470              	.LBB55:
 471              		.loc 1 23 0
 472 0082 B4F90030 		ldrsh	r3, [r4, #0]
 473              	.LBE55:
 474              	.LBE54:
 475              		.loc 1 90 0
 476 0086 1933     		adds	r3, r3, #25
 477              	.LBB56:
 478              	.LBB57:
 479              		.loc 1 16 0
 480 0088 2380     		strh	r3, [r4, #0]	@ movhi
 481 008a D3E7     		b	.L27
 482              	.LVL40:
 483              	.L31:
 484              	.LBE57:
 485              	.LBE56:
 486              		.loc 1 93 0
 487 008c 0720     		movs	r0, #7
 488 008e FFF7FEFF 		bl	vexDigitalPinGet
 489 0092 20B1     		cbz	r0, .L32
 490              		.loc 1 93 0 is_stmt 0 discriminator 1
 491 0094 0720     		movs	r0, #7
 492 0096 FFF7FEFF 		bl	vexDigitalPinGet
 493 009a 0028     		cmp	r0, #0
 494 009c CAD1     		bne	.L27
 495              	.L32:
 496              		.loc 1 95 0 is_stmt 1
 497 009e FFF7FEFF 		bl	GetArmPot
 498              	.LVL41:
 499              	.LBB58:
 500              	.LBB59:
 501              		.loc 1 16 0
 502 00a2 2080     		strh	r0, [r4, #0]	@ movhi
 503              	.LBE59:
 504              	.LBE58:
 505              		.loc 1 96 0
 506 00a4 FFF7FEFF 		bl	GetArmPot
 507              	.LVL42:
 508              		.loc 1 97 0
 509 00a8 1FFA80FC 		uxth	ip, r0
 510              		.loc 1 98 0
 511 00ac ACF5BA61 		sub	r1, ip, #1488
ARM GAS  /tmp/ccPmbHTh.s 			page 10


 512              		.loc 1 97 0
 513 00b0 ACF54872 		sub	r2, ip, #800
 514              		.loc 1 98 0
 515 00b4 0C39     		subs	r1, r1, #12
 516              		.loc 1 96 0
 517 00b6 3880     		strh	r0, [r7, #0]	@ movhi
 518              		.loc 1 97 0
 519 00b8 3280     		strh	r2, [r6, #0]	@ movhi
 520              		.loc 1 98 0
 521 00ba 2980     		strh	r1, [r5, #0]	@ movhi
 522 00bc BAE7     		b	.L27
 523              		.cfi_endproc
 524              	.LFE69:
 525              		.size	ArmTask, .-ArmTask
 526 00be 00BF     		.section	.text.IntakeSystemControl,"ax",%progbits
 527              		.align	2
 528              		.p2align 4,,15
 529              		.global	IntakeSystemControl
 530              		.thumb
 531              		.thumb_func
 532              		.type	IntakeSystemControl, %function
 533              	IntakeSystemControl:
 534              	.LFB63:
 535              		.file 3 "intake.c"
 536              		.loc 3 6 0
 537              		.cfi_startproc
 538              		@ args = 0, pretend = 0, frame = 0
 539              		@ frame_needed = 0, uses_anonymous_args = 0
 540              	.LVL43:
 541              		.loc 3 11 0
 542 0000 0028     		cmp	r0, #0
 543              		.loc 3 6 0
 544 0002 10B5     		push	{r4, lr}
 545              	.LCFI5:
 546              		.cfi_def_cfa_offset 8
 547              		.cfi_offset 14, -4
 548              		.cfi_offset 4, -8
 549              		.loc 3 11 0
 550 0004 B8BF     		it	lt
 551 0006 4FF68174 		movwlt	r4, #65409
 552 000a 02DB     		blt	.L36
 553 000c 14BF     		ite	ne
 554 000e 7F24     		movne	r4, #127
 555 0010 0024     		moveq	r4, #0
 556              	.L36:
 557              	.LVL44:
 558              		.loc 3 26 0
 559 0012 24B2     		sxth	r4, r4
 560 0014 0820     		movs	r0, #8
 561 0016 2146     		mov	r1, r4
 562 0018 FFF7FEFF 		bl	vexMotorSet
 563              		.loc 3 27 0
 564 001c 0120     		movs	r0, #1
 565 001e 2146     		mov	r1, r4
 566              		.loc 3 28 0
 567 0020 BDE81040 		pop	{r4, lr}
 568              		.loc 3 27 0
ARM GAS  /tmp/ccPmbHTh.s 			page 11


 569 0024 FFF7FEBF 		b	vexMotorSet
 570              		.cfi_endproc
 571              	.LFE63:
 572              		.size	IntakeSystemControl, .-IntakeSystemControl
 573 0028 AFF30080 		.section	.text.IntakeTask,"ax",%progbits
 573      AFF30080 
 574              		.align	2
 575              		.p2align 4,,15
 576              		.global	IntakeTask
 577              		.thumb
 578              		.thumb_func
 579              		.type	IntakeTask, %function
 580              	IntakeTask:
 581              	.LFB64:
 582              		.loc 3 37 0
 583              		.cfi_startproc
 584              		@ args = 0, pretend = 0, frame = 0
 585              		@ frame_needed = 0, uses_anonymous_args = 0
 586              	.LVL45:
 587              		.loc 3 41 0
 588 0000 40F20000 		movw	r0, #:lower16:.LC5
 589              	.LVL46:
 590              		.loc 3 37 0
 591 0004 08B5     		push	{r3, lr}
 592              	.LCFI6:
 593              		.cfi_def_cfa_offset 8
 594              		.cfi_offset 14, -4
 595              		.cfi_offset 3, -8
 596              		.loc 3 41 0
 597 0006 C0F20000 		movt	r0, #:upper16:.LC5
 598 000a FFF7FEFF 		bl	vexTaskRegister
 599              	.L40:
 600              		.loc 3 46 0
 601 000e 0D20     		movs	r0, #13
 602 0010 FFF7FEFF 		bl	vexControllerGet
 603 0014 0128     		cmp	r0, #1
 604              		.loc 3 48 0
 605 0016 4FF00C00 		mov	r0, #12
 606              		.loc 3 47 0
 607 001a 08BF     		it	eq
 608 001c 4FF6FF70 		movweq	r0, #65535
 609              		.loc 3 46 0
 610 0020 06D0     		beq	.L39
 611              		.loc 3 48 0
 612 0022 FFF7FEFF 		bl	vexControllerGet
 613              		.loc 3 49 0
 614 0026 A0F10102 		sub	r2, r0, #1
 615 002a 5042     		rsbs	r0, r2, #0
 616 002c 40EB0200 		adc	r0, r0, r2
 617              	.L39:
 618              	.LVL47:
 619              		.loc 3 54 0
 620 0030 00B2     		sxth	r0, r0
 621              	.LVL48:
 622 0032 FFF7FEFF 		bl	IntakeSystemControl
 623              		.loc 3 56 0
 624 0036 1920     		movs	r0, #25
ARM GAS  /tmp/ccPmbHTh.s 			page 12


 625 0038 FFF7FEFF 		bl	vexSleep
 626              		.loc 3 57 0
 627 003c E7E7     		b	.L40
 628              		.cfi_endproc
 629              	.LFE64:
 630              		.size	IntakeTask, .-IntakeTask
 631              		.global	__aeabi_fadd
 632 003e 00BF     		.section	.text.DriveSystemArcadeDrive,"ax",%progbits
 633              		.align	2
 634              		.p2align 4,,15
 635              		.global	DriveSystemArcadeDrive
 636              		.thumb
 637              		.thumb_func
 638              		.type	DriveSystemArcadeDrive, %function
 639              	DriveSystemArcadeDrive:
 640              	.LFB70:
 641              		.file 4 "drive.c"
 642              		.loc 4 9 0
 643              		.cfi_startproc
 644              		@ args = 0, pretend = 0, frame = 0
 645              		@ frame_needed = 0, uses_anonymous_args = 0
 646              	.LVL49:
 647 0000 F8B5     		push	{r3, r4, r5, r6, r7, lr}
 648              	.LCFI7:
 649              		.cfi_def_cfa_offset 24
 650              		.cfi_offset 14, -4
 651              		.cfi_offset 7, -8
 652              		.cfi_offset 6, -12
 653              		.cfi_offset 5, -16
 654              		.cfi_offset 4, -20
 655              		.cfi_offset 3, -24
 656              		.loc 4 19 0
 657 0002 4518     		adds	r5, r0, r1
 658              	.LVL50:
 659              		.loc 4 20 0
 660 0004 441A     		subs	r4, r0, r1
 661              	.LVL51:
 662              		.loc 4 23 0
 663 0006 85EAE573 		eor	r3, r5, r5, asr #31
 664 000a A3EBE573 		sub	r3, r3, r5, asr #31
 665              	.LVL52:
 666              		.loc 4 24 0
 667 000e 84EAE472 		eor	r2, r4, r4, asr #31
 668 0012 A2EBE472 		sub	r2, r2, r4, asr #31
 669              		.loc 4 23 0
 670 0016 9A42     		cmp	r2, r3
 671 0018 A8BF     		it	ge
 672 001a 1346     		movge	r3, r2
 673              	.LVL53:
 674              		.loc 4 26 0
 675 001c 7F2B     		cmp	r3, #127
 676 001e 07DD     		ble	.L44
 677              		.loc 4 27 0
 678 0020 E901     		lsls	r1, r5, #7
 679              	.LVL54:
 680              		.loc 4 28 0
 681 0022 E001     		lsls	r0, r4, #7
ARM GAS  /tmp/ccPmbHTh.s 			page 13


 682              	.LVL55:
 683              		.loc 4 27 0
 684 0024 4D1B     		subs	r5, r1, r5
 685              	.LVL56:
 686              		.loc 4 28 0
 687 0026 041B     		subs	r4, r0, r4
 688              	.LVL57:
 689              		.loc 4 27 0
 690 0028 95FBF3F5 		sdiv	r5, r5, r3
 691              	.LVL58:
 692              		.loc 4 28 0
 693 002c 94FBF3F4 		sdiv	r4, r4, r3
 694              	.LVL59:
 695              	.L44:
 696              		.loc 4 31 0
 697 0030 0020     		movs	r0, #0
 698 0032 FFF7FEFF 		bl	vexAdcGet
 699              	.LVL60:
 700              		.loc 4 33 0
 701 0036 40F20003 		movw	r3, #:lower16:.LANCHOR8
 702 003a C0F20003 		movt	r3, #:upper16:.LANCHOR8
 703              		.loc 4 41 0
 704 003e 40F20006 		movw	r6, #:lower16:.LANCHOR6
 705              		.loc 4 33 0
 706 0042 B3F800C0 		ldrh	ip, [r3, #0]
 707              		.loc 4 41 0
 708 0046 C0F20006 		movt	r6, #:upper16:.LANCHOR6
 709              	.LBB60:
 710              	.LBB61:
 711              		.loc 1 23 0
 712 004a 40F20001 		movw	r1, #:lower16:.LANCHOR4
 713              	.LBE61:
 714              	.LBE60:
 715              		.loc 4 33 0
 716 004e 40F20003 		movw	r3, #:lower16:.LANCHOR9
 717              		.loc 4 41 0
 718 0052 B6F90060 		ldrsh	r6, [r6, #0]
 719              	.LBB64:
 720              	.LBB62:
 721              		.loc 1 23 0
 722 0056 C0F20001 		movt	r1, #:upper16:.LANCHOR4
 723              	.LBE62:
 724              	.LBE64:
 725              		.loc 4 33 0
 726 005a C0F20003 		movt	r3, #:upper16:.LANCHOR9
 727 005e C0EB0C07 		rsb	r7, r0, ip
 728              	.LBB65:
 729              	.LBB63:
 730              		.loc 1 23 0
 731 0062 B1F900C0 		ldrsh	ip, [r1, #0]
 732              	.LBE63:
 733              	.LBE65:
 734              		.loc 4 33 0
 735 0066 1A88     		ldrh	r2, [r3, #0]
 736              		.loc 4 41 0
 737 0068 323E     		subs	r6, r6, #50
 738              		.loc 4 33 0
ARM GAS  /tmp/ccPmbHTh.s 			page 14


 739 006a BFB2     		uxth	r7, r7
 740              	.LVL61:
 741              		.loc 4 41 0
 742 006c 6645     		cmp	r6, ip
 743              		.loc 4 36 0
 744 006e 07EB8200 		add	r0, r7, r2, lsl #2
 745              	.LVL62:
 746 0072 5A80     		strh	r2, [r3, #2]	@ movhi
 747              	.LVL63:
 748 0074 9A80     		strh	r2, [r3, #4]	@ movhi
 749              	.LVL64:
 750 0076 DA80     		strh	r2, [r3, #6]	@ movhi
 751              	.LVL65:
 752 0078 1A81     		strh	r2, [r3, #8]	@ movhi
 753              	.LVL66:
 754              		.loc 4 38 0
 755 007a 1F80     		strh	r7, [r3, #0]	@ movhi
 756              		.loc 4 41 0
 757 007c 02DD     		ble	.L45
 758              		.loc 4 41 0 is_stmt 0 discriminator 1
 759 007e 00B2     		sxth	r0, r0
 760 0080 0028     		cmp	r0, #0
 761 0082 13DB     		blt	.L46
 762              	.LVL67:
 763              	.L45:
 764              		.loc 4 48 0 is_stmt 1
 765 0084 2DB2     		sxth	r5, r5
 766              	.LVL68:
 767 0086 0520     		movs	r0, #5
 768 0088 2946     		mov	r1, r5
 769 008a FFF7FEFF 		bl	vexMotorSet
 770              		.loc 4 52 0
 771 008e 24B2     		sxth	r4, r4
 772              	.LVL69:
 773              		.loc 4 49 0
 774 0090 0620     		movs	r0, #6
 775 0092 2946     		mov	r1, r5
 776 0094 FFF7FEFF 		bl	vexMotorSet
 777              		.loc 4 52 0
 778 0098 0420     		movs	r0, #4
 779 009a 2146     		mov	r1, r4
 780 009c FFF7FEFF 		bl	vexMotorSet
 781              		.loc 4 53 0
 782 00a0 0320     		movs	r0, #3
 783 00a2 2146     		mov	r1, r4
 784              		.loc 4 54 0
 785 00a4 BDE8F840 		pop	{r3, r4, r5, r6, r7, lr}
 786              		.loc 4 53 0
 787 00a8 FFF7FEBF 		b	vexMotorSet
 788              	.LVL70:
 789              	.L46:
 790              		.loc 4 42 0
 791 00ac FFF7FEFF 		bl	__aeabi_i2f
 792              	.LVL71:
 793 00b0 4CF6CD41 		movw	r1, #52429
 794 00b4 C3F64C61 		movt	r1, 15948
 795 00b8 FFF7FEFF 		bl	__aeabi_fmul
ARM GAS  /tmp/ccPmbHTh.s 			page 15


 796 00bc 0646     		mov	r6, r0
 797 00be 2846     		mov	r0, r5
 798 00c0 FFF7FEFF 		bl	__aeabi_i2f
 799 00c4 3146     		mov	r1, r6
 800 00c6 FFF7FEFF 		bl	__aeabi_fadd
 801 00ca FFF7FEFF 		bl	__aeabi_f2iz
 802 00ce 0546     		mov	r5, r0
 803              	.LVL72:
 804              		.loc 4 43 0
 805 00d0 2046     		mov	r0, r4
 806              	.LVL73:
 807 00d2 FFF7FEFF 		bl	__aeabi_i2f
 808 00d6 0146     		mov	r1, r0
 809 00d8 3046     		mov	r0, r6
 810 00da FFF7FEFF 		bl	__aeabi_fadd
 811 00de FFF7FEFF 		bl	__aeabi_f2iz
 812 00e2 0446     		mov	r4, r0
 813              	.LVL74:
 814 00e4 CEE7     		b	.L45
 815              		.cfi_endproc
 816              	.LFE70:
 817              		.size	DriveSystemArcadeDrive, .-DriveSystemArcadeDrive
 818              		.global	__aeabi_dmul
 819              		.global	__aeabi_d2iz
 820 00e6 00BFAFF3 		.section	.text.DriveTask,"ax",%progbits
 820      0080AFF3 
 820      0080
 821              		.align	2
 822              		.p2align 4,,15
 823              		.global	DriveTask
 824              		.thumb
 825              		.thumb_func
 826              		.type	DriveTask, %function
 827              	DriveTask:
 828              	.LFB71:
 829              		.loc 4 60 0
 830              		.cfi_startproc
 831              		@ args = 0, pretend = 0, frame = 0
 832              		@ frame_needed = 0, uses_anonymous_args = 0
 833              	.LVL75:
 834              		.loc 4 64 0
 835 0000 40F20000 		movw	r0, #:lower16:.LC6
 836              	.LVL76:
 837              		.loc 4 60 0
 838 0004 10B5     		push	{r4, lr}
 839              	.LCFI8:
 840              		.cfi_def_cfa_offset 8
 841              		.cfi_offset 14, -4
 842              		.cfi_offset 4, -8
 843              		.loc 4 64 0
 844 0006 C0F20000 		movt	r0, #:upper16:.LC6
 845 000a FFF7FEFF 		bl	vexTaskRegister
 846 000e 0FE0     		b	.L52
 847              	.L48:
 848              	.LVL77:
 849              		.loc 4 74 0
 850 0010 0020     		movs	r0, #0
ARM GAS  /tmp/ccPmbHTh.s 			page 16


 851 0012 FFF7FEFF 		bl	vexControllerGet
 852 0016 0028     		cmp	r0, #0
 853 0018 B8BF     		it	lt
 854 001a 4042     		rsblt	r0, r0, #0
 855 001c 0021     		movs	r1, #0
 856 001e 0A28     		cmp	r0, #10
 857 0020 1CDC     		bgt	.L55
 858              	.LVL78:
 859              	.L51:
 860              		.loc 4 85 0
 861 0022 20B2     		sxth	r0, r4
 862 0024 09B2     		sxth	r1, r1
 863              	.LVL79:
 864 0026 FFF7FEFF 		bl	DriveSystemArcadeDrive
 865              		.loc 4 87 0
 866 002a 1920     		movs	r0, #25
 867 002c FFF7FEFF 		bl	vexSleep
 868              	.L52:
 869              		.loc 4 69 0
 870 0030 0220     		movs	r0, #2
 871 0032 FFF7FEFF 		bl	vexControllerGet
 872 0036 0028     		cmp	r0, #0
 873 0038 B8BF     		it	lt
 874 003a 4042     		rsblt	r0, r0, #0
 875              		.loc 4 72 0
 876 003c 0024     		movs	r4, #0
 877              		.loc 4 69 0
 878 003e 0A28     		cmp	r0, #10
 879 0040 E6DD     		ble	.L48
 880              		.loc 4 70 0
 881 0042 0220     		movs	r0, #2
 882 0044 FFF7FEFF 		bl	vexControllerGet
 883 0048 0446     		mov	r4, r0
 884              	.LVL80:
 885              		.loc 4 74 0
 886 004a 0020     		movs	r0, #0
 887              	.LVL81:
 888 004c FFF7FEFF 		bl	vexControllerGet
 889 0050 0028     		cmp	r0, #0
 890 0052 B8BF     		it	lt
 891 0054 4042     		rsblt	r0, r0, #0
 892 0056 0021     		movs	r1, #0
 893 0058 0A28     		cmp	r0, #10
 894 005a E2DD     		ble	.L51
 895              	.LVL82:
 896              	.L55:
 897              		.loc 4 75 0
 898 005c 0020     		movs	r0, #0
 899 005e FFF7FEFF 		bl	vexControllerGet
 900              		.loc 4 79 0
 901 0062 83B2     		uxth	r3, r0
 902 0064 03F14F0C 		add	ip, r3, #79
 903 0068 1FFA8CF2 		uxth	r2, ip
 904              		.loc 4 81 0
 905 006c 6333     		adds	r3, r3, #99
 906              		.loc 4 79 0
 907 006e 9E2A     		cmp	r2, #158
ARM GAS  /tmp/ccPmbHTh.s 			page 17


 908              		.loc 4 75 0
 909 0070 0146     		mov	r1, r0
 910              	.LVL83:
 911              		.loc 4 81 0
 912 0072 9BB2     		uxth	r3, r3
 913              		.loc 4 79 0
 914 0074 0DD9     		bls	.L56
 915              		.loc 4 81 0
 916 0076 C62B     		cmp	r3, #198
 917 0078 D3D8     		bhi	.L51
 918              		.loc 4 82 0
 919 007a FFF7FEFF 		bl	__aeabi_i2d
 920              	.LVL84:
 921 007e 0023     		movs	r3, #0
 922 0080 0022     		movs	r2, #0
 923 0082 C3F6E873 		movt	r3, 16360
 924 0086 FFF7FEFF 		bl	__aeabi_dmul
 925 008a FFF7FEFF 		bl	__aeabi_d2iz
 926 008e 0146     		mov	r1, r0	@ movhi
 927              	.LVL85:
 928 0090 C7E7     		b	.L51
 929              	.L56:
 930              		.loc 4 79 0
 931 0092 FFF7FEFF 		bl	__aeabi_i2d
 932              	.LVL86:
 933 0096 0023     		movs	r3, #0
 934 0098 0022     		movs	r2, #0
 935 009a C3F6E073 		movt	r3, 16352
 936 009e FFF7FEFF 		bl	__aeabi_dmul
 937 00a2 FFF7FEFF 		bl	__aeabi_d2iz
 938 00a6 0146     		mov	r1, r0	@ movhi
 939 00a8 BBE7     		b	.L51
 940              		.cfi_endproc
 941              	.LFE71:
 942              		.size	DriveTask, .-DriveTask
 943              		.global	__aeabi_f2d
 944              		.global	__aeabi_d2f
 945              		.global	__aeabi_fcmpeq
 946 00aa 00BFAFF3 		.section	.text.autonDrive,"ax",%progbits
 946      0080
 947              		.align	2
 948              		.p2align 4,,15
 949              		.global	autonDrive
 950              		.thumb
 951              		.thumb_func
 952              		.type	autonDrive, %function
 953              	autonDrive:
 954              	.LFB72:
 955              		.loc 2 14 0
 956              		.cfi_startproc
 957              		@ args = 0, pretend = 0, frame = 0
 958              		@ frame_needed = 0, uses_anonymous_args = 0
 959              	.LVL87:
 960 0000 2DE9F047 		push	{r4, r5, r6, r7, r8, r9, sl, lr}
 961              	.LCFI9:
 962              		.cfi_def_cfa_offset 32
 963              		.cfi_offset 14, -4
ARM GAS  /tmp/ccPmbHTh.s 			page 18


 964              		.cfi_offset 10, -8
 965              		.cfi_offset 9, -12
 966              		.cfi_offset 8, -16
 967              		.cfi_offset 7, -20
 968              		.cfi_offset 6, -24
 969              		.cfi_offset 5, -28
 970              		.cfi_offset 4, -32
 971 0004 8146     		mov	r9, r0
 972 0006 84B0     		sub	sp, sp, #16
 973              	.LCFI10:
 974              		.cfi_def_cfa_offset 48
 975              		.loc 2 20 0
 976 0008 0120     		movs	r0, #1
 977              	.LVL88:
 978              		.loc 2 14 0
 979 000a 0D46     		mov	r5, r1
 980              		.loc 2 20 0
 981 000c 0021     		movs	r1, #0
 982              	.LVL89:
 983 000e FFF7FEFF 		bl	vexImeSetCount
 984              		.loc 2 21 0
 985 0012 0020     		movs	r0, #0
 986 0014 0146     		mov	r1, r0
 987              		.loc 2 24 0
 988 0016 1FFA89F9 		uxth	r9, r9
 989              	.LVL90:
 990              		.loc 2 21 0
 991 001a FFF7FEFF 		bl	vexImeSetCount
 992              		.loc 2 24 0
 993 001e A9F10200 		sub	r0, r9, #2
 994 0022 06B2     		sxth	r6, r0
 995 0024 3146     		mov	r1, r6
 996 0026 0520     		movs	r0, #5
 997 0028 FFF7FEFF 		bl	vexMotorSet
 998              		.loc 2 26 0
 999 002c 0FFA89F4 		sxth	r4, r9
 1000              		.loc 2 25 0
 1001 0030 0620     		movs	r0, #6
 1002 0032 3146     		mov	r1, r6
 1003 0034 FFF7FEFF 		bl	vexMotorSet
 1004              		.loc 2 26 0
 1005 0038 2146     		mov	r1, r4
 1006 003a 0420     		movs	r0, #4
 1007 003c FFF7FEFF 		bl	vexMotorSet
 1008              		.loc 2 17 0
 1009 0040 0027     		movs	r7, #0
 1010              		.loc 2 27 0
 1011 0042 2146     		mov	r1, r4
 1012 0044 0320     		movs	r0, #3
 1013 0046 FFF7FEFF 		bl	vexMotorSet
 1014              		.loc 2 18 0
 1015 004a 4FF00008 		mov	r8, #0
 1016              		.loc 2 16 0
 1017 004e 3C46     		mov	r4, r7
 1018 0050 17E0     		b	.L62
 1019              	.LVL91:
 1020              	.L65:
ARM GAS  /tmp/ccPmbHTh.s 			page 19


 1021              		.loc 2 40 0 discriminator 1
 1022 0052 7042     		negs	r0, r6
 1023 0054 FFF7FEFF 		bl	__aeabi_i2f
 1024 0058 FFF7FEFF 		bl	__aeabi_f2d
 1025 005c 72A3     		adr	r3, .L66
 1026 005e D3E90023 		ldrd	r2, [r3]
 1027 0062 FFF7FEFF 		bl	__aeabi_ddiv
 1028 0066 FFF7FEFF 		bl	__aeabi_d2f
 1029 006a 0746     		mov	r7, r0
 1030              		.loc 2 42 0 discriminator 1
 1031 006c FFF7FEFF 		bl	__aeabi_f2iz
 1032 0070 0028     		cmp	r0, #0
 1033 0072 B8BF     		it	lt
 1034 0074 4042     		rsblt	r0, r0, #0
 1035 0076 8542     		cmp	r5, r0
 1036 0078 C0F2A980 		blt	.L61
 1037              		.loc 2 45 0
 1038 007c 0520     		movs	r0, #5
 1039 007e FFF7FEFF 		bl	vexSleep
 1040              	.LVL92:
 1041              	.L62:
 1042              		.loc 2 30 0
 1043 0082 0620     		movs	r0, #6
 1044 0084 FFF7FEFF 		bl	vexImeMotorGetCount
 1045 0088 8246     		mov	sl, r0
 1046 008a 0320     		movs	r0, #3
 1047 008c FFF7FEFF 		bl	vexImeMotorGetCount
 1048 0090 0646     		mov	r6, r0
 1049 0092 5046     		mov	r0, sl
 1050 0094 FFF7FEFF 		bl	__aeabi_i2f
 1051 0098 FFF7FEFF 		bl	__aeabi_f2d
 1052 009c 62A3     		adr	r3, .L66
 1053 009e D3E90023 		ldrd	r2, [r3]
 1054 00a2 FFF7FEFF 		bl	__aeabi_ddiv
 1055 00a6 FFF7FEFF 		bl	__aeabi_d2f
 1056 00aa FFF7FEFF 		bl	__aeabi_f2d
 1057 00ae CDE90001 		strd	r0, [sp]
 1058 00b2 7042     		negs	r0, r6
 1059 00b4 FFF7FEFF 		bl	__aeabi_i2f
 1060 00b8 FFF7FEFF 		bl	__aeabi_f2d
 1061 00bc 5AA3     		adr	r3, .L66
 1062 00be D3E90023 		ldrd	r2, [r3]
 1063 00c2 FFF7FEFF 		bl	__aeabi_ddiv
 1064 00c6 FFF7FEFF 		bl	__aeabi_d2f
 1065 00ca FFF7FEFF 		bl	__aeabi_f2d
 1066 00ce 40F20002 		movw	r2, #:lower16:.LC7
 1067 00d2 C0F20002 		movt	r2, #:upper16:.LC7
 1068 00d6 CDE90201 		strd	r0, [sp, #8]
 1069 00da 0121     		movs	r1, #1
 1070 00dc 0020     		movs	r0, #0
 1071 00de FFF7FEFF 		bl	vexLcdPrintf
 1072              		.loc 2 31 0
 1073 00e2 0620     		movs	r0, #6
 1074 00e4 FFF7FEFF 		bl	vexImeMotorGetCount
 1075 00e8 8246     		mov	sl, r0
 1076 00ea 0320     		movs	r0, #3
 1077 00ec FFF7FEFF 		bl	vexImeMotorGetCount
ARM GAS  /tmp/ccPmbHTh.s 			page 20


 1078 00f0 0646     		mov	r6, r0
 1079 00f2 5046     		mov	r0, sl
 1080 00f4 FFF7FEFF 		bl	__aeabi_i2f
 1081 00f8 FFF7FEFF 		bl	__aeabi_f2d
 1082 00fc 4AA3     		adr	r3, .L66
 1083 00fe D3E90023 		ldrd	r2, [r3]
 1084 0102 FFF7FEFF 		bl	__aeabi_ddiv
 1085 0106 FFF7FEFF 		bl	__aeabi_d2f
 1086 010a FFF7FEFF 		bl	__aeabi_f2d
 1087 010e CDE90001 		strd	r0, [sp]
 1088 0112 7042     		negs	r0, r6
 1089 0114 FFF7FEFF 		bl	__aeabi_i2f
 1090 0118 FFF7FEFF 		bl	__aeabi_f2d
 1091 011c 42A3     		adr	r3, .L66
 1092 011e D3E90023 		ldrd	r2, [r3]
 1093 0122 FFF7FEFF 		bl	__aeabi_ddiv
 1094 0126 FFF7FEFF 		bl	__aeabi_d2f
 1095 012a FFF7FEFF 		bl	__aeabi_f2d
 1096 012e 40F20002 		movw	r2, #:lower16:.LC7
 1097 0132 CDE90201 		strd	r0, [sp, #8]
 1098 0136 0120     		movs	r0, #1
 1099 0138 0146     		mov	r1, r0
 1100 013a C0F20002 		movt	r2, #:upper16:.LC7
 1101 013e FFF7FEFF 		bl	vexLcdPrintf
 1102              		.loc 2 33 0
 1103 0142 0620     		movs	r0, #6
 1104 0144 FFF7FEFF 		bl	vexImeMotorGetCount
 1105 0148 FFF7FEFF 		bl	__aeabi_i2f
 1106 014c FFF7FEFF 		bl	__aeabi_f2d
 1107 0150 35A3     		adr	r3, .L66
 1108 0152 D3E90023 		ldrd	r2, [r3]
 1109 0156 FFF7FEFF 		bl	__aeabi_ddiv
 1110 015a FFF7FEFF 		bl	__aeabi_d2f
 1111 015e 2146     		mov	r1, r4
 1112 0160 FFF7FEFF 		bl	__aeabi_fcmpeq
 1113 0164 B8B1     		cbz	r0, .L58
 1114              		.loc 2 33 0 is_stmt 0 discriminator 1
 1115 0166 0320     		movs	r0, #3
 1116 0168 FFF7FEFF 		bl	vexImeMotorGetCount
 1117 016c 4042     		negs	r0, r0
 1118 016e FFF7FEFF 		bl	__aeabi_i2f
 1119 0172 FFF7FEFF 		bl	__aeabi_f2d
 1120 0176 2CA3     		adr	r3, .L66
 1121 0178 D3E90023 		ldrd	r2, [r3]
 1122 017c FFF7FEFF 		bl	__aeabi_ddiv
 1123 0180 FFF7FEFF 		bl	__aeabi_d2f
 1124 0184 3946     		mov	r1, r7
 1125 0186 FFF7FEFF 		bl	__aeabi_fcmpeq
 1126 018a 20B1     		cbz	r0, .L58
 1127              		.loc 2 34 0 is_stmt 1
 1128 018c 08F10108 		add	r8, r8, #1
 1129              	.LVL93:
 1130              		.loc 2 35 0
 1131 0190 B8F11E0F 		cmp	r8, #30
 1132 0194 1BDC     		bgt	.L61
 1133              	.L58:
 1134              		.loc 2 39 0
ARM GAS  /tmp/ccPmbHTh.s 			page 21


 1135 0196 0620     		movs	r0, #6
 1136 0198 FFF7FEFF 		bl	vexImeMotorGetCount
 1137 019c FFF7FEFF 		bl	__aeabi_i2f
 1138 01a0 FFF7FEFF 		bl	__aeabi_f2d
 1139 01a4 20A3     		adr	r3, .L66
 1140 01a6 D3E90023 		ldrd	r2, [r3]
 1141 01aa FFF7FEFF 		bl	__aeabi_ddiv
 1142 01ae FFF7FEFF 		bl	__aeabi_d2f
 1143 01b2 0446     		mov	r4, r0
 1144              	.LVL94:
 1145              		.loc 2 40 0
 1146 01b4 0320     		movs	r0, #3
 1147              	.LVL95:
 1148 01b6 FFF7FEFF 		bl	vexImeMotorGetCount
 1149 01ba 0646     		mov	r6, r0
 1150              	.LVL96:
 1151              		.loc 2 42 0
 1152 01bc 2046     		mov	r0, r4
 1153              	.LVL97:
 1154 01be FFF7FEFF 		bl	__aeabi_f2iz
 1155 01c2 0028     		cmp	r0, #0
 1156 01c4 B8BF     		it	lt
 1157 01c6 4042     		rsblt	r0, r0, #0
 1158 01c8 A842     		cmp	r0, r5
 1159 01ca 7FF742AF 		ble	.L65
 1160              	.LVL98:
 1161              	.L61:
 1162              		.loc 2 49 0
 1163 01ce C9F10001 		rsb	r1, r9, #0
 1164 01d2 0FFA81F9 		sxth	r9, r1
 1165 01d6 0520     		movs	r0, #5
 1166 01d8 4946     		mov	r1, r9
 1167 01da FFF7FEFF 		bl	vexMotorSet
 1168              		.loc 2 50 0
 1169 01de 0620     		movs	r0, #6
 1170 01e0 4946     		mov	r1, r9
 1171 01e2 FFF7FEFF 		bl	vexMotorSet
 1172              		.loc 2 51 0
 1173 01e6 0420     		movs	r0, #4
 1174 01e8 4946     		mov	r1, r9
 1175 01ea FFF7FEFF 		bl	vexMotorSet
 1176              		.loc 2 52 0
 1177 01ee 4946     		mov	r1, r9
 1178 01f0 0320     		movs	r0, #3
 1179 01f2 FFF7FEFF 		bl	vexMotorSet
 1180              		.loc 2 54 0
 1181 01f6 1420     		movs	r0, #20
 1182 01f8 FFF7FEFF 		bl	vexSleep
 1183              		.loc 2 57 0
 1184 01fc 0520     		movs	r0, #5
 1185 01fe 0021     		movs	r1, #0
 1186 0200 FFF7FEFF 		bl	vexMotorSet
 1187              		.loc 2 58 0
 1188 0204 0620     		movs	r0, #6
 1189 0206 0021     		movs	r1, #0
 1190 0208 FFF7FEFF 		bl	vexMotorSet
 1191              		.loc 2 59 0
ARM GAS  /tmp/ccPmbHTh.s 			page 22


 1192 020c 0420     		movs	r0, #4
 1193 020e 0021     		movs	r1, #0
 1194 0210 FFF7FEFF 		bl	vexMotorSet
 1195              		.loc 2 60 0
 1196 0214 0320     		movs	r0, #3
 1197 0216 0021     		movs	r1, #0
 1198              		.loc 2 62 0
 1199 0218 04B0     		add	sp, sp, #16
 1200 021a BDE8F047 		pop	{r4, r5, r6, r7, r8, r9, sl, lr}
 1201              		.loc 2 60 0
 1202 021e FFF7FEBF 		b	vexMotorSet
 1203              	.L67:
 1204 0222 00BFAFF3 		.align	3
 1204      0080
 1205              	.L66:
 1206 0228 33333333 		.word	858993459
 1207 022c 33333D40 		.word	1077752627
 1208              		.cfi_endproc
 1209              	.LFE72:
 1210              		.size	autonDrive, .-autonDrive
 1211              		.global	__aeabi_fdiv
 1212              		.section	.text.autonTurn,"ax",%progbits
 1213              		.align	2
 1214              		.p2align 4,,15
 1215              		.global	autonTurn
 1216              		.thumb
 1217              		.thumb_func
 1218              		.type	autonTurn, %function
 1219              	autonTurn:
 1220              	.LFB73:
 1221              		.loc 2 64 0
 1222              		.cfi_startproc
 1223              		@ args = 0, pretend = 0, frame = 0
 1224              		@ frame_needed = 0, uses_anonymous_args = 0
 1225              	.LVL99:
 1226 0000 2DE9F04F 		push	{r4, r5, r6, r7, r8, r9, sl, fp, lr}
 1227              	.LCFI11:
 1228              		.cfi_def_cfa_offset 36
 1229              		.cfi_offset 14, -4
 1230              		.cfi_offset 11, -8
 1231              		.cfi_offset 10, -12
 1232              		.cfi_offset 9, -16
 1233              		.cfi_offset 8, -20
 1234              		.cfi_offset 7, -24
 1235              		.cfi_offset 6, -28
 1236              		.cfi_offset 5, -32
 1237              		.cfi_offset 4, -36
 1238 0004 0446     		mov	r4, r0
 1239 0006 85B0     		sub	sp, sp, #20
 1240              	.LCFI12:
 1241              		.cfi_def_cfa_offset 56
 1242              		.loc 2 71 0
 1243 0008 81EAE170 		eor	r0, r1, r1, asr #31
 1244 000c A0EBE170 		sub	r0, r0, r1, asr #31
 1245              	.LVL100:
 1246              		.loc 2 64 0
 1247 0010 0E46     		mov	r6, r1
ARM GAS  /tmp/ccPmbHTh.s 			page 23


 1248              		.loc 2 71 0
 1249 0012 FFF7FEFF 		bl	__aeabi_i2f
 1250              	.LVL101:
 1251 0016 0021     		movs	r1, #0
 1252 0018 C4F2B431 		movt	r1, 17332
 1253 001c FFF7FEFF 		bl	__aeabi_fdiv
 1254 0020 0021     		movs	r1, #0
 1255 0022 C4F23021 		movt	r1, 16944
 1256 0026 FFF7FEFF 		bl	__aeabi_fmul
 1257 002a 4FF08041 		mov	r1, #1073741824
 1258 002e FFF7FEFF 		bl	__aeabi_fadd
 1259              		.loc 2 73 0
 1260 0032 002E     		cmp	r6, #0
 1261              		.loc 2 74 0
 1262 0034 B8BF     		it	lt
 1263 0036 6442     		neglt	r4, r4
 1264              	.LVL102:
 1265              		.loc 2 71 0
 1266 0038 0546     		mov	r5, r0
 1267              	.LVL103:
 1268              		.loc 2 77 0
 1269 003a FFF7FEFF 		bl	__aeabi_f2d
 1270              	.LVL104:
 1271 003e 40F20002 		movw	r2, #:lower16:.LC8
 1272 0042 C0F20002 		movt	r2, #:upper16:.LC8
 1273 0046 CDE90001 		strd	r0, [sp]
 1274 004a 0120     		movs	r0, #1
 1275 004c 0021     		movs	r1, #0
 1276 004e 0294     		str	r4, [sp, #8]
 1277 0050 FFF7FEFF 		bl	vexLcdPrintf
 1278              		.loc 2 79 0
 1279 0054 0120     		movs	r0, #1
 1280 0056 0021     		movs	r1, #0
 1281 0058 FFF7FEFF 		bl	vexImeSetCount
 1282              		.loc 2 80 0
 1283 005c 0020     		movs	r0, #0
 1284 005e 0146     		mov	r1, r0
 1285              		.loc 2 83 0
 1286 0060 0FFA84FA 		sxth	sl, r4
 1287              		.loc 2 80 0
 1288 0064 FFF7FEFF 		bl	vexImeSetCount
 1289              		.loc 2 83 0
 1290 0068 0520     		movs	r0, #5
 1291 006a 5146     		mov	r1, sl
 1292 006c FFF7FEFF 		bl	vexMotorSet
 1293              		.loc 2 84 0
 1294 0070 0620     		movs	r0, #6
 1295 0072 5146     		mov	r1, sl
 1296 0074 FFF7FEFF 		bl	vexMotorSet
 1297              		.loc 2 85 0
 1298 0078 6042     		negs	r0, r4
 1299 007a 0FFA80F9 		sxth	r9, r0
 1300 007e 4946     		mov	r1, r9
 1301 0080 0420     		movs	r0, #4
 1302 0082 FFF7FEFF 		bl	vexMotorSet
 1303              		.loc 2 68 0
 1304 0086 0027     		movs	r7, #0
ARM GAS  /tmp/ccPmbHTh.s 			page 24


 1305              		.loc 2 86 0
 1306 0088 0320     		movs	r0, #3
 1307 008a 4946     		mov	r1, r9
 1308 008c FFF7FEFF 		bl	vexMotorSet
 1309              		.loc 2 69 0
 1310 0090 4FF00008 		mov	r8, #0
 1311              		.loc 2 67 0
 1312 0094 3C46     		mov	r4, r7
 1313              	.LVL105:
 1314 0096 1CE0     		b	.L74
 1315              	.LVL106:
 1316              	.L77:
 1317              		.loc 2 99 0 discriminator 1
 1318 0098 7042     		negs	r0, r6
 1319 009a FFF7FEFF 		bl	__aeabi_i2f
 1320 009e FFF7FEFF 		bl	__aeabi_f2d
 1321 00a2 75A3     		adr	r3, .L78
 1322 00a4 D3E90023 		ldrd	r2, [r3]
 1323 00a8 FFF7FEFF 		bl	__aeabi_ddiv
 1324 00ac FFF7FEFF 		bl	__aeabi_d2f
 1325 00b0 0746     		mov	r7, r0
 1326              		.loc 2 101 0 discriminator 1
 1327 00b2 FFF7FEFF 		bl	__aeabi_f2iz
 1328 00b6 0028     		cmp	r0, #0
 1329 00b8 B8BF     		it	lt
 1330 00ba 4042     		rsblt	r0, r0, #0
 1331 00bc FFF7FEFF 		bl	__aeabi_i2f
 1332 00c0 2946     		mov	r1, r5
 1333 00c2 FFF7FEFF 		bl	__aeabi_fcmpgt
 1334 00c6 0028     		cmp	r0, #0
 1335 00c8 40F0AE80 		bne	.L73
 1336              		.loc 2 104 0
 1337 00cc 0520     		movs	r0, #5
 1338 00ce FFF7FEFF 		bl	vexSleep
 1339              	.LVL107:
 1340              	.L74:
 1341              		.loc 2 89 0
 1342 00d2 0620     		movs	r0, #6
 1343 00d4 FFF7FEFF 		bl	vexImeMotorGetCount
 1344 00d8 8346     		mov	fp, r0
 1345 00da 0320     		movs	r0, #3
 1346 00dc FFF7FEFF 		bl	vexImeMotorGetCount
 1347 00e0 0646     		mov	r6, r0
 1348 00e2 5846     		mov	r0, fp
 1349 00e4 FFF7FEFF 		bl	__aeabi_i2f
 1350 00e8 FFF7FEFF 		bl	__aeabi_f2d
 1351 00ec 62A3     		adr	r3, .L78
 1352 00ee D3E90023 		ldrd	r2, [r3]
 1353 00f2 FFF7FEFF 		bl	__aeabi_ddiv
 1354 00f6 FFF7FEFF 		bl	__aeabi_d2f
 1355 00fa FFF7FEFF 		bl	__aeabi_f2d
 1356 00fe CDE90001 		strd	r0, [sp]
 1357 0102 7042     		negs	r0, r6
 1358 0104 FFF7FEFF 		bl	__aeabi_i2f
 1359 0108 FFF7FEFF 		bl	__aeabi_f2d
 1360 010c 5AA3     		adr	r3, .L78
 1361 010e D3E90023 		ldrd	r2, [r3]
ARM GAS  /tmp/ccPmbHTh.s 			page 25


 1362 0112 FFF7FEFF 		bl	__aeabi_ddiv
 1363 0116 FFF7FEFF 		bl	__aeabi_d2f
 1364 011a FFF7FEFF 		bl	__aeabi_f2d
 1365 011e 40F20002 		movw	r2, #:lower16:.LC7
 1366 0122 C0F20002 		movt	r2, #:upper16:.LC7
 1367 0126 CDE90201 		strd	r0, [sp, #8]
 1368 012a 0121     		movs	r1, #1
 1369 012c 0020     		movs	r0, #0
 1370 012e FFF7FEFF 		bl	vexLcdPrintf
 1371              		.loc 2 90 0
 1372 0132 0620     		movs	r0, #6
 1373 0134 FFF7FEFF 		bl	vexImeMotorGetCount
 1374 0138 8346     		mov	fp, r0
 1375 013a 0320     		movs	r0, #3
 1376 013c FFF7FEFF 		bl	vexImeMotorGetCount
 1377 0140 0646     		mov	r6, r0
 1378 0142 5846     		mov	r0, fp
 1379 0144 FFF7FEFF 		bl	__aeabi_i2f
 1380 0148 FFF7FEFF 		bl	__aeabi_f2d
 1381 014c 4AA3     		adr	r3, .L78
 1382 014e D3E90023 		ldrd	r2, [r3]
 1383 0152 FFF7FEFF 		bl	__aeabi_ddiv
 1384 0156 FFF7FEFF 		bl	__aeabi_d2f
 1385 015a FFF7FEFF 		bl	__aeabi_f2d
 1386 015e CDE90001 		strd	r0, [sp]
 1387 0162 7042     		negs	r0, r6
 1388 0164 FFF7FEFF 		bl	__aeabi_i2f
 1389 0168 FFF7FEFF 		bl	__aeabi_f2d
 1390 016c 42A3     		adr	r3, .L78
 1391 016e D3E90023 		ldrd	r2, [r3]
 1392 0172 FFF7FEFF 		bl	__aeabi_ddiv
 1393 0176 FFF7FEFF 		bl	__aeabi_d2f
 1394 017a FFF7FEFF 		bl	__aeabi_f2d
 1395 017e 40F20002 		movw	r2, #:lower16:.LC7
 1396 0182 CDE90201 		strd	r0, [sp, #8]
 1397 0186 0120     		movs	r0, #1
 1398 0188 0146     		mov	r1, r0
 1399 018a C0F20002 		movt	r2, #:upper16:.LC7
 1400 018e FFF7FEFF 		bl	vexLcdPrintf
 1401              		.loc 2 92 0
 1402 0192 0620     		movs	r0, #6
 1403 0194 FFF7FEFF 		bl	vexImeMotorGetCount
 1404 0198 FFF7FEFF 		bl	__aeabi_i2f
 1405 019c FFF7FEFF 		bl	__aeabi_f2d
 1406 01a0 35A3     		adr	r3, .L78
 1407 01a2 D3E90023 		ldrd	r2, [r3]
 1408 01a6 FFF7FEFF 		bl	__aeabi_ddiv
 1409 01aa FFF7FEFF 		bl	__aeabi_d2f
 1410 01ae 2146     		mov	r1, r4
 1411 01b0 FFF7FEFF 		bl	__aeabi_fcmpeq
 1412 01b4 B8B1     		cbz	r0, .L70
 1413              		.loc 2 92 0 is_stmt 0 discriminator 1
 1414 01b6 0320     		movs	r0, #3
 1415 01b8 FFF7FEFF 		bl	vexImeMotorGetCount
 1416 01bc 4042     		negs	r0, r0
 1417 01be FFF7FEFF 		bl	__aeabi_i2f
 1418 01c2 FFF7FEFF 		bl	__aeabi_f2d
ARM GAS  /tmp/ccPmbHTh.s 			page 26


 1419 01c6 2CA3     		adr	r3, .L78
 1420 01c8 D3E90023 		ldrd	r2, [r3]
 1421 01cc FFF7FEFF 		bl	__aeabi_ddiv
 1422 01d0 FFF7FEFF 		bl	__aeabi_d2f
 1423 01d4 3946     		mov	r1, r7
 1424 01d6 FFF7FEFF 		bl	__aeabi_fcmpeq
 1425 01da 20B1     		cbz	r0, .L70
 1426              		.loc 2 93 0 is_stmt 1
 1427 01dc 08F10108 		add	r8, r8, #1
 1428              	.LVL108:
 1429              		.loc 2 94 0
 1430 01e0 B8F11E0F 		cmp	r8, #30
 1431 01e4 20DC     		bgt	.L73
 1432              	.L70:
 1433              		.loc 2 98 0
 1434 01e6 0620     		movs	r0, #6
 1435 01e8 FFF7FEFF 		bl	vexImeMotorGetCount
 1436 01ec FFF7FEFF 		bl	__aeabi_i2f
 1437 01f0 FFF7FEFF 		bl	__aeabi_f2d
 1438 01f4 20A3     		adr	r3, .L78
 1439 01f6 D3E90023 		ldrd	r2, [r3]
 1440 01fa FFF7FEFF 		bl	__aeabi_ddiv
 1441 01fe FFF7FEFF 		bl	__aeabi_d2f
 1442 0202 0446     		mov	r4, r0
 1443              	.LVL109:
 1444              		.loc 2 99 0
 1445 0204 0320     		movs	r0, #3
 1446              	.LVL110:
 1447 0206 FFF7FEFF 		bl	vexImeMotorGetCount
 1448 020a 0646     		mov	r6, r0
 1449              	.LVL111:
 1450              		.loc 2 101 0
 1451 020c 2046     		mov	r0, r4
 1452              	.LVL112:
 1453 020e FFF7FEFF 		bl	__aeabi_f2iz
 1454 0212 0028     		cmp	r0, #0
 1455 0214 B8BF     		it	lt
 1456 0216 4042     		rsblt	r0, r0, #0
 1457 0218 FFF7FEFF 		bl	__aeabi_i2f
 1458 021c 2946     		mov	r1, r5
 1459 021e FFF7FEFF 		bl	__aeabi_fcmpgt
 1460 0222 0028     		cmp	r0, #0
 1461 0224 3FF438AF 		beq	.L77
 1462              	.LVL113:
 1463              	.L73:
 1464              		.loc 2 108 0
 1465 0228 0520     		movs	r0, #5
 1466 022a 4946     		mov	r1, r9
 1467 022c FFF7FEFF 		bl	vexMotorSet
 1468              		.loc 2 109 0
 1469 0230 0620     		movs	r0, #6
 1470 0232 4946     		mov	r1, r9
 1471 0234 FFF7FEFF 		bl	vexMotorSet
 1472              		.loc 2 110 0
 1473 0238 0420     		movs	r0, #4
 1474 023a 5146     		mov	r1, sl
 1475 023c FFF7FEFF 		bl	vexMotorSet
ARM GAS  /tmp/ccPmbHTh.s 			page 27


 1476              		.loc 2 111 0
 1477 0240 5146     		mov	r1, sl
 1478 0242 0320     		movs	r0, #3
 1479 0244 FFF7FEFF 		bl	vexMotorSet
 1480              		.loc 2 113 0
 1481 0248 1420     		movs	r0, #20
 1482 024a FFF7FEFF 		bl	vexSleep
 1483              		.loc 2 116 0
 1484 024e 0520     		movs	r0, #5
 1485 0250 0021     		movs	r1, #0
 1486 0252 FFF7FEFF 		bl	vexMotorSet
 1487              		.loc 2 117 0
 1488 0256 0620     		movs	r0, #6
 1489 0258 0021     		movs	r1, #0
 1490 025a FFF7FEFF 		bl	vexMotorSet
 1491              		.loc 2 118 0
 1492 025e 0420     		movs	r0, #4
 1493 0260 0021     		movs	r1, #0
 1494 0262 FFF7FEFF 		bl	vexMotorSet
 1495              		.loc 2 119 0
 1496 0266 0320     		movs	r0, #3
 1497 0268 0021     		movs	r1, #0
 1498              		.loc 2 121 0
 1499 026a 05B0     		add	sp, sp, #20
 1500 026c BDE8F04F 		pop	{r4, r5, r6, r7, r8, r9, sl, fp, lr}
 1501              		.loc 2 119 0
 1502 0270 FFF7FEBF 		b	vexMotorSet
 1503              	.L79:
 1504 0274 AFF30080 		.align	3
 1505              	.L78:
 1506 0278 33333333 		.word	858993459
 1507 027c 33333D40 		.word	1077752627
 1508              		.cfi_endproc
 1509              	.LFE73:
 1510              		.size	autonTurn, .-autonTurn
 1511              		.section	.text.autonArm,"ax",%progbits
 1512              		.align	2
 1513              		.p2align 4,,15
 1514              		.global	autonArm
 1515              		.thumb
 1516              		.thumb_func
 1517              		.type	autonArm, %function
 1518              	autonArm:
 1519              	.LFB74:
 1520              		.loc 2 123 0
 1521              		.cfi_startproc
 1522              		@ args = 0, pretend = 0, frame = 0
 1523              		@ frame_needed = 0, uses_anonymous_args = 0
 1524              		@ link register save eliminated.
 1525              	.LVL114:
 1526              		.loc 2 126 0
 1527 0000 7047     		bx	lr
 1528              		.cfi_endproc
 1529              	.LFE74:
 1530              		.size	autonArm, .-autonArm
 1531 0002 00BFAFF3 		.section	.text.autonIntake,"ax",%progbits
 1531      0080AFF3 
ARM GAS  /tmp/ccPmbHTh.s 			page 28


 1531      0080AFF3 
 1531      0080
 1532              		.align	2
 1533              		.p2align 4,,15
 1534              		.global	autonIntake
 1535              		.thumb
 1536              		.thumb_func
 1537              		.type	autonIntake, %function
 1538              	autonIntake:
 1539              	.LFB75:
 1540              		.loc 2 128 0
 1541              		.cfi_startproc
 1542              		@ args = 0, pretend = 0, frame = 0
 1543              		@ frame_needed = 0, uses_anonymous_args = 0
 1544              		@ link register save eliminated.
 1545              	.LVL115:
 1546              		.loc 2 130 0
 1547 0000 00B2     		sxth	r0, r0
 1548              	.LVL116:
 1549              		.loc 2 132 0
 1550              		.loc 2 130 0
 1551 0002 FFF7FEBF 		b	IntakeSystemControl
 1552              		.cfi_endproc
 1553              	.LFE75:
 1554              		.size	autonIntake, .-autonIntake
 1555 0006 00BFAFF3 		.section	.text.auton0,"ax",%progbits
 1555      0080AFF3 
 1555      0080
 1556              		.align	2
 1557              		.p2align 4,,15
 1558              		.global	auton0
 1559              		.thumb
 1560              		.thumb_func
 1561              		.type	auton0, %function
 1562              	auton0:
 1563              	.LFB76:
 1564              		.loc 2 138 0
 1565              		.cfi_startproc
 1566              		@ args = 0, pretend = 0, frame = 0
 1567              		@ frame_needed = 0, uses_anonymous_args = 0
 1568              	.LVL117:
 1569 0000 08B5     		push	{r3, lr}
 1570              	.LCFI13:
 1571              		.cfi_def_cfa_offset 8
 1572              		.cfi_offset 14, -4
 1573              		.cfi_offset 3, -8
 1574              	.LVL118:
 1575              	.L83:
 1576              		.loc 2 143 0 discriminator 1
 1577 0002 3220     		movs	r0, #50
 1578 0004 FFF7FEFF 		bl	vexSleep
 1579 0008 FBE7     		b	.L83
 1580              		.cfi_endproc
 1581              	.LFE76:
 1582              		.size	auton0, .-auton0
 1583 000a 00BFAFF3 		.section	.text.auton1,"ax",%progbits
 1583      0080
ARM GAS  /tmp/ccPmbHTh.s 			page 29


 1584              		.align	2
 1585              		.p2align 4,,15
 1586              		.global	auton1
 1587              		.thumb
 1588              		.thumb_func
 1589              		.type	auton1, %function
 1590              	auton1:
 1591              	.LFB77:
 1592              		.loc 2 150 0
 1593              		.cfi_startproc
 1594              		@ args = 0, pretend = 0, frame = 0
 1595              		@ frame_needed = 0, uses_anonymous_args = 0
 1596              	.LVL119:
 1597 0000 F8B5     		push	{r3, r4, r5, r6, r7, lr}
 1598              	.LCFI14:
 1599              		.cfi_def_cfa_offset 24
 1600              		.cfi_offset 14, -4
 1601              		.cfi_offset 7, -8
 1602              		.cfi_offset 6, -12
 1603              		.cfi_offset 5, -16
 1604              		.cfi_offset 4, -20
 1605              		.cfi_offset 3, -24
 1606              		.loc 2 150 0
 1607 0002 0546     		mov	r5, r0
 1608              	.LBB66:
 1609              	.LBB67:
 1610              		.loc 2 130 0
 1611 0004 4FF0FF30 		mov	r0, #-1
 1612              	.LVL120:
 1613 0008 FFF7FEFF 		bl	IntakeSystemControl
 1614              	.LBE67:
 1615              	.LBE66:
 1616              		.loc 2 154 0
 1617 000c 1221     		movs	r1, #18
 1618 000e 8020     		movs	r0, #128
 1619 0010 FFF7FEFF 		bl	autonDrive
 1620              		.loc 2 155 0
 1621 0014 FA20     		movs	r0, #250
 1622 0016 FFF7FEFF 		bl	vexSleep
 1623              		.loc 2 156 0
 1624 001a 4020     		movs	r0, #64
 1625 001c 0621     		movs	r1, #6
 1626 001e FFF7FEFF 		bl	autonDrive
 1627              		.loc 2 157 0
 1628 0022 2020     		movs	r0, #32
 1629 0024 0621     		movs	r1, #6
 1630 0026 FFF7FEFF 		bl	autonDrive
 1631              		.loc 2 158 0
 1632 002a 0621     		movs	r1, #6
 1633 002c 2020     		movs	r0, #32
 1634 002e FFF7FEFF 		bl	autonDrive
 1635              	.LVL121:
 1636              	.LBB68:
 1637              	.LBB69:
 1638              		.loc 2 130 0
 1639 0032 0020     		movs	r0, #0
 1640 0034 FFF7FEFF 		bl	IntakeSystemControl
ARM GAS  /tmp/ccPmbHTh.s 			page 30


 1641              	.LBE69:
 1642              	.LBE68:
 1643              		.loc 2 163 0
 1644 0038 0121     		movs	r1, #1
 1645 003a 6FF03F00 		mvn	r0, #63
 1646 003e FFF7FEFF 		bl	autonDrive
 1647              		.loc 2 164 0
 1648 0042 5A21     		movs	r1, #90
 1649 0044 3020     		movs	r0, #48
 1650 0046 01FB05F1 		mul	r1, r1, r5
 1651 004a FFF7FEFF 		bl	autonTurn
 1652              		.loc 2 166 0
 1653 004e 0C21     		movs	r1, #12
 1654 0050 6FF03F00 		mvn	r0, #63
 1655 0054 FFF7FEFF 		bl	autonDrive
 1656              		.loc 2 171 0
 1657 0058 0C21     		movs	r1, #12
 1658 005a 8020     		movs	r0, #128
 1659 005c FFF7FEFF 		bl	autonDrive
 1660              		.loc 2 175 0
 1661 0060 C5EB0514 		rsb	r4, r5, r5, lsl #4
 1662              		.loc 2 172 0
 1663 0064 FA20     		movs	r0, #250
 1664 0066 FFF7FEFF 		bl	vexSleep
 1665              		.loc 2 175 0
 1666 006a 6100     		lsls	r1, r4, #1
 1667 006c 4020     		movs	r0, #64
 1668 006e FFF7FEFF 		bl	autonTurn
 1669              		.loc 2 176 0
 1670 0072 FA20     		movs	r0, #250
 1671 0074 FFF7FEFF 		bl	vexSleep
 1672              	.LVL122:
 1673              	.LBB70:
 1674              	.LBB71:
 1675              		.loc 2 130 0
 1676 0078 0020     		movs	r0, #0
 1677 007a FFF7FEFF 		bl	IntakeSystemControl
 1678              	.LBE71:
 1679              	.LBE70:
 1680              		.loc 2 181 0
 1681 007e 40F20004 		movw	r4, #:lower16:.LANCHOR4
 1682              		.loc 2 179 0
 1683 0082 0C21     		movs	r1, #12
 1684 0084 4020     		movs	r0, #64
 1685              		.loc 2 181 0
 1686 0086 C0F20004 		movt	r4, #:upper16:.LANCHOR4
 1687              		.loc 2 179 0
 1688 008a FFF7FEFF 		bl	autonDrive
 1689              		.loc 2 180 0
 1690 008e 3220     		movs	r0, #50
 1691 0090 FFF7FEFF 		bl	vexSleep
 1692              		.loc 2 181 0
 1693 0094 2388     		ldrh	r3, [r4, #0]
 1694              		.loc 2 182 0
 1695 0096 3020     		movs	r0, #48
 1696              		.loc 2 181 0
 1697 0098 C83B     		subs	r3, r3, #200
ARM GAS  /tmp/ccPmbHTh.s 			page 31


 1698 009a 2380     		strh	r3, [r4, #0]	@ movhi
 1699              		.loc 2 182 0
 1700 009c 0621     		movs	r1, #6
 1701 009e FFF7FEFF 		bl	autonDrive
 1702              		.loc 2 183 0
 1703 00a2 2788     		ldrh	r7, [r4, #0]
 1704              		.loc 2 184 0
 1705 00a4 0621     		movs	r1, #6
 1706              		.loc 2 183 0
 1707 00a6 C83F     		subs	r7, r7, #200
 1708              		.loc 2 184 0
 1709 00a8 3020     		movs	r0, #48
 1710              		.loc 2 183 0
 1711 00aa 2780     		strh	r7, [r4, #0]	@ movhi
 1712              		.loc 2 184 0
 1713 00ac FFF7FEFF 		bl	autonDrive
 1714              		.loc 2 187 0
 1715 00b0 40F20007 		movw	r7, #:lower16:.LANCHOR7
 1716              		.loc 2 185 0
 1717 00b4 FA20     		movs	r0, #250
 1718 00b6 FFF7FEFF 		bl	vexSleep
 1719              		.loc 2 187 0
 1720 00ba C0F20007 		movt	r7, #:upper16:.LANCHOR7
 1721              		.loc 2 186 0
 1722 00be 0C21     		movs	r1, #12
 1723 00c0 6FF03F00 		mvn	r0, #63
 1724 00c4 FFF7FEFF 		bl	autonDrive
 1725              		.loc 2 187 0
 1726 00c8 3A88     		ldrh	r2, [r7, #0]
 1727              		.loc 2 190 0
 1728 00ca 05EB8506 		add	r6, r5, r5, lsl #2
 1729              		.loc 2 187 0
 1730 00ce 2280     		strh	r2, [r4, #0]	@ movhi
 1731              		.loc 2 190 0
 1732 00d0 F100     		lsls	r1, r6, #3
 1733 00d2 4020     		movs	r0, #64
 1734 00d4 FFF7FEFF 		bl	autonTurn
 1735              		.loc 2 191 0
 1736 00d8 FA20     		movs	r0, #250
 1737 00da FFF7FEFF 		bl	vexSleep
 1738              		.loc 2 192 0
 1739 00de 0C21     		movs	r1, #12
 1740 00e0 6FF03F00 		mvn	r0, #63
 1741 00e4 FFF7FEFF 		bl	autonDrive
 1742              		.loc 2 193 0
 1743 00e8 6420     		movs	r0, #100
 1744 00ea FFF7FEFF 		bl	vexSleep
 1745              		.loc 2 197 0
 1746 00ee 40F20006 		movw	r6, #:lower16:.LANCHOR6
 1747              		.loc 2 194 0
 1748 00f2 0621     		movs	r1, #6
 1749 00f4 6FF07F00 		mvn	r0, #127
 1750 00f8 FFF7FEFF 		bl	autonDrive
 1751              		.loc 2 197 0
 1752 00fc C0F20006 		movt	r6, #:upper16:.LANCHOR6
 1753              		.loc 2 195 0
 1754 0100 6420     		movs	r0, #100
ARM GAS  /tmp/ccPmbHTh.s 			page 32


 1755 0102 FFF7FEFF 		bl	vexSleep
 1756              		.loc 2 197 0
 1757 0106 3388     		ldrh	r3, [r6, #0]
 1758              		.loc 2 198 0
 1759 0108 3621     		movs	r1, #54
 1760              		.loc 2 197 0
 1761 010a 03F5967C 		add	ip, r3, #300
 1762 010e A4F800C0 		strh	ip, [r4, #0]	@ movhi
 1763              		.loc 2 198 0
 1764 0112 6020     		movs	r0, #96
 1765 0114 FFF7FEFF 		bl	autonDrive
 1766              		.loc 2 199 0
 1767 0118 3F88     		ldrh	r7, [r7, #0]
 1768              		.loc 2 200 0
 1769 011a 6420     		movs	r0, #100
 1770              		.loc 2 199 0
 1771 011c 2780     		strh	r7, [r4, #0]	@ movhi
 1772              		.loc 2 200 0
 1773 011e FFF7FEFF 		bl	vexSleep
 1774              		.loc 2 202 0
 1775 0122 3021     		movs	r1, #48
 1776 0124 8020     		movs	r0, #128
 1777 0126 FFF7FEFF 		bl	autonDrive
 1778              		.loc 2 203 0
 1779 012a 6420     		movs	r0, #100
 1780 012c FFF7FEFF 		bl	vexSleep
 1781              		.loc 2 205 0
 1782 0130 A800     		lsls	r0, r5, #2
 1783              		.loc 2 204 0
 1784 0132 3688     		ldrh	r6, [r6, #0]
 1785              		.loc 2 205 0
 1786 0134 4142     		negs	r1, r0
 1787 0136 491B     		subs	r1, r1, r5
 1788 0138 4020     		movs	r0, #64
 1789              		.loc 2 204 0
 1790 013a 2680     		strh	r6, [r4, #0]	@ movhi
 1791              		.loc 2 205 0
 1792 013c FFF7FEFF 		bl	autonTurn
 1793              		.loc 2 206 0
 1794 0140 1821     		movs	r1, #24
 1795 0142 8020     		movs	r0, #128
 1796 0144 FFF7FEFF 		bl	autonDrive
 1797              		.loc 2 207 0
 1798 0148 6420     		movs	r0, #100
 1799 014a FFF7FEFF 		bl	vexSleep
 1800              		.loc 2 208 0
 1801 014e 40F20002 		movw	r2, #:lower16:.LANCHOR5
 1802 0152 C0F20002 		movt	r2, #:upper16:.LANCHOR5
 1803 0156 1388     		ldrh	r3, [r2, #0]
 1804              		.loc 2 209 0
 1805 0158 2020     		movs	r0, #32
 1806              		.loc 2 208 0
 1807 015a 2380     		strh	r3, [r4, #0]	@ movhi
 1808              		.loc 2 209 0
 1809 015c 1821     		movs	r1, #24
 1810 015e FFF7FEFF 		bl	autonDrive
 1811              		.loc 2 210 0
ARM GAS  /tmp/ccPmbHTh.s 			page 33


 1812 0162 2020     		movs	r0, #32
 1813 0164 0621     		movs	r1, #6
 1814 0166 FFF7FEFF 		bl	autonDrive
 1815              		.loc 2 211 0
 1816 016a 2020     		movs	r0, #32
 1817 016c 0621     		movs	r1, #6
 1818 016e FFF7FEFF 		bl	autonDrive
 1819              		.loc 2 212 0
 1820 0172 2020     		movs	r0, #32
 1821 0174 0621     		movs	r1, #6
 1822 0176 FFF7FEFF 		bl	autonDrive
 1823              	.LVL123:
 1824              	.LBB72:
 1825              	.LBB73:
 1826              		.loc 2 130 0
 1827 017a 0120     		movs	r0, #1
 1828              	.LBE73:
 1829              	.LBE72:
 1830              		.loc 2 216 0
 1831 017c BDE8F840 		pop	{r3, r4, r5, r6, r7, lr}
 1832              	.LBB75:
 1833              	.LBB74:
 1834              		.loc 2 130 0
 1835 0180 FFF7FEBF 		b	IntakeSystemControl
 1836              	.LBE74:
 1837              	.LBE75:
 1838              		.cfi_endproc
 1839              	.LFE77:
 1840              		.size	auton1, .-auton1
 1841 0184 AFF30080 		.section	.text.auton2,"ax",%progbits
 1841      AFF30080 
 1841      AFF30080 
 1842              		.align	2
 1843              		.p2align 4,,15
 1844              		.global	auton2
 1845              		.thumb
 1846              		.thumb_func
 1847              		.type	auton2, %function
 1848              	auton2:
 1849              	.LFB78:
 1850              		.loc 2 220 0
 1851              		.cfi_startproc
 1852              		@ args = 0, pretend = 0, frame = 0
 1853              		@ frame_needed = 0, uses_anonymous_args = 0
 1854              	.LVL124:
 1855 0000 10B5     		push	{r4, lr}
 1856              	.LCFI15:
 1857              		.cfi_def_cfa_offset 8
 1858              		.cfi_offset 14, -4
 1859              		.cfi_offset 4, -8
 1860              		.loc 2 220 0
 1861 0002 0446     		mov	r4, r0
 1862              	.LBB76:
 1863              	.LBB77:
 1864              		.loc 2 130 0
 1865 0004 4FF0FF30 		mov	r0, #-1
 1866              	.LVL125:
ARM GAS  /tmp/ccPmbHTh.s 			page 34


 1867 0008 FFF7FEFF 		bl	IntakeSystemControl
 1868              	.LBE77:
 1869              	.LBE76:
 1870              		.loc 2 224 0
 1871 000c 1221     		movs	r1, #18
 1872 000e 8020     		movs	r0, #128
 1873 0010 FFF7FEFF 		bl	autonDrive
 1874              		.loc 2 225 0
 1875 0014 FA20     		movs	r0, #250
 1876 0016 FFF7FEFF 		bl	vexSleep
 1877              		.loc 2 226 0
 1878 001a 4020     		movs	r0, #64
 1879 001c 0621     		movs	r1, #6
 1880 001e FFF7FEFF 		bl	autonDrive
 1881              		.loc 2 227 0
 1882 0022 2020     		movs	r0, #32
 1883 0024 0621     		movs	r1, #6
 1884 0026 FFF7FEFF 		bl	autonDrive
 1885              		.loc 2 228 0
 1886 002a 0621     		movs	r1, #6
 1887 002c 2020     		movs	r0, #32
 1888 002e FFF7FEFF 		bl	autonDrive
 1889              	.LVL126:
 1890              	.LBB78:
 1891              	.LBB79:
 1892              		.loc 2 130 0
 1893 0032 0020     		movs	r0, #0
 1894 0034 FFF7FEFF 		bl	IntakeSystemControl
 1895              	.LBE79:
 1896              	.LBE78:
 1897              		.loc 2 233 0
 1898 0038 0121     		movs	r1, #1
 1899 003a 6FF03F00 		mvn	r0, #63
 1900 003e FFF7FEFF 		bl	autonDrive
 1901              		.loc 2 234 0
 1902 0042 5A21     		movs	r1, #90
 1903 0044 3020     		movs	r0, #48
 1904 0046 01FB04F1 		mul	r1, r1, r4
 1905 004a FFF7FEFF 		bl	autonTurn
 1906              		.loc 2 236 0
 1907 004e 0C21     		movs	r1, #12
 1908 0050 6FF03F00 		mvn	r0, #63
 1909 0054 FFF7FEFF 		bl	autonDrive
 1910              		.loc 2 241 0
 1911 0058 0C21     		movs	r1, #12
 1912 005a 8020     		movs	r0, #128
 1913 005c FFF7FEFF 		bl	autonDrive
 1914              		.loc 2 245 0
 1915 0060 C4EB0414 		rsb	r4, r4, r4, lsl #4
 1916              	.LVL127:
 1917              		.loc 2 242 0
 1918 0064 FA20     		movs	r0, #250
 1919 0066 FFF7FEFF 		bl	vexSleep
 1920              		.loc 2 245 0
 1921 006a 6100     		lsls	r1, r4, #1
 1922 006c 4020     		movs	r0, #64
 1923 006e FFF7FEFF 		bl	autonTurn
ARM GAS  /tmp/ccPmbHTh.s 			page 35


 1924              		.loc 2 246 0
 1925 0072 FA20     		movs	r0, #250
 1926 0074 FFF7FEFF 		bl	vexSleep
 1927              	.LVL128:
 1928              	.LBB80:
 1929              	.LBB81:
 1930              		.loc 2 130 0
 1931 0078 0020     		movs	r0, #0
 1932 007a FFF7FEFF 		bl	IntakeSystemControl
 1933              	.LBE81:
 1934              	.LBE80:
 1935              		.loc 2 251 0
 1936 007e 40F20004 		movw	r4, #:lower16:.LANCHOR4
 1937              		.loc 2 249 0
 1938 0082 0C21     		movs	r1, #12
 1939 0084 4020     		movs	r0, #64
 1940              		.loc 2 251 0
 1941 0086 C0F20004 		movt	r4, #:upper16:.LANCHOR4
 1942              		.loc 2 249 0
 1943 008a FFF7FEFF 		bl	autonDrive
 1944              		.loc 2 250 0
 1945 008e 3220     		movs	r0, #50
 1946 0090 FFF7FEFF 		bl	vexSleep
 1947              		.loc 2 251 0
 1948 0094 2388     		ldrh	r3, [r4, #0]
 1949              		.loc 2 252 0
 1950 0096 3020     		movs	r0, #48
 1951              		.loc 2 251 0
 1952 0098 C83B     		subs	r3, r3, #200
 1953 009a 2380     		strh	r3, [r4, #0]	@ movhi
 1954              		.loc 2 252 0
 1955 009c 0621     		movs	r1, #6
 1956 009e FFF7FEFF 		bl	autonDrive
 1957              		.loc 2 253 0
 1958 00a2 2288     		ldrh	r2, [r4, #0]
 1959              		.loc 2 254 0
 1960 00a4 0621     		movs	r1, #6
 1961              		.loc 2 253 0
 1962 00a6 C83A     		subs	r2, r2, #200
 1963 00a8 2280     		strh	r2, [r4, #0]	@ movhi
 1964              		.loc 2 254 0
 1965 00aa 3020     		movs	r0, #48
 1966 00ac FFF7FEFF 		bl	autonDrive
 1967              		.loc 2 255 0
 1968 00b0 FA20     		movs	r0, #250
 1969 00b2 FFF7FEFF 		bl	vexSleep
 1970              		.loc 2 256 0
 1971 00b6 6FF03F00 		mvn	r0, #63
 1972 00ba 0C21     		movs	r1, #12
 1973 00bc FFF7FEFF 		bl	autonDrive
 1974              		.loc 2 257 0
 1975 00c0 40F20000 		movw	r0, #:lower16:.LANCHOR7
 1976 00c4 C0F20000 		movt	r0, #:upper16:.LANCHOR7
 1977 00c8 0388     		ldrh	r3, [r0, #0]
 1978 00ca 2380     		strh	r3, [r4, #0]	@ movhi
 1979              		.loc 2 259 0
 1980 00cc 10BD     		pop	{r4, pc}
ARM GAS  /tmp/ccPmbHTh.s 			page 36


 1981              		.cfi_endproc
 1982              	.LFE78:
 1983              		.size	auton2, .-auton2
 1984 00ce 00BF     		.section	.text.auton3,"ax",%progbits
 1985              		.align	2
 1986              		.p2align 4,,15
 1987              		.global	auton3
 1988              		.thumb
 1989              		.thumb_func
 1990              		.type	auton3, %function
 1991              	auton3:
 1992              	.LFB79:
 1993              		.loc 2 264 0
 1994              		.cfi_startproc
 1995              		@ args = 0, pretend = 0, frame = 0
 1996              		@ frame_needed = 0, uses_anonymous_args = 0
 1997              	.LVL129:
 1998 0000 F8B5     		push	{r3, r4, r5, r6, r7, lr}
 1999              	.LCFI16:
 2000              		.cfi_def_cfa_offset 24
 2001              		.cfi_offset 14, -4
 2002              		.cfi_offset 7, -8
 2003              		.cfi_offset 6, -12
 2004              		.cfi_offset 5, -16
 2005              		.cfi_offset 4, -20
 2006              		.cfi_offset 3, -24
 2007              		.loc 2 264 0
 2008 0002 0546     		mov	r5, r0
 2009              		.loc 2 266 0
 2010 0004 FFF7FEFF 		bl	GetArmPot
 2011              	.LVL130:
 2012              	.LBB82:
 2013              	.LBB83:
 2014              		.loc 1 16 0
 2015 0008 40F20004 		movw	r4, #:lower16:.LANCHOR4
 2016 000c C0F20004 		movt	r4, #:upper16:.LANCHOR4
 2017 0010 2080     		strh	r0, [r4, #0]	@ movhi
 2018              	.LBE83:
 2019              	.LBE82:
 2020              		.loc 2 267 0
 2021 0012 FFF7FEFF 		bl	GetArmPot
 2022              	.LVL131:
 2023              		.loc 2 268 0
 2024 0016 1FFA80FC 		uxth	ip, r0
 2025              		.loc 2 269 0
 2026 001a ACF5BA61 		sub	r1, ip, #1488
 2027              		.loc 2 267 0
 2028 001e 40F20006 		movw	r6, #:lower16:.LANCHOR7
 2029              		.loc 2 268 0
 2030 0022 40F20007 		movw	r7, #:lower16:.LANCHOR6
 2031              		.loc 2 269 0
 2032 0026 40F20003 		movw	r3, #:lower16:.LANCHOR5
 2033              		.loc 2 267 0
 2034 002a 0246     		mov	r2, r0
 2035              		.loc 2 268 0
 2036 002c ACF5487E 		sub	lr, ip, #800
 2037              		.loc 2 269 0
ARM GAS  /tmp/ccPmbHTh.s 			page 37


 2038 0030 C0F20003 		movt	r3, #:upper16:.LANCHOR5
 2039 0034 0C39     		subs	r1, r1, #12
 2040              		.loc 2 267 0
 2041 0036 C0F20006 		movt	r6, #:upper16:.LANCHOR7
 2042              		.loc 2 268 0
 2043 003a C0F20007 		movt	r7, #:upper16:.LANCHOR6
 2044              		.loc 2 267 0
 2045 003e 3280     		strh	r2, [r6, #0]	@ movhi
 2046              		.loc 2 268 0
 2047 0040 A7F800E0 		strh	lr, [r7, #0]	@ movhi
 2048              		.loc 2 269 0
 2049 0044 1980     		strh	r1, [r3, #0]	@ movhi
 2050              		.loc 2 270 0
 2051 0046 6420     		movs	r0, #100
 2052 0048 FFF7FEFF 		bl	vexSleep
 2053              		.loc 2 272 0
 2054 004c 3F88     		ldrh	r7, [r7, #0]
 2055              	.LBB84:
 2056              	.LBB85:
 2057              		.loc 2 130 0
 2058 004e 0020     		movs	r0, #0
 2059              	.LBE85:
 2060              	.LBE84:
 2061              		.loc 2 272 0
 2062 0050 2780     		strh	r7, [r4, #0]	@ movhi
 2063              	.LVL132:
 2064              	.LBB87:
 2065              	.LBB86:
 2066              		.loc 2 130 0
 2067 0052 FFF7FEFF 		bl	IntakeSystemControl
 2068              	.LBE86:
 2069              	.LBE87:
 2070              		.loc 2 274 0
 2071 0056 4FF4FA70 		mov	r0, #500
 2072 005a FFF7FEFF 		bl	vexSleep
 2073              		.loc 2 276 0
 2074 005e 1821     		movs	r1, #24
 2075 0060 4020     		movs	r0, #64
 2076 0062 FFF7FEFF 		bl	autonDrive
 2077              		.loc 2 277 0
 2078 0066 C820     		movs	r0, #200
 2079 0068 FFF7FEFF 		bl	vexSleep
 2080              		.loc 2 278 0
 2081 006c 1821     		movs	r1, #24
 2082 006e 6FF03F00 		mvn	r0, #63
 2083 0072 FFF7FEFF 		bl	autonDrive
 2084              		.loc 2 279 0
 2085 0076 C820     		movs	r0, #200
 2086 0078 FFF7FEFF 		bl	vexSleep
 2087              		.loc 2 281 0
 2088 007c A5EB0510 		sub	r0, r5, r5, lsl #4
 2089 0080 4100     		lsls	r1, r0, #1
 2090 0082 4020     		movs	r0, #64
 2091 0084 FFF7FEFF 		bl	autonTurn
 2092              		.loc 2 282 0
 2093 0088 C820     		movs	r0, #200
 2094 008a FFF7FEFF 		bl	vexSleep
ARM GAS  /tmp/ccPmbHTh.s 			page 38


 2095              		.loc 2 284 0
 2096 008e 2421     		movs	r1, #36
 2097 0090 4020     		movs	r0, #64
 2098 0092 FFF7FEFF 		bl	autonDrive
 2099              		.loc 2 285 0
 2100 0096 C820     		movs	r0, #200
 2101 0098 FFF7FEFF 		bl	vexSleep
 2102              		.loc 2 286 0
 2103 009c 0C21     		movs	r1, #12
 2104 009e 6FF03F00 		mvn	r0, #63
 2105 00a2 FFF7FEFF 		bl	autonDrive
 2106              		.loc 2 287 0
 2107 00a6 3688     		ldrh	r6, [r6, #0]
 2108              		.loc 2 288 0
 2109 00a8 C820     		movs	r0, #200
 2110              		.loc 2 287 0
 2111 00aa 2680     		strh	r6, [r4, #0]	@ movhi
 2112              		.loc 2 288 0
 2113 00ac FFF7FEFF 		bl	vexSleep
 2114              		.loc 2 290 0
 2115 00b0 05EB8501 		add	r1, r5, r5, lsl #2
 2116 00b4 C1EBC101 		rsb	r1, r1, r1, lsl #3
 2117 00b8 4020     		movs	r0, #64
 2118 00ba FFF7FEFF 		bl	autonTurn
 2119              		.loc 2 291 0
 2120 00be C820     		movs	r0, #200
 2121 00c0 FFF7FEFF 		bl	vexSleep
 2122              		.loc 2 293 0
 2123 00c4 4020     		movs	r0, #64
 2124 00c6 1821     		movs	r1, #24
 2125 00c8 FFF7FEFF 		bl	autonDrive
 2126              	.LVL133:
 2127              	.LBB88:
 2128              	.LBB89:
 2129              		.loc 2 130 0
 2130 00cc 0120     		movs	r0, #1
 2131 00ce FFF7FEFF 		bl	IntakeSystemControl
 2132              	.LBE89:
 2133              	.LBE88:
 2134              		.loc 2 296 0
 2135 00d2 6420     		movs	r0, #100
 2136              		.loc 2 298 0
 2137 00d4 BDE8F840 		pop	{r3, r4, r5, r6, r7, lr}
 2138              		.loc 2 296 0
 2139 00d8 FFF7FEBF 		b	vexSleep
 2140              		.cfi_endproc
 2141              	.LFE79:
 2142              		.size	auton3, .-auton3
 2143 00dc AFF30080 		.section	.text.autonRun,"ax",%progbits
 2144              		.align	2
 2145              		.p2align 4,,15
 2146              		.global	autonRun
 2147              		.thumb
 2148              		.thumb_func
 2149              		.type	autonRun, %function
 2150              	autonRun:
 2151              	.LFB81:
ARM GAS  /tmp/ccPmbHTh.s 			page 39


 2152              		.loc 2 361 0
 2153              		.cfi_startproc
 2154              		@ args = 0, pretend = 0, frame = 0
 2155              		@ frame_needed = 0, uses_anonymous_args = 0
 2156              	.LVL134:
 2157 0000 F0B5     		push	{r4, r5, r6, r7, lr}
 2158              	.LCFI17:
 2159              		.cfi_def_cfa_offset 20
 2160              		.cfi_offset 14, -4
 2161              		.cfi_offset 7, -8
 2162              		.cfi_offset 6, -12
 2163              		.cfi_offset 5, -16
 2164              		.cfi_offset 4, -20
 2165              		.loc 2 367 0
 2166 0002 40F20000 		movw	r0, #:lower16:.LC9
 2167              	.LVL135:
 2168              		.loc 2 361 0
 2169 0006 83B0     		sub	sp, sp, #12
 2170              	.LCFI18:
 2171              		.cfi_def_cfa_offset 32
 2172              		.loc 2 367 0
 2173 0008 C0F20000 		movt	r0, #:upper16:.LC9
 2174 000c FFF7FEFF 		bl	vexTaskRegister
 2175              		.loc 2 370 0
 2176 0010 0020     		movs	r0, #0
 2177 0012 40F20002 		movw	r2, #:lower16:.LC10
 2178 0016 0146     		mov	r1, r0
 2179 0018 C0F20002 		movt	r2, #:upper16:.LC10
 2180 001c FFF7FEFF 		bl	vexLcdPrintf
 2181              		.loc 2 373 0
 2182 0020 40F20004 		movw	r4, #:lower16:.LANCHOR3
 2183              		.loc 2 371 0
 2184 0024 40F20002 		movw	r2, #:lower16:.LC10
 2185 0028 0120     		movs	r0, #1
 2186 002a 0021     		movs	r1, #0
 2187              		.loc 2 373 0
 2188 002c C0F20004 		movt	r4, #:upper16:.LANCHOR3
 2189              		.loc 2 371 0
 2190 0030 C0F20002 		movt	r2, #:upper16:.LC10
 2191              		.loc 2 373 0
 2192 0034 40F20005 		movw	r5, #:lower16:.LANCHOR1
 2193              		.loc 2 371 0
 2194 0038 FFF7FEFF 		bl	vexLcdPrintf
 2195              		.loc 2 373 0
 2196 003c C0F20005 		movt	r5, #:upper16:.LANCHOR1
 2197 0040 B4F90010 		ldrsh	r1, [r4, #0]
 2198 0044 40F20006 		movw	r6, #:lower16:.LANCHOR2
 2199 0048 B5F90000 		ldrsh	r0, [r5, #0]
 2200 004c C0F20006 		movt	r6, #:upper16:.LANCHOR2
 2201 0050 40F20007 		movw	r7, #:lower16:.LANCHOR0
 2202 0054 56F821E0 		ldr	lr, [r6, r1, lsl #2]
 2203 0058 C0F20007 		movt	r7, #:upper16:.LANCHOR0
 2204 005c 40F20002 		movw	r2, #:lower16:.LC11
 2205 0060 57F82030 		ldr	r3, [r7, r0, lsl #2]
 2206 0064 0121     		movs	r1, #1
 2207 0066 0020     		movs	r0, #0
 2208 0068 C0F20002 		movt	r2, #:upper16:.LC11
ARM GAS  /tmp/ccPmbHTh.s 			page 40


 2209 006c CDF800E0 		str	lr, [sp, #0]
 2210 0070 FFF7FEFF 		bl	vexLcdPrintf
 2211              		.loc 2 374 0
 2212 0074 B4F90020 		ldrsh	r2, [r4, #0]
 2213 0078 B5F90030 		ldrsh	r3, [r5, #0]
 2214 007c 0120     		movs	r0, #1
 2215 007e 56F82260 		ldr	r6, [r6, r2, lsl #2]
 2216 0082 40F20002 		movw	r2, #:lower16:.LC11
 2217 0086 57F82330 		ldr	r3, [r7, r3, lsl #2]
 2218 008a 0146     		mov	r1, r0
 2219 008c C0F20002 		movt	r2, #:upper16:.LC11
 2220 0090 0096     		str	r6, [sp, #0]
 2221 0092 FFF7FEFF 		bl	vexLcdPrintf
 2222              		.loc 2 376 0
 2223 0096 B5F90000 		ldrsh	r0, [r5, #0]
 2224              		.loc 2 380 0
 2225 009a B4F90030 		ldrsh	r3, [r4, #0]
 2226              		.loc 2 365 0
 2227 009e 0028     		cmp	r0, #0
 2228 00a0 0CBF     		ite	eq
 2229 00a2 4FF0FF30 		moveq	r0, #-1
 2230 00a6 0120     		movne	r0, #1
 2231              	.LVL136:
 2232              		.loc 2 380 0
 2233 00a8 022B     		cmp	r3, #2
 2234 00aa 12D0     		beq	.L91
 2235 00ac 032B     		cmp	r3, #3
 2236 00ae 0DD0     		beq	.L92
 2237 00b0 012B     		cmp	r3, #1
 2238 00b2 06D0     		beq	.L96
 2239              	.LVL137:
 2240              	.L95:
 2241              	.LBB90:
 2242              	.LBB91:
 2243              		.loc 2 143 0
 2244 00b4 3220     		movs	r0, #50
 2245 00b6 FFF7FEFF 		bl	vexSleep
 2246 00ba 3220     		movs	r0, #50
 2247 00bc FFF7FEFF 		bl	vexSleep
 2248 00c0 F8E7     		b	.L95
 2249              	.LVL138:
 2250              	.L96:
 2251              	.LBE91:
 2252              	.LBE90:
 2253              		.loc 2 382 0
 2254 00c2 FFF7FEFF 		bl	auton1
 2255              	.LVL139:
 2256              	.L93:
 2257              		.loc 2 397 0
 2258 00c6 0020     		movs	r0, #0
 2259 00c8 03B0     		add	sp, sp, #12
 2260 00ca F0BD     		pop	{r4, r5, r6, r7, pc}
 2261              	.LVL140:
 2262              	.L92:
 2263              		.loc 2 388 0
 2264 00cc FFF7FEFF 		bl	auton3
 2265              	.LVL141:
ARM GAS  /tmp/ccPmbHTh.s 			page 41


 2266              		.loc 2 389 0
 2267 00d0 F9E7     		b	.L93
 2268              	.LVL142:
 2269              	.L91:
 2270              		.loc 2 385 0
 2271 00d2 FFF7FEFF 		bl	auton2
 2272              	.LVL143:
 2273              		.loc 2 386 0
 2274 00d6 F6E7     		b	.L93
 2275              		.cfi_endproc
 2276              	.LFE81:
 2277              		.size	autonRun, .-autonRun
 2278 00d8 AFF30080 		.section	.text.vexUserSetup,"ax",%progbits
 2278      AFF30080 
 2279              		.align	2
 2280              		.p2align 4,,15
 2281              		.weak	vexUserSetup
 2282              		.thumb
 2283              		.thumb_func
 2284              		.type	vexUserSetup, %function
 2285              	vexUserSetup:
 2286              	.LFB82:
 2287              		.file 5 "vexuser.c"
 2288              		.loc 5 72 0
 2289              		.cfi_startproc
 2290              		@ args = 0, pretend = 0, frame = 0
 2291              		@ frame_needed = 0, uses_anonymous_args = 0
 2292              		.loc 5 73 0
 2293 0000 40F20000 		movw	r0, #:lower16:.LANCHOR10
 2294 0004 0C21     		movs	r1, #12
 2295              		.loc 5 72 0
 2296 0006 08B5     		push	{r3, lr}
 2297              	.LCFI19:
 2298              		.cfi_def_cfa_offset 8
 2299              		.cfi_offset 14, -4
 2300              		.cfi_offset 3, -8
 2301              		.loc 5 73 0
 2302 0008 C0F20000 		movt	r0, #:upper16:.LANCHOR10
 2303 000c FFF7FEFF 		bl	vexDigitalConfigure
 2304              		.loc 5 74 0
 2305 0010 40F20000 		movw	r0, #:lower16:.LANCHOR11
 2306 0014 C0F20000 		movt	r0, #:upper16:.LANCHOR11
 2307 0018 0A21     		movs	r1, #10
 2308              		.loc 5 75 0
 2309 001a BDE80840 		pop	{r3, lr}
 2310              		.loc 5 74 0
 2311 001e FFF7FEBF 		b	vexMotorConfigure
 2312              		.cfi_endproc
 2313              	.LFE82:
 2314              		.size	vexUserSetup, .-vexUserSetup
 2315 0022 00BFAFF3 		.section	.text.vexUserInit,"ax",%progbits
 2315      0080AFF3 
 2315      0080AFF3 
 2315      0080
 2316              		.align	2
 2317              		.p2align 4,,15
 2318              		.weak	vexUserInit
ARM GAS  /tmp/ccPmbHTh.s 			page 42


 2319              		.thumb
 2320              		.thumb_func
 2321              		.type	vexUserInit, %function
 2322              	vexUserInit:
 2323              	.LFB83:
 2324              		.loc 5 85 0
 2325              		.cfi_startproc
 2326              		@ args = 0, pretend = 0, frame = 0
 2327              		@ frame_needed = 0, uses_anonymous_args = 0
 2328 0000 08B5     		push	{r3, lr}
 2329              	.LCFI20:
 2330              		.cfi_def_cfa_offset 8
 2331              		.cfi_offset 14, -4
 2332              		.cfi_offset 3, -8
 2333              		.loc 5 86 0
 2334 0002 0020     		movs	r0, #0
 2335 0004 FFF7FEFF 		bl	vexAdcGet
 2336 0008 40F20001 		movw	r1, #:lower16:.LANCHOR8
 2337 000c C0F20001 		movt	r1, #:upper16:.LANCHOR8
 2338 0010 0880     		strh	r0, [r1, #0]	@ movhi
 2339              		.loc 5 87 0
 2340 0012 FFF7FEFF 		bl	vexGyroInit
 2341              		.loc 5 90 0
 2342 0016 FFF7FEFF 		bl	GetArmPot
 2343              	.LVL144:
 2344              	.LBB92:
 2345              	.LBB93:
 2346              		.loc 1 16 0
 2347 001a 40F20003 		movw	r3, #:lower16:.LANCHOR4
 2348 001e C0F20003 		movt	r3, #:upper16:.LANCHOR4
 2349 0022 1880     		strh	r0, [r3, #0]	@ movhi
 2350              	.LBE93:
 2351              	.LBE92:
 2352              		.loc 5 93 0
 2353 0024 40F20000 		movw	r0, #:lower16:autonSelect
 2354              	.LVL145:
 2355 0028 C0F20000 		movt	r0, #:upper16:autonSelect
 2356 002c 4021     		movs	r1, #64
 2357              		.loc 5 95 0
 2358 002e BDE80840 		pop	{r3, lr}
 2359              		.loc 5 93 0
 2360 0032 FFF7FEBF 		b	StartTaskWithPriority
 2361              	.LVL146:
 2362              		.cfi_endproc
 2363              	.LFE83:
 2364              		.size	vexUserInit, .-vexUserInit
 2365 0036 00BFAFF3 		.section	.text.vexAutonomous,"ax",%progbits
 2365      0080AFF3 
 2365      0080
 2366              		.align	2
 2367              		.p2align 4,,15
 2368              		.global	vexAutonomous
 2369              		.thumb
 2370              		.thumb_func
 2371              		.type	vexAutonomous, %function
 2372              	vexAutonomous:
 2373              	.LFB84:
ARM GAS  /tmp/ccPmbHTh.s 			page 43


 2374              		.loc 5 103 0
 2375              		.cfi_startproc
 2376              		@ args = 0, pretend = 0, frame = 0
 2377              		@ frame_needed = 0, uses_anonymous_args = 0
 2378              	.LVL147:
 2379              		.loc 5 107 0
 2380 0000 40F20000 		movw	r0, #:lower16:.LC12
 2381              	.LVL148:
 2382              		.loc 5 103 0
 2383 0004 08B5     		push	{r3, lr}
 2384              	.LCFI21:
 2385              		.cfi_def_cfa_offset 8
 2386              		.cfi_offset 14, -4
 2387              		.cfi_offset 3, -8
 2388              		.loc 5 107 0
 2389 0006 C0F20000 		movt	r0, #:upper16:.LC12
 2390 000a FFF7FEFF 		bl	vexTaskRegister
 2391              		.loc 5 110 0
 2392 000e 40F20000 		movw	r0, #:lower16:ArmPidController
 2393 0012 4021     		movs	r1, #64
 2394 0014 C0F20000 		movt	r0, #:upper16:ArmPidController
 2395 0018 FFF7FEFF 		bl	StartTaskWithPriority
 2396              		.loc 5 112 0
 2397 001c 40F20000 		movw	r0, #:lower16:autonRun
 2398 0020 C0F20000 		movt	r0, #:upper16:autonRun
 2399 0024 4021     		movs	r1, #64
 2400 0026 FFF7FEFF 		bl	StartTaskWithPriority
 2401              	.L100:
 2402              		.loc 5 116 0
 2403 002a FFF7FEFF 		bl	vexControllerCompetitonState
 2404              		.loc 5 121 0
 2405 002e 1920     		movs	r0, #25
 2406 0030 FFF7FEFF 		bl	vexSleep
 2407 0034 F9E7     		b	.L100
 2408              		.cfi_endproc
 2409              	.LFE84:
 2410              		.size	vexAutonomous, .-vexAutonomous
 2411              		.global	__aeabi_ui2d
 2412 0036 00BFAFF3 		.section	.text.vexOperator,"ax",%progbits
 2412      0080AFF3 
 2412      0080
 2413              		.align	2
 2414              		.p2align 4,,15
 2415              		.global	vexOperator
 2416              		.thumb
 2417              		.thumb_func
 2418              		.type	vexOperator, %function
 2419              	vexOperator:
 2420              	.LFB85:
 2421              		.loc 5 133 0
 2422              		.cfi_startproc
 2423              		@ args = 0, pretend = 0, frame = 0
 2424              		@ frame_needed = 0, uses_anonymous_args = 0
 2425              	.LVL149:
 2426 0000 2DE9F041 		push	{r4, r5, r6, r7, r8, lr}
 2427              	.LCFI22:
 2428              		.cfi_def_cfa_offset 24
ARM GAS  /tmp/ccPmbHTh.s 			page 44


 2429              		.cfi_offset 14, -4
 2430              		.cfi_offset 8, -8
 2431              		.cfi_offset 7, -12
 2432              		.cfi_offset 6, -16
 2433              		.cfi_offset 5, -20
 2434              		.cfi_offset 4, -24
 2435              		.loc 5 139 0
 2436 0004 40F20000 		movw	r0, #:lower16:.LC13
 2437              	.LVL150:
 2438              		.loc 5 133 0
 2439 0008 84B0     		sub	sp, sp, #16
 2440              	.LCFI23:
 2441              		.cfi_def_cfa_offset 40
 2442              		.loc 5 139 0
 2443 000a C0F20000 		movt	r0, #:upper16:.LC13
 2444 000e FFF7FEFF 		bl	vexTaskRegister
 2445              		.loc 5 142 0
 2446 0012 40F20000 		movw	r0, #:lower16:ArmPidController
 2447 0016 4021     		movs	r1, #64
 2448 0018 C0F20000 		movt	r0, #:upper16:ArmPidController
 2449 001c FFF7FEFF 		bl	StartTaskWithPriority
 2450              		.loc 5 143 0
 2451 0020 40F20000 		movw	r0, #:lower16:ArmTask
 2452 0024 4021     		movs	r1, #64
 2453 0026 C0F20000 		movt	r0, #:upper16:ArmTask
 2454 002a FFF7FEFF 		bl	StartTaskWithPriority
 2455              		.loc 5 144 0
 2456 002e 40F20000 		movw	r0, #:lower16:IntakeTask
 2457 0032 4021     		movs	r1, #64
 2458 0034 C0F20000 		movt	r0, #:upper16:IntakeTask
 2459 0038 FFF7FEFF 		bl	StartTaskWithPriority
 2460              		.loc 5 148 0
 2461 003c 40F20007 		movw	r7, #:lower16:rlist
 2462              		.loc 5 145 0
 2463 0040 40F20000 		movw	r0, #:lower16:DriveTask
 2464 0044 4021     		movs	r1, #64
 2465 0046 C0F20000 		movt	r0, #:upper16:DriveTask
 2466              		.loc 5 148 0
 2467 004a C0F20007 		movt	r7, #:upper16:rlist
 2468              		.loc 5 145 0
 2469 004e FFF7FEFF 		bl	StartTaskWithPriority
 2470              		.loc 5 148 0
 2471 0052 BB69     		ldr	r3, [r7, #24]
 2472 0054 5C7F     		ldrb	r4, [r3, #29]	@ zero_extendqisi2
 2473 0056 14F00404 		ands	r4, r4, #4
 2474 005a 40F0AF80 		bne	.L102
 2475 005e 40F20005 		movw	r5, #:lower16:vtlist
 2476 0062 C0F20005 		movt	r5, #:upper16:vtlist
 2477 0066 8CE0     		b	.L105
 2478              	.LVL151:
 2479              	.L103:
 2480              		.loc 5 157 0
 2481 0068 0820     		movs	r0, #8
 2482 006a 0021     		movs	r1, #0
 2483 006c FFF7FEFF 		bl	vexDigitalPinSet
 2484              		.loc 5 158 0
 2485 0070 0920     		movs	r0, #9
ARM GAS  /tmp/ccPmbHTh.s 			page 45


 2486 0072 0021     		movs	r1, #0
 2487 0074 FFF7FEFF 		bl	vexDigitalPinSet
 2488              	.L104:
 2489              		.loc 5 162 0
 2490 0078 FFF7FEFF 		bl	vexSpiGetMainBattery
 2491 007c FFF7FEFF 		bl	__aeabi_i2d
 2492 0080 51A3     		adr	r3, .L107
 2493 0082 D3E90023 		ldrd	r2, [r3]
 2494 0086 FFF7FEFF 		bl	__aeabi_ddiv
 2495 008a EB68     		ldr	r3, [r5, #12]
 2496 008c CDE90001 		strd	r0, [sp]
 2497 0090 1846     		mov	r0, r3
 2498 0092 FFF7FEFF 		bl	__aeabi_ui2d
 2499 0096 4CA3     		adr	r3, .L107
 2500 0098 D3E90023 		ldrd	r2, [r3]
 2501 009c FFF7FEFF 		bl	__aeabi_ddiv
 2502 00a0 40F20002 		movw	r2, #:lower16:.LC14
 2503 00a4 CDE90201 		strd	r0, [sp, #8]
 2504 00a8 0020     		movs	r0, #0
 2505 00aa 0146     		mov	r1, r0
 2506 00ac C0F20002 		movt	r2, #:upper16:.LC14
 2507 00b0 FFF7FEFF 		bl	vexLcdPrintf
 2508              		.loc 5 163 0
 2509 00b4 0620     		movs	r0, #6
 2510 00b6 FFF7FEFF 		bl	vexImeMotorGetCount
 2511 00ba 0646     		mov	r6, r0
 2512 00bc 0320     		movs	r0, #3
 2513 00be FFF7FEFF 		bl	vexImeMotorGetCount
 2514 00c2 40F20002 		movw	r2, #:lower16:.LC15
 2515 00c6 3346     		mov	r3, r6
 2516 00c8 C0F20002 		movt	r2, #:upper16:.LC15
 2517 00cc 0121     		movs	r1, #1
 2518 00ce 4642     		negs	r6, r0
 2519 00d0 0020     		movs	r0, #0
 2520 00d2 0096     		str	r6, [sp, #0]
 2521 00d4 FFF7FEFF 		bl	vexLcdPrintf
 2522              		.loc 5 165 0
 2523 00d8 FFF7FEFF 		bl	vexSpiGetMainBattery
 2524 00dc FFF7FEFF 		bl	__aeabi_i2d
 2525 00e0 39A3     		adr	r3, .L107
 2526 00e2 D3E90023 		ldrd	r2, [r3]
 2527 00e6 FFF7FEFF 		bl	__aeabi_ddiv
 2528 00ea EB68     		ldr	r3, [r5, #12]
 2529 00ec CDE90001 		strd	r0, [sp]
 2530 00f0 1846     		mov	r0, r3
 2531 00f2 FFF7FEFF 		bl	__aeabi_ui2d
 2532 00f6 34A3     		adr	r3, .L107
 2533 00f8 D3E90023 		ldrd	r2, [r3]
 2534 00fc FFF7FEFF 		bl	__aeabi_ddiv
 2535 0100 40F20002 		movw	r2, #:lower16:.LC14
 2536 0104 C0F20002 		movt	r2, #:upper16:.LC14
 2537 0108 CDE90201 		strd	r0, [sp, #8]
 2538 010c 0021     		movs	r1, #0
 2539 010e 0120     		movs	r0, #1
 2540 0110 FFF7FEFF 		bl	vexLcdPrintf
 2541              		.loc 5 166 0
 2542 0114 0620     		movs	r0, #6
ARM GAS  /tmp/ccPmbHTh.s 			page 46


 2543 0116 FFF7FEFF 		bl	vexImeMotorGetCount
 2544 011a 8046     		mov	r8, r0
 2545 011c 0320     		movs	r0, #3
 2546 011e FFF7FEFF 		bl	vexImeMotorGetCount
 2547 0122 0646     		mov	r6, r0
 2548 0124 4046     		mov	r0, r8
 2549 0126 FFF7FEFF 		bl	__aeabi_i2f
 2550 012a FFF7FEFF 		bl	__aeabi_f2d
 2551 012e 28A3     		adr	r3, .L107+8
 2552 0130 D3E90023 		ldrd	r2, [r3]
 2553 0134 FFF7FEFF 		bl	__aeabi_ddiv
 2554 0138 FFF7FEFF 		bl	__aeabi_d2f
 2555 013c FFF7FEFF 		bl	__aeabi_f2d
 2556 0140 CDE90001 		strd	r0, [sp]
 2557 0144 7042     		negs	r0, r6
 2558 0146 FFF7FEFF 		bl	__aeabi_i2f
 2559 014a FFF7FEFF 		bl	__aeabi_f2d
 2560 014e 20A3     		adr	r3, .L107+8
 2561 0150 D3E90023 		ldrd	r2, [r3]
 2562 0154 FFF7FEFF 		bl	__aeabi_ddiv
 2563 0158 FFF7FEFF 		bl	__aeabi_d2f
 2564 015c FFF7FEFF 		bl	__aeabi_f2d
 2565 0160 40F20002 		movw	r2, #:lower16:.LC7
 2566 0164 CDE90201 		strd	r0, [sp, #8]
 2567 0168 0120     		movs	r0, #1
 2568 016a 0146     		mov	r1, r0
 2569 016c C0F20002 		movt	r2, #:upper16:.LC7
 2570 0170 FFF7FEFF 		bl	vexLcdPrintf
 2571              		.loc 5 172 0
 2572 0174 1920     		movs	r0, #25
 2573 0176 FFF7FEFF 		bl	vexSleep
 2574              		.loc 5 148 0
 2575 017a BB69     		ldr	r3, [r7, #24]
 2576 017c 5B7F     		ldrb	r3, [r3, #29]	@ zero_extendqisi2
 2577 017e 5907     		lsls	r1, r3, #29
 2578 0180 1CD4     		bmi	.L102
 2579              	.LVL152:
 2580              	.L105:
 2581              		.loc 5 150 0
 2582 0182 621C     		adds	r2, r4, #1
 2583 0184 C4F3C001 		ubfx	r1, r4, #3, #1
 2584 0188 0B20     		movs	r0, #11
 2585 018a 94B2     		uxth	r4, r2
 2586              	.LVL153:
 2587 018c FFF7FEFF 		bl	vexDigitalPinSet
 2588              		.loc 5 153 0
 2589 0190 0820     		movs	r0, #8
 2590 0192 FFF7FEFF 		bl	vexControllerGet
 2591 0196 0128     		cmp	r0, #1
 2592 0198 7FF466AF 		bne	.L103
 2593              		.loc 5 153 0 is_stmt 0 discriminator 1
 2594 019c 0920     		movs	r0, #9
 2595 019e FFF7FEFF 		bl	vexControllerGet
 2596 01a2 0128     		cmp	r0, #1
 2597 01a4 0646     		mov	r6, r0
 2598 01a6 7FF45FAF 		bne	.L103
 2599              		.loc 5 154 0 is_stmt 1
ARM GAS  /tmp/ccPmbHTh.s 			page 47


 2600 01aa 0146     		mov	r1, r0
 2601 01ac 0820     		movs	r0, #8
 2602 01ae FFF7FEFF 		bl	vexDigitalPinSet
 2603              		.loc 5 155 0
 2604 01b2 0920     		movs	r0, #9
 2605 01b4 3146     		mov	r1, r6
 2606 01b6 FFF7FEFF 		bl	vexDigitalPinSet
 2607 01ba 5DE7     		b	.L104
 2608              	.LVL154:
 2609              	.L102:
 2610              		.loc 5 176 0
 2611 01bc 0020     		movs	r0, #0
 2612 01be 04B0     		add	sp, sp, #16
 2613 01c0 BDE8F081 		pop	{r4, r5, r6, r7, r8, pc}
 2614              	.L108:
 2615 01c4 AFF30080 		.align	3
 2616              	.L107:
 2617 01c8 00000000 		.word	0
 2618 01cc 00408F40 		.word	1083129856
 2619 01d0 33333333 		.word	858993459
 2620 01d4 33333D40 		.word	1077752627
 2621              		.cfi_endproc
 2622              	.LFE85:
 2623              		.size	vexOperator, .-vexOperator
 2624              		.global	ProgName
 2625              		.global	n3
 2626              		.global	n2
 2627              		.global	n1
 2628              		.global	n0
 2629              		.global	ColorName
 2630              		.global	c1
 2631              		.global	c0
 2632 01d8 AFF30080 		.section	.data.mConfig,"aw",%progbits
 2632      AFF30080 
 2633              		.align	2
 2634              		.set	.LANCHOR11,. + 0
 2635              		.type	mConfig, %object
 2636              		.size	mConfig, 60
 2637              	mConfig:
 2638 0000 00       		.byte	0
 2639 0001 00       		.byte	0
 2640 0002 01       		.byte	1
 2641 0003 00       		.byte	0
 2642 0004 0000     		.short	0
 2643 0006 01       		.byte	1
 2644 0007 02       		.byte	2
 2645 0008 01       		.byte	1
 2646 0009 00       		.byte	0
 2647 000a 0000     		.short	0
 2648 000c 02       		.byte	2
 2649 000d 02       		.byte	2
 2650 000e 01       		.byte	1
 2651 000f 00       		.byte	0
 2652 0010 0000     		.short	0
 2653 0012 03       		.byte	3
 2654 0013 03       		.byte	3
 2655 0014 01       		.byte	1
ARM GAS  /tmp/ccPmbHTh.s 			page 48


 2656 0015 06       		.byte	6
 2657 0016 0000     		.short	0
 2658 0018 04       		.byte	4
 2659 0019 03       		.byte	3
 2660 001a 01       		.byte	1
 2661 001b 00       		.byte	0
 2662 001c 0000     		.short	0
 2663 001e 05       		.byte	5
 2664 001f 03       		.byte	3
 2665 0020 00       		.byte	0
 2666 0021 00       		.byte	0
 2667 0022 0000     		.short	0
 2668 0024 06       		.byte	6
 2669 0025 03       		.byte	3
 2670 0026 00       		.byte	0
 2671 0027 06       		.byte	6
 2672 0028 0100     		.short	1
 2673 002a 07       		.byte	7
 2674 002b 02       		.byte	2
 2675 002c 00       		.byte	0
 2676 002d 00       		.byte	0
 2677 002e 0000     		.short	0
 2678 0030 08       		.byte	8
 2679 0031 02       		.byte	2
 2680 0032 00       		.byte	0
 2681 0033 00       		.byte	0
 2682 0034 0000     		.short	0
 2683 0036 09       		.byte	9
 2684 0037 00       		.byte	0
 2685 0038 00       		.byte	0
 2686 0039 00       		.byte	0
 2687 003a 0000     		.short	0
 2688              		.section	.bss.armRequestedValue,"aw",%nobits
 2689              		.align	1
 2690              		.set	.LANCHOR4,. + 0
 2691              		.type	armRequestedValue, %object
 2692              		.size	armRequestedValue, 2
 2693              	armRequestedValue:
 2694 0000 0000     		.space	2
 2695              		.section	.bss.gyro_base,"aw",%nobits
 2696              		.align	1
 2697              		.set	.LANCHOR8,. + 0
 2698              		.type	gyro_base, %object
 2699              		.size	gyro_base, 2
 2700              	gyro_base:
 2701 0000 0000     		.space	2
 2702              		.section	.data.armPositionHigh,"aw",%progbits
 2703              		.align	1
 2704              		.set	.LANCHOR5,. + 0
 2705              		.type	armPositionHigh, %object
 2706              		.size	armPositionHigh, 2
 2707              	armPositionHigh:
 2708 0000 FC08     		.short	2300
 2709              		.section	.data.runAutonColor,"aw",%progbits
 2710              		.align	1
 2711              		.set	.LANCHOR1,. + 0
 2712              		.type	runAutonColor, %object
ARM GAS  /tmp/ccPmbHTh.s 			page 49


 2713              		.size	runAutonColor, 2
 2714              	runAutonColor:
 2715 0000 0100     		.short	1
 2716              		.section	.data.n0,"aw",%progbits
 2717              		.align	2
 2718              		.type	n0, %object
 2719              		.size	n0, 5
 2720              	n0:
 2721 0000 4E6F6E65 		.ascii	"None\000"
 2721      00
 2722 0005 000000   		.section	.data.armPositionLow,"aw",%progbits
 2723              		.align	1
 2724              		.set	.LANCHOR7,. + 0
 2725              		.type	armPositionLow, %object
 2726              		.size	armPositionLow, 2
 2727              	armPositionLow:
 2728 0000 D80E     		.short	3800
 2729              		.section	.bss.runAutonProgram,"aw",%nobits
 2730              		.align	1
 2731              		.set	.LANCHOR3,. + 0
 2732              		.type	runAutonProgram, %object
 2733              		.size	runAutonProgram, 2
 2734              	runAutonProgram:
 2735 0000 0000     		.space	2
 2736              		.section	.rodata.str1.4,"aMS",%progbits,1
 2737              		.align	2
 2738              	.LC0:
 2739 0000 6175746F 		.ascii	"autonSelect\000"
 2739      6E53656C 
 2739      65637400 
 2740              	.LC1:
 2741 000c 4175746F 		.ascii	"Auton      %4.2fV\000"
 2741      6E202020 
 2741      20202025 
 2741      342E3266 
 2741      5600
 2742 001e 0000     		.space	2
 2743              	.LC2:
 2744 0020 25733A25 		.ascii	"%s:%s\000"
 2744      7300
 2745 0026 0000     		.space	2
 2746              	.LC3:
 2747 0028 61726D20 		.ascii	"arm pid\000"
 2747      70696400 
 2748              	.LC4:
 2749 0030 6D616E75 		.ascii	"manual arm\000"
 2749      616C2061 
 2749      726D00
 2750 003b 00       		.space	1
 2751              	.LC5:
 2752 003c 496E7461 		.ascii	"Intake task\000"
 2752      6B652074 
 2752      61736B00 
 2753              	.LC6:
 2754 0048 44726976 		.ascii	"Drive task\000"
 2754      65207461 
 2754      736B00
ARM GAS  /tmp/ccPmbHTh.s 			page 50


 2755 0053 00       		.space	1
 2756              	.LC7:
 2757 0054 4C202535 		.ascii	"L %5.2f R %5.2f\000"
 2757      2E326620 
 2757      52202535 
 2757      2E326600 
 2758              	.LC8:
 2759 0064 5475726E 		.ascii	"Turn %f:%d\000"
 2759      2025663A 
 2759      256400
 2760 006f 00       		.space	1
 2761              	.LC9:
 2762 0070 6175746F 		.ascii	"autonRun\000"
 2762      6E52756E 
 2762      00
 2763 0079 000000   		.space	3
 2764              	.LC10:
 2765 007c 4175746F 		.ascii	"Autonomous Mode\000"
 2765      6E6F6D6F 
 2765      7573204D 
 2765      6F646500 
 2766              	.LC11:
 2767 008c 52756E3A 		.ascii	"Run: %s:%s\000"
 2767      2025733A 
 2767      257300
 2768 0097 00       		.space	1
 2769              	.LC12:
 2770 0098 6175746F 		.ascii	"auton\000"
 2770      6E00
 2771 009e 0000     		.space	2
 2772              	.LC13:
 2773 00a0 6F706572 		.ascii	"operator\000"
 2773      61746F72 
 2773      00
 2774 00a9 000000   		.space	3
 2775              	.LC14:
 2776 00ac 25342E32 		.ascii	"%4.2fV   %8.1f\000"
 2776      66562020 
 2776      2025382E 
 2776      316600
 2777 00bb 00       		.space	1
 2778              	.LC15:
 2779 00bc 25352E32 		.ascii	"%5.2f\000"
 2779      6600
 2780 00c2 0000     		.section	.bss.gyro_err,"aw",%nobits
 2781              		.align	2
 2782              		.set	.LANCHOR9,. + 0
 2783              		.type	gyro_err, %object
 2784              		.size	gyro_err, 10
 2785              	gyro_err:
 2786 0000 00000000 		.space	10
 2786      00000000 
 2786      0000
 2787 000a 0000     		.section	.data.n1,"aw",%progbits
 2788              		.align	2
 2789              		.type	n1, %object
 2790              		.size	n1, 6
ARM GAS  /tmp/ccPmbHTh.s 			page 51


 2791              	n1:
 2792 0000 48616E67 		.ascii	"Hang1\000"
 2792      3100
 2793 0006 0000     		.section	.data.n2,"aw",%progbits
 2794              		.align	2
 2795              		.type	n2, %object
 2796              		.size	n2, 6
 2797              	n2:
 2798 0000 48616E67 		.ascii	"Hang2\000"
 2798      3200
 2799 0006 0000     		.section	.data.n3,"aw",%progbits
 2800              		.align	2
 2801              		.type	n3, %object
 2802              		.size	n3, 5
 2803              	n3:
 2804 0000 4D696431 		.ascii	"Mid1\000"
 2804      00
 2805 0005 000000   		.section	.data.ColorName,"aw",%progbits
 2806              		.align	2
 2807              		.set	.LANCHOR0,. + 0
 2808              		.type	ColorName, %object
 2809              		.size	ColorName, 8
 2810              	ColorName:
 2811 0000 00000000 		.word	c0
 2812 0004 00000000 		.word	c1
 2813              		.section	.data.c0,"aw",%progbits
 2814              		.align	2
 2815              		.type	c0, %object
 2816              		.size	c0, 4
 2817              	c0:
 2818 0000 4C667400 		.ascii	"Lft\000"
 2819              		.section	.data.c1,"aw",%progbits
 2820              		.align	2
 2821              		.type	c1, %object
 2822              		.size	c1, 4
 2823              	c1:
 2824 0000 52677400 		.ascii	"Rgt\000"
 2825              		.section	.data.dConfig,"aw",%progbits
 2826              		.align	2
 2827              		.set	.LANCHOR10,. + 0
 2828              		.type	dConfig, %object
 2829              		.size	dConfig, 72
 2830              	dConfig:
 2831 0000 00       		.byte	0
 2832 0001 02       		.byte	2
 2833 0002 01       		.byte	1
 2834 0003 00       		.space	1
 2835 0004 0000     		.short	0
 2836 0006 01       		.byte	1
 2837 0007 02       		.byte	2
 2838 0008 01       		.byte	1
 2839 0009 00       		.space	1
 2840 000a 0000     		.short	0
 2841 000c 02       		.byte	2
 2842 000d 01       		.byte	1
 2843 000e 00       		.byte	0
 2844 000f 00       		.space	1
ARM GAS  /tmp/ccPmbHTh.s 			page 52


 2845 0010 0000     		.short	0
 2846 0012 03       		.byte	3
 2847 0013 01       		.byte	1
 2848 0014 00       		.byte	0
 2849 0015 00       		.space	1
 2850 0016 0000     		.short	0
 2851 0018 04       		.byte	4
 2852 0019 01       		.byte	1
 2853 001a 00       		.byte	0
 2854 001b 00       		.space	1
 2855 001c 0000     		.short	0
 2856 001e 05       		.byte	5
 2857 001f 01       		.byte	1
 2858 0020 00       		.byte	0
 2859 0021 00       		.space	1
 2860 0022 0000     		.short	0
 2861 0024 06       		.byte	6
 2862 0025 01       		.byte	1
 2863 0026 00       		.byte	0
 2864 0027 00       		.space	1
 2865 0028 0000     		.short	0
 2866 002a 07       		.byte	7
 2867 002b 01       		.byte	1
 2868 002c 00       		.byte	0
 2869 002d 00       		.space	1
 2870 002e 0000     		.short	0
 2871 0030 08       		.byte	8
 2872 0031 02       		.byte	2
 2873 0032 01       		.byte	1
 2874 0033 00       		.space	1
 2875 0034 0000     		.short	0
 2876 0036 09       		.byte	9
 2877 0037 02       		.byte	2
 2878 0038 01       		.byte	1
 2879 0039 00       		.space	1
 2880 003a 0000     		.short	0
 2881 003c 0A       		.byte	10
 2882 003d 02       		.byte	2
 2883 003e 01       		.byte	1
 2884 003f 00       		.space	1
 2885 0040 0000     		.short	0
 2886 0042 0B       		.byte	11
 2887 0043 02       		.byte	2
 2888 0044 01       		.byte	1
 2889 0045 00       		.space	1
 2890 0046 0000     		.short	0
 2891              		.section	.data.ProgName,"aw",%progbits
 2892              		.align	2
 2893              		.set	.LANCHOR2,. + 0
 2894              		.type	ProgName, %object
 2895              		.size	ProgName, 16
 2896              	ProgName:
 2897 0000 00000000 		.word	n0
 2898 0004 00000000 		.word	n1
 2899 0008 00000000 		.word	n2
 2900 000c 00000000 		.word	n3
 2901              		.section	.data.armPositionMid,"aw",%progbits
ARM GAS  /tmp/ccPmbHTh.s 			page 53


 2902              		.align	1
 2903              		.set	.LANCHOR6,. + 0
 2904              		.type	armPositionMid, %object
 2905              		.size	armPositionMid, 2
 2906              	armPositionMid:
 2907 0000 B80B     		.short	3000
 2908              		.text
 2909              	.Letext0:
 2910              		.file 6 "/opt/pros/toolchain/bin/../lib/gcc/arm-none-eabi/4.6.3/../../../../arm-none-eabi/include/
 2911              		.file 7 "../ChibiOS_2.6.2/os/ports/GCC/ARMCMx/chtypes.h"
 2912              		.file 8 "../ChibiOS_2.6.2/os/kernel/include/chlists.h"
 2913              		.file 9 "../ChibiOS_2.6.2/os/kernel/include/chthreads.h"
 2914              		.file 10 "../ChibiOS_2.6.2/os/ports/GCC/ARMCMx/chcore_v7m.h"
 2915              		.file 11 "../ChibiOS_2.6.2/os/kernel/include/chvt.h"
 2916              		.file 12 "../ChibiOS_2.6.2/os/kernel/include/chschd.h"
 2917              		.file 13 "../ChibiOS_2.6.2/os/kernel/include/chmtx.h"
 2918              		.file 14 "../convex/cortex/fw/vexanalog.h"
 2919              		.file 15 "../convex/cortex/fw/vexdigital.h"
 2920              		.file 16 "../convex/cortex/fw/vexmotor.h"
 2921              		.file 17 "../convex/cortex/fw/vexime.h"
 2922              		.file 18 "../convex/cortex/fw/vexconfig.h"
 2923              		.file 19 "../convex/cortex/fw/vexlcd.h"
 2924              		.file 20 "../convex/cortex/fw/vexctl.h"
 2925              		.file 21 "../convex/cortex/opt/robotc_glue.h"
 2926              		.file 22 "9999.h"
 2927              		.file 23 "../ChibiOS_2.6.2/os/ports/common/ARMCMx/CMSIS/include/core_cm3.h"